ccopy_reg
_reconstructor
p0
(cpsychopy.data.experiment
ExperimentHandler
p1
c__builtin__
object
p2
Ntp3
Rp4
(dp5
S'originPath'
p6
V/Users/stefano/GitHub/phd-project/italian-egg/experiment/italian-egg.psyexp
p7
sS'dataFileName'
p8
V/Users/stefano/GitHub/phd-project/italian-egg/experiment/results/it07_italian-egg_2018_Aug_20_1741
p9
sS'runtimeInfo'
p10
NsS'name'
p11
S'italian-egg'
p12
sS'dataNames'
p13
(lp14
S'key_resp_2.keys'
p15
aS'key_resp_2.rt'
p16
asS'autoLog'
p17
I01
sS'extraInfo'
p18
(dp19
S'date'
p20
V2018_Aug_20_1741
p21
sS'frameRate'
p22
cnumpy.core.multiarray
scalar
p23
(cnumpy
dtype
p24
(S'f8'
p25
I0
I1
tp26
Rp27
(I3
S'<'
p28
NNNI-1
I-1
I0
tp29
bS'#\x02\xd4\x92\xd4\xe8M@'
p30
tp31
Rp32
sS'expName'
p33
g12
sVparticipant
p34
g0
(cfuture.types.newstr
newstr
p35
c__builtin__
unicode
p36
Vit07
p37
tp38
Rp39
ssS'loopsUnfinished'
p40
(lp41
sS'saveWideText'
p42
I00
sS'thisEntry'
p43
(dp44
sS'version'
p45
S''
p46
sS'_paramNamesSoFar'
p47
(lp48
Vstimulus_id
p49
aVstimulus
p50
aVsentence
p51
aVword
p52
aVconsonant_1
p53
aVvowel
p54
aVconsonant_2
p55
aVbackness
p56
aVheight
p57
aVplace_1
p58
aVplace_2
p59
asS'entries'
p60
(lp61
(dp62
S'trials.thisIndex'
p63
g23
(g24
(S'i8'
p64
I0
I1
tp65
Rp66
(I3
S'<'
p67
NNNI-1
I-1
I0
tp68
bS'P\x00\x00\x00\x00\x00\x00\x00'
p69
tp70
Rp71
sg16
F7.572417974472046
sg22
g32
sg52
Vteto
p72
sg51
VScrivete X sul foglio
p73
sg50
VScrivete "teto" sul foglio
p74
sS'trials.thisRepN'
p75
I0
sg59
Vcoronal
p76
sg55
Vt
p77
sg56
Vfront
p78
sg15
S'space'
p79
sS'trials.thisN'
p80
I0
sg53
g77
sg58
Vcoronal
p81
sg49
g23
(g66
S'Q\x00\x00\x00\x00\x00\x00\x00'
p82
tp83
Rp84
sS'trials.thisTrialN'
p85
I0
sg54
Ve
p86
sg20
g21
sg34
g39
sg57
Vmid-high
p87
sg33
g12
sa(dp88
S'trials.thisIndex'
p89
g23
(g66
S'\x0e\x00\x00\x00\x00\x00\x00\x00'
p90
tp91
Rp92
sg16
F9.939512014389038
sg22
g32
sg52
Vpopo
p93
sg51
VSentivo X di nuovo
p94
sg50
VSentivo "popo" di nuovo
p95
sS'trials.thisRepN'
p96
I0
sg59
Vlabial
p97
sg55
Vp
p98
sg56
Vback
p99
sg15
S'space'
p100
sS'trials.thisN'
p101
I1
sg53
g98
sg58
Vlabial
p102
sg49
g23
(g66
S'\x0f\x00\x00\x00\x00\x00\x00\x00'
p103
tp104
Rp105
sS'trials.thisTrialN'
p106
I1
sg54
Vo
p107
sg20
g21
sg34
g39
sg57
Vmid-low
p108
sg33
g12
sa(dp109
S'trials.thisIndex'
p110
g23
(g66
S'v\x00\x00\x00\x00\x00\x00\x00'
p111
tp112
Rp113
sg16
F2.1360981464385986
sg22
g32
sg52
Vcapo
p114
sg51
g94
sg50
VSentivo "capo" di nuovo
p115
sS'trials.thisRepN'
p116
I0
sg59
g97
sg55
g98
sg56
Vcentral
p117
sg15
S'space'
p118
sS'trials.thisN'
p119
I2
sg53
Vk
p120
sg58
Vvelar
p121
sg49
g23
(g66
S'w\x00\x00\x00\x00\x00\x00\x00'
p122
tp123
Rp124
sS'trials.thisTrialN'
p125
I2
sg54
Va
p126
sg20
g21
sg34
g39
sg57
Vlow
p127
sg33
g12
sa(dp128
S'trials.thisIndex'
p129
g23
(g66
S'2\x00\x00\x00\x00\x00\x00\x00'
p130
tp131
Rp132
sg16
F1.8672728538513184
sg22
g32
sg52
Vpoco
p133
sg51
g94
sg50
VSentivo "poco" di nuovo
p134
sS'trials.thisRepN'
p135
I0
sg59
Vvelar
p136
sg55
g120
sg56
g99
sg15
S'space'
p137
sS'trials.thisN'
p138
I3
sg53
g98
sg58
g102
sg49
g23
(g66
S'3\x00\x00\x00\x00\x00\x00\x00'
p139
tp140
Rp141
sS'trials.thisTrialN'
p142
I3
sg54
g107
sg20
g21
sg34
g39
sg57
g108
sg33
g12
sa(dp143
S'trials.thisIndex'
p144
g23
(g66
S'u\x00\x00\x00\x00\x00\x00\x00'
p145
tp146
Rp147
sg16
F1.9363088607788086
sg22
g32
sg52
g114
sg51
VHa detto X sei volte
p148
sg50
VHa detto "capo" sei volte
p149
sS'trials.thisRepN'
p150
I0
sg59
g97
sg55
g98
sg56
g117
sg15
S'space'
p151
sS'trials.thisN'
p152
I4
sg53
g120
sg58
g121
sg49
g23
(g66
S'v\x00\x00\x00\x00\x00\x00\x00'
p153
tp154
Rp155
sS'trials.thisTrialN'
p156
I4
sg54
g126
sg20
g21
sg34
g39
sg57
g127
sg33
g12
sa(dp157
S'trials.thisIndex'
p158
g23
(g66
S'6\x00\x00\x00\x00\x00\x00\x00'
p159
tp160
Rp161
sg16
F3.0693519115448
sg22
g32
sg52
Vpuco
p162
sg51
g94
sg50
VSentivo "puco" di nuovo
p163
sS'trials.thisRepN'
p164
I0
sg59
g136
sg55
g120
sg56
g99
sg15
S'space'
p165
sS'trials.thisN'
p166
I5
sg53
g98
sg58
g102
sg49
g23
(g66
S'7\x00\x00\x00\x00\x00\x00\x00'
p167
tp168
Rp169
sS'trials.thisTrialN'
p170
I5
sg54
Vu
p171
sg20
g21
sg34
g39
sg57
Vhigh
p172
sg33
g12
sa(dp173
S'trials.thisIndex'
p174
g23
(g66
S'H\x00\x00\x00\x00\x00\x00\x00'
p175
tp176
Rp177
sg16
F1.9884600639343262
sg22
g32
sg52
Vtupo
p178
sg51
g73
sg50
VScrivete "tupo" sul foglio
p179
sS'trials.thisRepN'
p180
I0
sg59
g97
sg55
g98
sg56
g99
sg15
S'space'
p181
sS'trials.thisN'
p182
I6
sg53
g77
sg58
g81
sg49
g23
(g66
S'I\x00\x00\x00\x00\x00\x00\x00'
p183
tp184
Rp185
sS'trials.thisTrialN'
p186
I6
sg54
g171
sg20
g21
sg34
g39
sg57
g172
sg33
g12
sa(dp187
S'trials.thisIndex'
p188
g23
(g66
S'\xa2\x00\x00\x00\x00\x00\x00\x00'
p189
tp190
Rp191
sg16
F2.1345009803771973
sg22
g32
sg52
Vchico
p192
sg51
g94
sg50
VSentivo "chico" di nuovo
p193
sS'trials.thisRepN'
p194
I0
sg59
g136
sg55
g120
sg56
g78
sg15
S'space'
p195
sS'trials.thisN'
p196
I7
sg53
g120
sg58
g121
sg49
g23
(g66
S'\xa3\x00\x00\x00\x00\x00\x00\x00'
p197
tp198
Rp199
sS'trials.thisTrialN'
p200
I7
sg54
Vi
p201
sg20
g21
sg34
g39
sg57
g172
sg33
g12
sa(dp202
S'trials.thisIndex'
p203
g23
(g66
S'f\x00\x00\x00\x00\x00\x00\x00'
p204
tp205
Rp206
sg16
F1.8680942058563232
sg22
g32
sg52
Vteco
p207
sg51
g94
sg50
VSentivo "teco" di nuovo
p208
sS'trials.thisRepN'
p209
I0
sg59
g136
sg55
g120
sg56
g78
sg15
S'space'
p210
sS'trials.thisN'
p211
I8
sg53
g77
sg58
g81
sg49
g23
(g66
S'g\x00\x00\x00\x00\x00\x00\x00'
p212
tp213
Rp214
sS'trials.thisTrialN'
p215
I8
sg54
g86
sg20
g21
sg34
g39
sg57
g87
sg33
g12
sa(dp216
S'trials.thisIndex'
p217
g23
(g66
S'\x17\x00\x00\x00\x00\x00\x00\x00'
p218
tp219
Rp220
sg16
F2.3540220260620117
sg22
g32
sg52
Vpato
p221
sg51
VRipete X da sempre
p222
sg50
VRipete "pato" da sempre
p223
sS'trials.thisRepN'
p224
I0
sg59
g76
sg55
g77
sg56
g117
sg15
S'space'
p225
sS'trials.thisN'
p226
I9
sg53
g98
sg58
g102
sg49
g23
(g66
S'\x18\x00\x00\x00\x00\x00\x00\x00'
p227
tp228
Rp229
sS'trials.thisTrialN'
p230
I9
sg54
g126
sg20
g21
sg34
g39
sg57
g127
sg33
g12
sa(dp231
S'trials.thisIndex'
p232
g23
(g66
S'=\x00\x00\x00\x00\x00\x00\x00'
p233
tp234
Rp235
sg16
F1.935459852218628
sg22
g32
sg52
Vtepo
p236
sg51
g148
sg50
VHa detto "tepo" sei volte
p237
sS'trials.thisRepN'
p238
I0
sg59
g97
sg55
g98
sg56
g78
sg15
S'space'
p239
sS'trials.thisN'
p240
I10
sg53
g77
sg58
g81
sg49
g23
(g66
S'>\x00\x00\x00\x00\x00\x00\x00'
p241
tp242
Rp243
sS'trials.thisTrialN'
p244
I10
sg54
g86
sg20
g21
sg34
g39
sg57
g87
sg33
g12
sa(dp245
S'trials.thisIndex'
p246
g23
(g66
S'I\x00\x00\x00\x00\x00\x00\x00'
p247
tp248
Rp249
sg16
F1.9698591232299805
sg22
g32
sg52
g178
sg51
g148
sg50
VHa detto "tupo" sei volte
p250
sS'trials.thisRepN'
p251
I0
sg59
g97
sg55
g98
sg56
g99
sg15
S'space'
p252
sS'trials.thisN'
p253
I11
sg53
g77
sg58
g81
sg49
g23
(g66
S'J\x00\x00\x00\x00\x00\x00\x00'
p254
tp255
Rp256
sS'trials.thisTrialN'
p257
I11
sg54
g171
sg20
g21
sg34
g39
sg57
g172
sg33
g12
sa(dp258
S'trials.thisIndex'
p259
g23
(g66
S'&\x00\x00\x00\x00\x00\x00\x00'
p260
tp261
Rp262
sg16
F1.9685850143432617
sg22
g32
sg52
Vpaco
p263
sg51
g94
sg50
VSentivo "paco" di nuovo
p264
sS'trials.thisRepN'
p265
I0
sg59
g136
sg55
g120
sg56
g117
sg15
S'space'
p266
sS'trials.thisN'
p267
I12
sg53
g98
sg58
g102
sg49
g23
(g66
S"'\x00\x00\x00\x00\x00\x00\x00"
p268
tp269
Rp270
sS'trials.thisTrialN'
p271
I12
sg54
g126
sg20
g21
sg34
g39
sg57
g127
sg33
g12
sa(dp272
S'trials.thisIndex'
p273
g23
(g66
S'\x12\x00\x00\x00\x00\x00\x00\x00'
p274
tp275
Rp276
sg16
F1.8531458377838135
sg22
g32
sg52
Vpupo
p277
sg51
g94
sg50
VSentivo "pupo" di nuovo
p278
sS'trials.thisRepN'
p279
I0
sg59
g97
sg55
g98
sg56
g99
sg15
S'space'
p280
sS'trials.thisN'
p281
I13
sg53
g98
sg58
g102
sg49
g23
(g66
S'\x13\x00\x00\x00\x00\x00\x00\x00'
p282
tp283
Rp284
sS'trials.thisTrialN'
p285
I13
sg54
g171
sg20
g21
sg34
g39
sg57
g172
sg33
g12
sa(dp286
S'trials.thisIndex'
p287
g23
(g66
S'T\x00\x00\x00\x00\x00\x00\x00'
p288
tp289
Rp290
sg16
F2.002440929412842
sg22
g32
sg52
Vtito
p291
sg51
g73
sg50
VScrivete "tito" sul foglio
p292
sS'trials.thisRepN'
p293
I0
sg59
g76
sg55
g77
sg56
g78
sg15
S'space'
p294
sS'trials.thisN'
p295
I14
sg53
g77
sg58
g81
sg49
g23
(g66
S'U\x00\x00\x00\x00\x00\x00\x00'
p296
tp297
Rp298
sS'trials.thisTrialN'
p299
I14
sg54
g201
sg20
g21
sg34
g39
sg57
g172
sg33
g12
sa(dp300
S'trials.thisIndex'
p301
g23
(g66
S' \x00\x00\x00\x00\x00\x00\x00'
p302
tp303
Rp304
sg16
F1.937912940979004
sg22
g32
sg52
Vputo
p305
sg51
g73
sg50
VScrivete "puto" sul foglio
p306
sS'trials.thisRepN'
p307
I0
sg59
g76
sg55
g77
sg56
g99
sg15
S'space'
p308
sS'trials.thisN'
p309
I15
sg53
g98
sg58
g102
sg49
g23
(g66
S'!\x00\x00\x00\x00\x00\x00\x00'
p310
tp311
Rp312
sS'trials.thisTrialN'
p313
I15
sg54
g171
sg20
g21
sg34
g39
sg57
g172
sg33
g12
sa(dp314
S'trials.thisIndex'
p315
g23
(g66
S'\xa8\x00\x00\x00\x00\x00\x00\x00'
p316
tp317
Rp318
sg16
F2.069730043411255
sg22
g32
sg52
Vcuco
p319
sg51
g73
sg50
VScrivete "cuco" sul foglio
p320
sS'trials.thisRepN'
p321
I0
sg59
g136
sg55
g120
sg56
g99
sg15
S'space'
p322
sS'trials.thisN'
p323
I16
sg53
g120
sg58
g121
sg49
g23
(g66
S'\xa9\x00\x00\x00\x00\x00\x00\x00'
p324
tp325
Rp326
sS'trials.thisTrialN'
p327
I16
sg54
g171
sg20
g21
sg34
g39
sg57
g172
sg33
g12
sa(dp328
S'trials.thisIndex'
p329
g23
(g66
S'+\x00\x00\x00\x00\x00\x00\x00'
p330
tp331
Rp332
sg16
F2.5217201709747314
sg22
g32
sg52
Vpeco
p333
sg51
g222
sg50
VRipete "peco" da sempre
p334
sS'trials.thisRepN'
p335
I0
sg59
g136
sg55
g120
sg56
g78
sg15
S'space'
p336
sS'trials.thisN'
p337
I17
sg53
g98
sg58
g102
sg49
g23
(g66
S',\x00\x00\x00\x00\x00\x00\x00'
p338
tp339
Rp340
sS'trials.thisTrialN'
p341
I17
sg54
g86
sg20
g21
sg34
g39
sg57
g87
sg33
g12
sa(dp342
S'trials.thisIndex'
p343
g23
(g66
S'\x1c\x00\x00\x00\x00\x00\x00\x00'
p344
tp345
Rp346
sg16
F2.0697271823883057
sg22
g32
sg52
Vpoto
p347
sg51
g73
sg50
VScrivete "poto" sul foglio
p348
sS'trials.thisRepN'
p349
I0
sg59
g76
sg55
g77
sg56
g99
sg15
S'space'
p350
sS'trials.thisN'
p351
I18
sg53
g98
sg58
g102
sg49
g23
(g66
S'\x1d\x00\x00\x00\x00\x00\x00\x00'
p352
tp353
Rp354
sS'trials.thisTrialN'
p355
I18
sg54
g107
sg20
g21
sg34
g39
sg57
g108
sg33
g12
sa(dp356
S'trials.thisIndex'
p357
g23
(g66
S'F\x00\x00\x00\x00\x00\x00\x00'
p358
tp359
Rp360
sg16
F1.9365978240966797
sg22
g32
sg52
Vtopo
p361
sg51
g94
sg50
VSentivo "topo" di nuovo
p362
sS'trials.thisRepN'
p363
I0
sg59
g97
sg55
g98
sg56
g99
sg15
S'space'
p364
sS'trials.thisN'
p365
I19
sg53
g77
sg58
g81
sg49
g23
(g66
S'G\x00\x00\x00\x00\x00\x00\x00'
p366
tp367
Rp368
sS'trials.thisTrialN'
p369
I19
sg54
g107
sg20
g21
sg34
g39
sg57
g108
sg33
g12
sa(dp370
S'trials.thisIndex'
p371
g23
(g66
S'\x19\x00\x00\x00\x00\x00\x00\x00'
p372
tp373
Rp374
sg16
F2.103527069091797
sg22
g32
sg52
Vpito
p375
sg51
g148
sg50
VHa detto "pito" sei volte
p376
sS'trials.thisRepN'
p377
I0
sg59
g76
sg55
g77
sg56
g78
sg15
S'space'
p378
sS'trials.thisN'
p379
I20
sg53
g98
sg58
g102
sg49
g23
(g66
S'\x1a\x00\x00\x00\x00\x00\x00\x00'
p380
tp381
Rp382
sS'trials.thisTrialN'
p383
I20
sg54
g201
sg20
g21
sg34
g39
sg57
g172
sg33
g12
sa(dp384
S'trials.thisIndex'
p385
g23
(g66
S'\x84\x00\x00\x00\x00\x00\x00\x00'
p386
tp387
Rp388
sg16
F3.204188108444214
sg22
g32
sg52
Vcupo
p389
sg51
g73
sg50
VScrivete "cupo" sul foglio
p390
sS'trials.thisRepN'
p391
I0
sg59
g97
sg55
g98
sg56
g99
sg15
S'space'
p392
sS'trials.thisN'
p393
I21
sg53
g120
sg58
g121
sg49
g23
(g66
S'\x85\x00\x00\x00\x00\x00\x00\x00'
p394
tp395
Rp396
sS'trials.thisTrialN'
p397
I21
sg54
g171
sg20
g21
sg34
g39
sg57
g172
sg33
g12
sa(dp398
S'trials.thisIndex'
p399
g23
(g66
S'L\x00\x00\x00\x00\x00\x00\x00'
p400
tp401
Rp402
sg16
F2.4187161922454834
sg22
g32
sg52
Vtato
p403
sg51
g73
sg50
VScrivete "tato" sul foglio
p404
sS'trials.thisRepN'
p405
I0
sg59
g76
sg55
g77
sg56
g117
sg15
S'space'
p406
sS'trials.thisN'
p407
I22
sg53
g77
sg58
g81
sg49
g23
(g66
S'M\x00\x00\x00\x00\x00\x00\x00'
p408
tp409
Rp410
sS'trials.thisTrialN'
p411
I22
sg54
g126
sg20
g21
sg34
g39
sg57
g127
sg33
g12
sa(dp412
S'trials.thisIndex'
p413
g23
(g66
S'\x94\x00\x00\x00\x00\x00\x00\x00'
p414
tp415
Rp416
sg16
F2.353624105453491
sg22
g32
sg52
Vcoto
p417
sg51
g73
sg50
VScrivete "coto" sul foglio
p418
sS'trials.thisRepN'
p419
I0
sg59
g76
sg55
g77
sg56
g99
sg15
S'space'
p420
sS'trials.thisN'
p421
I23
sg53
g120
sg58
g121
sg49
g23
(g66
S'\x95\x00\x00\x00\x00\x00\x00\x00'
p422
tp423
Rp424
sS'trials.thisTrialN'
p425
I23
sg54
g107
sg20
g21
sg34
g39
sg57
g108
sg33
g12
sa(dp426
S'trials.thisIndex'
p427
g23
(g66
S'x\x00\x00\x00\x00\x00\x00\x00'
p428
tp429
Rp430
sg16
F2.2024619579315186
sg22
g32
sg52
Vchepo
p431
sg51
g73
sg50
VScrivete "chepo" sul foglio
p432
sS'trials.thisRepN'
p433
I0
sg59
g97
sg55
g98
sg56
g78
sg15
S'space'
p434
sS'trials.thisN'
p435
I24
sg53
g120
sg58
g121
sg49
g23
(g66
S'y\x00\x00\x00\x00\x00\x00\x00'
p436
tp437
Rp438
sS'trials.thisTrialN'
p439
I24
sg54
g86
sg20
g21
sg34
g39
sg57
g87
sg33
g12
sa(dp440
S'trials.thisIndex'
p441
g23
(g66
S'\x85\x00\x00\x00\x00\x00\x00\x00'
p442
tp443
Rp444
sg16
F2.1688499450683594
sg22
g32
sg52
g389
sg51
g148
sg50
VHa detto "cupo" sei volte
p445
sS'trials.thisRepN'
p446
I0
sg59
g97
sg55
g98
sg56
g99
sg15
S'space'
p447
sS'trials.thisN'
p448
I25
sg53
g120
sg58
g121
sg49
g23
(g66
S'\x86\x00\x00\x00\x00\x00\x00\x00'
p449
tp450
Rp451
sS'trials.thisTrialN'
p452
I25
sg54
g171
sg20
g21
sg34
g39
sg57
g172
sg33
g12
sa(dp453
S'trials.thisIndex'
p454
g23
(g66
S'\x89\x00\x00\x00\x00\x00\x00\x00'
p455
tp456
Rp457
sg16
F2.30350399017334
sg22
g32
sg52
Vcato
p458
sg51
g148
sg50
VHa detto "cato" sei volte
p459
sS'trials.thisRepN'
p460
I0
sg59
g76
sg55
g77
sg56
g117
sg15
S'space'
p461
sS'trials.thisN'
p462
I26
sg53
g120
sg58
g121
sg49
g23
(g66
S'\x8a\x00\x00\x00\x00\x00\x00\x00'
p463
tp464
Rp465
sS'trials.thisTrialN'
p466
I26
sg54
g126
sg20
g21
sg34
g39
sg57
g127
sg33
g12
sa(dp467
S'trials.thisIndex'
p468
g23
(g66
S't\x00\x00\x00\x00\x00\x00\x00'
p469
tp470
Rp471
sg16
F1.9693620204925537
sg22
g32
sg52
g114
sg51
g73
sg50
VScrivete "capo" sul foglio
p472
sS'trials.thisRepN'
p473
I0
sg59
g97
sg55
g98
sg56
g117
sg15
S'space'
p474
sS'trials.thisN'
p475
I27
sg53
g120
sg58
g121
sg49
g23
(g66
S'u\x00\x00\x00\x00\x00\x00\x00'
p476
tp477
Rp478
sS'trials.thisTrialN'
p479
I27
sg54
g126
sg20
g21
sg34
g39
sg57
g127
sg33
g12
sa(dp480
S'trials.thisIndex'
p481
g23
(g66
S'r\x00\x00\x00\x00\x00\x00\x00'
p482
tp483
Rp484
sg16
F2.1854472160339355
sg22
g32
sg52
Vtuco
p485
sg51
g94
sg50
VSentivo "tuco" di nuovo
p486
sS'trials.thisRepN'
p487
I0
sg59
g136
sg55
g120
sg56
g99
sg15
S'space'
p488
sS'trials.thisN'
p489
I28
sg53
g77
sg58
g81
sg49
g23
(g66
S's\x00\x00\x00\x00\x00\x00\x00'
p490
tp491
Rp492
sS'trials.thisTrialN'
p493
I28
sg54
g171
sg20
g21
sg34
g39
sg57
g172
sg33
g12
sa(dp494
S'trials.thisIndex'
p495
g23
(g66
S'\x86\x00\x00\x00\x00\x00\x00\x00'
p496
tp497
Rp498
sg16
F2.153869152069092
sg22
g32
sg52
g389
sg51
g94
sg50
VSentivo "cupo" di nuovo
p499
sS'trials.thisRepN'
p500
I0
sg59
g97
sg55
g98
sg56
g99
sg15
S'space'
p501
sS'trials.thisN'
p502
I29
sg53
g120
sg58
g121
sg49
g23
(g66
S'\x87\x00\x00\x00\x00\x00\x00\x00'
p503
tp504
Rp505
sS'trials.thisTrialN'
p506
I29
sg54
g171
sg20
g21
sg34
g39
sg57
g172
sg33
g12
sa(dp507
S'trials.thisIndex'
p508
g23
(g66
S';\x00\x00\x00\x00\x00\x00\x00'
p509
tp510
Rp511
sg16
F2.019946813583374
sg22
g32
sg52
Vtapo
p512
sg51
g222
sg50
VRipete "tapo" da sempre
p513
sS'trials.thisRepN'
p514
I0
sg59
g97
sg55
g98
sg56
g117
sg15
S'space'
p515
sS'trials.thisN'
p516
I30
sg53
g77
sg58
g81
sg49
g23
(g66
S'<\x00\x00\x00\x00\x00\x00\x00'
p517
tp518
Rp519
sS'trials.thisTrialN'
p520
I30
sg54
g126
sg20
g21
sg34
g39
sg57
g127
sg33
g12
sa(dp521
S'trials.thisIndex'
p522
g23
(g66
S'\x0f\x00\x00\x00\x00\x00\x00\x00'
p523
tp524
Rp525
sg16
F2.0692319869995117
sg22
g32
sg52
g93
sg51
g222
sg50
VRipete "popo" da sempre
p526
sS'trials.thisRepN'
p527
I0
sg59
g97
sg55
g98
sg56
g99
sg15
S'space'
p528
sS'trials.thisN'
p529
I31
sg53
g98
sg58
g102
sg49
g23
(g66
S'\x10\x00\x00\x00\x00\x00\x00\x00'
p530
tp531
Rp532
sS'trials.thisTrialN'
p533
I31
sg54
g107
sg20
g21
sg34
g39
sg57
g108
sg33
g12
sa(dp534
S'trials.thisIndex'
p535
g23
(g66
S'\x00\x00\x00\x00\x00\x00\x00\x00'
p536
tp537
Rp538
sg16
F2.11893892288208
sg22
g32
sg52
Vpapo
p539
sg51
g73
sg50
VScrivete "papo" sul foglio
p540
sS'trials.thisRepN'
p541
I0
sg59
g97
sg55
g98
sg56
g117
sg15
S'space'
p542
sS'trials.thisN'
p543
I32
sg53
g98
sg58
g102
sg49
g23
(g66
S'\x01\x00\x00\x00\x00\x00\x00\x00'
p544
tp545
Rp546
sS'trials.thisTrialN'
p547
I32
sg54
g126
sg20
g21
sg34
g39
sg57
g127
sg33
g12
sa(dp548
S'trials.thisIndex'
p549
g23
(g66
S'\x04\x00\x00\x00\x00\x00\x00\x00'
p550
tp551
Rp552
sg16
F2.453313112258911
sg22
g32
sg52
Vpepo
p553
sg51
g73
sg50
VScrivete "pepo" sul foglio
p554
sS'trials.thisRepN'
p555
I0
sg59
g97
sg55
g98
sg56
g78
sg15
S'space'
p556
sS'trials.thisN'
p557
I33
sg53
g98
sg58
g102
sg49
g23
(g66
S'\x05\x00\x00\x00\x00\x00\x00\x00'
p558
tp559
Rp560
sS'trials.thisTrialN'
p561
I33
sg54
g86
sg20
g21
sg34
g39
sg57
g87
sg33
g12
sa(dp562
S'trials.thisIndex'
p563
g23
(g66
S'\x10\x00\x00\x00\x00\x00\x00\x00'
p564
tp565
Rp566
sg16
F2.353503942489624
sg22
g32
sg52
g277
sg51
g73
sg50
VScrivete "pupo" sul foglio
p567
sS'trials.thisRepN'
p568
I0
sg59
g97
sg55
g98
sg56
g99
sg15
S'space'
p569
sS'trials.thisN'
p570
I34
sg53
g98
sg58
g102
sg49
g23
(g66
S'\x11\x00\x00\x00\x00\x00\x00\x00'
p571
tp572
Rp573
sS'trials.thisTrialN'
p574
I34
sg54
g171
sg20
g21
sg34
g39
sg57
g172
sg33
g12
sa(dp575
S'trials.thisIndex'
p576
g23
(g66
S'd\x00\x00\x00\x00\x00\x00\x00'
p577
tp578
Rp579
sg16
F2.235607862472534
sg22
g32
sg52
g207
sg51
g73
sg50
VScrivete "teco" sul foglio
p580
sS'trials.thisRepN'
p581
I0
sg59
g136
sg55
g120
sg56
g78
sg15
S'space'
p582
sS'trials.thisN'
p583
I35
sg53
g77
sg58
g81
sg49
g23
(g66
S'e\x00\x00\x00\x00\x00\x00\x00'
p584
tp585
Rp586
sS'trials.thisTrialN'
p587
I35
sg54
g86
sg20
g21
sg34
g39
sg57
g87
sg33
g12
sa(dp588
S'trials.thisIndex'
p589
g23
(g66
S'G\x00\x00\x00\x00\x00\x00\x00'
p590
tp591
Rp592
sg16
F2.137770175933838
sg22
g32
sg52
g361
sg51
g222
sg50
VRipete "topo" da sempre
p593
sS'trials.thisRepN'
p594
I0
sg59
g97
sg55
g98
sg56
g99
sg15
S'space'
p595
sS'trials.thisN'
p596
I36
sg53
g77
sg58
g81
sg49
g23
(g66
S'H\x00\x00\x00\x00\x00\x00\x00'
p597
tp598
Rp599
sS'trials.thisTrialN'
p600
I36
sg54
g107
sg20
g21
sg34
g39
sg57
g108
sg33
g12
sa(dp601
S'trials.thisIndex'
p602
g23
(g66
S'\x88\x00\x00\x00\x00\x00\x00\x00'
p603
tp604
Rp605
sg16
F2.1539649963378906
sg22
g32
sg52
g458
sg51
g73
sg50
VScrivete "cato" sul foglio
p606
sS'trials.thisRepN'
p607
I0
sg59
g76
sg55
g77
sg56
g117
sg15
S'space'
p608
sS'trials.thisN'
p609
I37
sg53
g120
sg58
g121
sg49
g23
(g66
S'\x89\x00\x00\x00\x00\x00\x00\x00'
p610
tp611
Rp612
sS'trials.thisTrialN'
p613
I37
sg54
g126
sg20
g21
sg34
g39
sg57
g127
sg33
g12
sa(dp614
S'trials.thisIndex'
p615
g23
(g66
S'\x0c\x00\x00\x00\x00\x00\x00\x00'
p616
tp617
Rp618
sg16
F2.036938190460205
sg22
g32
sg52
g93
sg51
g73
sg50
VScrivete "popo" sul foglio
p619
sS'trials.thisRepN'
p620
I0
sg59
g97
sg55
g98
sg56
g99
sg15
S'space'
p621
sS'trials.thisN'
p622
I38
sg53
g98
sg58
g102
sg49
g23
(g66
S'\r\x00\x00\x00\x00\x00\x00\x00'
p623
tp624
Rp625
sS'trials.thisTrialN'
p626
I38
sg54
g107
sg20
g21
sg34
g39
sg57
g108
sg33
g12
sa(dp627
S'trials.thisIndex'
p628
g23
(g66
S'0\x00\x00\x00\x00\x00\x00\x00'
p629
tp630
Rp631
sg16
F2.053344964981079
sg22
g32
sg52
g133
sg51
g73
sg50
VScrivete "poco" sul foglio
p632
sS'trials.thisRepN'
p633
I0
sg59
g136
sg55
g120
sg56
g99
sg15
S'space'
p634
sS'trials.thisN'
p635
I39
sg53
g98
sg58
g102
sg49
g23
(g66
S'1\x00\x00\x00\x00\x00\x00\x00'
p636
tp637
Rp638
sS'trials.thisTrialN'
p639
I39
sg54
g107
sg20
g21
sg34
g39
sg57
g108
sg33
g12
sa(dp640
S'trials.thisIndex'
p641
g23
(g66
S'<\x00\x00\x00\x00\x00\x00\x00'
p642
tp643
Rp644
sg16
F2.235924005508423
sg22
g32
sg52
g236
sg51
g73
sg50
VScrivete "tepo" sul foglio
p645
sS'trials.thisRepN'
p646
I0
sg59
g97
sg55
g98
sg56
g78
sg15
S'space'
p647
sS'trials.thisN'
p648
I40
sg53
g77
sg58
g81
sg49
g23
(g66
S'=\x00\x00\x00\x00\x00\x00\x00'
p649
tp650
Rp651
sS'trials.thisTrialN'
p652
I40
sg54
g86
sg20
g21
sg34
g39
sg57
g87
sg33
g12
sa(dp653
S'trials.thisIndex'
p654
g23
(g66
S'\x05\x00\x00\x00\x00\x00\x00\x00'
p655
tp656
Rp657
sg16
F3.6209969520568848
sg22
g32
sg52
g553
sg51
g148
sg50
VHa detto "pepo" sei volte
p658
sS'trials.thisRepN'
p659
I0
sg59
g97
sg55
g98
sg56
g78
sg15
S'space'
p660
sS'trials.thisN'
p661
I41
sg53
g98
sg58
g102
sg49
g23
(g66
S'\x06\x00\x00\x00\x00\x00\x00\x00'
p662
tp663
Rp664
sS'trials.thisTrialN'
p665
I41
sg54
g86
sg20
g21
sg34
g39
sg57
g87
sg33
g12
sa(dp666
S'trials.thisIndex'
p667
g23
(g66
S'\x95\x00\x00\x00\x00\x00\x00\x00'
p668
tp669
Rp670
sg16
F19.161890029907227
sg22
g32
sg52
g417
sg51
g148
sg50
VHa detto "coto" sei volte
p671
sS'trials.thisRepN'
p672
I0
sg59
g76
sg55
g77
sg56
g99
sg15
S'space'
p673
sS'trials.thisN'
p674
I42
sg53
g120
sg58
g121
sg49
g23
(g66
S'\x96\x00\x00\x00\x00\x00\x00\x00'
p675
tp676
Rp677
sS'trials.thisTrialN'
p678
I42
sg54
g107
sg20
g21
sg34
g39
sg57
g108
sg33
g12
sa(dp679
S'trials.thisIndex'
p680
g23
(g66
S'/\x00\x00\x00\x00\x00\x00\x00'
p681
tp682
Rp683
sg16
F2.1343700885772705
sg22
g32
sg52
Vpico
p684
sg51
g222
sg50
VRipete "pico" da sempre
p685
sS'trials.thisRepN'
p686
I0
sg59
g136
sg55
g120
sg56
g78
sg15
S'space'
p687
sS'trials.thisN'
p688
I43
sg53
g98
sg58
g102
sg49
g23
(g66
S'0\x00\x00\x00\x00\x00\x00\x00'
p689
tp690
Rp691
sS'trials.thisTrialN'
p692
I43
sg54
g201
sg20
g21
sg34
g39
sg57
g172
sg33
g12
sa(dp693
S'trials.thisIndex'
p694
g23
(g66
S'\xa5\x00\x00\x00\x00\x00\x00\x00'
p695
tp696
Rp697
sg16
F1.8376350402832031
sg22
g32
sg52
Vcoco
p698
sg51
g148
sg50
VHa detto "coco" sei volte
p699
sS'trials.thisRepN'
p700
I0
sg59
g136
sg55
g120
sg56
g99
sg15
S'space'
p701
sS'trials.thisN'
p702
I44
sg53
g120
sg58
g121
sg49
g23
(g66
S'\xa6\x00\x00\x00\x00\x00\x00\x00'
p703
tp704
Rp705
sS'trials.thisTrialN'
p706
I44
sg54
g107
sg20
g21
sg34
g39
sg57
g108
sg33
g12
sa(dp707
S'trials.thisIndex'
p708
g23
(g66
S'\xa6\x00\x00\x00\x00\x00\x00\x00'
p709
tp710
Rp711
sg16
F2.0812160968780518
sg22
g32
sg52
g698
sg51
g94
sg50
VSentivo "coco" di nuovo
p712
sS'trials.thisRepN'
p713
I0
sg59
g136
sg55
g120
sg56
g99
sg15
S'space'
p714
sS'trials.thisN'
p715
I45
sg53
g120
sg58
g121
sg49
g23
(g66
S'\xa7\x00\x00\x00\x00\x00\x00\x00'
p716
tp717
Rp718
sS'trials.thisTrialN'
p719
I45
sg54
g107
sg20
g21
sg34
g39
sg57
g108
sg33
g12
sa(dp720
S'trials.thisIndex'
p721
g23
(g66
S'\t\x00\x00\x00\x00\x00\x00\x00'
p722
tp723
Rp724
sg16
F1.9295051097869873
sg22
g32
sg52
Vpipo
p725
sg51
g148
sg50
VHa detto "pipo" sei volte
p726
sS'trials.thisRepN'
p727
I0
sg59
g97
sg55
g98
sg56
g78
sg15
S'space'
p728
sS'trials.thisN'
p729
I46
sg53
g98
sg58
g102
sg49
g23
(g66
S'\n\x00\x00\x00\x00\x00\x00\x00'
p730
tp731
Rp732
sS'trials.thisTrialN'
p733
I46
sg54
g201
sg20
g21
sg34
g39
sg57
g172
sg33
g12
sa(dp734
S'trials.thisIndex'
p735
g23
(g66
S'\x07\x00\x00\x00\x00\x00\x00\x00'
p736
tp737
Rp738
sg16
F1.8206219673156738
sg22
g32
sg52
g553
sg51
g222
sg50
VRipete "pepo" da sempre
p739
sS'trials.thisRepN'
p740
I0
sg59
g97
sg55
g98
sg56
g78
sg15
S'space'
p741
sS'trials.thisN'
p742
I47
sg53
g98
sg58
g102
sg49
g23
(g66
S'\x08\x00\x00\x00\x00\x00\x00\x00'
p743
tp744
Rp745
sS'trials.thisTrialN'
p746
I47
sg54
g86
sg20
g21
sg34
g39
sg57
g87
sg33
g12
sa(dp747
S'trials.thisIndex'
p748
g23
(g66
S'\x02\x00\x00\x00\x00\x00\x00\x00'
p749
tp750
Rp751
sg16
F2.421170949935913
sg22
g32
sg52
g539
sg51
g94
sg50
VSentivo "papo" di nuovo
p752
sS'trials.thisRepN'
p753
I0
sg59
g97
sg55
g98
sg56
g117
sg15
S'space'
p754
sS'trials.thisN'
p755
I48
sg53
g98
sg58
g102
sg49
g23
(g66
S'\x03\x00\x00\x00\x00\x00\x00\x00'
p756
tp757
Rp758
sS'trials.thisTrialN'
p759
I48
sg54
g126
sg20
g21
sg34
g39
sg57
g127
sg33
g12
sa(dp760
S'trials.thisIndex'
p761
g23
(g66
S'\x1b\x00\x00\x00\x00\x00\x00\x00'
p762
tp763
Rp764
sg16
F2.5888350009918213
sg22
g32
sg52
g375
sg51
g222
sg50
VRipete "pito" da sempre
p765
sS'trials.thisRepN'
p766
I0
sg59
g76
sg55
g77
sg56
g78
sg15
S'space'
p767
sS'trials.thisN'
p768
I49
sg53
g98
sg58
g102
sg49
g23
(g66
S'\x1c\x00\x00\x00\x00\x00\x00\x00'
p769
tp770
Rp771
sS'trials.thisTrialN'
p772
I49
sg54
g201
sg20
g21
sg34
g39
sg57
g172
sg33
g12
sa(dp773
S'trials.thisIndex'
p774
g23
(g66
S'4\x00\x00\x00\x00\x00\x00\x00'
p775
tp776
Rp777
sg16
F2.306087017059326
sg22
g32
sg52
g162
sg51
g73
sg50
VScrivete "puco" sul foglio
p778
sS'trials.thisRepN'
p779
I0
sg59
g136
sg55
g120
sg56
g99
sg15
S'space'
p780
sS'trials.thisN'
p781
I50
sg53
g98
sg58
g102
sg49
g23
(g66
S'5\x00\x00\x00\x00\x00\x00\x00'
p782
tp783
Rp784
sS'trials.thisTrialN'
p785
I50
sg54
g171
sg20
g21
sg34
g39
sg57
g172
sg33
g12
sa(dp786
S'trials.thisIndex'
p787
g23
(g66
S'\x80\x00\x00\x00\x00\x00\x00\x00'
p788
tp789
Rp790
sg16
F2.23966908454895
sg22
g32
sg52
Vcopo
p791
sg51
g73
sg50
VScrivete "copo" sul foglio
p792
sS'trials.thisRepN'
p793
I0
sg59
g97
sg55
g98
sg56
g99
sg15
S'space'
p794
sS'trials.thisN'
p795
I51
sg53
g120
sg58
g121
sg49
g23
(g66
S'\x81\x00\x00\x00\x00\x00\x00\x00'
p796
tp797
Rp798
sS'trials.thisTrialN'
p799
I51
sg54
g107
sg20
g21
sg34
g39
sg57
g108
sg33
g12
sa(dp800
S'trials.thisIndex'
p801
g23
(g66
S's\x00\x00\x00\x00\x00\x00\x00'
p802
tp803
Rp804
sg16
F2.3034141063690186
sg22
g32
sg52
g485
sg51
g222
sg50
VRipete "tuco" da sempre
p805
sS'trials.thisRepN'
p806
I0
sg59
g136
sg55
g120
sg56
g99
sg15
S'space'
p807
sS'trials.thisN'
p808
I52
sg53
g77
sg58
g81
sg49
g23
(g66
S't\x00\x00\x00\x00\x00\x00\x00'
p809
tp810
Rp811
sS'trials.thisTrialN'
p812
I52
sg54
g171
sg20
g21
sg34
g39
sg57
g172
sg33
g12
sa(dp813
S'trials.thisIndex'
p814
g23
(g66
S'\x0b\x00\x00\x00\x00\x00\x00\x00'
p815
tp816
Rp817
sg16
F2.0989530086517334
sg22
g32
sg52
g725
sg51
g222
sg50
VRipete "pipo" da sempre
p818
sS'trials.thisRepN'
p819
I0
sg59
g97
sg55
g98
sg56
g78
sg15
S'space'
p820
sS'trials.thisN'
p821
I53
sg53
g98
sg58
g102
sg49
g23
(g66
S'\x0c\x00\x00\x00\x00\x00\x00\x00'
p822
tp823
Rp824
sS'trials.thisTrialN'
p825
I53
sg54
g201
sg20
g21
sg34
g39
sg57
g172
sg33
g12
sa(dp826
S'trials.thisIndex'
p827
g23
(g66
S'\xa9\x00\x00\x00\x00\x00\x00\x00'
p828
tp829
Rp830
sg16
F2.3252649307250977
sg22
g32
sg52
g319
sg51
g148
sg50
VHa detto "cuco" sei volte
p831
sS'trials.thisRepN'
p832
I0
sg59
g136
sg55
g120
sg56
g99
sg15
S'space'
p833
sS'trials.thisN'
p834
I54
sg53
g120
sg58
g121
sg49
g23
(g66
S'\xaa\x00\x00\x00\x00\x00\x00\x00'
p835
tp836
Rp837
sS'trials.thisTrialN'
p838
I54
sg54
g171
sg20
g21
sg34
g39
sg57
g172
sg33
g12
sa(dp839
S'trials.thisIndex'
p840
g23
(g66
S'5\x00\x00\x00\x00\x00\x00\x00'
p841
tp842
Rp843
sg16
F2.2367730140686035
sg22
g32
sg52
g162
sg51
g148
sg50
VHa detto "puco" sei volte
p844
sS'trials.thisRepN'
p845
I0
sg59
g136
sg55
g120
sg56
g99
sg15
S'space'
p846
sS'trials.thisN'
p847
I55
sg53
g98
sg58
g102
sg49
g23
(g66
S'6\x00\x00\x00\x00\x00\x00\x00'
p848
tp849
Rp850
sS'trials.thisTrialN'
p851
I55
sg54
g171
sg20
g21
sg34
g39
sg57
g172
sg33
g12
sa(dp852
S'trials.thisIndex'
p853
g23
(g66
S'c\x00\x00\x00\x00\x00\x00\x00'
p854
tp855
Rp856
sg16
F2.4421181678771973
sg22
g32
sg52
Vtaco
p857
sg51
g222
sg50
VRipete "taco" da sempre
p858
sS'trials.thisRepN'
p859
I0
sg59
g136
sg55
g120
sg56
g117
sg15
S'space'
p860
sS'trials.thisN'
p861
I56
sg53
g77
sg58
g81
sg49
g23
(g66
S'd\x00\x00\x00\x00\x00\x00\x00'
p862
tp863
Rp864
sS'trials.thisTrialN'
p865
I56
sg54
g126
sg20
g21
sg34
g39
sg57
g127
sg33
g12
sa(dp866
S'trials.thisIndex'
p867
g23
(g66
S'O\x00\x00\x00\x00\x00\x00\x00'
p868
tp869
Rp870
sg16
F2.2623820304870605
sg22
g32
sg52
g403
sg51
g222
sg50
VRipete "tato" da sempre
p871
sS'trials.thisRepN'
p872
I0
sg59
g76
sg55
g77
sg56
g117
sg15
S'space'
p873
sS'trials.thisN'
p874
I57
sg53
g77
sg58
g81
sg49
g23
(g66
S'P\x00\x00\x00\x00\x00\x00\x00'
p875
tp876
Rp877
sS'trials.thisTrialN'
p878
I57
sg54
g126
sg20
g21
sg34
g39
sg57
g127
sg33
g12
sa(dp879
S'trials.thisIndex'
p880
g23
(g66
S'J\x00\x00\x00\x00\x00\x00\x00'
p881
tp882
Rp883
sg16
F2.1184020042419434
sg22
g32
sg52
g178
sg51
g94
sg50
VSentivo "tupo" di nuovo
p884
sS'trials.thisRepN'
p885
I0
sg59
g97
sg55
g98
sg56
g99
sg15
S'space'
p886
sS'trials.thisN'
p887
I58
sg53
g77
sg58
g81
sg49
g23
(g66
S'K\x00\x00\x00\x00\x00\x00\x00'
p888
tp889
Rp890
sS'trials.thisTrialN'
p891
I58
sg54
g171
sg20
g21
sg34
g39
sg57
g172
sg33
g12
sa(dp892
S'trials.thisIndex'
p893
g23
(g66
S'\x8e\x00\x00\x00\x00\x00\x00\x00'
p894
tp895
Rp896
sg16
F2.0787441730499268
sg22
g32
sg52
Vcheto
p897
sg51
g94
sg50
VSentivo "cheto" di nuovo
p898
sS'trials.thisRepN'
p899
I0
sg59
g76
sg55
g77
sg56
g78
sg15
S'space'
p900
sS'trials.thisN'
p901
I59
sg53
g120
sg58
g121
sg49
g23
(g66
S'\x8f\x00\x00\x00\x00\x00\x00\x00'
p902
tp903
Rp904
sS'trials.thisTrialN'
p905
I59
sg54
g86
sg20
g21
sg34
g39
sg57
g87
sg33
g12
sa(dp906
S'trials.thisIndex'
p907
g23
(g66
S'A\x00\x00\x00\x00\x00\x00\x00'
p908
tp909
Rp910
sg16
F2.223918914794922
sg22
g32
sg52
Vtipo
p911
sg51
g148
sg50
VHa detto "tipo" sei volte
p912
sS'trials.thisRepN'
p913
I0
sg59
g97
sg55
g98
sg56
g78
sg15
S'space'
p914
sS'trials.thisN'
p915
I60
sg53
g77
sg58
g81
sg49
g23
(g66
S'B\x00\x00\x00\x00\x00\x00\x00'
p916
tp917
Rp918
sS'trials.thisTrialN'
p919
I60
sg54
g201
sg20
g21
sg34
g39
sg57
g172
sg33
g12
sa(dp920
S'trials.thisIndex'
p921
g23
(g66
S'\x1e\x00\x00\x00\x00\x00\x00\x00'
p922
tp923
Rp924
sg16
F1.9840130805969238
sg22
g32
sg52
g347
sg51
g94
sg50
VSentivo "poto" di nuovo
p925
sS'trials.thisRepN'
p926
I0
sg59
g76
sg55
g77
sg56
g99
sg15
S'space'
p927
sS'trials.thisN'
p928
I61
sg53
g98
sg58
g102
sg49
g23
(g66
S'\x1f\x00\x00\x00\x00\x00\x00\x00'
p929
tp930
Rp931
sS'trials.thisTrialN'
p932
I61
sg54
g107
sg20
g21
sg34
g39
sg57
g108
sg33
g12
sa(dp933
S'trials.thisIndex'
p934
g23
(g66
S'\x06\x00\x00\x00\x00\x00\x00\x00'
p935
tp936
Rp937
sg16
F1.9721269607543945
sg22
g32
sg52
g553
sg51
g94
sg50
VSentivo "pepo" di nuovo
p938
sS'trials.thisRepN'
p939
I0
sg59
g97
sg55
g98
sg56
g78
sg15
S'space'
p940
sS'trials.thisN'
p941
I62
sg53
g98
sg58
g102
sg49
g23
(g66
S'\x07\x00\x00\x00\x00\x00\x00\x00'
p942
tp943
Rp944
sS'trials.thisTrialN'
p945
I62
sg54
g86
sg20
g21
sg34
g39
sg57
g87
sg33
g12
sa(dp946
S'trials.thisIndex'
p947
g23
(g66
S'\xa1\x00\x00\x00\x00\x00\x00\x00'
p948
tp949
Rp950
sg16
F2.1755409240722656
sg22
g32
sg52
g192
sg51
g148
sg50
VHa detto "chico" sei volte
p951
sS'trials.thisRepN'
p952
I0
sg59
g136
sg55
g120
sg56
g78
sg15
S'space'
p953
sS'trials.thisN'
p954
I63
sg53
g120
sg58
g121
sg49
g23
(g66
S'\xa2\x00\x00\x00\x00\x00\x00\x00'
p955
tp956
Rp957
sS'trials.thisTrialN'
p958
I63
sg54
g201
sg20
g21
sg34
g39
sg57
g172
sg33
g12
sa(dp959
S'trials.thisIndex'
p960
g23
(g66
S'\x9a\x00\x00\x00\x00\x00\x00\x00'
p961
tp962
Rp963
sg16
F2.970916986465454
sg22
g32
sg52
Vcuto
p964
sg51
g94
sg50
VSentivo "cuto" di nuovo
p965
sS'trials.thisRepN'
p966
I0
sg59
g76
sg55
g77
sg56
g99
sg15
S'space'
p967
sS'trials.thisN'
p968
I64
sg53
g120
sg58
g121
sg49
g23
(g66
S'\x9b\x00\x00\x00\x00\x00\x00\x00'
p969
tp970
Rp971
sS'trials.thisTrialN'
p972
I64
sg54
g171
sg20
g21
sg34
g39
sg57
g172
sg33
g12
sa(dp973
S'trials.thisIndex'
p974
g23
(g66
S'\x8f\x00\x00\x00\x00\x00\x00\x00'
p975
tp976
Rp977
sg16
F1.69930100440979
sg22
g32
sg52
g897
sg51
g222
sg50
VRipete "cheto" da sempre
p978
sS'trials.thisRepN'
p979
I0
sg59
g76
sg55
g77
sg56
g78
sg15
S'space'
p980
sS'trials.thisN'
p981
I65
sg53
g120
sg58
g121
sg49
g23
(g66
S'\x90\x00\x00\x00\x00\x00\x00\x00'
p982
tp983
Rp984
sS'trials.thisTrialN'
p985
I65
sg54
g86
sg20
g21
sg34
g39
sg57
g87
sg33
g12
sa(dp986
S'trials.thisIndex'
p987
g23
(g66
S'i\x00\x00\x00\x00\x00\x00\x00'
p988
tp989
Rp990
sg16
F2.399388074874878
sg22
g32
sg52
Vtico
p991
sg51
g148
sg50
VHa detto "tico" sei volte
p992
sS'trials.thisRepN'
p993
I0
sg59
g136
sg55
g120
sg56
g78
sg15
S'space'
p994
sS'trials.thisN'
p995
I66
sg53
g77
sg58
g81
sg49
g23
(g66
S'j\x00\x00\x00\x00\x00\x00\x00'
p996
tp997
Rp998
sS'trials.thisTrialN'
p999
I66
sg54
g201
sg20
g21
sg34
g39
sg57
g172
sg33
g12
sa(dp1000
S'trials.thisIndex'
p1001
g23
(g66
S'#\x00\x00\x00\x00\x00\x00\x00'
p1002
tp1003
Rp1004
sg16
F2.0550081729888916
sg22
g32
sg52
g305
sg51
g222
sg50
VRipete "puto" da sempre
p1005
sS'trials.thisRepN'
p1006
I0
sg59
g76
sg55
g77
sg56
g99
sg15
S'space'
p1007
sS'trials.thisN'
p1008
I67
sg53
g98
sg58
g102
sg49
g23
(g66
S'$\x00\x00\x00\x00\x00\x00\x00'
p1009
tp1010
Rp1011
sS'trials.thisTrialN'
p1012
I67
sg54
g171
sg20
g21
sg34
g39
sg57
g172
sg33
g12
sa(dp1013
S'trials.thisIndex'
p1014
g23
(g66
S'(\x00\x00\x00\x00\x00\x00\x00'
p1015
tp1016
Rp1017
sg16
F2.4200778007507324
sg22
g32
sg52
g333
sg51
g73
sg50
VScrivete "peco" sul foglio
p1018
sS'trials.thisRepN'
p1019
I0
sg59
g136
sg55
g120
sg56
g78
sg15
S'space'
p1020
sS'trials.thisN'
p1021
I68
sg53
g98
sg58
g102
sg49
g23
(g66
S')\x00\x00\x00\x00\x00\x00\x00'
p1022
tp1023
Rp1024
sS'trials.thisTrialN'
p1025
I68
sg54
g86
sg20
g21
sg34
g39
sg57
g87
sg33
g12
sa(dp1026
S'trials.thisIndex'
p1027
g23
(g66
S'\x13\x00\x00\x00\x00\x00\x00\x00'
p1028
tp1029
Rp1030
sg16
F2.1532058715820312
sg22
g32
sg52
g277
sg51
g222
sg50
VRipete "pupo" da sempre
p1031
sS'trials.thisRepN'
p1032
I0
sg59
g97
sg55
g98
sg56
g99
sg15
S'space'
p1033
sS'trials.thisN'
p1034
I69
sg53
g98
sg58
g102
sg49
g23
(g66
S'\x14\x00\x00\x00\x00\x00\x00\x00'
p1035
tp1036
Rp1037
sS'trials.thisTrialN'
p1038
I69
sg54
g171
sg20
g21
sg34
g39
sg57
g172
sg33
g12
sa(dp1039
S'trials.thisIndex'
p1040
g23
(g66
S',\x00\x00\x00\x00\x00\x00\x00'
p1041
tp1042
Rp1043
sg16
F2.2704739570617676
sg22
g32
sg52
g684
sg51
g73
sg50
VScrivete "pico" sul foglio
p1044
sS'trials.thisRepN'
p1045
I0
sg59
g136
sg55
g120
sg56
g78
sg15
S'space'
p1046
sS'trials.thisN'
p1047
I70
sg53
g98
sg58
g102
sg49
g23
(g66
S'-\x00\x00\x00\x00\x00\x00\x00'
p1048
tp1049
Rp1050
sS'trials.thisTrialN'
p1051
I70
sg54
g201
sg20
g21
sg34
g39
sg57
g172
sg33
g12
sa(dp1052
S'trials.thisIndex'
p1053
g23
(g66
S"'\x00\x00\x00\x00\x00\x00\x00"
p1054
tp1055
Rp1056
sg16
F3.054502010345459
sg22
g32
sg52
g263
sg51
g222
sg50
VRipete "paco" da sempre
p1057
sS'trials.thisRepN'
p1058
I0
sg59
g136
sg55
g120
sg56
g117
sg15
S'space'
p1059
sS'trials.thisN'
p1060
I71
sg53
g98
sg58
g102
sg49
g23
(g66
S'(\x00\x00\x00\x00\x00\x00\x00'
p1061
tp1062
Rp1063
sS'trials.thisTrialN'
p1064
I71
sg54
g126
sg20
g21
sg34
g39
sg57
g127
sg33
g12
sa(dp1065
S'trials.thisIndex'
p1066
g23
(g66
S'm\x00\x00\x00\x00\x00\x00\x00'
p1067
tp1068
Rp1069
sg16
F2.3181490898132324
sg22
g32
sg52
Vtoco
p1070
sg51
g148
sg50
VHa detto "toco" sei volte
p1071
sS'trials.thisRepN'
p1072
I0
sg59
g136
sg55
g120
sg56
g99
sg15
S'space'
p1073
sS'trials.thisN'
p1074
I72
sg53
g77
sg58
g81
sg49
g23
(g66
S'n\x00\x00\x00\x00\x00\x00\x00'
p1075
tp1076
Rp1077
sS'trials.thisTrialN'
p1078
I72
sg54
g107
sg20
g21
sg34
g39
sg57
g108
sg33
g12
sa(dp1079
S'trials.thisIndex'
p1080
g23
(g66
S'X\x00\x00\x00\x00\x00\x00\x00'
p1081
tp1082
Rp1083
sg16
F2.202833890914917
sg22
g32
sg52
Vtoto
p1084
sg51
g73
sg50
VScrivete "toto" sul foglio
p1085
sS'trials.thisRepN'
p1086
I0
sg59
g76
sg55
g77
sg56
g99
sg15
S'space'
p1087
sS'trials.thisN'
p1088
I73
sg53
g77
sg58
g81
sg49
g23
(g66
S'Y\x00\x00\x00\x00\x00\x00\x00'
p1089
tp1090
Rp1091
sS'trials.thisTrialN'
p1092
I73
sg54
g107
sg20
g21
sg34
g39
sg57
g108
sg33
g12
sa(dp1093
S'trials.thisIndex'
p1094
g23
(g66
S']\x00\x00\x00\x00\x00\x00\x00'
p1095
tp1096
Rp1097
sg16
F2.1198291778564453
sg22
g32
sg52
Vtuto
p1098
sg51
g148
sg50
VHa detto "tuto" sei volte
p1099
sS'trials.thisRepN'
p1100
I0
sg59
g76
sg55
g77
sg56
g99
sg15
S'space'
p1101
sS'trials.thisN'
p1102
I74
sg53
g77
sg58
g81
sg49
g23
(g66
S'^\x00\x00\x00\x00\x00\x00\x00'
p1103
tp1104
Rp1105
sS'trials.thisTrialN'
p1106
I74
sg54
g171
sg20
g21
sg34
g39
sg57
g172
sg33
g12
sa(dp1107
S'trials.thisIndex'
p1108
g23
(g66
S'Z\x00\x00\x00\x00\x00\x00\x00'
p1109
tp1110
Rp1111
sg16
F2.102877140045166
sg22
g32
sg52
g1084
sg51
g94
sg50
VSentivo "toto" di nuovo
p1112
sS'trials.thisRepN'
p1113
I0
sg59
g76
sg55
g77
sg56
g99
sg15
S'space'
p1114
sS'trials.thisN'
p1115
I75
sg53
g77
sg58
g81
sg49
g23
(g66
S'[\x00\x00\x00\x00\x00\x00\x00'
p1116
tp1117
Rp1118
sS'trials.thisTrialN'
p1119
I75
sg54
g107
sg20
g21
sg34
g39
sg57
g108
sg33
g12
sa(dp1120
S'trials.thisIndex'
p1121
g23
(g66
S'\x01\x00\x00\x00\x00\x00\x00\x00'
p1122
tp1123
Rp1124
sg16
F2.1539220809936523
sg22
g32
sg52
g539
sg51
g148
sg50
VHa detto "papo" sei volte
p1125
sS'trials.thisRepN'
p1126
I0
sg59
g97
sg55
g98
sg56
g117
sg15
S'space'
p1127
sS'trials.thisN'
p1128
I76
sg53
g98
sg58
g102
sg49
g23
(g66
S'\x02\x00\x00\x00\x00\x00\x00\x00'
p1129
tp1130
Rp1131
sS'trials.thisTrialN'
p1132
I76
sg54
g126
sg20
g21
sg34
g39
sg57
g127
sg33
g12
sa(dp1133
S'trials.thisIndex'
p1134
g23
(g66
S'R\x00\x00\x00\x00\x00\x00\x00'
p1135
tp1136
Rp1137
sg16
F2.019914150238037
sg22
g32
sg52
g72
sg51
g94
sg50
VSentivo "teto" di nuovo
p1138
sS'trials.thisRepN'
p1139
I0
sg59
g76
sg55
g77
sg56
g78
sg15
S'space'
p1140
sS'trials.thisN'
p1141
I77
sg53
g77
sg58
g81
sg49
g23
(g66
S'S\x00\x00\x00\x00\x00\x00\x00'
p1142
tp1143
Rp1144
sS'trials.thisTrialN'
p1145
I77
sg54
g86
sg20
g21
sg34
g39
sg57
g87
sg33
g12
sa(dp1146
S'trials.thisIndex'
p1147
g23
(g66
S'N\x00\x00\x00\x00\x00\x00\x00'
p1148
tp1149
Rp1150
sg16
F1.953782081604004
sg22
g32
sg52
g403
sg51
g94
sg50
VSentivo "tato" di nuovo
p1151
sS'trials.thisRepN'
p1152
I0
sg59
g76
sg55
g77
sg56
g117
sg15
S'space'
p1153
sS'trials.thisN'
p1154
I78
sg53
g77
sg58
g81
sg49
g23
(g66
S'O\x00\x00\x00\x00\x00\x00\x00'
p1155
tp1156
Rp1157
sS'trials.thisTrialN'
p1158
I78
sg54
g126
sg20
g21
sg34
g39
sg57
g127
sg33
g12
sa(dp1159
S'trials.thisIndex'
p1160
g23
(g66
S'U\x00\x00\x00\x00\x00\x00\x00'
p1161
tp1162
Rp1163
sg16
F1.8533711433410645
sg22
g32
sg52
g291
sg51
g148
sg50
VHa detto "tito" sei volte
p1164
sS'trials.thisRepN'
p1165
I0
sg59
g76
sg55
g77
sg56
g78
sg15
S'space'
p1166
sS'trials.thisN'
p1167
I79
sg53
g77
sg58
g81
sg49
g23
(g66
S'V\x00\x00\x00\x00\x00\x00\x00'
p1168
tp1169
Rp1170
sS'trials.thisTrialN'
p1171
I79
sg54
g201
sg20
g21
sg34
g39
sg57
g172
sg33
g12
sa(dp1172
S'trials.thisIndex'
p1173
g23
(g66
S'\x14\x00\x00\x00\x00\x00\x00\x00'
p1174
tp1175
Rp1176
sg16
F2.0537660121917725
sg22
g32
sg52
g221
sg51
g73
sg50
VScrivete "pato" sul foglio
p1177
sS'trials.thisRepN'
p1178
I0
sg59
g76
sg55
g77
sg56
g117
sg15
S'space'
p1179
sS'trials.thisN'
p1180
I80
sg53
g98
sg58
g102
sg49
g23
(g66
S'\x15\x00\x00\x00\x00\x00\x00\x00'
p1181
tp1182
Rp1183
sS'trials.thisTrialN'
p1184
I80
sg54
g126
sg20
g21
sg34
g39
sg57
g127
sg33
g12
sa(dp1185
S'trials.thisIndex'
p1186
g23
(g66
S'@\x00\x00\x00\x00\x00\x00\x00'
p1187
tp1188
Rp1189
sg16
F2.0535829067230225
sg22
g32
sg52
g911
sg51
g73
sg50
VScrivete "tipo" sul foglio
p1190
sS'trials.thisRepN'
p1191
I0
sg59
g97
sg55
g98
sg56
g78
sg15
S'space'
p1192
sS'trials.thisN'
p1193
I81
sg53
g77
sg58
g81
sg49
g23
(g66
S'A\x00\x00\x00\x00\x00\x00\x00'
p1194
tp1195
Rp1196
sS'trials.thisTrialN'
p1197
I81
sg54
g201
sg20
g21
sg34
g39
sg57
g172
sg33
g12
sa(dp1198
S'trials.thisIndex'
p1199
g23
(g66
S'\x08\x00\x00\x00\x00\x00\x00\x00'
p1200
tp1201
Rp1202
sg16
F2.1210269927978516
sg22
g32
sg52
g725
sg51
g73
sg50
VScrivete "pipo" sul foglio
p1203
sS'trials.thisRepN'
p1204
I0
sg59
g97
sg55
g98
sg56
g78
sg15
S'space'
p1205
sS'trials.thisN'
p1206
I82
sg53
g98
sg58
g102
sg49
g23
(g66
S'\t\x00\x00\x00\x00\x00\x00\x00'
p1207
tp1208
Rp1209
sS'trials.thisTrialN'
p1210
I82
sg54
g201
sg20
g21
sg34
g39
sg57
g172
sg33
g12
sa(dp1211
S'trials.thisIndex'
p1212
g23
(g66
S'D\x00\x00\x00\x00\x00\x00\x00'
p1213
tp1214
Rp1215
sg16
F7.657598972320557
sg22
g32
sg52
g361
sg51
g73
sg50
VScrivete "topo" sul foglio
p1216
sS'trials.thisRepN'
p1217
I0
sg59
g97
sg55
g98
sg56
g99
sg15
S'space'
p1218
sS'trials.thisN'
p1219
I83
sg53
g77
sg58
g81
sg49
g23
(g66
S'E\x00\x00\x00\x00\x00\x00\x00'
p1220
tp1221
Rp1222
sS'trials.thisTrialN'
p1223
I83
sg54
g107
sg20
g21
sg34
g39
sg57
g108
sg33
g12
sa(dp1224
S'trials.thisIndex'
p1225
g23
(g66
S'j\x00\x00\x00\x00\x00\x00\x00'
p1226
tp1227
Rp1228
sg16
F2.7054879665374756
sg22
g32
sg52
g991
sg51
g94
sg50
VSentivo "tico" di nuovo
p1229
sS'trials.thisRepN'
p1230
I0
sg59
g136
sg55
g120
sg56
g78
sg15
S'space'
p1231
sS'trials.thisN'
p1232
I84
sg53
g77
sg58
g81
sg49
g23
(g66
S'k\x00\x00\x00\x00\x00\x00\x00'
p1233
tp1234
Rp1235
sS'trials.thisTrialN'
p1236
I84
sg54
g201
sg20
g21
sg34
g39
sg57
g172
sg33
g12
sa(dp1237
S'trials.thisIndex'
p1238
g23
(g66
S'\x82\x00\x00\x00\x00\x00\x00\x00'
p1239
tp1240
Rp1241
sg16
F2.0547170639038086
sg22
g32
sg52
g791
sg51
g94
sg50
VSentivo "copo" di nuovo
p1242
sS'trials.thisRepN'
p1243
I0
sg59
g97
sg55
g98
sg56
g99
sg15
S'space'
p1244
sS'trials.thisN'
p1245
I85
sg53
g120
sg58
g121
sg49
g23
(g66
S'\x83\x00\x00\x00\x00\x00\x00\x00'
p1246
tp1247
Rp1248
sS'trials.thisTrialN'
p1249
I85
sg54
g107
sg20
g21
sg34
g39
sg57
g108
sg33
g12
sa(dp1250
S'trials.thisIndex'
p1251
g23
(g66
S'9\x00\x00\x00\x00\x00\x00\x00'
p1252
tp1253
Rp1254
sg16
F2.020622968673706
sg22
g32
sg52
g512
sg51
g148
sg50
VHa detto "tapo" sei volte
p1255
sS'trials.thisRepN'
p1256
I0
sg59
g97
sg55
g98
sg56
g117
sg15
S'space'
p1257
sS'trials.thisN'
p1258
I86
sg53
g77
sg58
g81
sg49
g23
(g66
S':\x00\x00\x00\x00\x00\x00\x00'
p1259
tp1260
Rp1261
sS'trials.thisTrialN'
p1262
I86
sg54
g126
sg20
g21
sg34
g39
sg57
g127
sg33
g12
sa(dp1263
S'trials.thisIndex'
p1264
g23
(g66
S'\x7f\x00\x00\x00\x00\x00\x00\x00'
p1265
tp1266
Rp1267
sg16
F2.2889769077301025
sg22
g32
sg52
Vchipo
p1268
sg51
g222
sg50
VRipete "chipo" da sempre
p1269
sS'trials.thisRepN'
p1270
I0
sg59
g97
sg55
g98
sg56
g78
sg15
S'space'
p1271
sS'trials.thisN'
p1272
I87
sg53
g120
sg58
g121
sg49
g23
(g66
S'\x80\x00\x00\x00\x00\x00\x00\x00'
p1273
tp1274
Rp1275
sS'trials.thisTrialN'
p1276
I87
sg54
g201
sg20
g21
sg34
g39
sg57
g172
sg33
g12
sa(dp1277
S'trials.thisIndex'
p1278
g23
(g66
S'\xa4\x00\x00\x00\x00\x00\x00\x00'
p1279
tp1280
Rp1281
sg16
F2.1055538654327393
sg22
g32
sg52
g698
sg51
g73
sg50
VScrivete "coco" sul foglio
p1282
sS'trials.thisRepN'
p1283
I0
sg59
g136
sg55
g120
sg56
g99
sg15
S'space'
p1284
sS'trials.thisN'
p1285
I88
sg53
g120
sg58
g121
sg49
g23
(g66
S'\xa5\x00\x00\x00\x00\x00\x00\x00'
p1286
tp1287
Rp1288
sS'trials.thisTrialN'
p1289
I88
sg54
g107
sg20
g21
sg34
g39
sg57
g108
sg33
g12
sa(dp1290
S'trials.thisIndex'
p1291
g23
(g66
S'C\x00\x00\x00\x00\x00\x00\x00'
p1292
tp1293
Rp1294
sg16
F2.018195152282715
sg22
g32
sg52
g911
sg51
g222
sg50
VRipete "tipo" da sempre
p1295
sS'trials.thisRepN'
p1296
I0
sg59
g97
sg55
g98
sg56
g78
sg15
S'space'
p1297
sS'trials.thisN'
p1298
I89
sg53
g77
sg58
g81
sg49
g23
(g66
S'D\x00\x00\x00\x00\x00\x00\x00'
p1299
tp1300
Rp1301
sS'trials.thisTrialN'
p1302
I89
sg54
g201
sg20
g21
sg34
g39
sg57
g172
sg33
g12
sa(dp1303
S'trials.thisIndex'
p1304
g23
(g66
S'B\x00\x00\x00\x00\x00\x00\x00'
p1305
tp1306
Rp1307
sg16
F1.9913239479064941
sg22
g32
sg52
g911
sg51
g94
sg50
VSentivo "tipo" di nuovo
p1308
sS'trials.thisRepN'
p1309
I0
sg59
g97
sg55
g98
sg56
g78
sg15
S'space'
p1310
sS'trials.thisN'
p1311
I90
sg53
g77
sg58
g81
sg49
g23
(g66
S'C\x00\x00\x00\x00\x00\x00\x00'
p1312
tp1313
Rp1314
sS'trials.thisTrialN'
p1315
I90
sg54
g201
sg20
g21
sg34
g39
sg57
g172
sg33
g12
sa(dp1316
S'trials.thisIndex'
p1317
g23
(g66
S'\x9b\x00\x00\x00\x00\x00\x00\x00'
p1318
tp1319
Rp1320
sg16
F2.135606050491333
sg22
g32
sg52
g964
sg51
g222
sg50
VRipete "cuto" da sempre
p1321
sS'trials.thisRepN'
p1322
I0
sg59
g76
sg55
g77
sg56
g99
sg15
S'space'
p1323
sS'trials.thisN'
p1324
I91
sg53
g120
sg58
g121
sg49
g23
(g66
S'\x9c\x00\x00\x00\x00\x00\x00\x00'
p1325
tp1326
Rp1327
sS'trials.thisTrialN'
p1328
I91
sg54
g171
sg20
g21
sg34
g39
sg57
g172
sg33
g12
sa(dp1329
S'trials.thisIndex'
p1330
g23
(g66
S'7\x00\x00\x00\x00\x00\x00\x00'
p1331
tp1332
Rp1333
sg16
F1.9986400604248047
sg22
g32
sg52
g162
sg51
g222
sg50
VRipete "puco" da sempre
p1334
sS'trials.thisRepN'
p1335
I0
sg59
g136
sg55
g120
sg56
g99
sg15
S'space'
p1336
sS'trials.thisN'
p1337
I92
sg53
g98
sg58
g102
sg49
g23
(g66
S'8\x00\x00\x00\x00\x00\x00\x00'
p1338
tp1339
Rp1340
sS'trials.thisTrialN'
p1341
I92
sg54
g171
sg20
g21
sg34
g39
sg57
g172
sg33
g12
sa(dp1342
S'trials.thisIndex'
p1343
g23
(g66
S'y\x00\x00\x00\x00\x00\x00\x00'
p1344
tp1345
Rp1346
sg16
F2.1123669147491455
sg22
g32
sg52
g431
sg51
g148
sg50
VHa detto "chepo" sei volte
p1347
sS'trials.thisRepN'
p1348
I0
sg59
g97
sg55
g98
sg56
g78
sg15
S'space'
p1349
sS'trials.thisN'
p1350
I93
sg53
g120
sg58
g121
sg49
g23
(g66
S'z\x00\x00\x00\x00\x00\x00\x00'
p1351
tp1352
Rp1353
sS'trials.thisTrialN'
p1354
I93
sg54
g86
sg20
g21
sg34
g39
sg57
g87
sg33
g12
sa(dp1355
S'trials.thisIndex'
p1356
g23
(g66
S'\x1d\x00\x00\x00\x00\x00\x00\x00'
p1357
tp1358
Rp1359
sg16
F1.908210039138794
sg22
g32
sg52
g347
sg51
g148
sg50
VHa detto "poto" sei volte
p1360
sS'trials.thisRepN'
p1361
I0
sg59
g76
sg55
g77
sg56
g99
sg15
S'space'
p1362
sS'trials.thisN'
p1363
I94
sg53
g98
sg58
g102
sg49
g23
(g66
S'\x1e\x00\x00\x00\x00\x00\x00\x00'
p1364
tp1365
Rp1366
sS'trials.thisTrialN'
p1367
I94
sg54
g107
sg20
g21
sg34
g39
sg57
g108
sg33
g12
sa(dp1368
S'trials.thisIndex'
p1369
g23
(g66
S'\n\x00\x00\x00\x00\x00\x00\x00'
p1370
tp1371
Rp1372
sg16
F1.8190209865570068
sg22
g32
sg52
g725
sg51
g94
sg50
VSentivo "pipo" di nuovo
p1373
sS'trials.thisRepN'
p1374
I0
sg59
g97
sg55
g98
sg56
g78
sg15
S'space'
p1375
sS'trials.thisN'
p1376
I95
sg53
g98
sg58
g102
sg49
g23
(g66
S'\x0b\x00\x00\x00\x00\x00\x00\x00'
p1377
tp1378
Rp1379
sS'trials.thisTrialN'
p1380
I95
sg54
g201
sg20
g21
sg34
g39
sg57
g172
sg33
g12
sa(dp1381
S'trials.thisIndex'
p1382
g23
(g66
S'>\x00\x00\x00\x00\x00\x00\x00'
p1383
tp1384
Rp1385
sg16
F1.7354600429534912
sg22
g32
sg52
g236
sg51
g94
sg50
VSentivo "tepo" di nuovo
p1386
sS'trials.thisRepN'
p1387
I0
sg59
g97
sg55
g98
sg56
g78
sg15
S'space'
p1388
sS'trials.thisN'
p1389
I96
sg53
g77
sg58
g81
sg49
g23
(g66
S'?\x00\x00\x00\x00\x00\x00\x00'
p1390
tp1391
Rp1392
sS'trials.thisTrialN'
p1393
I96
sg54
g86
sg20
g21
sg34
g39
sg57
g87
sg33
g12
sa(dp1394
S'trials.thisIndex'
p1395
g23
(g66
S'n\x00\x00\x00\x00\x00\x00\x00'
p1396
tp1397
Rp1398
sg16
F2.009474039077759
sg22
g32
sg52
g1070
sg51
g94
sg50
VSentivo "toco" di nuovo
p1399
sS'trials.thisRepN'
p1400
I0
sg59
g136
sg55
g120
sg56
g99
sg15
S'space'
p1401
sS'trials.thisN'
p1402
I97
sg53
g77
sg58
g81
sg49
g23
(g66
S'o\x00\x00\x00\x00\x00\x00\x00'
p1403
tp1404
Rp1405
sS'trials.thisTrialN'
p1406
I97
sg54
g107
sg20
g21
sg34
g39
sg57
g108
sg33
g12
sa(dp1407
S'trials.thisIndex'
p1408
g23
(g66
S':\x00\x00\x00\x00\x00\x00\x00'
p1409
tp1410
Rp1411
sg16
F1.8431010246276855
sg22
g32
sg52
g512
sg51
g94
sg50
VSentivo "tapo" di nuovo
p1412
sS'trials.thisRepN'
p1413
I0
sg59
g97
sg55
g98
sg56
g117
sg15
S'space'
p1414
sS'trials.thisN'
p1415
I98
sg53
g77
sg58
g81
sg49
g23
(g66
S';\x00\x00\x00\x00\x00\x00\x00'
p1416
tp1417
Rp1418
sS'trials.thisTrialN'
p1419
I98
sg54
g126
sg20
g21
sg34
g39
sg57
g127
sg33
g12
sa(dp1420
S'trials.thisIndex'
p1421
g23
(g66
S'\x1f\x00\x00\x00\x00\x00\x00\x00'
p1422
tp1423
Rp1424
sg16
F2.1667890548706055
sg22
g32
sg52
g347
sg51
g222
sg50
VRipete "poto" da sempre
p1425
sS'trials.thisRepN'
p1426
I0
sg59
g76
sg55
g77
sg56
g99
sg15
S'space'
p1427
sS'trials.thisN'
p1428
I99
sg53
g98
sg58
g102
sg49
g23
(g66
S' \x00\x00\x00\x00\x00\x00\x00'
p1429
tp1430
Rp1431
sS'trials.thisTrialN'
p1432
I99
sg54
g107
sg20
g21
sg34
g39
sg57
g108
sg33
g12
sa(dp1433
S'trials.thisIndex'
p1434
g23
(g66
S'\x15\x00\x00\x00\x00\x00\x00\x00'
p1435
tp1436
Rp1437
sg16
F1.9891119003295898
sg22
g32
sg52
g221
sg51
g148
sg50
VHa detto "pato" sei volte
p1438
sS'trials.thisRepN'
p1439
I0
sg59
g76
sg55
g77
sg56
g117
sg15
S'space'
p1440
sS'trials.thisN'
p1441
I100
sg53
g98
sg58
g102
sg49
g23
(g66
S'\x16\x00\x00\x00\x00\x00\x00\x00'
p1442
tp1443
Rp1444
sS'trials.thisTrialN'
p1445
I100
sg54
g126
sg20
g21
sg34
g39
sg57
g127
sg33
g12
sa(dp1446
S'trials.thisIndex'
p1447
g23
(g66
S'!\x00\x00\x00\x00\x00\x00\x00'
p1448
tp1449
Rp1450
sg16
F1.8021059036254883
sg22
g32
sg52
g305
sg51
g148
sg50
VHa detto "puto" sei volte
p1451
sS'trials.thisRepN'
p1452
I0
sg59
g76
sg55
g77
sg56
g99
sg15
S'space'
p1453
sS'trials.thisN'
p1454
I101
sg53
g98
sg58
g102
sg49
g23
(g66
S'"\x00\x00\x00\x00\x00\x00\x00'
p1455
tp1456
Rp1457
sS'trials.thisTrialN'
p1458
I101
sg54
g171
sg20
g21
sg34
g39
sg57
g172
sg33
g12
sa(dp1459
S'trials.thisIndex'
p1460
g23
(g66
S'\x99\x00\x00\x00\x00\x00\x00\x00'
p1461
tp1462
Rp1463
sg16
F1.9867088794708252
sg22
g32
sg52
g964
sg51
g148
sg50
VHa detto "cuto" sei volte
p1464
sS'trials.thisRepN'
p1465
I0
sg59
g76
sg55
g77
sg56
g99
sg15
S'space'
p1466
sS'trials.thisN'
p1467
I102
sg53
g120
sg58
g121
sg49
g23
(g66
S'\x9a\x00\x00\x00\x00\x00\x00\x00'
p1468
tp1469
Rp1470
sS'trials.thisTrialN'
p1471
I102
sg54
g171
sg20
g21
sg34
g39
sg57
g172
sg33
g12
sa(dp1472
S'trials.thisIndex'
p1473
g23
(g66
S'?\x00\x00\x00\x00\x00\x00\x00'
p1474
tp1475
Rp1476
sg16
F2.0721681118011475
sg22
g32
sg52
g236
sg51
g222
sg50
VRipete "tepo" da sempre
p1477
sS'trials.thisRepN'
p1478
I0
sg59
g97
sg55
g98
sg56
g78
sg15
S'space'
p1479
sS'trials.thisN'
p1480
I103
sg53
g77
sg58
g81
sg49
g23
(g66
S'@\x00\x00\x00\x00\x00\x00\x00'
p1481
tp1482
Rp1483
sS'trials.thisTrialN'
p1484
I103
sg54
g86
sg20
g21
sg34
g39
sg57
g87
sg33
g12
sa(dp1485
S'trials.thisIndex'
p1486
g23
(g66
S'z\x00\x00\x00\x00\x00\x00\x00'
p1487
tp1488
Rp1489
sg16
F2.007657051086426
sg22
g32
sg52
g431
sg51
g94
sg50
VSentivo "chepo" di nuovo
p1490
sS'trials.thisRepN'
p1491
I0
sg59
g97
sg55
g98
sg56
g78
sg15
S'space'
p1492
sS'trials.thisN'
p1493
I104
sg53
g120
sg58
g121
sg49
g23
(g66
S'{\x00\x00\x00\x00\x00\x00\x00'
p1494
tp1495
Rp1496
sS'trials.thisTrialN'
p1497
I104
sg54
g86
sg20
g21
sg34
g39
sg57
g87
sg33
g12
sa(dp1498
S'trials.thisIndex'
p1499
g23
(g66
S'\xa0\x00\x00\x00\x00\x00\x00\x00'
p1500
tp1501
Rp1502
sg16
F2.2882168292999268
sg22
g32
sg52
g192
sg51
g73
sg50
VScrivete "chico" sul foglio
p1503
sS'trials.thisRepN'
p1504
I0
sg59
g136
sg55
g120
sg56
g78
sg15
S'space'
p1505
sS'trials.thisN'
p1506
I105
sg53
g120
sg58
g121
sg49
g23
(g66
S'\xa1\x00\x00\x00\x00\x00\x00\x00'
p1507
tp1508
Rp1509
sS'trials.thisTrialN'
p1510
I105
sg54
g201
sg20
g21
sg34
g39
sg57
g172
sg33
g12
sa(dp1511
S'trials.thisIndex'
p1512
g23
(g66
S'\\\x00\x00\x00\x00\x00\x00\x00'
p1513
tp1514
Rp1515
sg16
F2.2209880352020264
sg22
g32
sg52
g1098
sg51
g73
sg50
VScrivete "tuto" sul foglio
p1516
sS'trials.thisRepN'
p1517
I0
sg59
g76
sg55
g77
sg56
g99
sg15
S'space'
p1518
sS'trials.thisN'
p1519
I106
sg53
g77
sg58
g81
sg49
g23
(g66
S']\x00\x00\x00\x00\x00\x00\x00'
p1520
tp1521
Rp1522
sS'trials.thisTrialN'
p1523
I106
sg54
g171
sg20
g21
sg34
g39
sg57
g172
sg33
g12
sa(dp1524
S'trials.thisIndex'
p1525
g23
(g66
S'8\x00\x00\x00\x00\x00\x00\x00'
p1526
tp1527
Rp1528
sg16
F2.2055490016937256
sg22
g32
sg52
g512
sg51
g73
sg50
VScrivete "tapo" sul foglio
p1529
sS'trials.thisRepN'
p1530
I0
sg59
g97
sg55
g98
sg56
g117
sg15
S'space'
p1531
sS'trials.thisN'
p1532
I107
sg53
g77
sg58
g81
sg49
g23
(g66
S'9\x00\x00\x00\x00\x00\x00\x00'
p1533
tp1534
Rp1535
sS'trials.thisTrialN'
p1536
I107
sg54
g126
sg20
g21
sg34
g39
sg57
g127
sg33
g12
sa(dp1537
S'trials.thisIndex'
p1538
g23
(g66
S'%\x00\x00\x00\x00\x00\x00\x00'
p1539
tp1540
Rp1541
sg16
F1.9365499019622803
sg22
g32
sg52
g263
sg51
g148
sg50
VHa detto "paco" sei volte
p1542
sS'trials.thisRepN'
p1543
I0
sg59
g136
sg55
g120
sg56
g117
sg15
S'space'
p1544
sS'trials.thisN'
p1545
I108
sg53
g98
sg58
g102
sg49
g23
(g66
S'&\x00\x00\x00\x00\x00\x00\x00'
p1546
tp1547
Rp1548
sS'trials.thisTrialN'
p1549
I108
sg54
g126
sg20
g21
sg34
g39
sg57
g127
sg33
g12
sa(dp1550
S'trials.thisIndex'
p1551
g23
(g66
S'*\x00\x00\x00\x00\x00\x00\x00'
p1552
tp1553
Rp1554
sg16
F2.337759017944336
sg22
g32
sg52
g333
sg51
g94
sg50
VSentivo "peco" di nuovo
p1555
sS'trials.thisRepN'
p1556
I0
sg59
g136
sg55
g120
sg56
g78
sg15
S'space'
p1557
sS'trials.thisN'
p1558
I109
sg53
g98
sg58
g102
sg49
g23
(g66
S'+\x00\x00\x00\x00\x00\x00\x00'
p1559
tp1560
Rp1561
sS'trials.thisTrialN'
p1562
I109
sg54
g86
sg20
g21
sg34
g39
sg57
g87
sg33
g12
sa(dp1563
S'trials.thisIndex'
p1564
g23
(g66
S'~\x00\x00\x00\x00\x00\x00\x00'
p1565
tp1566
Rp1567
sg16
F2.170397996902466
sg22
g32
sg52
g1268
sg51
g94
sg50
VSentivo "chipo" di nuovo
p1568
sS'trials.thisRepN'
p1569
I0
sg59
g97
sg55
g98
sg56
g78
sg15
S'space'
p1570
sS'trials.thisN'
p1571
I110
sg53
g120
sg58
g121
sg49
g23
(g66
S'\x7f\x00\x00\x00\x00\x00\x00\x00'
p1572
tp1573
Rp1574
sS'trials.thisTrialN'
p1575
I110
sg54
g201
sg20
g21
sg34
g39
sg57
g172
sg33
g12
sa(dp1576
S'trials.thisIndex'
p1577
g23
(g66
S'_\x00\x00\x00\x00\x00\x00\x00'
p1578
tp1579
Rp1580
sg16
F3.3225059509277344
sg22
g32
sg52
g1098
sg51
g222
sg50
VRipete "tuto" da sempre
p1581
sS'trials.thisRepN'
p1582
I0
sg59
g76
sg55
g77
sg56
g99
sg15
S'space'
p1583
sS'trials.thisN'
p1584
I111
sg53
g77
sg58
g81
sg49
g23
(g66
S'`\x00\x00\x00\x00\x00\x00\x00'
p1585
tp1586
Rp1587
sS'trials.thisTrialN'
p1588
I111
sg54
g171
sg20
g21
sg34
g39
sg57
g172
sg33
g12
sa(dp1589
S'trials.thisIndex'
p1590
g23
(g66
S'"\x00\x00\x00\x00\x00\x00\x00'
p1591
tp1592
Rp1593
sg16
F1.935539960861206
sg22
g32
sg52
g305
sg51
g94
sg50
VSentivo "puto" di nuovo
p1594
sS'trials.thisRepN'
p1595
I0
sg59
g76
sg55
g77
sg56
g99
sg15
S'space'
p1596
sS'trials.thisN'
p1597
I112
sg53
g98
sg58
g102
sg49
g23
(g66
S'#\x00\x00\x00\x00\x00\x00\x00'
p1598
tp1599
Rp1600
sS'trials.thisTrialN'
p1601
I112
sg54
g171
sg20
g21
sg34
g39
sg57
g172
sg33
g12
sa(dp1602
S'trials.thisIndex'
p1603
g23
(g66
S'h\x00\x00\x00\x00\x00\x00\x00'
p1604
tp1605
Rp1606
sg16
F2.3212668895721436
sg22
g32
sg52
g991
sg51
g73
sg50
VScrivete "tico" sul foglio
p1607
sS'trials.thisRepN'
p1608
I0
sg59
g136
sg55
g120
sg56
g78
sg15
S'space'
p1609
sS'trials.thisN'
p1610
I113
sg53
g77
sg58
g81
sg49
g23
(g66
S'i\x00\x00\x00\x00\x00\x00\x00'
p1611
tp1612
Rp1613
sS'trials.thisTrialN'
p1614
I113
sg54
g201
sg20
g21
sg34
g39
sg57
g172
sg33
g12
sa(dp1615
S'trials.thisIndex'
p1616
g23
(g66
S'S\x00\x00\x00\x00\x00\x00\x00'
p1617
tp1618
Rp1619
sg16
F2.170466899871826
sg22
g32
sg52
g72
sg51
g222
sg50
VRipete "teto" da sempre
p1620
sS'trials.thisRepN'
p1621
I0
sg59
g76
sg55
g77
sg56
g78
sg15
S'space'
p1622
sS'trials.thisN'
p1623
I114
sg53
g77
sg58
g81
sg49
g23
(g66
S'T\x00\x00\x00\x00\x00\x00\x00'
p1624
tp1625
Rp1626
sS'trials.thisTrialN'
p1627
I114
sg54
g86
sg20
g21
sg34
g39
sg57
g87
sg33
g12
sa(dp1628
S'trials.thisIndex'
p1629
g23
(g66
S')\x00\x00\x00\x00\x00\x00\x00'
p1630
tp1631
Rp1632
sg16
F2.1389529705047607
sg22
g32
sg52
g333
sg51
g148
sg50
VHa detto "peco" sei volte
p1633
sS'trials.thisRepN'
p1634
I0
sg59
g136
sg55
g120
sg56
g78
sg15
S'space'
p1635
sS'trials.thisN'
p1636
I115
sg53
g98
sg58
g102
sg49
g23
(g66
S'*\x00\x00\x00\x00\x00\x00\x00'
p1637
tp1638
Rp1639
sS'trials.thisTrialN'
p1640
I115
sg54
g86
sg20
g21
sg34
g39
sg57
g87
sg33
g12
sa(dp1641
S'trials.thisIndex'
p1642
g23
(g66
S'K\x00\x00\x00\x00\x00\x00\x00'
p1643
tp1644
Rp1645
sg16
F2.186394214630127
sg22
g32
sg52
g178
sg51
g222
sg50
VRipete "tupo" da sempre
p1646
sS'trials.thisRepN'
p1647
I0
sg59
g97
sg55
g98
sg56
g99
sg15
S'space'
p1648
sS'trials.thisN'
p1649
I116
sg53
g77
sg58
g81
sg49
g23
(g66
S'L\x00\x00\x00\x00\x00\x00\x00'
p1650
tp1651
Rp1652
sS'trials.thisTrialN'
p1653
I116
sg54
g171
sg20
g21
sg34
g39
sg57
g172
sg33
g12
sa(dp1654
S'trials.thisIndex'
p1655
g23
(g66
S'o\x00\x00\x00\x00\x00\x00\x00'
p1656
tp1657
Rp1658
sg16
F2.2044739723205566
sg22
g32
sg52
g1070
sg51
g222
sg50
VRipete "toco" da sempre
p1659
sS'trials.thisRepN'
p1660
I0
sg59
g136
sg55
g120
sg56
g99
sg15
S'space'
p1661
sS'trials.thisN'
p1662
I117
sg53
g77
sg58
g81
sg49
g23
(g66
S'p\x00\x00\x00\x00\x00\x00\x00'
p1663
tp1664
Rp1665
sS'trials.thisTrialN'
p1666
I117
sg54
g107
sg20
g21
sg34
g39
sg57
g108
sg33
g12
sa(dp1667
S'trials.thisIndex'
p1668
g23
(g66
S'{\x00\x00\x00\x00\x00\x00\x00'
p1669
tp1670
Rp1671
sg16
F2.2033650875091553
sg22
g32
sg52
g431
sg51
g222
sg50
VRipete "chepo" da sempre
p1672
sS'trials.thisRepN'
p1673
I0
sg59
g97
sg55
g98
sg56
g78
sg15
S'space'
p1674
sS'trials.thisN'
p1675
I118
sg53
g120
sg58
g121
sg49
g23
(g66
S'|\x00\x00\x00\x00\x00\x00\x00'
p1676
tp1677
Rp1678
sS'trials.thisTrialN'
p1679
I118
sg54
g86
sg20
g21
sg34
g39
sg57
g87
sg33
g12
sa(dp1680
S'trials.thisIndex'
p1681
g23
(g66
S'\x8a\x00\x00\x00\x00\x00\x00\x00'
p1682
tp1683
Rp1684
sg16
F2.05472993850708
sg22
g32
sg52
g458
sg51
g94
sg50
VSentivo "cato" di nuovo
p1685
sS'trials.thisRepN'
p1686
I0
sg59
g76
sg55
g77
sg56
g117
sg15
S'space'
p1687
sS'trials.thisN'
p1688
I119
sg53
g120
sg58
g121
sg49
g23
(g66
S'\x8b\x00\x00\x00\x00\x00\x00\x00'
p1689
tp1690
Rp1691
sS'trials.thisTrialN'
p1692
I119
sg54
g126
sg20
g21
sg34
g39
sg57
g127
sg33
g12
sa(dp1693
S'trials.thisIndex'
p1694
g23
(g66
S'\x98\x00\x00\x00\x00\x00\x00\x00'
p1695
tp1696
Rp1697
sg16
F2.253925085067749
sg22
g32
sg52
g964
sg51
g73
sg50
VScrivete "cuto" sul foglio
p1698
sS'trials.thisRepN'
p1699
I0
sg59
g76
sg55
g77
sg56
g99
sg15
S'space'
p1700
sS'trials.thisN'
p1701
I120
sg53
g120
sg58
g121
sg49
g23
(g66
S'\x99\x00\x00\x00\x00\x00\x00\x00'
p1702
tp1703
Rp1704
sS'trials.thisTrialN'
p1705
I120
sg54
g171
sg20
g21
sg34
g39
sg57
g172
sg33
g12
sa(dp1706
S'trials.thisIndex'
p1707
g23
(g66
S'$\x00\x00\x00\x00\x00\x00\x00'
p1708
tp1709
Rp1710
sg16
F2.237718105316162
sg22
g32
sg52
g263
sg51
g73
sg50
VScrivete "paco" sul foglio
p1711
sS'trials.thisRepN'
p1712
I0
sg59
g136
sg55
g120
sg56
g117
sg15
S'space'
p1713
sS'trials.thisN'
p1714
I121
sg53
g98
sg58
g102
sg49
g23
(g66
S'%\x00\x00\x00\x00\x00\x00\x00'
p1715
tp1716
Rp1717
sS'trials.thisTrialN'
p1718
I121
sg54
g126
sg20
g21
sg34
g39
sg57
g127
sg33
g12
sa(dp1719
S'trials.thisIndex'
p1720
g23
(g66
S'\xa3\x00\x00\x00\x00\x00\x00\x00'
p1721
tp1722
Rp1723
sg16
F2.1371209621429443
sg22
g32
sg52
g192
sg51
g222
sg50
VRipete "chico" da sempre
p1724
sS'trials.thisRepN'
p1725
I0
sg59
g136
sg55
g120
sg56
g78
sg15
S'space'
p1726
sS'trials.thisN'
p1727
I122
sg53
g120
sg58
g121
sg49
g23
(g66
S'\xa4\x00\x00\x00\x00\x00\x00\x00'
p1728
tp1729
Rp1730
sS'trials.thisTrialN'
p1731
I122
sg54
g201
sg20
g21
sg34
g39
sg57
g172
sg33
g12
sa(dp1732
S'trials.thisIndex'
p1733
g23
(g66
S'}\x00\x00\x00\x00\x00\x00\x00'
p1734
tp1735
Rp1736
sg16
F20.467384099960327
sg22
g32
sg52
g1268
sg51
g148
sg50
VHa detto "chipo" sei volte
p1737
sS'trials.thisRepN'
p1738
I0
sg59
g97
sg55
g98
sg56
g78
sg15
S'space'
p1739
sS'trials.thisN'
p1740
I123
sg53
g120
sg58
g121
sg49
g23
(g66
S'~\x00\x00\x00\x00\x00\x00\x00'
p1741
tp1742
Rp1743
sS'trials.thisTrialN'
p1744
I123
sg54
g201
sg20
g21
sg34
g39
sg57
g172
sg33
g12
sa(dp1745
S'trials.thisIndex'
p1746
g23
(g66
S'a\x00\x00\x00\x00\x00\x00\x00'
p1747
tp1748
Rp1749
sg16
F2.2065439224243164
sg22
g32
sg52
g857
sg51
g148
sg50
VHa detto "taco" sei volte
p1750
sS'trials.thisRepN'
p1751
I0
sg59
g136
sg55
g120
sg56
g117
sg15
S'space'
p1752
sS'trials.thisN'
p1753
I124
sg53
g77
sg58
g81
sg49
g23
(g66
S'b\x00\x00\x00\x00\x00\x00\x00'
p1754
tp1755
Rp1756
sS'trials.thisTrialN'
p1757
I124
sg54
g126
sg20
g21
sg34
g39
sg57
g127
sg33
g12
sa(dp1758
S'trials.thisIndex'
p1759
g23
(g66
S'q\x00\x00\x00\x00\x00\x00\x00'
p1760
tp1761
Rp1762
sg16
F1.889714002609253
sg22
g32
sg52
g485
sg51
g148
sg50
VHa detto "tuco" sei volte
p1763
sS'trials.thisRepN'
p1764
I0
sg59
g136
sg55
g120
sg56
g99
sg15
S'space'
p1765
sS'trials.thisN'
p1766
I125
sg53
g77
sg58
g81
sg49
g23
(g66
S'r\x00\x00\x00\x00\x00\x00\x00'
p1767
tp1768
Rp1769
sS'trials.thisTrialN'
p1770
I125
sg54
g171
sg20
g21
sg34
g39
sg57
g172
sg33
g12
sa(dp1771
S'trials.thisIndex'
p1772
g23
(g66
S'w\x00\x00\x00\x00\x00\x00\x00'
p1773
tp1774
Rp1775
sg16
F1.854552984237671
sg22
g32
sg52
g114
sg51
g222
sg50
VRipete "capo" da sempre
p1776
sS'trials.thisRepN'
p1777
I0
sg59
g97
sg55
g98
sg56
g117
sg15
S'space'
p1778
sS'trials.thisN'
p1779
I126
sg53
g120
sg58
g121
sg49
g23
(g66
S'x\x00\x00\x00\x00\x00\x00\x00'
p1780
tp1781
Rp1782
sS'trials.thisTrialN'
p1783
I126
sg54
g126
sg20
g21
sg34
g39
sg57
g127
sg33
g12
sa(dp1784
S'trials.thisIndex'
p1785
g23
(g66
S'.\x00\x00\x00\x00\x00\x00\x00'
p1786
tp1787
Rp1788
sg16
F1.8079841136932373
sg22
g32
sg52
g684
sg51
g94
sg50
VSentivo "pico" di nuovo
p1789
sS'trials.thisRepN'
p1790
I0
sg59
g136
sg55
g120
sg56
g78
sg15
S'space'
p1791
sS'trials.thisN'
p1792
I127
sg53
g98
sg58
g102
sg49
g23
(g66
S'/\x00\x00\x00\x00\x00\x00\x00'
p1793
tp1794
Rp1795
sS'trials.thisTrialN'
p1796
I127
sg54
g201
sg20
g21
sg34
g39
sg57
g172
sg33
g12
sa(dp1797
S'trials.thisIndex'
p1798
g23
(g66
S'\x9c\x00\x00\x00\x00\x00\x00\x00'
p1799
tp1800
Rp1801
sg16
F2.0881168842315674
sg22
g32
sg52
Vcheco
p1802
sg51
g73
sg50
VScrivete "checo" sul foglio
p1803
sS'trials.thisRepN'
p1804
I0
sg59
g136
sg55
g120
sg56
g78
sg15
S'space'
p1805
sS'trials.thisN'
p1806
I128
sg53
g120
sg58
g121
sg49
g23
(g66
S'\x9d\x00\x00\x00\x00\x00\x00\x00'
p1807
tp1808
Rp1809
sS'trials.thisTrialN'
p1810
I128
sg54
g86
sg20
g21
sg34
g39
sg57
g87
sg33
g12
sa(dp1811
S'trials.thisIndex'
p1812
g23
(g66
S'1\x00\x00\x00\x00\x00\x00\x00'
p1813
tp1814
Rp1815
sg16
F1.8008670806884766
sg22
g32
sg52
g133
sg51
g148
sg50
VHa detto "poco" sei volte
p1816
sS'trials.thisRepN'
p1817
I0
sg59
g136
sg55
g120
sg56
g99
sg15
S'space'
p1818
sS'trials.thisN'
p1819
I129
sg53
g98
sg58
g102
sg49
g23
(g66
S'2\x00\x00\x00\x00\x00\x00\x00'
p1820
tp1821
Rp1822
sS'trials.thisTrialN'
p1823
I129
sg54
g107
sg20
g21
sg34
g39
sg57
g108
sg33
g12
sa(dp1824
S'trials.thisIndex'
p1825
g23
(g66
S'l\x00\x00\x00\x00\x00\x00\x00'
p1826
tp1827
Rp1828
sg16
F2.0205490589141846
sg22
g32
sg52
g1070
sg51
g73
sg50
VScrivete "toco" sul foglio
p1829
sS'trials.thisRepN'
p1830
I0
sg59
g136
sg55
g120
sg56
g99
sg15
S'space'
p1831
sS'trials.thisN'
p1832
I130
sg53
g77
sg58
g81
sg49
g23
(g66
S'm\x00\x00\x00\x00\x00\x00\x00'
p1833
tp1834
Rp1835
sS'trials.thisTrialN'
p1836
I130
sg54
g107
sg20
g21
sg34
g39
sg57
g108
sg33
g12
sa(dp1837
S'trials.thisIndex'
p1838
g23
(g66
S'\x9f\x00\x00\x00\x00\x00\x00\x00'
p1839
tp1840
Rp1841
sg16
F2.40305495262146
sg22
g32
sg52
g1802
sg51
g222
sg50
VRipete "checo" da sempre
p1842
sS'trials.thisRepN'
p1843
I0
sg59
g136
sg55
g120
sg56
g78
sg15
S'space'
p1844
sS'trials.thisN'
p1845
I131
sg53
g120
sg58
g121
sg49
g23
(g66
S'\xa0\x00\x00\x00\x00\x00\x00\x00'
p1846
tp1847
Rp1848
sS'trials.thisTrialN'
p1849
I131
sg54
g86
sg20
g21
sg34
g39
sg57
g87
sg33
g12
sa(dp1850
S'trials.thisIndex'
p1851
g23
(g66
S'V\x00\x00\x00\x00\x00\x00\x00'
p1852
tp1853
Rp1854
sg16
F1.7524969577789307
sg22
g32
sg52
g291
sg51
g94
sg50
VSentivo "tito" di nuovo
p1855
sS'trials.thisRepN'
p1856
I0
sg59
g76
sg55
g77
sg56
g78
sg15
S'space'
p1857
sS'trials.thisN'
p1858
I132
sg53
g77
sg58
g81
sg49
g23
(g66
S'W\x00\x00\x00\x00\x00\x00\x00'
p1859
tp1860
Rp1861
sS'trials.thisTrialN'
p1862
I132
sg54
g201
sg20
g21
sg34
g39
sg57
g172
sg33
g12
sa(dp1863
S'trials.thisIndex'
p1864
g23
(g66
S'p\x00\x00\x00\x00\x00\x00\x00'
p1865
tp1866
Rp1867
sg16
F2.3546319007873535
sg22
g32
sg52
g485
sg51
g73
sg50
VScrivete "tuco" sul foglio
p1868
sS'trials.thisRepN'
p1869
I0
sg59
g136
sg55
g120
sg56
g99
sg15
S'space'
p1870
sS'trials.thisN'
p1871
I133
sg53
g77
sg58
g81
sg49
g23
(g66
S'q\x00\x00\x00\x00\x00\x00\x00'
p1872
tp1873
Rp1874
sS'trials.thisTrialN'
p1875
I133
sg54
g171
sg20
g21
sg34
g39
sg57
g172
sg33
g12
sa(dp1876
S'trials.thisIndex'
p1877
g23
(g66
S'\x97\x00\x00\x00\x00\x00\x00\x00'
p1878
tp1879
Rp1880
sg16
F2.0586700439453125
sg22
g32
sg52
g417
sg51
g222
sg50
VRipete "coto" da sempre
p1881
sS'trials.thisRepN'
p1882
I0
sg59
g76
sg55
g77
sg56
g99
sg15
S'space'
p1883
sS'trials.thisN'
p1884
I134
sg53
g120
sg58
g121
sg49
g23
(g66
S'\x98\x00\x00\x00\x00\x00\x00\x00'
p1885
tp1886
Rp1887
sS'trials.thisTrialN'
p1888
I134
sg54
g107
sg20
g21
sg34
g39
sg57
g108
sg33
g12
sa(dp1889
S'trials.thisIndex'
p1890
g23
(g66
S'\xaa\x00\x00\x00\x00\x00\x00\x00'
p1891
tp1892
Rp1893
sg16
F1.8047051429748535
sg22
g32
sg52
g319
sg51
g94
sg50
VSentivo "cuco" di nuovo
p1894
sS'trials.thisRepN'
p1895
I0
sg59
g136
sg55
g120
sg56
g99
sg15
S'space'
p1896
sS'trials.thisN'
p1897
I135
sg53
g120
sg58
g121
sg49
g23
(g66
S'\xab\x00\x00\x00\x00\x00\x00\x00'
p1898
tp1899
Rp1900
sS'trials.thisTrialN'
p1901
I135
sg54
g171
sg20
g21
sg34
g39
sg57
g172
sg33
g12
sa(dp1902
S'trials.thisIndex'
p1903
g23
(g66
S'\x8d\x00\x00\x00\x00\x00\x00\x00'
p1904
tp1905
Rp1906
sg16
F1.8705930709838867
sg22
g32
sg52
g897
sg51
g148
sg50
VHa detto "cheto" sei volte
p1907
sS'trials.thisRepN'
p1908
I0
sg59
g76
sg55
g77
sg56
g78
sg15
S'space'
p1909
sS'trials.thisN'
p1910
I136
sg53
g120
sg58
g121
sg49
g23
(g66
S'\x8e\x00\x00\x00\x00\x00\x00\x00'
p1911
tp1912
Rp1913
sS'trials.thisTrialN'
p1914
I136
sg54
g86
sg20
g21
sg34
g39
sg57
g87
sg33
g12
sa(dp1915
S'trials.thisIndex'
p1916
g23
(g66
S'\x03\x00\x00\x00\x00\x00\x00\x00'
p1917
tp1918
Rp1919
sg16
F1.966689109802246
sg22
g32
sg52
g539
sg51
g222
sg50
VRipete "papo" da sempre
p1920
sS'trials.thisRepN'
p1921
I0
sg59
g97
sg55
g98
sg56
g117
sg15
S'space'
p1922
sS'trials.thisN'
p1923
I137
sg53
g98
sg58
g102
sg49
g23
(g66
S'\x04\x00\x00\x00\x00\x00\x00\x00'
p1924
tp1925
Rp1926
sS'trials.thisTrialN'
p1927
I137
sg54
g126
sg20
g21
sg34
g39
sg57
g127
sg33
g12
sa(dp1928
S'trials.thisIndex'
p1929
g23
(g66
S'|\x00\x00\x00\x00\x00\x00\x00'
p1930
tp1931
Rp1932
sg16
F2.0909368991851807
sg22
g32
sg52
g1268
sg51
g73
sg50
VScrivete "chipo" sul foglio
p1933
sS'trials.thisRepN'
p1934
I0
sg59
g97
sg55
g98
sg56
g78
sg15
S'space'
p1935
sS'trials.thisN'
p1936
I138
sg53
g120
sg58
g121
sg49
g23
(g66
S'}\x00\x00\x00\x00\x00\x00\x00'
p1937
tp1938
Rp1939
sS'trials.thisTrialN'
p1940
I138
sg54
g201
sg20
g21
sg34
g39
sg57
g172
sg33
g12
sa(dp1941
S'trials.thisIndex'
p1942
g23
(g66
S'\x16\x00\x00\x00\x00\x00\x00\x00'
p1943
tp1944
Rp1945
sg16
F1.774371862411499
sg22
g32
sg52
g221
sg51
g94
sg50
VSentivo "pato" di nuovo
p1946
sS'trials.thisRepN'
p1947
I0
sg59
g76
sg55
g77
sg56
g117
sg15
S'space'
p1948
sS'trials.thisN'
p1949
I139
sg53
g98
sg58
g102
sg49
g23
(g66
S'\x17\x00\x00\x00\x00\x00\x00\x00'
p1950
tp1951
Rp1952
sS'trials.thisTrialN'
p1953
I139
sg54
g126
sg20
g21
sg34
g39
sg57
g127
sg33
g12
sa(dp1954
S'trials.thisIndex'
p1955
g23
(g66
S'g\x00\x00\x00\x00\x00\x00\x00'
p1956
tp1957
Rp1958
sg16
F1.8870971202850342
sg22
g32
sg52
g207
sg51
g222
sg50
VRipete "teco" da sempre
p1959
sS'trials.thisRepN'
p1960
I0
sg59
g136
sg55
g120
sg56
g78
sg15
S'space'
p1961
sS'trials.thisN'
p1962
I140
sg53
g77
sg58
g81
sg49
g23
(g66
S'h\x00\x00\x00\x00\x00\x00\x00'
p1963
tp1964
Rp1965
sS'trials.thisTrialN'
p1966
I140
sg54
g86
sg20
g21
sg34
g39
sg57
g87
sg33
g12
sa(dp1967
S'trials.thisIndex'
p1968
g23
(g66
S'\x8b\x00\x00\x00\x00\x00\x00\x00'
p1969
tp1970
Rp1971
sg16
F1.915395975112915
sg22
g32
sg52
g458
sg51
g222
sg50
VRipete "cato" da sempre
p1972
sS'trials.thisRepN'
p1973
I0
sg59
g76
sg55
g77
sg56
g117
sg15
S'space'
p1974
sS'trials.thisN'
p1975
I141
sg53
g120
sg58
g121
sg49
g23
(g66
S'\x8c\x00\x00\x00\x00\x00\x00\x00'
p1976
tp1977
Rp1978
sS'trials.thisTrialN'
p1979
I141
sg54
g126
sg20
g21
sg34
g39
sg57
g127
sg33
g12
sa(dp1980
S'trials.thisIndex'
p1981
g23
(g66
S'W\x00\x00\x00\x00\x00\x00\x00'
p1982
tp1983
Rp1984
sg16
F2.0892069339752197
sg22
g32
sg52
g291
sg51
g222
sg50
VRipete "tito" da sempre
p1985
sS'trials.thisRepN'
p1986
I0
sg59
g76
sg55
g77
sg56
g78
sg15
S'space'
p1987
sS'trials.thisN'
p1988
I142
sg53
g77
sg58
g81
sg49
g23
(g66
S'X\x00\x00\x00\x00\x00\x00\x00'
p1989
tp1990
Rp1991
sS'trials.thisTrialN'
p1992
I142
sg54
g201
sg20
g21
sg34
g39
sg57
g172
sg33
g12
sa(dp1993
S'trials.thisIndex'
p1994
g23
(g66
S'\x81\x00\x00\x00\x00\x00\x00\x00'
p1995
tp1996
Rp1997
sg16
F1.9207241535186768
sg22
g32
sg52
g791
sg51
g148
sg50
VHa detto "copo" sei volte
p1998
sS'trials.thisRepN'
p1999
I0
sg59
g97
sg55
g98
sg56
g99
sg15
S'space'
p2000
sS'trials.thisN'
p2001
I143
sg53
g120
sg58
g121
sg49
g23
(g66
S'\x82\x00\x00\x00\x00\x00\x00\x00'
p2002
tp2003
Rp2004
sS'trials.thisTrialN'
p2005
I143
sg54
g107
sg20
g21
sg34
g39
sg57
g108
sg33
g12
sa(dp2006
S'trials.thisIndex'
p2007
g23
(g66
S'M\x00\x00\x00\x00\x00\x00\x00'
p2008
tp2009
Rp2010
sg16
F1.6534600257873535
sg22
g32
sg52
g403
sg51
g148
sg50
VHa detto "tato" sei volte
p2011
sS'trials.thisRepN'
p2012
I0
sg59
g76
sg55
g77
sg56
g117
sg15
S'space'
p2013
sS'trials.thisN'
p2014
I144
sg53
g77
sg58
g81
sg49
g23
(g66
S'N\x00\x00\x00\x00\x00\x00\x00'
p2015
tp2016
Rp2017
sS'trials.thisTrialN'
p2018
I144
sg54
g126
sg20
g21
sg34
g39
sg57
g127
sg33
g12
sa(dp2019
S'trials.thisIndex'
p2020
g23
(g66
S'k\x00\x00\x00\x00\x00\x00\x00'
p2021
tp2022
Rp2023
sg16
F1.673051118850708
sg22
g32
sg52
g991
sg51
g222
sg50
VRipete "tico" da sempre
p2024
sS'trials.thisRepN'
p2025
I0
sg59
g136
sg55
g120
sg56
g78
sg15
S'space'
p2026
sS'trials.thisN'
p2027
I145
sg53
g77
sg58
g81
sg49
g23
(g66
S'l\x00\x00\x00\x00\x00\x00\x00'
p2028
tp2029
Rp2030
sS'trials.thisTrialN'
p2031
I145
sg54
g201
sg20
g21
sg34
g39
sg57
g172
sg33
g12
sa(dp2032
S'trials.thisIndex'
p2033
g23
(g66
S'\x11\x00\x00\x00\x00\x00\x00\x00'
p2034
tp2035
Rp2036
sg16
F1.7213048934936523
sg22
g32
sg52
g277
sg51
g148
sg50
VHa detto "pupo" sei volte
p2037
sS'trials.thisRepN'
p2038
I0
sg59
g97
sg55
g98
sg56
g99
sg15
S'space'
p2039
sS'trials.thisN'
p2040
I146
sg53
g98
sg58
g102
sg49
g23
(g66
S'\x12\x00\x00\x00\x00\x00\x00\x00'
p2041
tp2042
Rp2043
sS'trials.thisTrialN'
p2044
I146
sg54
g171
sg20
g21
sg34
g39
sg57
g172
sg33
g12
sa(dp2045
S'trials.thisIndex'
p2046
g23
(g66
S'\x91\x00\x00\x00\x00\x00\x00\x00'
p2047
tp2048
Rp2049
sg16
F1.9402499198913574
sg22
g32
sg52
Vchito
p2050
sg51
g148
sg50
VHa detto "chito" sei volte
p2051
sS'trials.thisRepN'
p2052
I0
sg59
g76
sg55
g77
sg56
g78
sg15
S'space'
p2053
sS'trials.thisN'
p2054
I147
sg53
g120
sg58
g121
sg49
g23
(g66
S'\x92\x00\x00\x00\x00\x00\x00\x00'
p2055
tp2056
Rp2057
sS'trials.thisTrialN'
p2058
I147
sg54
g201
sg20
g21
sg34
g39
sg57
g172
sg33
g12
sa(dp2059
S'trials.thisIndex'
p2060
g23
(g66
S'Q\x00\x00\x00\x00\x00\x00\x00'
p2061
tp2062
Rp2063
sg16
F1.7215750217437744
sg22
g32
sg52
g72
sg51
g148
sg50
VHa detto "teto" sei volte
p2064
sS'trials.thisRepN'
p2065
I0
sg59
g76
sg55
g77
sg56
g78
sg15
S'space'
p2066
sS'trials.thisN'
p2067
I148
sg53
g77
sg58
g81
sg49
g23
(g66
S'R\x00\x00\x00\x00\x00\x00\x00'
p2068
tp2069
Rp2070
sS'trials.thisTrialN'
p2071
I148
sg54
g86
sg20
g21
sg34
g39
sg57
g87
sg33
g12
sa(dp2072
S'trials.thisIndex'
p2073
g23
(g66
S'3\x00\x00\x00\x00\x00\x00\x00'
p2074
tp2075
Rp2076
sg16
F1.8718760013580322
sg22
g32
sg52
g133
sg51
g222
sg50
VRipete "poco" da sempre
p2077
sS'trials.thisRepN'
p2078
I0
sg59
g136
sg55
g120
sg56
g99
sg15
S'space'
p2079
sS'trials.thisN'
p2080
I149
sg53
g98
sg58
g102
sg49
g23
(g66
S'4\x00\x00\x00\x00\x00\x00\x00'
p2081
tp2082
Rp2083
sS'trials.thisTrialN'
p2084
I149
sg54
g107
sg20
g21
sg34
g39
sg57
g108
sg33
g12
sa(dp2085
S'trials.thisIndex'
p2086
g23
(g66
S'\x1a\x00\x00\x00\x00\x00\x00\x00'
p2087
tp2088
Rp2089
sg16
F1.5213069915771484
sg22
g32
sg52
g375
sg51
g94
sg50
VSentivo "pito" di nuovo
p2090
sS'trials.thisRepN'
p2091
I0
sg59
g76
sg55
g77
sg56
g78
sg15
S'space'
p2092
sS'trials.thisN'
p2093
I150
sg53
g98
sg58
g102
sg49
g23
(g66
S'\x1b\x00\x00\x00\x00\x00\x00\x00'
p2094
tp2095
Rp2096
sS'trials.thisTrialN'
p2097
I150
sg54
g201
sg20
g21
sg34
g39
sg57
g172
sg33
g12
sa(dp2098
S'trials.thisIndex'
p2099
g23
(g66
S'\x9e\x00\x00\x00\x00\x00\x00\x00'
p2100
tp2101
Rp2102
sg16
F1.9720630645751953
sg22
g32
sg52
g1802
sg51
g94
sg50
VSentivo "checo" di nuovo
p2103
sS'trials.thisRepN'
p2104
I0
sg59
g136
sg55
g120
sg56
g78
sg15
S'space'
p2105
sS'trials.thisN'
p2106
I151
sg53
g120
sg58
g121
sg49
g23
(g66
S'\x9f\x00\x00\x00\x00\x00\x00\x00'
p2107
tp2108
Rp2109
sS'trials.thisTrialN'
p2110
I151
sg54
g86
sg20
g21
sg34
g39
sg57
g87
sg33
g12
sa(dp2111
S'trials.thisIndex'
p2112
g23
(g66
S'\x87\x00\x00\x00\x00\x00\x00\x00'
p2113
tp2114
Rp2115
sg16
F5.972962141036987
sg22
g32
sg52
g389
sg51
g222
sg50
VRipete "cupo" da sempre
p2116
sS'trials.thisRepN'
p2117
I0
sg59
g97
sg55
g98
sg56
g99
sg15
S'space'
p2118
sS'trials.thisN'
p2119
I152
sg53
g120
sg58
g121
sg49
g23
(g66
S'\x88\x00\x00\x00\x00\x00\x00\x00'
p2120
tp2121
Rp2122
sS'trials.thisTrialN'
p2123
I152
sg54
g171
sg20
g21
sg34
g39
sg57
g172
sg33
g12
sa(dp2124
S'trials.thisIndex'
p2125
g23
(g66
S'E\x00\x00\x00\x00\x00\x00\x00'
p2126
tp2127
Rp2128
sg16
F2.0362119674682617
sg22
g32
sg52
g361
sg51
g148
sg50
VHa detto "topo" sei volte
p2129
sS'trials.thisRepN'
p2130
I0
sg59
g97
sg55
g98
sg56
g99
sg15
S'space'
p2131
sS'trials.thisN'
p2132
I153
sg53
g77
sg58
g81
sg49
g23
(g66
S'F\x00\x00\x00\x00\x00\x00\x00'
p2133
tp2134
Rp2135
sS'trials.thisTrialN'
p2136
I153
sg54
g107
sg20
g21
sg34
g39
sg57
g108
sg33
g12
sa(dp2137
S'trials.thisIndex'
p2138
g23
(g66
S'[\x00\x00\x00\x00\x00\x00\x00'
p2139
tp2140
Rp2141
sg16
F1.6876111030578613
sg22
g32
sg52
g1084
sg51
g222
sg50
VRipete "toto" da sempre
p2142
sS'trials.thisRepN'
p2143
I0
sg59
g76
sg55
g77
sg56
g99
sg15
S'space'
p2144
sS'trials.thisN'
p2145
I154
sg53
g77
sg58
g81
sg49
g23
(g66
S'\\\x00\x00\x00\x00\x00\x00\x00'
p2146
tp2147
Rp2148
sS'trials.thisTrialN'
p2149
I154
sg54
g107
sg20
g21
sg34
g39
sg57
g108
sg33
g12
sa(dp2150
S'trials.thisIndex'
p2151
g23
(g66
S'\x93\x00\x00\x00\x00\x00\x00\x00'
p2152
tp2153
Rp2154
sg16
F2.070664882659912
sg22
g32
sg52
g2050
sg51
g222
sg50
VRipete "chito" da sempre
p2155
sS'trials.thisRepN'
p2156
I0
sg59
g76
sg55
g77
sg56
g78
sg15
S'space'
p2157
sS'trials.thisN'
p2158
I155
sg53
g120
sg58
g121
sg49
g23
(g66
S'\x94\x00\x00\x00\x00\x00\x00\x00'
p2159
tp2160
Rp2161
sS'trials.thisTrialN'
p2162
I155
sg54
g201
sg20
g21
sg34
g39
sg57
g172
sg33
g12
sa(dp2163
S'trials.thisIndex'
p2164
g23
(g66
S'\xab\x00\x00\x00\x00\x00\x00\x00'
p2165
tp2166
Rp2167
sg16
F1.6040151119232178
sg22
g32
sg52
g319
sg51
g222
sg50
VRipete "cuco" da sempre
p2168
sS'trials.thisRepN'
p2169
I0
sg59
g136
sg55
g120
sg56
g99
sg15
S'space'
p2170
sS'trials.thisN'
p2171
I156
sg53
g120
sg58
g121
sg49
g23
(g66
S'\xac\x00\x00\x00\x00\x00\x00\x00'
p2172
tp2173
Rp2174
sS'trials.thisTrialN'
p2175
I156
sg54
g171
sg20
g21
sg34
g39
sg57
g172
sg33
g12
sa(dp2176
S'trials.thisIndex'
p2177
g23
(g66
S'Y\x00\x00\x00\x00\x00\x00\x00'
p2178
tp2179
Rp2180
sg16
F1.922684907913208
sg22
g32
sg52
g1084
sg51
g148
sg50
VHa detto "toto" sei volte
p2181
sS'trials.thisRepN'
p2182
I0
sg59
g76
sg55
g77
sg56
g99
sg15
S'space'
p2183
sS'trials.thisN'
p2184
I157
sg53
g77
sg58
g81
sg49
g23
(g66
S'Z\x00\x00\x00\x00\x00\x00\x00'
p2185
tp2186
Rp2187
sS'trials.thisTrialN'
p2188
I157
sg54
g107
sg20
g21
sg34
g39
sg57
g108
sg33
g12
sa(dp2189
S'trials.thisIndex'
p2190
g23
(g66
S'b\x00\x00\x00\x00\x00\x00\x00'
p2191
tp2192
Rp2193
sg16
F1.7548308372497559
sg22
g32
sg52
g857
sg51
g94
sg50
VSentivo "taco" di nuovo
p2194
sS'trials.thisRepN'
p2195
I0
sg59
g136
sg55
g120
sg56
g117
sg15
S'space'
p2196
sS'trials.thisN'
p2197
I158
sg53
g77
sg58
g81
sg49
g23
(g66
S'c\x00\x00\x00\x00\x00\x00\x00'
p2198
tp2199
Rp2200
sS'trials.thisTrialN'
p2201
I158
sg54
g126
sg20
g21
sg34
g39
sg57
g127
sg33
g12
sa(dp2202
S'trials.thisIndex'
p2203
g23
(g66
S'e\x00\x00\x00\x00\x00\x00\x00'
p2204
tp2205
Rp2206
sg16
F2.120232105255127
sg22
g32
sg52
g207
sg51
g148
sg50
VHa detto "teco" sei volte
p2207
sS'trials.thisRepN'
p2208
I0
sg59
g136
sg55
g120
sg56
g78
sg15
S'space'
p2209
sS'trials.thisN'
p2210
I159
sg53
g77
sg58
g81
sg49
g23
(g66
S'f\x00\x00\x00\x00\x00\x00\x00'
p2211
tp2212
Rp2213
sS'trials.thisTrialN'
p2214
I159
sg54
g86
sg20
g21
sg34
g39
sg57
g87
sg33
g12
sa(dp2215
S'trials.thisIndex'
p2216
g23
(g66
S'\r\x00\x00\x00\x00\x00\x00\x00'
p2217
tp2218
Rp2219
sg16
F1.9382610321044922
sg22
g32
sg52
g93
sg51
g148
sg50
VHa detto "popo" sei volte
p2220
sS'trials.thisRepN'
p2221
I0
sg59
g97
sg55
g98
sg56
g99
sg15
S'space'
p2222
sS'trials.thisN'
p2223
I160
sg53
g98
sg58
g102
sg49
g23
(g66
S'\x0e\x00\x00\x00\x00\x00\x00\x00'
p2224
tp2225
Rp2226
sS'trials.thisTrialN'
p2227
I160
sg54
g107
sg20
g21
sg34
g39
sg57
g108
sg33
g12
sa(dp2228
S'trials.thisIndex'
p2229
g23
(g66
S'\x92\x00\x00\x00\x00\x00\x00\x00'
p2230
tp2231
Rp2232
sg16
F1.773705005645752
sg22
g32
sg52
g2050
sg51
g94
sg50
VSentivo "chito" di nuovo
p2233
sS'trials.thisRepN'
p2234
I0
sg59
g76
sg55
g77
sg56
g78
sg15
S'space'
p2235
sS'trials.thisN'
p2236
I161
sg53
g120
sg58
g121
sg49
g23
(g66
S'\x93\x00\x00\x00\x00\x00\x00\x00'
p2237
tp2238
Rp2239
sS'trials.thisTrialN'
p2240
I161
sg54
g201
sg20
g21
sg34
g39
sg57
g172
sg33
g12
sa(dp2241
S'trials.thisIndex'
p2242
g23
(g66
S'\x8c\x00\x00\x00\x00\x00\x00\x00'
p2243
tp2244
Rp2245
sg16
F2.237010955810547
sg22
g32
sg52
g897
sg51
g73
sg50
VScrivete "cheto" sul foglio
p2246
sS'trials.thisRepN'
p2247
I0
sg59
g76
sg55
g77
sg56
g78
sg15
S'space'
p2248
sS'trials.thisN'
p2249
I162
sg53
g120
sg58
g121
sg49
g23
(g66
S'\x8d\x00\x00\x00\x00\x00\x00\x00'
p2250
tp2251
Rp2252
sS'trials.thisTrialN'
p2253
I162
sg54
g86
sg20
g21
sg34
g39
sg57
g87
sg33
g12
sa(dp2254
S'trials.thisIndex'
p2255
g23
(g66
S'^\x00\x00\x00\x00\x00\x00\x00'
p2256
tp2257
Rp2258
sg16
F1.7044460773468018
sg22
g32
sg52
g1098
sg51
g94
sg50
VSentivo "tuto" di nuovo
p2259
sS'trials.thisRepN'
p2260
I0
sg59
g76
sg55
g77
sg56
g99
sg15
S'space'
p2261
sS'trials.thisN'
p2262
I163
sg53
g77
sg58
g81
sg49
g23
(g66
S'_\x00\x00\x00\x00\x00\x00\x00'
p2263
tp2264
Rp2265
sS'trials.thisTrialN'
p2266
I163
sg54
g171
sg20
g21
sg34
g39
sg57
g172
sg33
g12
sa(dp2267
S'trials.thisIndex'
p2268
g23
(g66
S'`\x00\x00\x00\x00\x00\x00\x00'
p2269
tp2270
Rp2271
sg16
F1.9679770469665527
sg22
g32
sg52
g857
sg51
g73
sg50
VScrivete "taco" sul foglio
p2272
sS'trials.thisRepN'
p2273
I0
sg59
g136
sg55
g120
sg56
g117
sg15
S'space'
p2274
sS'trials.thisN'
p2275
I164
sg53
g77
sg58
g81
sg49
g23
(g66
S'a\x00\x00\x00\x00\x00\x00\x00'
p2276
tp2277
Rp2278
sS'trials.thisTrialN'
p2279
I164
sg54
g126
sg20
g21
sg34
g39
sg57
g127
sg33
g12
sa(dp2280
S'trials.thisIndex'
p2281
g23
(g66
S'\x83\x00\x00\x00\x00\x00\x00\x00'
p2282
tp2283
Rp2284
sg16
F2.022892951965332
sg22
g32
sg52
g791
sg51
g222
sg50
VRipete "copo" da sempre
p2285
sS'trials.thisRepN'
p2286
I0
sg59
g97
sg55
g98
sg56
g99
sg15
S'space'
p2287
sS'trials.thisN'
p2288
I165
sg53
g120
sg58
g121
sg49
g23
(g66
S'\x84\x00\x00\x00\x00\x00\x00\x00'
p2289
tp2290
Rp2291
sS'trials.thisTrialN'
p2292
I165
sg54
g107
sg20
g21
sg34
g39
sg57
g108
sg33
g12
sa(dp2293
S'trials.thisIndex'
p2294
g23
(g66
S'\xa7\x00\x00\x00\x00\x00\x00\x00'
p2295
tp2296
Rp2297
sg16
F2.0006649494171143
sg22
g32
sg52
g698
sg51
g222
sg50
VRipete "coco" da sempre
p2298
sS'trials.thisRepN'
p2299
I0
sg59
g136
sg55
g120
sg56
g99
sg15
S'space'
p2300
sS'trials.thisN'
p2301
I166
sg53
g120
sg58
g121
sg49
g23
(g66
S'\xa8\x00\x00\x00\x00\x00\x00\x00'
p2302
tp2303
Rp2304
sS'trials.thisTrialN'
p2305
I166
sg54
g107
sg20
g21
sg34
g39
sg57
g108
sg33
g12
sa(dp2306
S'trials.thisIndex'
p2307
g23
(g66
S'\x90\x00\x00\x00\x00\x00\x00\x00'
p2308
tp2309
Rp2310
sg16
F2.1715779304504395
sg22
g32
sg52
g2050
sg51
g73
sg50
VScrivete "chito" sul foglio
p2311
sS'trials.thisRepN'
p2312
I0
sg59
g76
sg55
g77
sg56
g78
sg15
S'space'
p2313
sS'trials.thisN'
p2314
I167
sg53
g120
sg58
g121
sg49
g23
(g66
S'\x91\x00\x00\x00\x00\x00\x00\x00'
p2315
tp2316
Rp2317
sS'trials.thisTrialN'
p2318
I167
sg54
g201
sg20
g21
sg34
g39
sg57
g172
sg33
g12
sa(dp2319
S'trials.thisIndex'
p2320
g23
(g66
S'\x96\x00\x00\x00\x00\x00\x00\x00'
p2321
tp2322
Rp2323
sg16
F1.5579471588134766
sg22
g32
sg52
g417
sg51
g94
sg50
VSentivo "coto" di nuovo
p2324
sS'trials.thisRepN'
p2325
I0
sg59
g76
sg55
g77
sg56
g99
sg15
S'space'
p2326
sS'trials.thisN'
p2327
I168
sg53
g120
sg58
g121
sg49
g23
(g66
S'\x97\x00\x00\x00\x00\x00\x00\x00'
p2328
tp2329
Rp2330
sS'trials.thisTrialN'
p2331
I168
sg54
g107
sg20
g21
sg34
g39
sg57
g108
sg33
g12
sa(dp2332
S'trials.thisIndex'
p2333
g23
(g66
S'\x18\x00\x00\x00\x00\x00\x00\x00'
p2334
tp2335
Rp2336
sg16
F1.906569004058838
sg22
g32
sg52
g375
sg51
g73
sg50
VScrivete "pito" sul foglio
p2337
sS'trials.thisRepN'
p2338
I0
sg59
g76
sg55
g77
sg56
g78
sg15
S'space'
p2339
sS'trials.thisN'
p2340
I169
sg53
g98
sg58
g102
sg49
g23
(g66
S'\x19\x00\x00\x00\x00\x00\x00\x00'
p2341
tp2342
Rp2343
sS'trials.thisTrialN'
p2344
I169
sg54
g201
sg20
g21
sg34
g39
sg57
g172
sg33
g12
sa(dp2345
S'trials.thisIndex'
p2346
g23
(g66
S'\x9d\x00\x00\x00\x00\x00\x00\x00'
p2347
tp2348
Rp2349
sg16
F2.7388968467712402
sg22
g32
sg52
g1802
sg51
g148
sg50
VHa detto "checo" sei volte
p2350
sS'trials.thisRepN'
p2351
I0
sg59
g136
sg55
g120
sg56
g78
sg15
S'space'
p2352
sS'trials.thisN'
p2353
I170
sg53
g120
sg58
g121
sg49
g23
(g66
S'\x9e\x00\x00\x00\x00\x00\x00\x00'
p2354
tp2355
Rp2356
sS'trials.thisTrialN'
p2357
I170
sg54
g86
sg20
g21
sg34
g39
sg57
g87
sg33
g12
sa(dp2358
S'trials.thisIndex'
p2359
g23
(g66
S'-\x00\x00\x00\x00\x00\x00\x00'
p2360
tp2361
Rp2362
sg16
F1.872671127319336
sg22
g32
sg52
g684
sg51
g148
sg50
VHa detto "pico" sei volte
p2363
sS'trials.thisRepN'
p2364
I0
sg59
g136
sg55
g120
sg56
g78
sg15
S'space'
p2365
sS'trials.thisN'
p2366
I171
sg53
g98
sg58
g102
sg49
g23
(g66
S'.\x00\x00\x00\x00\x00\x00\x00'
p2367
tp2368
Rp2369
sS'trials.thisTrialN'
p2370
I171
sg54
g201
sg20
g21
sg34
g39
sg57
g172
sg33
g12
sasS'loops'
p2371
(lp2372
g0
(cpsychopy.data.trial
TrialHandler
p2373
g2
Ntp2374
Rp2375
(dp2376
S'origin'
p2377
NsS'thisTrial'
p2378
(lp2379
sS'_exp'
p2380
I4628041552
sg11
S'trials'
p2381
sg6
I-1
sS'thisRepN'
p2382
I1
sg17
I01
sg18
g19
sS'data'
p2383
g0
(cpsychopy.data.base
DataHandler
p2384
c__builtin__
dict
p2385
(dp2386
S'ran'
p2387
cnumpy.ma.core
_mareconstruct
p2388
(cnumpy.ma.core
MaskedArray
p2389
cnumpy
ndarray
p2390
(I0
tp2391
S'b'
p2392
tp2393
Rp2394
(I1
(I172
I1
tp2395
g24
(S'f4'
p2396
I0
I1
tp2397
Rp2398
(I3
S'<'
p2399
NNNI-1
I-1
I0
tp2400
bI00
S'\x00\x00\x80?\x00\x00\x80?\x00\x00\x80?\x00\x00\x80?\x00\x00\x80?\x00\x00\x80?\x00\x00\x80?\x00\x00\x80?\x00\x00\x80?\x00\x00\x80?\x00\x00\x80?\x00\x00\x80?\x00\x00\x80?\x00\x00\x80?\x00\x00\x80?\x00\x00\x80?\x00\x00\x80?\x00\x00\x80?\x00\x00\x80?\x00\x00\x80?\x00\x00\x80?\x00\x00\x80?\x00\x00\x80?\x00\x00\x80?\x00\x00\x80?\x00\x00\x80?\x00\x00\x80?\x00\x00\x80?\x00\x00\x80?\x00\x00\x80?\x00\x00\x80?\x00\x00\x80?\x00\x00\x80?\x00\x00\x80?\x00\x00\x80?\x00\x00\x80?\x00\x00\x80?\x00\x00\x80?\x00\x00\x80?\x00\x00\x80?\x00\x00\x80?\x00\x00\x80?\x00\x00\x80?\x00\x00\x80?\x00\x00\x80?\x00\x00\x80?\x00\x00\x80?\x00\x00\x80?\x00\x00\x80?\x00\x00\x80?\x00\x00\x80?\x00\x00\x80?\x00\x00\x80?\x00\x00\x80?\x00\x00\x80?\x00\x00\x80?\x00\x00\x80?\x00\x00\x80?\x00\x00\x80?\x00\x00\x80?\x00\x00\x80?\x00\x00\x80?\x00\x00\x80?\x00\x00\x80?\x00\x00\x80?\x00\x00\x80?\x00\x00\x80?\x00\x00\x80?\x00\x00\x80?\x00\x00\x80?\x00\x00\x80?\x00\x00\x80?\x00\x00\x80?\x00\x00\x80?\x00\x00\x80?\x00\x00\x80?\x00\x00\x80?\x00\x00\x80?\x00\x00\x80?\x00\x00\x80?\x00\x00\x80?\x00\x00\x80?\x00\x00\x80?\x00\x00\x80?\x00\x00\x80?\x00\x00\x80?\x00\x00\x80?\x00\x00\x80?\x00\x00\x80?\x00\x00\x80?\x00\x00\x80?\x00\x00\x80?\x00\x00\x80?\x00\x00\x80?\x00\x00\x80?\x00\x00\x80?\x00\x00\x80?\x00\x00\x80?\x00\x00\x80?\x00\x00\x80?\x00\x00\x80?\x00\x00\x80?\x00\x00\x80?\x00\x00\x80?\x00\x00\x80?\x00\x00\x80?\x00\x00\x80?\x00\x00\x80?\x00\x00\x80?\x00\x00\x80?\x00\x00\x80?\x00\x00\x80?\x00\x00\x80?\x00\x00\x80?\x00\x00\x80?\x00\x00\x80?\x00\x00\x80?\x00\x00\x80?\x00\x00\x80?\x00\x00\x80?\x00\x00\x80?\x00\x00\x80?\x00\x00\x80?\x00\x00\x80?\x00\x00\x80?\x00\x00\x80?\x00\x00\x80?\x00\x00\x80?\x00\x00\x80?\x00\x00\x80?\x00\x00\x80?\x00\x00\x80?\x00\x00\x80?\x00\x00\x80?\x00\x00\x80?\x00\x00\x80?\x00\x00\x80?\x00\x00\x80?\x00\x00\x80?\x00\x00\x80?\x00\x00\x80?\x00\x00\x80?\x00\x00\x80?\x00\x00\x80?\x00\x00\x80?\x00\x00\x80?\x00\x00\x80?\x00\x00\x80?\x00\x00\x80?\x00\x00\x80?\x00\x00\x80?\x00\x00\x80?\x00\x00\x80?\x00\x00\x80?\x00\x00\x80?\x00\x00\x80?\x00\x00\x80?\x00\x00\x80?\x00\x00\x80?\x00\x00\x80?\x00\x00\x80?\x00\x00\x80?\x00\x00\x80?\x00\x00\x80?\x00\x00\x80?\x00\x00\x80?\x00\x00\x80?\x00\x00\x80?\x00\x00\x80?\x00\x00\x80?\x00\x00\x80?\x00\x00\x80?'
p2401
S'\x00\x00\x00\x00\x00\x00\x00\x00\x00\x00\x00\x00\x00\x00\x00\x00\x00\x00\x00\x00\x00\x00\x00\x00\x00\x00\x00\x00\x00\x00\x00\x00\x00\x00\x00\x00\x00\x00\x00\x00\x00\x00\x00\x00\x00\x00\x00\x00\x00\x00\x00\x00\x00\x00\x00\x00\x00\x00\x00\x00\x00\x00\x00\x00\x00\x00\x00\x00\x00\x00\x00\x00\x00\x00\x00\x00\x00\x00\x00\x00\x00\x00\x00\x00\x00\x00\x00\x00\x00\x00\x00\x00\x00\x00\x00\x00\x00\x00\x00\x00\x00\x00\x00\x00\x00\x00\x00\x00\x00\x00\x00\x00\x00\x00\x00\x00\x00\x00\x00\x00\x00\x00\x00\x00\x00\x00\x00\x00\x00\x00\x00\x00\x00\x00\x00\x00\x00\x00\x00\x00\x00\x00\x00\x00\x00\x00\x00\x00\x00\x00\x00\x00\x00\x00\x00\x00\x00\x00\x00\x00\x00\x00\x00\x00\x00\x00\x00\x00\x00\x00\x00\x00'
p2402
Ntp2403
bsg16
g2388
(g2389
g2390
g2391
g2392
tp2404
Rp2405
(I1
(I172
I1
tp2406
g2398
I00
S'\xb2\x9c\x07@\xdc\xd9\t@w\xf4\x1a@x\xbc\xfb?\x15\x03\x1d@j\xbeg@\xa8n\xfc?$\n\xe9?\xe8\xbe\x07@\x06\xfa\xf6?\xae\xd5\xe8??U\x06@2]\x02@\xf0\x18\xf8?>\x08\x1fALn\x04@\xcf\x9f\x16@\xb8S\xdc?\xe23\xed? \xce\t@\xe7p\x03@8\x9b\xfe?\x9e\x1e\xe3?L\xa8\x16@t\n\xf4?0\xa0\x06@0\xba\xc2?y\xaf%@iv\x04@:@\xf4?$\xf4\xfd?\xac\xac\n@\x88\r\xf8?h\xab\xe6?\xc6\xbf\xf7?A\x85\x03@\xc66\x0f@\xde\xe0\xf7?\x98\xfa\xfb?\xf6|C@\x8e\xe2\x1a@\x9b\xe4\x08@\xd8\x9d\x15@\xddc!@rO\x11@\xb0\xb3\xef?\x06l\xe7?\x85\x99\x08@\x01j\x03@\xd0\x82\xe6?\xcc\x02\xef?\xa2\x99\xef?\xee\x96\x13@J\'\x0f@CpD@p\xd3\xff?\xb7\'\r@\xe3Q\x01@\xbc\xea\xeb?\xcfF\x01@a\x19\x0f@&\xbd\xf7?\x8e#\xde?g\x9e\x04@\xe7m\x03@\xb0T\x0e@\xb4\xe3\xfe?\x1c*\x01@\r\x0b\xf5@LQ\x02@p\xe2\xf7?:\xd1\x08@\xdc\x85\xfe?X$\xfc?\xe6\x93\x07@\xe2\xed\x0b@?\xcc\x1a@\x94\xa4\xd3?\x88\x15\xfa?\xde\xca\x10@@Q\xf2@\x92\\\xdc?FF\x01@\xee\xe8\n@\xfe\'\x00@D;\xed?\xd2Q\xe0?\x91\xb5\x05@;\xfb\x0c@\x8a\x1a\xf6?\x8a\x95\x06@\xa4\x03\xd8?\xab$\x0e@H\xab\x07@J+\xda?\xf0\xa3T@\xac\xe6\xfb?\x048\r@L\x9e\xe0?\xaaK\x1c@3\x14\x0f@\xe2\xb1\x07@\xb6\x1d\xef?f\x8c\xf1?\xa3\x8f\x14@\x93\x8f\x19@\xb7&-@\x8a&\xd6?\xadP\x01@\x8e\\\x14@9\x9b\x00@\x1a\x16\r@J\xb2\x16@&\xe2\xf1?^\xde\x0b@#k\x13@\x0e\x14\xfc?\xf8\xd8\xf7?\xd5\xb5\x08@\xfea\xed?#\xf5\x0c@\x051\x07@t}\x00@\xef\x03\r@\xe9\xd1\x05@4\xbd\xa3A\xcd\xe7\n@\x99~\x12@\xbdV\x0f@J\xda\xf5?|\x80\x03@\x14w\x01@k\x11M@p\xce\n@\xfe\xd8\t@\x82"\xbf@\x90\xda\t@\x9cl\x13@\xb2\x80\x03@\xb2+\xf5?0+\x0f@\x98o\xef?%\n\x05@\xb2\x82\xd9?"\xfb\n@\x1cZ\xf8?\xc4\x08\xe3?\xc6\x85\x04@\xc7\xa1\x16@\x8dK\x99A\xd0j\xc7?@\xc1\x03@O@\x10@zL\xfe?\x81#>@\xc5\xad\x08@\xb5\xa3\x05@\x16J/@\x90l\xfc?\xa7\xcb\x19@%r\x12@\x10<\x0b@\xaa\x9b\x08@\x97\xc6\x08@e\xc1\x06@\xa07\xeb?\xa52\x05@\xe5\n\x00@uv\x04@$\xd1\x14@\x94\x00\xe7?^P\xcd?'
p2407
S'\x00\x00\x00\x00\x00\x00\x00\x00\x00\x00\x00\x00\x00\x00\x00\x00\x00\x00\x00\x00\x00\x00\x00\x00\x00\x00\x00\x00\x00\x00\x00\x00\x00\x00\x00\x00\x00\x00\x00\x00\x00\x00\x00\x00\x00\x00\x00\x00\x00\x00\x00\x00\x00\x00\x00\x00\x00\x00\x00\x00\x00\x00\x00\x00\x00\x00\x00\x00\x00\x00\x00\x00\x00\x00\x00\x00\x00\x00\x00\x00\x00\x00\x00\x00\x00\x00\x00\x00\x00\x00\x00\x00\x00\x00\x00\x00\x00\x00\x00\x00\x00\x00\x00\x00\x00\x00\x00\x00\x00\x00\x00\x00\x00\x00\x00\x00\x00\x00\x00\x00\x00\x00\x00\x00\x00\x00\x00\x00\x00\x00\x00\x00\x00\x00\x00\x00\x00\x00\x00\x00\x00\x00\x00\x00\x00\x00\x00\x00\x00\x00\x00\x00\x00\x00\x00\x00\x00\x00\x00\x00\x00\x00\x00\x00\x00\x00\x00\x00\x00\x00\x00\x00'
p2408
Ntp2409
bsS'order'
p2410
g2388
(g2389
g2390
g2391
g2392
tp2411
Rp2412
(I1
(I172
I1
tp2413
g2398
I00
S'\x00\x00\x00B\x00\x00\x98B\x00\x00@B\x00\x00\tC\x00\x00\x04B\x00\x00$B\x00\x00xB\x00\x00<B\x00\x00\xa4B\x00\x008B\x00\x00\xbeB\x00\x00TB\x00\x00\x18B\x00\x00 C\x00\x00\x80?\x00\x00\xf8A\x00\x00\x08B\x00\x00\x12C\x00\x00PA\x00\x00\x8aB\x00\x00\xa0B\x00\x00\xc8B\x00\x00\x0bC\x00\x00\x10A\x00\x00)C\x00\x00\xa0A\x00\x00\x16C\x00\x00DB\x00\x00\x90A\x00\x00\xbcB\x00\x00tB\x00\x00\xc6B\x00\x00pA\x00\x00\xcaB\x00\x00\xe0B\x00\x00\x86B\x00\x00\xf2B\x00\x00\xd8B\x00\x00@A\x00\x00\x8eB\x00\x00\x88B\x00\x00\xe6B\x00\x00\xdaB\x00\x00\x88A\x00\x00\x8cB\x00\x00+C\x00\x00\xfeB\x00\x00,B\x00\x00\x1cB\x00\x00\x01C\x00\x00@@\x00\x00\x15C\x00\x00HB\x00\x00\\B\x00\x00\xa0@\x00\x00\xb8B\x00\x00\xd6B\x00\x00\xacB\x00\x00\xc4B\x00\x00\xf0A\x00\x00 B\x00\x00 A\x00\x00\xc0B\x00\x00\xceB\x00\x00\xa2B\x00\x00pB\x00\x00\xb4B\x00\x00\xb2B\x00\x00\xa6B\x00\x00\x19C\x00\x00\x98A\x00\x00\x10B\x00\x00\xc0@\x00\x000A\x00\x00hB\x00\x00\xe8B\x00\x00\xb0A\x00\x00\x10C\x00\x00\x9cB\x00\x00dB\x00\x00\x00\x00\x00\x00\x14C\x00\x00\x9aB\x00\x00\xe4B\x00\x00`A\x00\x00\x9eB\x00\x00\x04C\x00\x00\x0eC\x00\x00\x92B\x00\x00\x1dC\x00\x00\x96B\x00\x00\x1aC\x00\x00\xd4B\x00\x00\x94B\x00\x00#C\x00\x00\xdeB\x00\x00$C\x00\x00\xf8B\x00\x00\x1eC\x00\x00`B\x00\x00\x0cB\x00\x00\x1fC\x00\x00\x00A\x00\x00\x0cC\x00\x00\xe2B\x00\x00\x84B\x00\x00\xa8B\x00\x00\x11C\x00\x00\x02C\x00\x00\x90B\x00\x00\xc2B\x00\x00\xeaB\x00\x00\x05C\x00\x00\xfaB\x00\x00\xe0A\x00\x00PB\x00\x00\xd8A\x00\x00\x80@\x00\x00\x00@\x00\x00\xfcB\x00\x00\xc0A\x00\x00\xbaB\x00\x00\xd0B\x00\x00\xecB\x00\x00\nC\x00\x00\xf6B\x00\x00\xdcB\x00\x00\xaeB\x00\x00LB\x00\x00\x0fC\x00\x00\xaaB\x00\x00%C\x00\x00\xa8A\x00\x00\xc8A\x00\x00\xe8A\x00\x00\x18C\x00\x00\x14B\x00\x00\xd0A\x00\x00\xeeB\x00\x00\rC\x00\x00"C\x00\x00\x08C\x00\x00lB\x00\x00\x82B\x00\x00\'C\x00\x00\x13C\x00\x00!C\x00\x00\x1bC\x00\x00\xb8A\x00\x00(B\x00\x00(C\x00\x00\x06C\x00\x00\xf0B\x00\x00\xccB\x00\x00\x80B\x00\x00\xb6B\x00\x00\x00C\x00\x00*C\x00\x00\x17C\x00\x00\x03C\x00\x00\xd2B\x00\x00|B\x00\x00\xe0@\x00\x00\xf4B\x00\x00\xb0B\x00\x000B\x00\x004B\x00\x00&C\x00\x00\x80A\x00\x00XB\x00\x00\x07C\x00\x00\x1cC'
p2414
S'\x00\x00\x00\x00\x00\x00\x00\x00\x00\x00\x00\x00\x00\x00\x00\x00\x00\x00\x00\x00\x00\x00\x00\x00\x00\x00\x00\x00\x00\x00\x00\x00\x00\x00\x00\x00\x00\x00\x00\x00\x00\x00\x00\x00\x00\x00\x00\x00\x00\x00\x00\x00\x00\x00\x00\x00\x00\x00\x00\x00\x00\x00\x00\x00\x00\x00\x00\x00\x00\x00\x00\x00\x00\x00\x00\x00\x00\x00\x00\x00\x00\x00\x00\x00\x00\x00\x00\x00\x00\x00\x00\x00\x00\x00\x00\x00\x00\x00\x00\x00\x00\x00\x00\x00\x00\x00\x00\x00\x00\x00\x00\x00\x00\x00\x00\x00\x00\x00\x00\x00\x00\x00\x00\x00\x00\x00\x00\x00\x00\x00\x00\x00\x00\x00\x00\x00\x00\x00\x00\x00\x00\x00\x00\x00\x00\x00\x00\x00\x00\x00\x00\x00\x00\x00\x00\x00\x00\x00\x00\x00\x00\x00\x00\x00\x00\x00\x00\x00\x00\x00\x00\x00'
p2415
Ntp2416
bsg15
cnumpy.core.multiarray
_reconstruct
p2417
(g2390
(I0
tp2418
g2392
tp2419
Rp2420
(I1
(I172
I1
tp2421
g24
(S'O8'
p2422
I0
I1
tp2423
Rp2424
(I3
S'|'
p2425
NNNI-1
I-1
I63
tp2426
bI00
(lp2427
g542
ag1127
ag754
ag1922
ag556
ag660
ag940
ag741
ag1205
ag728
ag1375
ag820
ag621
ag2222
ag100
ag528
ag569
ag2039
ag280
ag1033
ag1179
ag1440
ag1948
ag225
ag2339
ag378
ag2092
ag767
ag350
ag1362
ag927
ag1427
ag308
ag1453
ag1596
ag1007
ag1713
ag1544
ag266
ag1059
ag1020
ag1635
ag1557
ag336
ag1046
ag2365
ag1791
ag687
ag634
ag1818
ag137
ag2079
ag780
ag846
ag165
ag1336
ag1531
ag1257
ag1414
ag515
ag647
ag239
ag1388
ag1479
ag1192
ag914
ag1310
ag1297
ag1218
ag2131
ag364
ag595
ag181
ag252
ag886
ag1648
ag406
ag2013
ag1153
ag873
ag79
ag2066
ag1140
ag1622
ag294
ag1166
ag1857
ag1987
ag1087
ag2183
ag1114
ag2144
ag1518
ag1101
ag2261
ag1583
ag2274
ag1752
ag2196
ag860
ag582
ag2209
ag210
ag1961
ag1609
ag994
ag1231
ag2026
ag1831
ag1073
ag1401
ag1661
ag1870
ag1765
ag488
ag807
ag474
ag151
ag118
ag1778
ag434
ag1349
ag1492
ag1674
ag1935
ag1739
ag1570
ag1271
ag794
ag2000
ag1244
ag2287
ag392
ag447
ag501
ag2118
ag608
ag461
ag1687
ag1974
ag2248
ag1909
ag900
ag980
ag2313
ag2053
ag2235
ag2157
ag420
ag673
ag2326
ag1883
ag1700
ag1466
ag967
ag1323
ag1805
ag2352
ag2105
ag1844
ag1505
ag953
ag195
ag1726
ag1284
ag701
ag714
ag2300
ag322
ag833
ag1896
ag2170
atp2428
bstp2429
Rp2430
(dp2431
S'isNumeric'
p2432
(dp2433
g2387
I01
sg16
I01
sg2410
I01
sg15
I00
ssg2381
g2375
sS'dataTypes'
p2434
(lp2435
g2387
ag2410
ag15
ag16
asS'dataShape'
p2436
(lp2437
I172
aI1
asbsS'method'
p2438
S'random'
p2439
sS'sequenceIndices'
p2440
g2417
(g2390
(I0
tp2441
g2392
tp2442
Rp2443
(I1
(I172
I1
tp2444
g66
I00
S'P\x00\x00\x00\x00\x00\x00\x00\x0e\x00\x00\x00\x00\x00\x00\x00v\x00\x00\x00\x00\x00\x00\x002\x00\x00\x00\x00\x00\x00\x00u\x00\x00\x00\x00\x00\x00\x006\x00\x00\x00\x00\x00\x00\x00H\x00\x00\x00\x00\x00\x00\x00\xa2\x00\x00\x00\x00\x00\x00\x00f\x00\x00\x00\x00\x00\x00\x00\x17\x00\x00\x00\x00\x00\x00\x00=\x00\x00\x00\x00\x00\x00\x00I\x00\x00\x00\x00\x00\x00\x00&\x00\x00\x00\x00\x00\x00\x00\x12\x00\x00\x00\x00\x00\x00\x00T\x00\x00\x00\x00\x00\x00\x00 \x00\x00\x00\x00\x00\x00\x00\xa8\x00\x00\x00\x00\x00\x00\x00+\x00\x00\x00\x00\x00\x00\x00\x1c\x00\x00\x00\x00\x00\x00\x00F\x00\x00\x00\x00\x00\x00\x00\x19\x00\x00\x00\x00\x00\x00\x00\x84\x00\x00\x00\x00\x00\x00\x00L\x00\x00\x00\x00\x00\x00\x00\x94\x00\x00\x00\x00\x00\x00\x00x\x00\x00\x00\x00\x00\x00\x00\x85\x00\x00\x00\x00\x00\x00\x00\x89\x00\x00\x00\x00\x00\x00\x00t\x00\x00\x00\x00\x00\x00\x00r\x00\x00\x00\x00\x00\x00\x00\x86\x00\x00\x00\x00\x00\x00\x00;\x00\x00\x00\x00\x00\x00\x00\x0f\x00\x00\x00\x00\x00\x00\x00\x00\x00\x00\x00\x00\x00\x00\x00\x04\x00\x00\x00\x00\x00\x00\x00\x10\x00\x00\x00\x00\x00\x00\x00d\x00\x00\x00\x00\x00\x00\x00G\x00\x00\x00\x00\x00\x00\x00\x88\x00\x00\x00\x00\x00\x00\x00\x0c\x00\x00\x00\x00\x00\x00\x000\x00\x00\x00\x00\x00\x00\x00<\x00\x00\x00\x00\x00\x00\x00\x05\x00\x00\x00\x00\x00\x00\x00\x95\x00\x00\x00\x00\x00\x00\x00/\x00\x00\x00\x00\x00\x00\x00\xa5\x00\x00\x00\x00\x00\x00\x00\xa6\x00\x00\x00\x00\x00\x00\x00\t\x00\x00\x00\x00\x00\x00\x00\x07\x00\x00\x00\x00\x00\x00\x00\x02\x00\x00\x00\x00\x00\x00\x00\x1b\x00\x00\x00\x00\x00\x00\x004\x00\x00\x00\x00\x00\x00\x00\x80\x00\x00\x00\x00\x00\x00\x00s\x00\x00\x00\x00\x00\x00\x00\x0b\x00\x00\x00\x00\x00\x00\x00\xa9\x00\x00\x00\x00\x00\x00\x005\x00\x00\x00\x00\x00\x00\x00c\x00\x00\x00\x00\x00\x00\x00O\x00\x00\x00\x00\x00\x00\x00J\x00\x00\x00\x00\x00\x00\x00\x8e\x00\x00\x00\x00\x00\x00\x00A\x00\x00\x00\x00\x00\x00\x00\x1e\x00\x00\x00\x00\x00\x00\x00\x06\x00\x00\x00\x00\x00\x00\x00\xa1\x00\x00\x00\x00\x00\x00\x00\x9a\x00\x00\x00\x00\x00\x00\x00\x8f\x00\x00\x00\x00\x00\x00\x00i\x00\x00\x00\x00\x00\x00\x00#\x00\x00\x00\x00\x00\x00\x00(\x00\x00\x00\x00\x00\x00\x00\x13\x00\x00\x00\x00\x00\x00\x00,\x00\x00\x00\x00\x00\x00\x00\'\x00\x00\x00\x00\x00\x00\x00m\x00\x00\x00\x00\x00\x00\x00X\x00\x00\x00\x00\x00\x00\x00]\x00\x00\x00\x00\x00\x00\x00Z\x00\x00\x00\x00\x00\x00\x00\x01\x00\x00\x00\x00\x00\x00\x00R\x00\x00\x00\x00\x00\x00\x00N\x00\x00\x00\x00\x00\x00\x00U\x00\x00\x00\x00\x00\x00\x00\x14\x00\x00\x00\x00\x00\x00\x00@\x00\x00\x00\x00\x00\x00\x00\x08\x00\x00\x00\x00\x00\x00\x00D\x00\x00\x00\x00\x00\x00\x00j\x00\x00\x00\x00\x00\x00\x00\x82\x00\x00\x00\x00\x00\x00\x009\x00\x00\x00\x00\x00\x00\x00\x7f\x00\x00\x00\x00\x00\x00\x00\xa4\x00\x00\x00\x00\x00\x00\x00C\x00\x00\x00\x00\x00\x00\x00B\x00\x00\x00\x00\x00\x00\x00\x9b\x00\x00\x00\x00\x00\x00\x007\x00\x00\x00\x00\x00\x00\x00y\x00\x00\x00\x00\x00\x00\x00\x1d\x00\x00\x00\x00\x00\x00\x00\n\x00\x00\x00\x00\x00\x00\x00>\x00\x00\x00\x00\x00\x00\x00n\x00\x00\x00\x00\x00\x00\x00:\x00\x00\x00\x00\x00\x00\x00\x1f\x00\x00\x00\x00\x00\x00\x00\x15\x00\x00\x00\x00\x00\x00\x00!\x00\x00\x00\x00\x00\x00\x00\x99\x00\x00\x00\x00\x00\x00\x00?\x00\x00\x00\x00\x00\x00\x00z\x00\x00\x00\x00\x00\x00\x00\xa0\x00\x00\x00\x00\x00\x00\x00\\\x00\x00\x00\x00\x00\x00\x008\x00\x00\x00\x00\x00\x00\x00%\x00\x00\x00\x00\x00\x00\x00*\x00\x00\x00\x00\x00\x00\x00~\x00\x00\x00\x00\x00\x00\x00_\x00\x00\x00\x00\x00\x00\x00"\x00\x00\x00\x00\x00\x00\x00h\x00\x00\x00\x00\x00\x00\x00S\x00\x00\x00\x00\x00\x00\x00)\x00\x00\x00\x00\x00\x00\x00K\x00\x00\x00\x00\x00\x00\x00o\x00\x00\x00\x00\x00\x00\x00{\x00\x00\x00\x00\x00\x00\x00\x8a\x00\x00\x00\x00\x00\x00\x00\x98\x00\x00\x00\x00\x00\x00\x00$\x00\x00\x00\x00\x00\x00\x00\xa3\x00\x00\x00\x00\x00\x00\x00}\x00\x00\x00\x00\x00\x00\x00a\x00\x00\x00\x00\x00\x00\x00q\x00\x00\x00\x00\x00\x00\x00w\x00\x00\x00\x00\x00\x00\x00.\x00\x00\x00\x00\x00\x00\x00\x9c\x00\x00\x00\x00\x00\x00\x001\x00\x00\x00\x00\x00\x00\x00l\x00\x00\x00\x00\x00\x00\x00\x9f\x00\x00\x00\x00\x00\x00\x00V\x00\x00\x00\x00\x00\x00\x00p\x00\x00\x00\x00\x00\x00\x00\x97\x00\x00\x00\x00\x00\x00\x00\xaa\x00\x00\x00\x00\x00\x00\x00\x8d\x00\x00\x00\x00\x00\x00\x00\x03\x00\x00\x00\x00\x00\x00\x00|\x00\x00\x00\x00\x00\x00\x00\x16\x00\x00\x00\x00\x00\x00\x00g\x00\x00\x00\x00\x00\x00\x00\x8b\x00\x00\x00\x00\x00\x00\x00W\x00\x00\x00\x00\x00\x00\x00\x81\x00\x00\x00\x00\x00\x00\x00M\x00\x00\x00\x00\x00\x00\x00k\x00\x00\x00\x00\x00\x00\x00\x11\x00\x00\x00\x00\x00\x00\x00\x91\x00\x00\x00\x00\x00\x00\x00Q\x00\x00\x00\x00\x00\x00\x003\x00\x00\x00\x00\x00\x00\x00\x1a\x00\x00\x00\x00\x00\x00\x00\x9e\x00\x00\x00\x00\x00\x00\x00\x87\x00\x00\x00\x00\x00\x00\x00E\x00\x00\x00\x00\x00\x00\x00[\x00\x00\x00\x00\x00\x00\x00\x93\x00\x00\x00\x00\x00\x00\x00\xab\x00\x00\x00\x00\x00\x00\x00Y\x00\x00\x00\x00\x00\x00\x00b\x00\x00\x00\x00\x00\x00\x00e\x00\x00\x00\x00\x00\x00\x00\r\x00\x00\x00\x00\x00\x00\x00\x92\x00\x00\x00\x00\x00\x00\x00\x8c\x00\x00\x00\x00\x00\x00\x00^\x00\x00\x00\x00\x00\x00\x00`\x00\x00\x00\x00\x00\x00\x00\x83\x00\x00\x00\x00\x00\x00\x00\xa7\x00\x00\x00\x00\x00\x00\x00\x90\x00\x00\x00\x00\x00\x00\x00\x96\x00\x00\x00\x00\x00\x00\x00\x18\x00\x00\x00\x00\x00\x00\x00\x9d\x00\x00\x00\x00\x00\x00\x00-\x00\x00\x00\x00\x00\x00\x00'
p2445
tp2446
bsS'finished'
p2447
I01
sS'nReps'
p2448
I1
sS'nRemaining'
p2449
I-1
sS'trialList'
p2450
(lp2451
ccollections
OrderedDict
p2452
((lp2453
(lp2454
g49
ag546
aa(lp2455
g50
ag540
aa(lp2456
g51
ag73
aa(lp2457
g52
ag539
aa(lp2458
g53
ag98
aa(lp2459
g54
ag126
aa(lp2460
g55
ag98
aa(lp2461
g56
ag117
aa(lp2462
g57
ag127
aa(lp2463
g58
ag102
aa(lp2464
g59
ag97
aatp2465
Rp2466
ag2452
((lp2467
(lp2468
g49
ag1131
aa(lp2469
g50
ag1125
aa(lp2470
g51
ag148
aa(lp2471
g52
ag539
aa(lp2472
g53
ag98
aa(lp2473
g54
ag126
aa(lp2474
g55
ag98
aa(lp2475
g56
ag117
aa(lp2476
g57
ag127
aa(lp2477
g58
ag102
aa(lp2478
g59
ag97
aatp2479
Rp2480
ag2452
((lp2481
(lp2482
g49
ag758
aa(lp2483
g50
ag752
aa(lp2484
g51
ag94
aa(lp2485
g52
ag539
aa(lp2486
g53
ag98
aa(lp2487
g54
ag126
aa(lp2488
g55
ag98
aa(lp2489
g56
ag117
aa(lp2490
g57
ag127
aa(lp2491
g58
ag102
aa(lp2492
g59
ag97
aatp2493
Rp2494
ag2452
((lp2495
(lp2496
g49
ag1926
aa(lp2497
g50
ag1920
aa(lp2498
g51
ag222
aa(lp2499
g52
ag539
aa(lp2500
g53
ag98
aa(lp2501
g54
ag126
aa(lp2502
g55
ag98
aa(lp2503
g56
ag117
aa(lp2504
g57
ag127
aa(lp2505
g58
ag102
aa(lp2506
g59
ag97
aatp2507
Rp2508
ag2452
((lp2509
(lp2510
g49
ag560
aa(lp2511
g50
ag554
aa(lp2512
g51
ag73
aa(lp2513
g52
ag553
aa(lp2514
g53
ag98
aa(lp2515
g54
ag86
aa(lp2516
g55
ag98
aa(lp2517
g56
ag78
aa(lp2518
g57
ag87
aa(lp2519
g58
ag102
aa(lp2520
g59
ag97
aatp2521
Rp2522
ag2452
((lp2523
(lp2524
g49
ag664
aa(lp2525
g50
ag658
aa(lp2526
g51
ag148
aa(lp2527
g52
ag553
aa(lp2528
g53
ag98
aa(lp2529
g54
ag86
aa(lp2530
g55
ag98
aa(lp2531
g56
ag78
aa(lp2532
g57
ag87
aa(lp2533
g58
ag102
aa(lp2534
g59
ag97
aatp2535
Rp2536
ag2452
((lp2537
(lp2538
g49
ag944
aa(lp2539
g50
ag938
aa(lp2540
g51
ag94
aa(lp2541
g52
ag553
aa(lp2542
g53
ag98
aa(lp2543
g54
ag86
aa(lp2544
g55
ag98
aa(lp2545
g56
ag78
aa(lp2546
g57
ag87
aa(lp2547
g58
ag102
aa(lp2548
g59
ag97
aatp2549
Rp2550
ag2452
((lp2551
(lp2552
g49
ag745
aa(lp2553
g50
ag739
aa(lp2554
g51
ag222
aa(lp2555
g52
ag553
aa(lp2556
g53
ag98
aa(lp2557
g54
ag86
aa(lp2558
g55
ag98
aa(lp2559
g56
ag78
aa(lp2560
g57
ag87
aa(lp2561
g58
ag102
aa(lp2562
g59
ag97
aatp2563
Rp2564
ag2452
((lp2565
(lp2566
g49
ag1209
aa(lp2567
g50
ag1203
aa(lp2568
g51
ag73
aa(lp2569
g52
ag725
aa(lp2570
g53
ag98
aa(lp2571
g54
ag201
aa(lp2572
g55
ag98
aa(lp2573
g56
ag78
aa(lp2574
g57
ag172
aa(lp2575
g58
ag102
aa(lp2576
g59
ag97
aatp2577
Rp2578
ag2452
((lp2579
(lp2580
g49
ag732
aa(lp2581
g50
ag726
aa(lp2582
g51
ag148
aa(lp2583
g52
ag725
aa(lp2584
g53
ag98
aa(lp2585
g54
ag201
aa(lp2586
g55
ag98
aa(lp2587
g56
ag78
aa(lp2588
g57
ag172
aa(lp2589
g58
ag102
aa(lp2590
g59
ag97
aatp2591
Rp2592
ag2452
((lp2593
(lp2594
g49
ag1379
aa(lp2595
g50
ag1373
aa(lp2596
g51
ag94
aa(lp2597
g52
ag725
aa(lp2598
g53
ag98
aa(lp2599
g54
ag201
aa(lp2600
g55
ag98
aa(lp2601
g56
ag78
aa(lp2602
g57
ag172
aa(lp2603
g58
ag102
aa(lp2604
g59
ag97
aatp2605
Rp2606
ag2452
((lp2607
(lp2608
g49
ag824
aa(lp2609
g50
ag818
aa(lp2610
g51
ag222
aa(lp2611
g52
ag725
aa(lp2612
g53
ag98
aa(lp2613
g54
ag201
aa(lp2614
g55
ag98
aa(lp2615
g56
ag78
aa(lp2616
g57
ag172
aa(lp2617
g58
ag102
aa(lp2618
g59
ag97
aatp2619
Rp2620
ag2452
((lp2621
(lp2622
g49
ag625
aa(lp2623
g50
ag619
aa(lp2624
g51
ag73
aa(lp2625
g52
ag93
aa(lp2626
g53
ag98
aa(lp2627
g54
ag107
aa(lp2628
g55
ag98
aa(lp2629
g56
ag99
aa(lp2630
g57
ag108
aa(lp2631
g58
ag102
aa(lp2632
g59
ag97
aatp2633
Rp2634
ag2452
((lp2635
(lp2636
g49
ag2226
aa(lp2637
g50
ag2220
aa(lp2638
g51
ag148
aa(lp2639
g52
ag93
aa(lp2640
g53
ag98
aa(lp2641
g54
ag107
aa(lp2642
g55
ag98
aa(lp2643
g56
ag99
aa(lp2644
g57
ag108
aa(lp2645
g58
ag102
aa(lp2646
g59
ag97
aatp2647
Rp2648
ag2452
((lp2649
(lp2650
g49
ag105
aa(lp2651
g50
ag95
aa(lp2652
g51
ag94
aa(lp2653
g52
ag93
aa(lp2654
g53
ag98
aa(lp2655
g54
ag107
aa(lp2656
g55
ag98
aa(lp2657
g56
ag99
aa(lp2658
g57
ag108
aa(lp2659
g58
ag102
aa(lp2660
g59
ag97
aatp2661
Rp2662
ag2452
((lp2663
(lp2664
g49
ag532
aa(lp2665
g50
ag526
aa(lp2666
g51
ag222
aa(lp2667
g52
ag93
aa(lp2668
g53
ag98
aa(lp2669
g54
ag107
aa(lp2670
g55
ag98
aa(lp2671
g56
ag99
aa(lp2672
g57
ag108
aa(lp2673
g58
ag102
aa(lp2674
g59
ag97
aatp2675
Rp2676
ag2452
((lp2677
(lp2678
g49
ag573
aa(lp2679
g50
ag567
aa(lp2680
g51
ag73
aa(lp2681
g52
ag277
aa(lp2682
g53
ag98
aa(lp2683
g54
ag171
aa(lp2684
g55
ag98
aa(lp2685
g56
ag99
aa(lp2686
g57
ag172
aa(lp2687
g58
ag102
aa(lp2688
g59
ag97
aatp2689
Rp2690
ag2452
((lp2691
(lp2692
g49
ag2043
aa(lp2693
g50
ag2037
aa(lp2694
g51
ag148
aa(lp2695
g52
ag277
aa(lp2696
g53
ag98
aa(lp2697
g54
ag171
aa(lp2698
g55
ag98
aa(lp2699
g56
ag99
aa(lp2700
g57
ag172
aa(lp2701
g58
ag102
aa(lp2702
g59
ag97
aatp2703
Rp2704
ag2452
((lp2705
(lp2706
g49
ag284
aa(lp2707
g50
ag278
aa(lp2708
g51
ag94
aa(lp2709
g52
ag277
aa(lp2710
g53
ag98
aa(lp2711
g54
ag171
aa(lp2712
g55
ag98
aa(lp2713
g56
ag99
aa(lp2714
g57
ag172
aa(lp2715
g58
ag102
aa(lp2716
g59
ag97
aatp2717
Rp2718
ag2452
((lp2719
(lp2720
g49
ag1037
aa(lp2721
g50
ag1031
aa(lp2722
g51
ag222
aa(lp2723
g52
ag277
aa(lp2724
g53
ag98
aa(lp2725
g54
ag171
aa(lp2726
g55
ag98
aa(lp2727
g56
ag99
aa(lp2728
g57
ag172
aa(lp2729
g58
ag102
aa(lp2730
g59
ag97
aatp2731
Rp2732
ag2452
((lp2733
(lp2734
g49
ag1183
aa(lp2735
g50
ag1177
aa(lp2736
g51
ag73
aa(lp2737
g52
ag221
aa(lp2738
g53
ag98
aa(lp2739
g54
ag126
aa(lp2740
g55
ag77
aa(lp2741
g56
ag117
aa(lp2742
g57
ag127
aa(lp2743
g58
ag102
aa(lp2744
g59
ag76
aatp2745
Rp2746
ag2452
((lp2747
(lp2748
g49
ag1444
aa(lp2749
g50
ag1438
aa(lp2750
g51
ag148
aa(lp2751
g52
ag221
aa(lp2752
g53
ag98
aa(lp2753
g54
ag126
aa(lp2754
g55
ag77
aa(lp2755
g56
ag117
aa(lp2756
g57
ag127
aa(lp2757
g58
ag102
aa(lp2758
g59
ag76
aatp2759
Rp2760
ag2452
((lp2761
(lp2762
g49
ag1952
aa(lp2763
g50
ag1946
aa(lp2764
g51
ag94
aa(lp2765
g52
ag221
aa(lp2766
g53
ag98
aa(lp2767
g54
ag126
aa(lp2768
g55
ag77
aa(lp2769
g56
ag117
aa(lp2770
g57
ag127
aa(lp2771
g58
ag102
aa(lp2772
g59
ag76
aatp2773
Rp2774
ag2452
((lp2775
(lp2776
g49
ag229
aa(lp2777
g50
ag223
aa(lp2778
g51
ag222
aa(lp2779
g52
ag221
aa(lp2780
g53
ag98
aa(lp2781
g54
ag126
aa(lp2782
g55
ag77
aa(lp2783
g56
ag117
aa(lp2784
g57
ag127
aa(lp2785
g58
ag102
aa(lp2786
g59
ag76
aatp2787
Rp2788
ag2452
((lp2789
(lp2790
g49
ag2343
aa(lp2791
g50
ag2337
aa(lp2792
g51
ag73
aa(lp2793
g52
ag375
aa(lp2794
g53
ag98
aa(lp2795
g54
ag201
aa(lp2796
g55
ag77
aa(lp2797
g56
ag78
aa(lp2798
g57
ag172
aa(lp2799
g58
ag102
aa(lp2800
g59
ag76
aatp2801
Rp2802
ag2452
((lp2803
(lp2804
g49
ag382
aa(lp2805
g50
ag376
aa(lp2806
g51
ag148
aa(lp2807
g52
ag375
aa(lp2808
g53
ag98
aa(lp2809
g54
ag201
aa(lp2810
g55
ag77
aa(lp2811
g56
ag78
aa(lp2812
g57
ag172
aa(lp2813
g58
ag102
aa(lp2814
g59
ag76
aatp2815
Rp2816
ag2452
((lp2817
(lp2818
g49
ag2096
aa(lp2819
g50
ag2090
aa(lp2820
g51
ag94
aa(lp2821
g52
ag375
aa(lp2822
g53
ag98
aa(lp2823
g54
ag201
aa(lp2824
g55
ag77
aa(lp2825
g56
ag78
aa(lp2826
g57
ag172
aa(lp2827
g58
ag102
aa(lp2828
g59
ag76
aatp2829
Rp2830
ag2452
((lp2831
(lp2832
g49
ag771
aa(lp2833
g50
ag765
aa(lp2834
g51
ag222
aa(lp2835
g52
ag375
aa(lp2836
g53
ag98
aa(lp2837
g54
ag201
aa(lp2838
g55
ag77
aa(lp2839
g56
ag78
aa(lp2840
g57
ag172
aa(lp2841
g58
ag102
aa(lp2842
g59
ag76
aatp2843
Rp2844
ag2452
((lp2845
(lp2846
g49
ag354
aa(lp2847
g50
ag348
aa(lp2848
g51
ag73
aa(lp2849
g52
ag347
aa(lp2850
g53
ag98
aa(lp2851
g54
ag107
aa(lp2852
g55
ag77
aa(lp2853
g56
ag99
aa(lp2854
g57
ag108
aa(lp2855
g58
ag102
aa(lp2856
g59
ag76
aatp2857
Rp2858
ag2452
((lp2859
(lp2860
g49
ag1366
aa(lp2861
g50
ag1360
aa(lp2862
g51
ag148
aa(lp2863
g52
ag347
aa(lp2864
g53
ag98
aa(lp2865
g54
ag107
aa(lp2866
g55
ag77
aa(lp2867
g56
ag99
aa(lp2868
g57
ag108
aa(lp2869
g58
ag102
aa(lp2870
g59
ag76
aatp2871
Rp2872
ag2452
((lp2873
(lp2874
g49
ag931
aa(lp2875
g50
ag925
aa(lp2876
g51
ag94
aa(lp2877
g52
ag347
aa(lp2878
g53
ag98
aa(lp2879
g54
ag107
aa(lp2880
g55
ag77
aa(lp2881
g56
ag99
aa(lp2882
g57
ag108
aa(lp2883
g58
ag102
aa(lp2884
g59
ag76
aatp2885
Rp2886
ag2452
((lp2887
(lp2888
g49
ag1431
aa(lp2889
g50
ag1425
aa(lp2890
g51
ag222
aa(lp2891
g52
ag347
aa(lp2892
g53
ag98
aa(lp2893
g54
ag107
aa(lp2894
g55
ag77
aa(lp2895
g56
ag99
aa(lp2896
g57
ag108
aa(lp2897
g58
ag102
aa(lp2898
g59
ag76
aatp2899
Rp2900
ag2452
((lp2901
(lp2902
g49
ag312
aa(lp2903
g50
ag306
aa(lp2904
g51
ag73
aa(lp2905
g52
ag305
aa(lp2906
g53
ag98
aa(lp2907
g54
ag171
aa(lp2908
g55
ag77
aa(lp2909
g56
ag99
aa(lp2910
g57
ag172
aa(lp2911
g58
ag102
aa(lp2912
g59
ag76
aatp2913
Rp2914
ag2452
((lp2915
(lp2916
g49
ag1457
aa(lp2917
g50
ag1451
aa(lp2918
g51
ag148
aa(lp2919
g52
ag305
aa(lp2920
g53
ag98
aa(lp2921
g54
ag171
aa(lp2922
g55
ag77
aa(lp2923
g56
ag99
aa(lp2924
g57
ag172
aa(lp2925
g58
ag102
aa(lp2926
g59
ag76
aatp2927
Rp2928
ag2452
((lp2929
(lp2930
g49
ag1600
aa(lp2931
g50
ag1594
aa(lp2932
g51
ag94
aa(lp2933
g52
ag305
aa(lp2934
g53
ag98
aa(lp2935
g54
ag171
aa(lp2936
g55
ag77
aa(lp2937
g56
ag99
aa(lp2938
g57
ag172
aa(lp2939
g58
ag102
aa(lp2940
g59
ag76
aatp2941
Rp2942
ag2452
((lp2943
(lp2944
g49
ag1011
aa(lp2945
g50
ag1005
aa(lp2946
g51
ag222
aa(lp2947
g52
ag305
aa(lp2948
g53
ag98
aa(lp2949
g54
ag171
aa(lp2950
g55
ag77
aa(lp2951
g56
ag99
aa(lp2952
g57
ag172
aa(lp2953
g58
ag102
aa(lp2954
g59
ag76
aatp2955
Rp2956
ag2452
((lp2957
(lp2958
g49
ag1717
aa(lp2959
g50
ag1711
aa(lp2960
g51
ag73
aa(lp2961
g52
ag263
aa(lp2962
g53
ag98
aa(lp2963
g54
ag126
aa(lp2964
g55
ag120
aa(lp2965
g56
ag117
aa(lp2966
g57
ag127
aa(lp2967
g58
ag102
aa(lp2968
g59
ag136
aatp2969
Rp2970
ag2452
((lp2971
(lp2972
g49
ag1548
aa(lp2973
g50
ag1542
aa(lp2974
g51
ag148
aa(lp2975
g52
ag263
aa(lp2976
g53
ag98
aa(lp2977
g54
ag126
aa(lp2978
g55
ag120
aa(lp2979
g56
ag117
aa(lp2980
g57
ag127
aa(lp2981
g58
ag102
aa(lp2982
g59
ag136
aatp2983
Rp2984
ag2452
((lp2985
(lp2986
g49
ag270
aa(lp2987
g50
ag264
aa(lp2988
g51
ag94
aa(lp2989
g52
ag263
aa(lp2990
g53
ag98
aa(lp2991
g54
ag126
aa(lp2992
g55
ag120
aa(lp2993
g56
ag117
aa(lp2994
g57
ag127
aa(lp2995
g58
ag102
aa(lp2996
g59
ag136
aatp2997
Rp2998
ag2452
((lp2999
(lp3000
g49
ag1063
aa(lp3001
g50
ag1057
aa(lp3002
g51
ag222
aa(lp3003
g52
ag263
aa(lp3004
g53
ag98
aa(lp3005
g54
ag126
aa(lp3006
g55
ag120
aa(lp3007
g56
ag117
aa(lp3008
g57
ag127
aa(lp3009
g58
ag102
aa(lp3010
g59
ag136
aatp3011
Rp3012
ag2452
((lp3013
(lp3014
g49
ag1024
aa(lp3015
g50
ag1018
aa(lp3016
g51
ag73
aa(lp3017
g52
ag333
aa(lp3018
g53
ag98
aa(lp3019
g54
ag86
aa(lp3020
g55
ag120
aa(lp3021
g56
ag78
aa(lp3022
g57
ag87
aa(lp3023
g58
ag102
aa(lp3024
g59
ag136
aatp3025
Rp3026
ag2452
((lp3027
(lp3028
g49
ag1639
aa(lp3029
g50
ag1633
aa(lp3030
g51
ag148
aa(lp3031
g52
ag333
aa(lp3032
g53
ag98
aa(lp3033
g54
ag86
aa(lp3034
g55
ag120
aa(lp3035
g56
ag78
aa(lp3036
g57
ag87
aa(lp3037
g58
ag102
aa(lp3038
g59
ag136
aatp3039
Rp3040
ag2452
((lp3041
(lp3042
g49
ag1561
aa(lp3043
g50
ag1555
aa(lp3044
g51
ag94
aa(lp3045
g52
ag333
aa(lp3046
g53
ag98
aa(lp3047
g54
ag86
aa(lp3048
g55
ag120
aa(lp3049
g56
ag78
aa(lp3050
g57
ag87
aa(lp3051
g58
ag102
aa(lp3052
g59
ag136
aatp3053
Rp3054
ag2452
((lp3055
(lp3056
g49
ag340
aa(lp3057
g50
ag334
aa(lp3058
g51
ag222
aa(lp3059
g52
ag333
aa(lp3060
g53
ag98
aa(lp3061
g54
ag86
aa(lp3062
g55
ag120
aa(lp3063
g56
ag78
aa(lp3064
g57
ag87
aa(lp3065
g58
ag102
aa(lp3066
g59
ag136
aatp3067
Rp3068
ag2452
((lp3069
(lp3070
g49
ag1050
aa(lp3071
g50
ag1044
aa(lp3072
g51
ag73
aa(lp3073
g52
ag684
aa(lp3074
g53
ag98
aa(lp3075
g54
ag201
aa(lp3076
g55
ag120
aa(lp3077
g56
ag78
aa(lp3078
g57
ag172
aa(lp3079
g58
ag102
aa(lp3080
g59
ag136
aatp3081
Rp3082
ag2452
((lp3083
(lp3084
g49
ag2369
aa(lp3085
g50
ag2363
aa(lp3086
g51
ag148
aa(lp3087
g52
ag684
aa(lp3088
g53
ag98
aa(lp3089
g54
ag201
aa(lp3090
g55
ag120
aa(lp3091
g56
ag78
aa(lp3092
g57
ag172
aa(lp3093
g58
ag102
aa(lp3094
g59
ag136
aatp3095
Rp3096
ag2452
((lp3097
(lp3098
g49
ag1795
aa(lp3099
g50
ag1789
aa(lp3100
g51
ag94
aa(lp3101
g52
ag684
aa(lp3102
g53
ag98
aa(lp3103
g54
ag201
aa(lp3104
g55
ag120
aa(lp3105
g56
ag78
aa(lp3106
g57
ag172
aa(lp3107
g58
ag102
aa(lp3108
g59
ag136
aatp3109
Rp3110
ag2452
((lp3111
(lp3112
g49
ag691
aa(lp3113
g50
ag685
aa(lp3114
g51
ag222
aa(lp3115
g52
ag684
aa(lp3116
g53
ag98
aa(lp3117
g54
ag201
aa(lp3118
g55
ag120
aa(lp3119
g56
ag78
aa(lp3120
g57
ag172
aa(lp3121
g58
ag102
aa(lp3122
g59
ag136
aatp3123
Rp3124
ag2452
((lp3125
(lp3126
g49
ag638
aa(lp3127
g50
ag632
aa(lp3128
g51
ag73
aa(lp3129
g52
ag133
aa(lp3130
g53
ag98
aa(lp3131
g54
ag107
aa(lp3132
g55
ag120
aa(lp3133
g56
ag99
aa(lp3134
g57
ag108
aa(lp3135
g58
ag102
aa(lp3136
g59
ag136
aatp3137
Rp3138
ag2452
((lp3139
(lp3140
g49
ag1822
aa(lp3141
g50
ag1816
aa(lp3142
g51
ag148
aa(lp3143
g52
ag133
aa(lp3144
g53
ag98
aa(lp3145
g54
ag107
aa(lp3146
g55
ag120
aa(lp3147
g56
ag99
aa(lp3148
g57
ag108
aa(lp3149
g58
ag102
aa(lp3150
g59
ag136
aatp3151
Rp3152
ag2452
((lp3153
(lp3154
g49
ag141
aa(lp3155
g50
ag134
aa(lp3156
g51
ag94
aa(lp3157
g52
ag133
aa(lp3158
g53
ag98
aa(lp3159
g54
ag107
aa(lp3160
g55
ag120
aa(lp3161
g56
ag99
aa(lp3162
g57
ag108
aa(lp3163
g58
ag102
aa(lp3164
g59
ag136
aatp3165
Rp3166
ag2452
((lp3167
(lp3168
g49
ag2083
aa(lp3169
g50
ag2077
aa(lp3170
g51
ag222
aa(lp3171
g52
ag133
aa(lp3172
g53
ag98
aa(lp3173
g54
ag107
aa(lp3174
g55
ag120
aa(lp3175
g56
ag99
aa(lp3176
g57
ag108
aa(lp3177
g58
ag102
aa(lp3178
g59
ag136
aatp3179
Rp3180
ag2452
((lp3181
(lp3182
g49
ag784
aa(lp3183
g50
ag778
aa(lp3184
g51
ag73
aa(lp3185
g52
ag162
aa(lp3186
g53
ag98
aa(lp3187
g54
ag171
aa(lp3188
g55
ag120
aa(lp3189
g56
ag99
aa(lp3190
g57
ag172
aa(lp3191
g58
ag102
aa(lp3192
g59
ag136
aatp3193
Rp3194
ag2452
((lp3195
(lp3196
g49
ag850
aa(lp3197
g50
ag844
aa(lp3198
g51
ag148
aa(lp3199
g52
ag162
aa(lp3200
g53
ag98
aa(lp3201
g54
ag171
aa(lp3202
g55
ag120
aa(lp3203
g56
ag99
aa(lp3204
g57
ag172
aa(lp3205
g58
ag102
aa(lp3206
g59
ag136
aatp3207
Rp3208
ag2452
((lp3209
(lp3210
g49
ag169
aa(lp3211
g50
ag163
aa(lp3212
g51
ag94
aa(lp3213
g52
ag162
aa(lp3214
g53
ag98
aa(lp3215
g54
ag171
aa(lp3216
g55
ag120
aa(lp3217
g56
ag99
aa(lp3218
g57
ag172
aa(lp3219
g58
ag102
aa(lp3220
g59
ag136
aatp3221
Rp3222
ag2452
((lp3223
(lp3224
g49
ag1340
aa(lp3225
g50
ag1334
aa(lp3226
g51
ag222
aa(lp3227
g52
ag162
aa(lp3228
g53
ag98
aa(lp3229
g54
ag171
aa(lp3230
g55
ag120
aa(lp3231
g56
ag99
aa(lp3232
g57
ag172
aa(lp3233
g58
ag102
aa(lp3234
g59
ag136
aatp3235
Rp3236
ag2452
((lp3237
(lp3238
g49
ag1535
aa(lp3239
g50
ag1529
aa(lp3240
g51
ag73
aa(lp3241
g52
ag512
aa(lp3242
g53
ag77
aa(lp3243
g54
ag126
aa(lp3244
g55
ag98
aa(lp3245
g56
ag117
aa(lp3246
g57
ag127
aa(lp3247
g58
ag81
aa(lp3248
g59
ag97
aatp3249
Rp3250
ag2452
((lp3251
(lp3252
g49
ag1261
aa(lp3253
g50
ag1255
aa(lp3254
g51
ag148
aa(lp3255
g52
ag512
aa(lp3256
g53
ag77
aa(lp3257
g54
ag126
aa(lp3258
g55
ag98
aa(lp3259
g56
ag117
aa(lp3260
g57
ag127
aa(lp3261
g58
ag81
aa(lp3262
g59
ag97
aatp3263
Rp3264
ag2452
((lp3265
(lp3266
g49
ag1418
aa(lp3267
g50
ag1412
aa(lp3268
g51
ag94
aa(lp3269
g52
ag512
aa(lp3270
g53
ag77
aa(lp3271
g54
ag126
aa(lp3272
g55
ag98
aa(lp3273
g56
ag117
aa(lp3274
g57
ag127
aa(lp3275
g58
ag81
aa(lp3276
g59
ag97
aatp3277
Rp3278
ag2452
((lp3279
(lp3280
g49
ag519
aa(lp3281
g50
ag513
aa(lp3282
g51
ag222
aa(lp3283
g52
ag512
aa(lp3284
g53
ag77
aa(lp3285
g54
ag126
aa(lp3286
g55
ag98
aa(lp3287
g56
ag117
aa(lp3288
g57
ag127
aa(lp3289
g58
ag81
aa(lp3290
g59
ag97
aatp3291
Rp3292
ag2452
((lp3293
(lp3294
g49
ag651
aa(lp3295
g50
ag645
aa(lp3296
g51
ag73
aa(lp3297
g52
ag236
aa(lp3298
g53
ag77
aa(lp3299
g54
ag86
aa(lp3300
g55
ag98
aa(lp3301
g56
ag78
aa(lp3302
g57
ag87
aa(lp3303
g58
ag81
aa(lp3304
g59
ag97
aatp3305
Rp3306
ag2452
((lp3307
(lp3308
g49
ag243
aa(lp3309
g50
ag237
aa(lp3310
g51
ag148
aa(lp3311
g52
ag236
aa(lp3312
g53
ag77
aa(lp3313
g54
ag86
aa(lp3314
g55
ag98
aa(lp3315
g56
ag78
aa(lp3316
g57
ag87
aa(lp3317
g58
ag81
aa(lp3318
g59
ag97
aatp3319
Rp3320
ag2452
((lp3321
(lp3322
g49
ag1392
aa(lp3323
g50
ag1386
aa(lp3324
g51
ag94
aa(lp3325
g52
ag236
aa(lp3326
g53
ag77
aa(lp3327
g54
ag86
aa(lp3328
g55
ag98
aa(lp3329
g56
ag78
aa(lp3330
g57
ag87
aa(lp3331
g58
ag81
aa(lp3332
g59
ag97
aatp3333
Rp3334
ag2452
((lp3335
(lp3336
g49
ag1483
aa(lp3337
g50
ag1477
aa(lp3338
g51
ag222
aa(lp3339
g52
ag236
aa(lp3340
g53
ag77
aa(lp3341
g54
ag86
aa(lp3342
g55
ag98
aa(lp3343
g56
ag78
aa(lp3344
g57
ag87
aa(lp3345
g58
ag81
aa(lp3346
g59
ag97
aatp3347
Rp3348
ag2452
((lp3349
(lp3350
g49
ag1196
aa(lp3351
g50
ag1190
aa(lp3352
g51
ag73
aa(lp3353
g52
ag911
aa(lp3354
g53
ag77
aa(lp3355
g54
ag201
aa(lp3356
g55
ag98
aa(lp3357
g56
ag78
aa(lp3358
g57
ag172
aa(lp3359
g58
ag81
aa(lp3360
g59
ag97
aatp3361
Rp3362
ag2452
((lp3363
(lp3364
g49
ag918
aa(lp3365
g50
ag912
aa(lp3366
g51
ag148
aa(lp3367
g52
ag911
aa(lp3368
g53
ag77
aa(lp3369
g54
ag201
aa(lp3370
g55
ag98
aa(lp3371
g56
ag78
aa(lp3372
g57
ag172
aa(lp3373
g58
ag81
aa(lp3374
g59
ag97
aatp3375
Rp3376
ag2452
((lp3377
(lp3378
g49
ag1314
aa(lp3379
g50
ag1308
aa(lp3380
g51
ag94
aa(lp3381
g52
ag911
aa(lp3382
g53
ag77
aa(lp3383
g54
ag201
aa(lp3384
g55
ag98
aa(lp3385
g56
ag78
aa(lp3386
g57
ag172
aa(lp3387
g58
ag81
aa(lp3388
g59
ag97
aatp3389
Rp3390
ag2452
((lp3391
(lp3392
g49
ag1301
aa(lp3393
g50
ag1295
aa(lp3394
g51
ag222
aa(lp3395
g52
ag911
aa(lp3396
g53
ag77
aa(lp3397
g54
ag201
aa(lp3398
g55
ag98
aa(lp3399
g56
ag78
aa(lp3400
g57
ag172
aa(lp3401
g58
ag81
aa(lp3402
g59
ag97
aatp3403
Rp3404
ag2452
((lp3405
(lp3406
g49
ag1222
aa(lp3407
g50
ag1216
aa(lp3408
g51
ag73
aa(lp3409
g52
ag361
aa(lp3410
g53
ag77
aa(lp3411
g54
ag107
aa(lp3412
g55
ag98
aa(lp3413
g56
ag99
aa(lp3414
g57
ag108
aa(lp3415
g58
ag81
aa(lp3416
g59
ag97
aatp3417
Rp3418
ag2452
((lp3419
(lp3420
g49
ag2135
aa(lp3421
g50
ag2129
aa(lp3422
g51
ag148
aa(lp3423
g52
ag361
aa(lp3424
g53
ag77
aa(lp3425
g54
ag107
aa(lp3426
g55
ag98
aa(lp3427
g56
ag99
aa(lp3428
g57
ag108
aa(lp3429
g58
ag81
aa(lp3430
g59
ag97
aatp3431
Rp3432
ag2452
((lp3433
(lp3434
g49
ag368
aa(lp3435
g50
ag362
aa(lp3436
g51
ag94
aa(lp3437
g52
ag361
aa(lp3438
g53
ag77
aa(lp3439
g54
ag107
aa(lp3440
g55
ag98
aa(lp3441
g56
ag99
aa(lp3442
g57
ag108
aa(lp3443
g58
ag81
aa(lp3444
g59
ag97
aatp3445
Rp3446
ag2452
((lp3447
(lp3448
g49
ag599
aa(lp3449
g50
ag593
aa(lp3450
g51
ag222
aa(lp3451
g52
ag361
aa(lp3452
g53
ag77
aa(lp3453
g54
ag107
aa(lp3454
g55
ag98
aa(lp3455
g56
ag99
aa(lp3456
g57
ag108
aa(lp3457
g58
ag81
aa(lp3458
g59
ag97
aatp3459
Rp3460
ag2452
((lp3461
(lp3462
g49
ag185
aa(lp3463
g50
ag179
aa(lp3464
g51
ag73
aa(lp3465
g52
ag178
aa(lp3466
g53
ag77
aa(lp3467
g54
ag171
aa(lp3468
g55
ag98
aa(lp3469
g56
ag99
aa(lp3470
g57
ag172
aa(lp3471
g58
ag81
aa(lp3472
g59
ag97
aatp3473
Rp3474
ag2452
((lp3475
(lp3476
g49
ag256
aa(lp3477
g50
ag250
aa(lp3478
g51
ag148
aa(lp3479
g52
ag178
aa(lp3480
g53
ag77
aa(lp3481
g54
ag171
aa(lp3482
g55
ag98
aa(lp3483
g56
ag99
aa(lp3484
g57
ag172
aa(lp3485
g58
ag81
aa(lp3486
g59
ag97
aatp3487
Rp3488
ag2452
((lp3489
(lp3490
g49
ag890
aa(lp3491
g50
ag884
aa(lp3492
g51
ag94
aa(lp3493
g52
ag178
aa(lp3494
g53
ag77
aa(lp3495
g54
ag171
aa(lp3496
g55
ag98
aa(lp3497
g56
ag99
aa(lp3498
g57
ag172
aa(lp3499
g58
ag81
aa(lp3500
g59
ag97
aatp3501
Rp3502
ag2452
((lp3503
(lp3504
g49
ag1652
aa(lp3505
g50
ag1646
aa(lp3506
g51
ag222
aa(lp3507
g52
ag178
aa(lp3508
g53
ag77
aa(lp3509
g54
ag171
aa(lp3510
g55
ag98
aa(lp3511
g56
ag99
aa(lp3512
g57
ag172
aa(lp3513
g58
ag81
aa(lp3514
g59
ag97
aatp3515
Rp3516
ag2452
((lp3517
(lp3518
g49
ag410
aa(lp3519
g50
ag404
aa(lp3520
g51
ag73
aa(lp3521
g52
ag403
aa(lp3522
g53
ag77
aa(lp3523
g54
ag126
aa(lp3524
g55
ag77
aa(lp3525
g56
ag117
aa(lp3526
g57
ag127
aa(lp3527
g58
ag81
aa(lp3528
g59
ag76
aatp3529
Rp3530
ag2452
((lp3531
(lp3532
g49
ag2017
aa(lp3533
g50
ag2011
aa(lp3534
g51
ag148
aa(lp3535
g52
ag403
aa(lp3536
g53
ag77
aa(lp3537
g54
ag126
aa(lp3538
g55
ag77
aa(lp3539
g56
ag117
aa(lp3540
g57
ag127
aa(lp3541
g58
ag81
aa(lp3542
g59
ag76
aatp3543
Rp3544
ag2452
((lp3545
(lp3546
g49
ag1157
aa(lp3547
g50
ag1151
aa(lp3548
g51
ag94
aa(lp3549
g52
ag403
aa(lp3550
g53
ag77
aa(lp3551
g54
ag126
aa(lp3552
g55
ag77
aa(lp3553
g56
ag117
aa(lp3554
g57
ag127
aa(lp3555
g58
ag81
aa(lp3556
g59
ag76
aatp3557
Rp3558
ag2452
((lp3559
(lp3560
g49
ag877
aa(lp3561
g50
ag871
aa(lp3562
g51
ag222
aa(lp3563
g52
ag403
aa(lp3564
g53
ag77
aa(lp3565
g54
ag126
aa(lp3566
g55
ag77
aa(lp3567
g56
ag117
aa(lp3568
g57
ag127
aa(lp3569
g58
ag81
aa(lp3570
g59
ag76
aatp3571
Rp3572
ag2452
((lp3573
(lp3574
g49
ag84
aa(lp3575
g50
ag74
aa(lp3576
g51
ag73
aa(lp3577
g52
ag72
aa(lp3578
g53
ag77
aa(lp3579
g54
ag86
aa(lp3580
g55
ag77
aa(lp3581
g56
ag78
aa(lp3582
g57
ag87
aa(lp3583
g58
ag81
aa(lp3584
g59
ag76
aatp3585
Rp3586
ag2452
((lp3587
(lp3588
g49
ag2070
aa(lp3589
g50
ag2064
aa(lp3590
g51
ag148
aa(lp3591
g52
ag72
aa(lp3592
g53
ag77
aa(lp3593
g54
ag86
aa(lp3594
g55
ag77
aa(lp3595
g56
ag78
aa(lp3596
g57
ag87
aa(lp3597
g58
ag81
aa(lp3598
g59
ag76
aatp3599
Rp3600
ag2452
((lp3601
(lp3602
g49
ag1144
aa(lp3603
g50
ag1138
aa(lp3604
g51
ag94
aa(lp3605
g52
ag72
aa(lp3606
g53
ag77
aa(lp3607
g54
ag86
aa(lp3608
g55
ag77
aa(lp3609
g56
ag78
aa(lp3610
g57
ag87
aa(lp3611
g58
ag81
aa(lp3612
g59
ag76
aatp3613
Rp3614
ag2452
((lp3615
(lp3616
g49
ag1626
aa(lp3617
g50
ag1620
aa(lp3618
g51
ag222
aa(lp3619
g52
ag72
aa(lp3620
g53
ag77
aa(lp3621
g54
ag86
aa(lp3622
g55
ag77
aa(lp3623
g56
ag78
aa(lp3624
g57
ag87
aa(lp3625
g58
ag81
aa(lp3626
g59
ag76
aatp3627
Rp3628
ag2452
((lp3629
(lp3630
g49
ag298
aa(lp3631
g50
ag292
aa(lp3632
g51
ag73
aa(lp3633
g52
ag291
aa(lp3634
g53
ag77
aa(lp3635
g54
ag201
aa(lp3636
g55
ag77
aa(lp3637
g56
ag78
aa(lp3638
g57
ag172
aa(lp3639
g58
ag81
aa(lp3640
g59
ag76
aatp3641
Rp3642
ag2452
((lp3643
(lp3644
g49
ag1170
aa(lp3645
g50
ag1164
aa(lp3646
g51
ag148
aa(lp3647
g52
ag291
aa(lp3648
g53
ag77
aa(lp3649
g54
ag201
aa(lp3650
g55
ag77
aa(lp3651
g56
ag78
aa(lp3652
g57
ag172
aa(lp3653
g58
ag81
aa(lp3654
g59
ag76
aatp3655
Rp3656
ag2452
((lp3657
(lp3658
g49
ag1861
aa(lp3659
g50
ag1855
aa(lp3660
g51
ag94
aa(lp3661
g52
ag291
aa(lp3662
g53
ag77
aa(lp3663
g54
ag201
aa(lp3664
g55
ag77
aa(lp3665
g56
ag78
aa(lp3666
g57
ag172
aa(lp3667
g58
ag81
aa(lp3668
g59
ag76
aatp3669
Rp3670
ag2452
((lp3671
(lp3672
g49
ag1991
aa(lp3673
g50
ag1985
aa(lp3674
g51
ag222
aa(lp3675
g52
ag291
aa(lp3676
g53
ag77
aa(lp3677
g54
ag201
aa(lp3678
g55
ag77
aa(lp3679
g56
ag78
aa(lp3680
g57
ag172
aa(lp3681
g58
ag81
aa(lp3682
g59
ag76
aatp3683
Rp3684
ag2452
((lp3685
(lp3686
g49
ag1091
aa(lp3687
g50
ag1085
aa(lp3688
g51
ag73
aa(lp3689
g52
ag1084
aa(lp3690
g53
ag77
aa(lp3691
g54
ag107
aa(lp3692
g55
ag77
aa(lp3693
g56
ag99
aa(lp3694
g57
ag108
aa(lp3695
g58
ag81
aa(lp3696
g59
ag76
aatp3697
Rp3698
ag2452
((lp3699
(lp3700
g49
ag2187
aa(lp3701
g50
ag2181
aa(lp3702
g51
ag148
aa(lp3703
g52
ag1084
aa(lp3704
g53
ag77
aa(lp3705
g54
ag107
aa(lp3706
g55
ag77
aa(lp3707
g56
ag99
aa(lp3708
g57
ag108
aa(lp3709
g58
ag81
aa(lp3710
g59
ag76
aatp3711
Rp3712
ag2452
((lp3713
(lp3714
g49
ag1118
aa(lp3715
g50
ag1112
aa(lp3716
g51
ag94
aa(lp3717
g52
ag1084
aa(lp3718
g53
ag77
aa(lp3719
g54
ag107
aa(lp3720
g55
ag77
aa(lp3721
g56
ag99
aa(lp3722
g57
ag108
aa(lp3723
g58
ag81
aa(lp3724
g59
ag76
aatp3725
Rp3726
ag2452
((lp3727
(lp3728
g49
ag2148
aa(lp3729
g50
ag2142
aa(lp3730
g51
ag222
aa(lp3731
g52
ag1084
aa(lp3732
g53
ag77
aa(lp3733
g54
ag107
aa(lp3734
g55
ag77
aa(lp3735
g56
ag99
aa(lp3736
g57
ag108
aa(lp3737
g58
ag81
aa(lp3738
g59
ag76
aatp3739
Rp3740
ag2452
((lp3741
(lp3742
g49
ag1522
aa(lp3743
g50
ag1516
aa(lp3744
g51
ag73
aa(lp3745
g52
ag1098
aa(lp3746
g53
ag77
aa(lp3747
g54
ag171
aa(lp3748
g55
ag77
aa(lp3749
g56
ag99
aa(lp3750
g57
ag172
aa(lp3751
g58
ag81
aa(lp3752
g59
ag76
aatp3753
Rp3754
ag2452
((lp3755
(lp3756
g49
ag1105
aa(lp3757
g50
ag1099
aa(lp3758
g51
ag148
aa(lp3759
g52
ag1098
aa(lp3760
g53
ag77
aa(lp3761
g54
ag171
aa(lp3762
g55
ag77
aa(lp3763
g56
ag99
aa(lp3764
g57
ag172
aa(lp3765
g58
ag81
aa(lp3766
g59
ag76
aatp3767
Rp3768
ag2452
((lp3769
(lp3770
g49
ag2265
aa(lp3771
g50
ag2259
aa(lp3772
g51
ag94
aa(lp3773
g52
ag1098
aa(lp3774
g53
ag77
aa(lp3775
g54
ag171
aa(lp3776
g55
ag77
aa(lp3777
g56
ag99
aa(lp3778
g57
ag172
aa(lp3779
g58
ag81
aa(lp3780
g59
ag76
aatp3781
Rp3782
ag2452
((lp3783
(lp3784
g49
ag1587
aa(lp3785
g50
ag1581
aa(lp3786
g51
ag222
aa(lp3787
g52
ag1098
aa(lp3788
g53
ag77
aa(lp3789
g54
ag171
aa(lp3790
g55
ag77
aa(lp3791
g56
ag99
aa(lp3792
g57
ag172
aa(lp3793
g58
ag81
aa(lp3794
g59
ag76
aatp3795
Rp3796
ag2452
((lp3797
(lp3798
g49
ag2278
aa(lp3799
g50
ag2272
aa(lp3800
g51
ag73
aa(lp3801
g52
ag857
aa(lp3802
g53
ag77
aa(lp3803
g54
ag126
aa(lp3804
g55
ag120
aa(lp3805
g56
ag117
aa(lp3806
g57
ag127
aa(lp3807
g58
ag81
aa(lp3808
g59
ag136
aatp3809
Rp3810
ag2452
((lp3811
(lp3812
g49
ag1756
aa(lp3813
g50
ag1750
aa(lp3814
g51
ag148
aa(lp3815
g52
ag857
aa(lp3816
g53
ag77
aa(lp3817
g54
ag126
aa(lp3818
g55
ag120
aa(lp3819
g56
ag117
aa(lp3820
g57
ag127
aa(lp3821
g58
ag81
aa(lp3822
g59
ag136
aatp3823
Rp3824
ag2452
((lp3825
(lp3826
g49
ag2200
aa(lp3827
g50
ag2194
aa(lp3828
g51
ag94
aa(lp3829
g52
ag857
aa(lp3830
g53
ag77
aa(lp3831
g54
ag126
aa(lp3832
g55
ag120
aa(lp3833
g56
ag117
aa(lp3834
g57
ag127
aa(lp3835
g58
ag81
aa(lp3836
g59
ag136
aatp3837
Rp3838
ag2452
((lp3839
(lp3840
g49
ag864
aa(lp3841
g50
ag858
aa(lp3842
g51
ag222
aa(lp3843
g52
ag857
aa(lp3844
g53
ag77
aa(lp3845
g54
ag126
aa(lp3846
g55
ag120
aa(lp3847
g56
ag117
aa(lp3848
g57
ag127
aa(lp3849
g58
ag81
aa(lp3850
g59
ag136
aatp3851
Rp3852
ag2452
((lp3853
(lp3854
g49
ag586
aa(lp3855
g50
ag580
aa(lp3856
g51
ag73
aa(lp3857
g52
ag207
aa(lp3858
g53
ag77
aa(lp3859
g54
ag86
aa(lp3860
g55
ag120
aa(lp3861
g56
ag78
aa(lp3862
g57
ag87
aa(lp3863
g58
ag81
aa(lp3864
g59
ag136
aatp3865
Rp3866
ag2452
((lp3867
(lp3868
g49
ag2213
aa(lp3869
g50
ag2207
aa(lp3870
g51
ag148
aa(lp3871
g52
ag207
aa(lp3872
g53
ag77
aa(lp3873
g54
ag86
aa(lp3874
g55
ag120
aa(lp3875
g56
ag78
aa(lp3876
g57
ag87
aa(lp3877
g58
ag81
aa(lp3878
g59
ag136
aatp3879
Rp3880
ag2452
((lp3881
(lp3882
g49
ag214
aa(lp3883
g50
ag208
aa(lp3884
g51
ag94
aa(lp3885
g52
ag207
aa(lp3886
g53
ag77
aa(lp3887
g54
ag86
aa(lp3888
g55
ag120
aa(lp3889
g56
ag78
aa(lp3890
g57
ag87
aa(lp3891
g58
ag81
aa(lp3892
g59
ag136
aatp3893
Rp3894
ag2452
((lp3895
(lp3896
g49
ag1965
aa(lp3897
g50
ag1959
aa(lp3898
g51
ag222
aa(lp3899
g52
ag207
aa(lp3900
g53
ag77
aa(lp3901
g54
ag86
aa(lp3902
g55
ag120
aa(lp3903
g56
ag78
aa(lp3904
g57
ag87
aa(lp3905
g58
ag81
aa(lp3906
g59
ag136
aatp3907
Rp3908
ag2452
((lp3909
(lp3910
g49
ag1613
aa(lp3911
g50
ag1607
aa(lp3912
g51
ag73
aa(lp3913
g52
ag991
aa(lp3914
g53
ag77
aa(lp3915
g54
ag201
aa(lp3916
g55
ag120
aa(lp3917
g56
ag78
aa(lp3918
g57
ag172
aa(lp3919
g58
ag81
aa(lp3920
g59
ag136
aatp3921
Rp3922
ag2452
((lp3923
(lp3924
g49
ag998
aa(lp3925
g50
ag992
aa(lp3926
g51
ag148
aa(lp3927
g52
ag991
aa(lp3928
g53
ag77
aa(lp3929
g54
ag201
aa(lp3930
g55
ag120
aa(lp3931
g56
ag78
aa(lp3932
g57
ag172
aa(lp3933
g58
ag81
aa(lp3934
g59
ag136
aatp3935
Rp3936
ag2452
((lp3937
(lp3938
g49
ag1235
aa(lp3939
g50
ag1229
aa(lp3940
g51
ag94
aa(lp3941
g52
ag991
aa(lp3942
g53
ag77
aa(lp3943
g54
ag201
aa(lp3944
g55
ag120
aa(lp3945
g56
ag78
aa(lp3946
g57
ag172
aa(lp3947
g58
ag81
aa(lp3948
g59
ag136
aatp3949
Rp3950
ag2452
((lp3951
(lp3952
g49
ag2030
aa(lp3953
g50
ag2024
aa(lp3954
g51
ag222
aa(lp3955
g52
ag991
aa(lp3956
g53
ag77
aa(lp3957
g54
ag201
aa(lp3958
g55
ag120
aa(lp3959
g56
ag78
aa(lp3960
g57
ag172
aa(lp3961
g58
ag81
aa(lp3962
g59
ag136
aatp3963
Rp3964
ag2452
((lp3965
(lp3966
g49
ag1835
aa(lp3967
g50
ag1829
aa(lp3968
g51
ag73
aa(lp3969
g52
ag1070
aa(lp3970
g53
ag77
aa(lp3971
g54
ag107
aa(lp3972
g55
ag120
aa(lp3973
g56
ag99
aa(lp3974
g57
ag108
aa(lp3975
g58
ag81
aa(lp3976
g59
ag136
aatp3977
Rp3978
ag2452
((lp3979
(lp3980
g49
ag1077
aa(lp3981
g50
ag1071
aa(lp3982
g51
ag148
aa(lp3983
g52
ag1070
aa(lp3984
g53
ag77
aa(lp3985
g54
ag107
aa(lp3986
g55
ag120
aa(lp3987
g56
ag99
aa(lp3988
g57
ag108
aa(lp3989
g58
ag81
aa(lp3990
g59
ag136
aatp3991
Rp3992
ag2452
((lp3993
(lp3994
g49
ag1405
aa(lp3995
g50
ag1399
aa(lp3996
g51
ag94
aa(lp3997
g52
ag1070
aa(lp3998
g53
ag77
aa(lp3999
g54
ag107
aa(lp4000
g55
ag120
aa(lp4001
g56
ag99
aa(lp4002
g57
ag108
aa(lp4003
g58
ag81
aa(lp4004
g59
ag136
aatp4005
Rp4006
ag2452
((lp4007
(lp4008
g49
ag1665
aa(lp4009
g50
ag1659
aa(lp4010
g51
ag222
aa(lp4011
g52
ag1070
aa(lp4012
g53
ag77
aa(lp4013
g54
ag107
aa(lp4014
g55
ag120
aa(lp4015
g56
ag99
aa(lp4016
g57
ag108
aa(lp4017
g58
ag81
aa(lp4018
g59
ag136
aatp4019
Rp4020
ag2452
((lp4021
(lp4022
g49
ag1874
aa(lp4023
g50
ag1868
aa(lp4024
g51
ag73
aa(lp4025
g52
ag485
aa(lp4026
g53
ag77
aa(lp4027
g54
ag171
aa(lp4028
g55
ag120
aa(lp4029
g56
ag99
aa(lp4030
g57
ag172
aa(lp4031
g58
ag81
aa(lp4032
g59
ag136
aatp4033
Rp4034
ag2452
((lp4035
(lp4036
g49
ag1769
aa(lp4037
g50
ag1763
aa(lp4038
g51
ag148
aa(lp4039
g52
ag485
aa(lp4040
g53
ag77
aa(lp4041
g54
ag171
aa(lp4042
g55
ag120
aa(lp4043
g56
ag99
aa(lp4044
g57
ag172
aa(lp4045
g58
ag81
aa(lp4046
g59
ag136
aatp4047
Rp4048
ag2452
((lp4049
(lp4050
g49
ag492
aa(lp4051
g50
ag486
aa(lp4052
g51
ag94
aa(lp4053
g52
ag485
aa(lp4054
g53
ag77
aa(lp4055
g54
ag171
aa(lp4056
g55
ag120
aa(lp4057
g56
ag99
aa(lp4058
g57
ag172
aa(lp4059
g58
ag81
aa(lp4060
g59
ag136
aatp4061
Rp4062
ag2452
((lp4063
(lp4064
g49
ag811
aa(lp4065
g50
ag805
aa(lp4066
g51
ag222
aa(lp4067
g52
ag485
aa(lp4068
g53
ag77
aa(lp4069
g54
ag171
aa(lp4070
g55
ag120
aa(lp4071
g56
ag99
aa(lp4072
g57
ag172
aa(lp4073
g58
ag81
aa(lp4074
g59
ag136
aatp4075
Rp4076
ag2452
((lp4077
(lp4078
g49
ag478
aa(lp4079
g50
ag472
aa(lp4080
g51
ag73
aa(lp4081
g52
ag114
aa(lp4082
g53
ag120
aa(lp4083
g54
ag126
aa(lp4084
g55
ag98
aa(lp4085
g56
ag117
aa(lp4086
g57
ag127
aa(lp4087
g58
ag121
aa(lp4088
g59
ag97
aatp4089
Rp4090
ag2452
((lp4091
(lp4092
g49
ag155
aa(lp4093
g50
ag149
aa(lp4094
g51
ag148
aa(lp4095
g52
ag114
aa(lp4096
g53
ag120
aa(lp4097
g54
ag126
aa(lp4098
g55
ag98
aa(lp4099
g56
ag117
aa(lp4100
g57
ag127
aa(lp4101
g58
ag121
aa(lp4102
g59
ag97
aatp4103
Rp4104
ag2452
((lp4105
(lp4106
g49
ag124
aa(lp4107
g50
ag115
aa(lp4108
g51
ag94
aa(lp4109
g52
ag114
aa(lp4110
g53
ag120
aa(lp4111
g54
ag126
aa(lp4112
g55
ag98
aa(lp4113
g56
ag117
aa(lp4114
g57
ag127
aa(lp4115
g58
ag121
aa(lp4116
g59
ag97
aatp4117
Rp4118
ag2452
((lp4119
(lp4120
g49
ag1782
aa(lp4121
g50
ag1776
aa(lp4122
g51
ag222
aa(lp4123
g52
ag114
aa(lp4124
g53
ag120
aa(lp4125
g54
ag126
aa(lp4126
g55
ag98
aa(lp4127
g56
ag117
aa(lp4128
g57
ag127
aa(lp4129
g58
ag121
aa(lp4130
g59
ag97
aatp4131
Rp4132
ag2452
((lp4133
(lp4134
g49
ag438
aa(lp4135
g50
ag432
aa(lp4136
g51
ag73
aa(lp4137
g52
ag431
aa(lp4138
g53
ag120
aa(lp4139
g54
ag86
aa(lp4140
g55
ag98
aa(lp4141
g56
ag78
aa(lp4142
g57
ag87
aa(lp4143
g58
ag121
aa(lp4144
g59
ag97
aatp4145
Rp4146
ag2452
((lp4147
(lp4148
g49
ag1353
aa(lp4149
g50
ag1347
aa(lp4150
g51
ag148
aa(lp4151
g52
ag431
aa(lp4152
g53
ag120
aa(lp4153
g54
ag86
aa(lp4154
g55
ag98
aa(lp4155
g56
ag78
aa(lp4156
g57
ag87
aa(lp4157
g58
ag121
aa(lp4158
g59
ag97
aatp4159
Rp4160
ag2452
((lp4161
(lp4162
g49
ag1496
aa(lp4163
g50
ag1490
aa(lp4164
g51
ag94
aa(lp4165
g52
ag431
aa(lp4166
g53
ag120
aa(lp4167
g54
ag86
aa(lp4168
g55
ag98
aa(lp4169
g56
ag78
aa(lp4170
g57
ag87
aa(lp4171
g58
ag121
aa(lp4172
g59
ag97
aatp4173
Rp4174
ag2452
((lp4175
(lp4176
g49
ag1678
aa(lp4177
g50
ag1672
aa(lp4178
g51
ag222
aa(lp4179
g52
ag431
aa(lp4180
g53
ag120
aa(lp4181
g54
ag86
aa(lp4182
g55
ag98
aa(lp4183
g56
ag78
aa(lp4184
g57
ag87
aa(lp4185
g58
ag121
aa(lp4186
g59
ag97
aatp4187
Rp4188
ag2452
((lp4189
(lp4190
g49
ag1939
aa(lp4191
g50
ag1933
aa(lp4192
g51
ag73
aa(lp4193
g52
ag1268
aa(lp4194
g53
ag120
aa(lp4195
g54
ag201
aa(lp4196
g55
ag98
aa(lp4197
g56
ag78
aa(lp4198
g57
ag172
aa(lp4199
g58
ag121
aa(lp4200
g59
ag97
aatp4201
Rp4202
ag2452
((lp4203
(lp4204
g49
ag1743
aa(lp4205
g50
ag1737
aa(lp4206
g51
ag148
aa(lp4207
g52
ag1268
aa(lp4208
g53
ag120
aa(lp4209
g54
ag201
aa(lp4210
g55
ag98
aa(lp4211
g56
ag78
aa(lp4212
g57
ag172
aa(lp4213
g58
ag121
aa(lp4214
g59
ag97
aatp4215
Rp4216
ag2452
((lp4217
(lp4218
g49
ag1574
aa(lp4219
g50
ag1568
aa(lp4220
g51
ag94
aa(lp4221
g52
ag1268
aa(lp4222
g53
ag120
aa(lp4223
g54
ag201
aa(lp4224
g55
ag98
aa(lp4225
g56
ag78
aa(lp4226
g57
ag172
aa(lp4227
g58
ag121
aa(lp4228
g59
ag97
aatp4229
Rp4230
ag2452
((lp4231
(lp4232
g49
ag1275
aa(lp4233
g50
ag1269
aa(lp4234
g51
ag222
aa(lp4235
g52
ag1268
aa(lp4236
g53
ag120
aa(lp4237
g54
ag201
aa(lp4238
g55
ag98
aa(lp4239
g56
ag78
aa(lp4240
g57
ag172
aa(lp4241
g58
ag121
aa(lp4242
g59
ag97
aatp4243
Rp4244
ag2452
((lp4245
(lp4246
g49
ag798
aa(lp4247
g50
ag792
aa(lp4248
g51
ag73
aa(lp4249
g52
ag791
aa(lp4250
g53
ag120
aa(lp4251
g54
ag107
aa(lp4252
g55
ag98
aa(lp4253
g56
ag99
aa(lp4254
g57
ag108
aa(lp4255
g58
ag121
aa(lp4256
g59
ag97
aatp4257
Rp4258
ag2452
((lp4259
(lp4260
g49
ag2004
aa(lp4261
g50
ag1998
aa(lp4262
g51
ag148
aa(lp4263
g52
ag791
aa(lp4264
g53
ag120
aa(lp4265
g54
ag107
aa(lp4266
g55
ag98
aa(lp4267
g56
ag99
aa(lp4268
g57
ag108
aa(lp4269
g58
ag121
aa(lp4270
g59
ag97
aatp4271
Rp4272
ag2452
((lp4273
(lp4274
g49
ag1248
aa(lp4275
g50
ag1242
aa(lp4276
g51
ag94
aa(lp4277
g52
ag791
aa(lp4278
g53
ag120
aa(lp4279
g54
ag107
aa(lp4280
g55
ag98
aa(lp4281
g56
ag99
aa(lp4282
g57
ag108
aa(lp4283
g58
ag121
aa(lp4284
g59
ag97
aatp4285
Rp4286
ag2452
((lp4287
(lp4288
g49
ag2291
aa(lp4289
g50
ag2285
aa(lp4290
g51
ag222
aa(lp4291
g52
ag791
aa(lp4292
g53
ag120
aa(lp4293
g54
ag107
aa(lp4294
g55
ag98
aa(lp4295
g56
ag99
aa(lp4296
g57
ag108
aa(lp4297
g58
ag121
aa(lp4298
g59
ag97
aatp4299
Rp4300
ag2452
((lp4301
(lp4302
g49
ag396
aa(lp4303
g50
ag390
aa(lp4304
g51
ag73
aa(lp4305
g52
ag389
aa(lp4306
g53
ag120
aa(lp4307
g54
ag171
aa(lp4308
g55
ag98
aa(lp4309
g56
ag99
aa(lp4310
g57
ag172
aa(lp4311
g58
ag121
aa(lp4312
g59
ag97
aatp4313
Rp4314
ag2452
((lp4315
(lp4316
g49
ag451
aa(lp4317
g50
ag445
aa(lp4318
g51
ag148
aa(lp4319
g52
ag389
aa(lp4320
g53
ag120
aa(lp4321
g54
ag171
aa(lp4322
g55
ag98
aa(lp4323
g56
ag99
aa(lp4324
g57
ag172
aa(lp4325
g58
ag121
aa(lp4326
g59
ag97
aatp4327
Rp4328
ag2452
((lp4329
(lp4330
g49
ag505
aa(lp4331
g50
ag499
aa(lp4332
g51
ag94
aa(lp4333
g52
ag389
aa(lp4334
g53
ag120
aa(lp4335
g54
ag171
aa(lp4336
g55
ag98
aa(lp4337
g56
ag99
aa(lp4338
g57
ag172
aa(lp4339
g58
ag121
aa(lp4340
g59
ag97
aatp4341
Rp4342
ag2452
((lp4343
(lp4344
g49
ag2122
aa(lp4345
g50
ag2116
aa(lp4346
g51
ag222
aa(lp4347
g52
ag389
aa(lp4348
g53
ag120
aa(lp4349
g54
ag171
aa(lp4350
g55
ag98
aa(lp4351
g56
ag99
aa(lp4352
g57
ag172
aa(lp4353
g58
ag121
aa(lp4354
g59
ag97
aatp4355
Rp4356
ag2452
((lp4357
(lp4358
g49
ag612
aa(lp4359
g50
ag606
aa(lp4360
g51
ag73
aa(lp4361
g52
ag458
aa(lp4362
g53
ag120
aa(lp4363
g54
ag126
aa(lp4364
g55
ag77
aa(lp4365
g56
ag117
aa(lp4366
g57
ag127
aa(lp4367
g58
ag121
aa(lp4368
g59
ag76
aatp4369
Rp4370
ag2452
((lp4371
(lp4372
g49
ag465
aa(lp4373
g50
ag459
aa(lp4374
g51
ag148
aa(lp4375
g52
ag458
aa(lp4376
g53
ag120
aa(lp4377
g54
ag126
aa(lp4378
g55
ag77
aa(lp4379
g56
ag117
aa(lp4380
g57
ag127
aa(lp4381
g58
ag121
aa(lp4382
g59
ag76
aatp4383
Rp4384
ag2452
((lp4385
(lp4386
g49
ag1691
aa(lp4387
g50
ag1685
aa(lp4388
g51
ag94
aa(lp4389
g52
ag458
aa(lp4390
g53
ag120
aa(lp4391
g54
ag126
aa(lp4392
g55
ag77
aa(lp4393
g56
ag117
aa(lp4394
g57
ag127
aa(lp4395
g58
ag121
aa(lp4396
g59
ag76
aatp4397
Rp4398
ag2452
((lp4399
(lp4400
g49
ag1978
aa(lp4401
g50
ag1972
aa(lp4402
g51
ag222
aa(lp4403
g52
ag458
aa(lp4404
g53
ag120
aa(lp4405
g54
ag126
aa(lp4406
g55
ag77
aa(lp4407
g56
ag117
aa(lp4408
g57
ag127
aa(lp4409
g58
ag121
aa(lp4410
g59
ag76
aatp4411
Rp4412
ag2452
((lp4413
(lp4414
g49
ag2252
aa(lp4415
g50
ag2246
aa(lp4416
g51
ag73
aa(lp4417
g52
ag897
aa(lp4418
g53
ag120
aa(lp4419
g54
ag86
aa(lp4420
g55
ag77
aa(lp4421
g56
ag78
aa(lp4422
g57
ag87
aa(lp4423
g58
ag121
aa(lp4424
g59
ag76
aatp4425
Rp4426
ag2452
((lp4427
(lp4428
g49
ag1913
aa(lp4429
g50
ag1907
aa(lp4430
g51
ag148
aa(lp4431
g52
ag897
aa(lp4432
g53
ag120
aa(lp4433
g54
ag86
aa(lp4434
g55
ag77
aa(lp4435
g56
ag78
aa(lp4436
g57
ag87
aa(lp4437
g58
ag121
aa(lp4438
g59
ag76
aatp4439
Rp4440
ag2452
((lp4441
(lp4442
g49
ag904
aa(lp4443
g50
ag898
aa(lp4444
g51
ag94
aa(lp4445
g52
ag897
aa(lp4446
g53
ag120
aa(lp4447
g54
ag86
aa(lp4448
g55
ag77
aa(lp4449
g56
ag78
aa(lp4450
g57
ag87
aa(lp4451
g58
ag121
aa(lp4452
g59
ag76
aatp4453
Rp4454
ag2452
((lp4455
(lp4456
g49
ag984
aa(lp4457
g50
ag978
aa(lp4458
g51
ag222
aa(lp4459
g52
ag897
aa(lp4460
g53
ag120
aa(lp4461
g54
ag86
aa(lp4462
g55
ag77
aa(lp4463
g56
ag78
aa(lp4464
g57
ag87
aa(lp4465
g58
ag121
aa(lp4466
g59
ag76
aatp4467
Rp4468
ag2452
((lp4469
(lp4470
g49
ag2317
aa(lp4471
g50
ag2311
aa(lp4472
g51
ag73
aa(lp4473
g52
ag2050
aa(lp4474
g53
ag120
aa(lp4475
g54
ag201
aa(lp4476
g55
ag77
aa(lp4477
g56
ag78
aa(lp4478
g57
ag172
aa(lp4479
g58
ag121
aa(lp4480
g59
ag76
aatp4481
Rp4482
ag2452
((lp4483
(lp4484
g49
ag2057
aa(lp4485
g50
ag2051
aa(lp4486
g51
ag148
aa(lp4487
g52
ag2050
aa(lp4488
g53
ag120
aa(lp4489
g54
ag201
aa(lp4490
g55
ag77
aa(lp4491
g56
ag78
aa(lp4492
g57
ag172
aa(lp4493
g58
ag121
aa(lp4494
g59
ag76
aatp4495
Rp4496
ag2452
((lp4497
(lp4498
g49
ag2239
aa(lp4499
g50
ag2233
aa(lp4500
g51
ag94
aa(lp4501
g52
ag2050
aa(lp4502
g53
ag120
aa(lp4503
g54
ag201
aa(lp4504
g55
ag77
aa(lp4505
g56
ag78
aa(lp4506
g57
ag172
aa(lp4507
g58
ag121
aa(lp4508
g59
ag76
aatp4509
Rp4510
ag2452
((lp4511
(lp4512
g49
ag2161
aa(lp4513
g50
ag2155
aa(lp4514
g51
ag222
aa(lp4515
g52
ag2050
aa(lp4516
g53
ag120
aa(lp4517
g54
ag201
aa(lp4518
g55
ag77
aa(lp4519
g56
ag78
aa(lp4520
g57
ag172
aa(lp4521
g58
ag121
aa(lp4522
g59
ag76
aatp4523
Rp4524
ag2452
((lp4525
(lp4526
g49
ag424
aa(lp4527
g50
ag418
aa(lp4528
g51
ag73
aa(lp4529
g52
ag417
aa(lp4530
g53
ag120
aa(lp4531
g54
ag107
aa(lp4532
g55
ag77
aa(lp4533
g56
ag99
aa(lp4534
g57
ag108
aa(lp4535
g58
ag121
aa(lp4536
g59
ag76
aatp4537
Rp4538
ag2452
((lp4539
(lp4540
g49
ag677
aa(lp4541
g50
ag671
aa(lp4542
g51
ag148
aa(lp4543
g52
ag417
aa(lp4544
g53
ag120
aa(lp4545
g54
ag107
aa(lp4546
g55
ag77
aa(lp4547
g56
ag99
aa(lp4548
g57
ag108
aa(lp4549
g58
ag121
aa(lp4550
g59
ag76
aatp4551
Rp4552
ag2452
((lp4553
(lp4554
g49
ag2330
aa(lp4555
g50
ag2324
aa(lp4556
g51
ag94
aa(lp4557
g52
ag417
aa(lp4558
g53
ag120
aa(lp4559
g54
ag107
aa(lp4560
g55
ag77
aa(lp4561
g56
ag99
aa(lp4562
g57
ag108
aa(lp4563
g58
ag121
aa(lp4564
g59
ag76
aatp4565
Rp4566
ag2452
((lp4567
(lp4568
g49
ag1887
aa(lp4569
g50
ag1881
aa(lp4570
g51
ag222
aa(lp4571
g52
ag417
aa(lp4572
g53
ag120
aa(lp4573
g54
ag107
aa(lp4574
g55
ag77
aa(lp4575
g56
ag99
aa(lp4576
g57
ag108
aa(lp4577
g58
ag121
aa(lp4578
g59
ag76
aatp4579
Rp4580
ag2452
((lp4581
(lp4582
g49
ag1704
aa(lp4583
g50
ag1698
aa(lp4584
g51
ag73
aa(lp4585
g52
ag964
aa(lp4586
g53
ag120
aa(lp4587
g54
ag171
aa(lp4588
g55
ag77
aa(lp4589
g56
ag99
aa(lp4590
g57
ag172
aa(lp4591
g58
ag121
aa(lp4592
g59
ag76
aatp4593
Rp4594
ag2452
((lp4595
(lp4596
g49
ag1470
aa(lp4597
g50
ag1464
aa(lp4598
g51
ag148
aa(lp4599
g52
ag964
aa(lp4600
g53
ag120
aa(lp4601
g54
ag171
aa(lp4602
g55
ag77
aa(lp4603
g56
ag99
aa(lp4604
g57
ag172
aa(lp4605
g58
ag121
aa(lp4606
g59
ag76
aatp4607
Rp4608
ag2452
((lp4609
(lp4610
g49
ag971
aa(lp4611
g50
ag965
aa(lp4612
g51
ag94
aa(lp4613
g52
ag964
aa(lp4614
g53
ag120
aa(lp4615
g54
ag171
aa(lp4616
g55
ag77
aa(lp4617
g56
ag99
aa(lp4618
g57
ag172
aa(lp4619
g58
ag121
aa(lp4620
g59
ag76
aatp4621
Rp4622
ag2452
((lp4623
(lp4624
g49
ag1327
aa(lp4625
g50
ag1321
aa(lp4626
g51
ag222
aa(lp4627
g52
ag964
aa(lp4628
g53
ag120
aa(lp4629
g54
ag171
aa(lp4630
g55
ag77
aa(lp4631
g56
ag99
aa(lp4632
g57
ag172
aa(lp4633
g58
ag121
aa(lp4634
g59
ag76
aatp4635
Rp4636
ag2452
((lp4637
(lp4638
g49
ag1809
aa(lp4639
g50
ag1803
aa(lp4640
g51
ag73
aa(lp4641
g52
ag1802
aa(lp4642
g53
ag120
aa(lp4643
g54
ag86
aa(lp4644
g55
ag120
aa(lp4645
g56
ag78
aa(lp4646
g57
ag87
aa(lp4647
g58
ag121
aa(lp4648
g59
ag136
aatp4649
Rp4650
ag2452
((lp4651
(lp4652
g49
ag2356
aa(lp4653
g50
ag2350
aa(lp4654
g51
ag148
aa(lp4655
g52
ag1802
aa(lp4656
g53
ag120
aa(lp4657
g54
ag86
aa(lp4658
g55
ag120
aa(lp4659
g56
ag78
aa(lp4660
g57
ag87
aa(lp4661
g58
ag121
aa(lp4662
g59
ag136
aatp4663
Rp4664
ag2452
((lp4665
(lp4666
g49
ag2109
aa(lp4667
g50
ag2103
aa(lp4668
g51
ag94
aa(lp4669
g52
ag1802
aa(lp4670
g53
ag120
aa(lp4671
g54
ag86
aa(lp4672
g55
ag120
aa(lp4673
g56
ag78
aa(lp4674
g57
ag87
aa(lp4675
g58
ag121
aa(lp4676
g59
ag136
aatp4677
Rp4678
ag2452
((lp4679
(lp4680
g49
ag1848
aa(lp4681
g50
ag1842
aa(lp4682
g51
ag222
aa(lp4683
g52
ag1802
aa(lp4684
g53
ag120
aa(lp4685
g54
ag86
aa(lp4686
g55
ag120
aa(lp4687
g56
ag78
aa(lp4688
g57
ag87
aa(lp4689
g58
ag121
aa(lp4690
g59
ag136
aatp4691
Rp4692
ag2452
((lp4693
(lp4694
g49
ag1509
aa(lp4695
g50
ag1503
aa(lp4696
g51
ag73
aa(lp4697
g52
ag192
aa(lp4698
g53
ag120
aa(lp4699
g54
ag201
aa(lp4700
g55
ag120
aa(lp4701
g56
ag78
aa(lp4702
g57
ag172
aa(lp4703
g58
ag121
aa(lp4704
g59
ag136
aatp4705
Rp4706
ag2452
((lp4707
(lp4708
g49
ag957
aa(lp4709
g50
ag951
aa(lp4710
g51
ag148
aa(lp4711
g52
ag192
aa(lp4712
g53
ag120
aa(lp4713
g54
ag201
aa(lp4714
g55
ag120
aa(lp4715
g56
ag78
aa(lp4716
g57
ag172
aa(lp4717
g58
ag121
aa(lp4718
g59
ag136
aatp4719
Rp4720
ag2452
((lp4721
(lp4722
g49
ag199
aa(lp4723
g50
ag193
aa(lp4724
g51
ag94
aa(lp4725
g52
ag192
aa(lp4726
g53
ag120
aa(lp4727
g54
ag201
aa(lp4728
g55
ag120
aa(lp4729
g56
ag78
aa(lp4730
g57
ag172
aa(lp4731
g58
ag121
aa(lp4732
g59
ag136
aatp4733
Rp4734
ag2452
((lp4735
(lp4736
g49
ag1730
aa(lp4737
g50
ag1724
aa(lp4738
g51
ag222
aa(lp4739
g52
ag192
aa(lp4740
g53
ag120
aa(lp4741
g54
ag201
aa(lp4742
g55
ag120
aa(lp4743
g56
ag78
aa(lp4744
g57
ag172
aa(lp4745
g58
ag121
aa(lp4746
g59
ag136
aatp4747
Rp4748
ag2452
((lp4749
(lp4750
g49
ag1288
aa(lp4751
g50
ag1282
aa(lp4752
g51
ag73
aa(lp4753
g52
ag698
aa(lp4754
g53
ag120
aa(lp4755
g54
ag107
aa(lp4756
g55
ag120
aa(lp4757
g56
ag99
aa(lp4758
g57
ag108
aa(lp4759
g58
ag121
aa(lp4760
g59
ag136
aatp4761
Rp4762
ag2452
((lp4763
(lp4764
g49
ag705
aa(lp4765
g50
ag699
aa(lp4766
g51
ag148
aa(lp4767
g52
ag698
aa(lp4768
g53
ag120
aa(lp4769
g54
ag107
aa(lp4770
g55
ag120
aa(lp4771
g56
ag99
aa(lp4772
g57
ag108
aa(lp4773
g58
ag121
aa(lp4774
g59
ag136
aatp4775
Rp4776
ag2452
((lp4777
(lp4778
g49
ag718
aa(lp4779
g50
ag712
aa(lp4780
g51
ag94
aa(lp4781
g52
ag698
aa(lp4782
g53
ag120
aa(lp4783
g54
ag107
aa(lp4784
g55
ag120
aa(lp4785
g56
ag99
aa(lp4786
g57
ag108
aa(lp4787
g58
ag121
aa(lp4788
g59
ag136
aatp4789
Rp4790
ag2452
((lp4791
(lp4792
g49
ag2304
aa(lp4793
g50
ag2298
aa(lp4794
g51
ag222
aa(lp4795
g52
ag698
aa(lp4796
g53
ag120
aa(lp4797
g54
ag107
aa(lp4798
g55
ag120
aa(lp4799
g56
ag99
aa(lp4800
g57
ag108
aa(lp4801
g58
ag121
aa(lp4802
g59
ag136
aatp4803
Rp4804
ag2452
((lp4805
(lp4806
g49
ag326
aa(lp4807
g50
ag320
aa(lp4808
g51
ag73
aa(lp4809
g52
ag319
aa(lp4810
g53
ag120
aa(lp4811
g54
ag171
aa(lp4812
g55
ag120
aa(lp4813
g56
ag99
aa(lp4814
g57
ag172
aa(lp4815
g58
ag121
aa(lp4816
g59
ag136
aatp4817
Rp4818
ag2452
((lp4819
(lp4820
g49
ag837
aa(lp4821
g50
ag831
aa(lp4822
g51
ag148
aa(lp4823
g52
ag319
aa(lp4824
g53
ag120
aa(lp4825
g54
ag171
aa(lp4826
g55
ag120
aa(lp4827
g56
ag99
aa(lp4828
g57
ag172
aa(lp4829
g58
ag121
aa(lp4830
g59
ag136
aatp4831
Rp4832
ag2452
((lp4833
(lp4834
g49
ag1900
aa(lp4835
g50
ag1894
aa(lp4836
g51
ag94
aa(lp4837
g52
ag319
aa(lp4838
g53
ag120
aa(lp4839
g54
ag171
aa(lp4840
g55
ag120
aa(lp4841
g56
ag99
aa(lp4842
g57
ag172
aa(lp4843
g58
ag121
aa(lp4844
g59
ag136
aatp4845
Rp4846
ag2452
((lp4847
(lp4848
g49
ag2174
aa(lp4849
g50
ag2168
aa(lp4850
g51
ag222
aa(lp4851
g52
ag319
aa(lp4852
g53
ag120
aa(lp4853
g54
ag171
aa(lp4854
g55
ag120
aa(lp4855
g56
ag99
aa(lp4856
g57
ag172
aa(lp4857
g58
ag121
aa(lp4858
g59
ag136
aatp4859
Rp4860
asS'seed'
p4861
NsS'thisIndex'
p4862
g2362
sS'thisN'
p4863
I172
sS'thisTrialN'
p4864
I0
sS'nTotal'
p4865
I172
sbasS'savePickle'
p4866
I00
sb.