ccopy_reg
_reconstructor
p0
(cpsychopy.data.experiment
ExperimentHandler
p1
c__builtin__
object
p2
Ntp3
Rp4
(dp5
S'originPath'
p6
V/Users/stefano/GitHub/phd-project/italian-egg/experiment/italian-egg.psyexp
p7
sS'dataFileName'
p8
V/Users/stefano/GitHub/phd-project/italian-egg/experiment/results/it08_italian-egg_2018_Aug_21_1124
p9
sS'runtimeInfo'
p10
NsS'name'
p11
S'italian-egg'
p12
sS'dataNames'
p13
(lp14
S'key_resp_2.keys'
p15
aS'key_resp_2.rt'
p16
asS'autoLog'
p17
I01
sS'extraInfo'
p18
(dp19
S'date'
p20
V2018_Aug_21_1124
p21
sS'frameRate'
p22
cnumpy.core.multiarray
scalar
p23
(cnumpy
dtype
p24
(S'f8'
p25
I0
I1
tp26
Rp27
(I3
S'<'
p28
NNNI-1
I-1
I0
tp29
bS'\x98\x90\x16\xe7SGN@'
p30
tp31
Rp32
sS'expName'
p33
g12
sVparticipant
p34
g0
(cfuture.types.newstr
newstr
p35
c__builtin__
unicode
p36
Vit08
p37
tp38
Rp39
ssS'loopsUnfinished'
p40
(lp41
sS'saveWideText'
p42
I00
sS'thisEntry'
p43
(dp44
sS'version'
p45
S''
p46
sS'_paramNamesSoFar'
p47
(lp48
Vstimulus_id
p49
aVstimulus
p50
aVsentence
p51
aVword
p52
aVconsonant_1
p53
aVvowel
p54
aVconsonant_2
p55
aVbackness
p56
aVheight
p57
aVplace_1
p58
aVplace_2
p59
asS'entries'
p60
(lp61
(dp62
S'trials.thisIndex'
p63
g23
(g24
(S'i8'
p64
I0
I1
tp65
Rp66
(I3
S'<'
p67
NNNI-1
I-1
I0
tp68
bS'\x8f\x00\x00\x00\x00\x00\x00\x00'
p69
tp70
Rp71
sg16
F10.655699014663696
sg22
g32
sg52
Vcheto
p72
sg51
VRipete X da sempre
p73
sg50
VRipete "cheto" da sempre
p74
sS'trials.thisRepN'
p75
I0
sg59
Vcoronal
p76
sg55
Vt
p77
sg56
Vfront
p78
sg15
S'space'
p79
sS'trials.thisN'
p80
I0
sg53
Vk
p81
sg58
Vvelar
p82
sg49
g23
(g66
S'\x90\x00\x00\x00\x00\x00\x00\x00'
p83
tp84
Rp85
sS'trials.thisTrialN'
p86
I0
sg54
Ve
p87
sg20
g21
sg34
g39
sg57
Vmid-high
p88
sg33
g12
sa(dp89
S'trials.thisIndex'
p90
g23
(g66
S'\t\x00\x00\x00\x00\x00\x00\x00'
p91
tp92
Rp93
sg16
F2.520673990249634
sg22
g32
sg52
Vpipo
p94
sg51
VHa detto X sei volte
p95
sg50
VHa detto "pipo" sei volte
p96
sS'trials.thisRepN'
p97
I0
sg59
Vlabial
p98
sg55
Vp
p99
sg56
g78
sg15
S'space'
p100
sS'trials.thisN'
p101
I1
sg53
g99
sg58
Vlabial
p102
sg49
g23
(g66
S'\n\x00\x00\x00\x00\x00\x00\x00'
p103
tp104
Rp105
sS'trials.thisTrialN'
p106
I1
sg54
Vi
p107
sg20
g21
sg34
g39
sg57
Vhigh
p108
sg33
g12
sa(dp109
S'trials.thisIndex'
p110
g23
(g66
S':\x00\x00\x00\x00\x00\x00\x00'
p111
tp112
Rp113
sg16
F2.201748847961426
sg22
g32
sg52
Vtapo
p114
sg51
VSentivo X di nuovo
p115
sg50
VSentivo "tapo" di nuovo
p116
sS'trials.thisRepN'
p117
I0
sg59
g98
sg55
g99
sg56
Vcentral
p118
sg15
S'space'
p119
sS'trials.thisN'
p120
I2
sg53
g77
sg58
Vcoronal
p121
sg49
g23
(g66
S';\x00\x00\x00\x00\x00\x00\x00'
p122
tp123
Rp124
sS'trials.thisTrialN'
p125
I2
sg54
Va
p126
sg20
g21
sg34
g39
sg57
Vlow
p127
sg33
g12
sa(dp128
S'trials.thisIndex'
p129
g23
(g66
S'\xa4\x00\x00\x00\x00\x00\x00\x00'
p130
tp131
Rp132
sg16
F2.1533091068267822
sg22
g32
sg52
Vcoco
p133
sg51
VScrivete X sul foglio
p134
sg50
VScrivete "coco" sul foglio
p135
sS'trials.thisRepN'
p136
I0
sg59
Vvelar
p137
sg55
g81
sg56
Vback
p138
sg15
S'space'
p139
sS'trials.thisN'
p140
I3
sg53
g81
sg58
g82
sg49
g23
(g66
S'\xa5\x00\x00\x00\x00\x00\x00\x00'
p141
tp142
Rp143
sS'trials.thisTrialN'
p144
I3
sg54
Vo
p145
sg20
g21
sg34
g39
sg57
Vmid-low
p146
sg33
g12
sa(dp147
S'trials.thisIndex'
p148
g23
(g66
S'N\x00\x00\x00\x00\x00\x00\x00'
p149
tp150
Rp151
sg16
F2.0362091064453125
sg22
g32
sg52
Vtato
p152
sg51
g115
sg50
VSentivo "tato" di nuovo
p153
sS'trials.thisRepN'
p154
I0
sg59
g76
sg55
g77
sg56
g118
sg15
S'space'
p155
sS'trials.thisN'
p156
I4
sg53
g77
sg58
g121
sg49
g23
(g66
S'O\x00\x00\x00\x00\x00\x00\x00'
p157
tp158
Rp159
sS'trials.thisTrialN'
p160
I4
sg54
g126
sg20
g21
sg34
g39
sg57
g127
sg33
g12
sa(dp161
S'trials.thisIndex'
p162
g23
(g66
S'\x0c\x00\x00\x00\x00\x00\x00\x00'
p163
tp164
Rp165
sg16
F2.3213250637054443
sg22
g32
sg52
Vpopo
p166
sg51
g134
sg50
VScrivete "popo" sul foglio
p167
sS'trials.thisRepN'
p168
I0
sg59
g98
sg55
g99
sg56
g138
sg15
S'space'
p169
sS'trials.thisN'
p170
I5
sg53
g99
sg58
g102
sg49
g23
(g66
S'\r\x00\x00\x00\x00\x00\x00\x00'
p171
tp172
Rp173
sS'trials.thisTrialN'
p174
I5
sg54
g145
sg20
g21
sg34
g39
sg57
g146
sg33
g12
sa(dp175
S'trials.thisIndex'
p176
g23
(g66
S'J\x00\x00\x00\x00\x00\x00\x00'
p177
tp178
Rp179
sg16
F1.920379877090454
sg22
g32
sg52
Vtupo
p180
sg51
g115
sg50
VSentivo "tupo" di nuovo
p181
sS'trials.thisRepN'
p182
I0
sg59
g98
sg55
g99
sg56
g138
sg15
S'space'
p183
sS'trials.thisN'
p184
I6
sg53
g77
sg58
g121
sg49
g23
(g66
S'K\x00\x00\x00\x00\x00\x00\x00'
p185
tp186
Rp187
sS'trials.thisTrialN'
p188
I6
sg54
Vu
p189
sg20
g21
sg34
g39
sg57
g108
sg33
g12
sa(dp190
S'trials.thisIndex'
p191
g23
(g66
S'\x84\x00\x00\x00\x00\x00\x00\x00'
p192
tp193
Rp194
sg16
F2.2689270973205566
sg22
g32
sg52
Vcupo
p195
sg51
g134
sg50
VScrivete "cupo" sul foglio
p196
sS'trials.thisRepN'
p197
I0
sg59
g98
sg55
g99
sg56
g138
sg15
S'space'
p198
sS'trials.thisN'
p199
I7
sg53
g81
sg58
g82
sg49
g23
(g66
S'\x85\x00\x00\x00\x00\x00\x00\x00'
p200
tp201
Rp202
sS'trials.thisTrialN'
p203
I7
sg54
g189
sg20
g21
sg34
g39
sg57
g108
sg33
g12
sa(dp204
S'trials.thisIndex'
p205
g23
(g66
S'\x95\x00\x00\x00\x00\x00\x00\x00'
p206
tp207
Rp208
sg16
F2.2530620098114014
sg22
g32
sg52
Vcoto
p209
sg51
g95
sg50
VHa detto "coto" sei volte
p210
sS'trials.thisRepN'
p211
I0
sg59
g76
sg55
g77
sg56
g138
sg15
S'space'
p212
sS'trials.thisN'
p213
I8
sg53
g81
sg58
g82
sg49
g23
(g66
S'\x96\x00\x00\x00\x00\x00\x00\x00'
p214
tp215
Rp216
sS'trials.thisTrialN'
p217
I8
sg54
g145
sg20
g21
sg34
g39
sg57
g146
sg33
g12
sa(dp218
S'trials.thisIndex'
p219
g23
(g66
S'\x87\x00\x00\x00\x00\x00\x00\x00'
p220
tp221
Rp222
sg16
F2.6547322273254395
sg22
g32
sg52
g195
sg51
g73
sg50
VRipete "cupo" da sempre
p223
sS'trials.thisRepN'
p224
I0
sg59
g98
sg55
g99
sg56
g138
sg15
S'space'
p225
sS'trials.thisN'
p226
I9
sg53
g81
sg58
g82
sg49
g23
(g66
S'\x88\x00\x00\x00\x00\x00\x00\x00'
p227
tp228
Rp229
sS'trials.thisTrialN'
p230
I9
sg54
g189
sg20
g21
sg34
g39
sg57
g108
sg33
g12
sa(dp231
S'trials.thisIndex'
p232
g23
(g66
S'?\x00\x00\x00\x00\x00\x00\x00'
p233
tp234
Rp235
sg16
F2.2364330291748047
sg22
g32
sg52
Vtepo
p236
sg51
g73
sg50
VRipete "tepo" da sempre
p237
sS'trials.thisRepN'
p238
I0
sg59
g98
sg55
g99
sg56
g78
sg15
S'space'
p239
sS'trials.thisN'
p240
I10
sg53
g77
sg58
g121
sg49
g23
(g66
S'@\x00\x00\x00\x00\x00\x00\x00'
p241
tp242
Rp243
sS'trials.thisTrialN'
p244
I10
sg54
g87
sg20
g21
sg34
g39
sg57
g88
sg33
g12
sa(dp245
S'trials.thisIndex'
p246
g23
(g66
S's\x00\x00\x00\x00\x00\x00\x00'
p247
tp248
Rp249
sg16
F2.1366851329803467
sg22
g32
sg52
Vtuco
p250
sg51
g73
sg50
VRipete "tuco" da sempre
p251
sS'trials.thisRepN'
p252
I0
sg59
g137
sg55
g81
sg56
g138
sg15
S'space'
p253
sS'trials.thisN'
p254
I11
sg53
g77
sg58
g121
sg49
g23
(g66
S't\x00\x00\x00\x00\x00\x00\x00'
p255
tp256
Rp257
sS'trials.thisTrialN'
p258
I11
sg54
g189
sg20
g21
sg34
g39
sg57
g108
sg33
g12
sa(dp259
S'trials.thisIndex'
p260
g23
(g66
S'\x96\x00\x00\x00\x00\x00\x00\x00'
p261
tp262
Rp263
sg16
F2.0529391765594482
sg22
g32
sg52
g209
sg51
g115
sg50
VSentivo "coto" di nuovo
p264
sS'trials.thisRepN'
p265
I0
sg59
g76
sg55
g77
sg56
g138
sg15
S'space'
p266
sS'trials.thisN'
p267
I12
sg53
g81
sg58
g82
sg49
g23
(g66
S'\x97\x00\x00\x00\x00\x00\x00\x00'
p268
tp269
Rp270
sS'trials.thisTrialN'
p271
I12
sg54
g145
sg20
g21
sg34
g39
sg57
g146
sg33
g12
sa(dp272
S'trials.thisIndex'
p273
g23
(g66
S'b\x00\x00\x00\x00\x00\x00\x00'
p274
tp275
Rp276
sg16
F1.9548380374908447
sg22
g32
sg52
Vtaco
p277
sg51
g115
sg50
VSentivo "taco" di nuovo
p278
sS'trials.thisRepN'
p279
I0
sg59
g137
sg55
g81
sg56
g118
sg15
S'space'
p280
sS'trials.thisN'
p281
I13
sg53
g77
sg58
g121
sg49
g23
(g66
S'c\x00\x00\x00\x00\x00\x00\x00'
p282
tp283
Rp284
sS'trials.thisTrialN'
p285
I13
sg54
g126
sg20
g21
sg34
g39
sg57
g127
sg33
g12
sa(dp286
S'trials.thisIndex'
p287
g23
(g66
S'L\x00\x00\x00\x00\x00\x00\x00'
p288
tp289
Rp290
sg16
F2.2860159873962402
sg22
g32
sg52
g152
sg51
g134
sg50
VScrivete "tato" sul foglio
p291
sS'trials.thisRepN'
p292
I0
sg59
g76
sg55
g77
sg56
g118
sg15
S'space'
p293
sS'trials.thisN'
p294
I14
sg53
g77
sg58
g121
sg49
g23
(g66
S'M\x00\x00\x00\x00\x00\x00\x00'
p295
tp296
Rp297
sS'trials.thisTrialN'
p298
I14
sg54
g126
sg20
g21
sg34
g39
sg57
g127
sg33
g12
sa(dp299
S'trials.thisIndex'
p300
g23
(g66
S'4\x00\x00\x00\x00\x00\x00\x00'
p301
tp302
Rp303
sg16
F1.853571891784668
sg22
g32
sg52
Vpuco
p304
sg51
g134
sg50
VScrivete "puco" sul foglio
p305
sS'trials.thisRepN'
p306
I0
sg59
g137
sg55
g81
sg56
g138
sg15
S'space'
p307
sS'trials.thisN'
p308
I15
sg53
g99
sg58
g102
sg49
g23
(g66
S'5\x00\x00\x00\x00\x00\x00\x00'
p309
tp310
Rp311
sS'trials.thisTrialN'
p312
I15
sg54
g189
sg20
g21
sg34
g39
sg57
g108
sg33
g12
sa(dp313
S'trials.thisIndex'
p314
g23
(g66
S'o\x00\x00\x00\x00\x00\x00\x00'
p315
tp316
Rp317
sg16
F2.234060049057007
sg22
g32
sg52
Vtoco
p318
sg51
g73
sg50
VRipete "toco" da sempre
p319
sS'trials.thisRepN'
p320
I0
sg59
g137
sg55
g81
sg56
g138
sg15
S'space'
p321
sS'trials.thisN'
p322
I16
sg53
g77
sg58
g121
sg49
g23
(g66
S'p\x00\x00\x00\x00\x00\x00\x00'
p323
tp324
Rp325
sS'trials.thisTrialN'
p326
I16
sg54
g145
sg20
g21
sg34
g39
sg57
g146
sg33
g12
sa(dp327
S'trials.thisIndex'
p328
g23
(g66
S'*\x00\x00\x00\x00\x00\x00\x00'
p329
tp330
Rp331
sg16
F1.853652000427246
sg22
g32
sg52
Vpeco
p332
sg51
g115
sg50
VSentivo "peco" di nuovo
p333
sS'trials.thisRepN'
p334
I0
sg59
g137
sg55
g81
sg56
g78
sg15
S'space'
p335
sS'trials.thisN'
p336
I17
sg53
g99
sg58
g102
sg49
g23
(g66
S'+\x00\x00\x00\x00\x00\x00\x00'
p337
tp338
Rp339
sS'trials.thisTrialN'
p340
I17
sg54
g87
sg20
g21
sg34
g39
sg57
g88
sg33
g12
sa(dp341
S'trials.thisIndex'
p342
g23
(g66
S'_\x00\x00\x00\x00\x00\x00\x00'
p343
tp344
Rp345
sg16
F1.9040310382843018
sg22
g32
sg52
Vtuto
p346
sg51
g73
sg50
VRipete "tuto" da sempre
p347
sS'trials.thisRepN'
p348
I0
sg59
g76
sg55
g77
sg56
g138
sg15
S'space'
p349
sS'trials.thisN'
p350
I18
sg53
g77
sg58
g121
sg49
g23
(g66
S'`\x00\x00\x00\x00\x00\x00\x00'
p351
tp352
Rp353
sS'trials.thisTrialN'
p354
I18
sg54
g189
sg20
g21
sg34
g39
sg57
g108
sg33
g12
sa(dp355
S'trials.thisIndex'
p356
g23
(g66
S'/\x00\x00\x00\x00\x00\x00\x00'
p357
tp358
Rp359
sg16
F2.1719799041748047
sg22
g32
sg52
Vpico
p360
sg51
g73
sg50
VRipete "pico" da sempre
p361
sS'trials.thisRepN'
p362
I0
sg59
g137
sg55
g81
sg56
g78
sg15
S'space'
p363
sS'trials.thisN'
p364
I19
sg53
g99
sg58
g102
sg49
g23
(g66
S'0\x00\x00\x00\x00\x00\x00\x00'
p365
tp366
Rp367
sS'trials.thisTrialN'
p368
I19
sg54
g107
sg20
g21
sg34
g39
sg57
g108
sg33
g12
sa(dp369
S'trials.thisIndex'
p370
g23
(g66
S'I\x00\x00\x00\x00\x00\x00\x00'
p371
tp372
Rp373
sg16
F2.3048081398010254
sg22
g32
sg52
g180
sg51
g95
sg50
VHa detto "tupo" sei volte
p374
sS'trials.thisRepN'
p375
I0
sg59
g98
sg55
g99
sg56
g138
sg15
S'space'
p376
sS'trials.thisN'
p377
I20
sg53
g77
sg58
g121
sg49
g23
(g66
S'J\x00\x00\x00\x00\x00\x00\x00'
p378
tp379
Rp380
sS'trials.thisTrialN'
p381
I20
sg54
g189
sg20
g21
sg34
g39
sg57
g108
sg33
g12
sa(dp382
S'trials.thisIndex'
p383
g23
(g66
S'\xab\x00\x00\x00\x00\x00\x00\x00'
p384
tp385
Rp386
sg16
F1.8862090110778809
sg22
g32
sg52
Vcuco
p387
sg51
g73
sg50
VRipete "cuco" da sempre
p388
sS'trials.thisRepN'
p389
I0
sg59
g137
sg55
g81
sg56
g138
sg15
S'space'
p390
sS'trials.thisN'
p391
I21
sg53
g81
sg58
g82
sg49
g23
(g66
S'\xac\x00\x00\x00\x00\x00\x00\x00'
p392
tp393
Rp394
sS'trials.thisTrialN'
p395
I21
sg54
g189
sg20
g21
sg34
g39
sg57
g108
sg33
g12
sa(dp396
S'trials.thisIndex'
p397
g23
(g66
S'S\x00\x00\x00\x00\x00\x00\x00'
p398
tp399
Rp400
sg16
F1.969433069229126
sg22
g32
sg52
Vteto
p401
sg51
g73
sg50
VRipete "teto" da sempre
p402
sS'trials.thisRepN'
p403
I0
sg59
g76
sg55
g77
sg56
g78
sg15
S'space'
p404
sS'trials.thisN'
p405
I22
sg53
g77
sg58
g121
sg49
g23
(g66
S'T\x00\x00\x00\x00\x00\x00\x00'
p406
tp407
Rp408
sS'trials.thisTrialN'
p409
I22
sg54
g87
sg20
g21
sg34
g39
sg57
g88
sg33
g12
sa(dp410
S'trials.thisIndex'
p411
g23
(g66
S'\xa6\x00\x00\x00\x00\x00\x00\x00'
p412
tp413
Rp414
sg16
F1.852583885192871
sg22
g32
sg52
g133
sg51
g115
sg50
VSentivo "coco" di nuovo
p415
sS'trials.thisRepN'
p416
I0
sg59
g137
sg55
g81
sg56
g138
sg15
S'space'
p417
sS'trials.thisN'
p418
I23
sg53
g81
sg58
g82
sg49
g23
(g66
S'\xa7\x00\x00\x00\x00\x00\x00\x00'
p419
tp420
Rp421
sS'trials.thisTrialN'
p422
I23
sg54
g145
sg20
g21
sg34
g39
sg57
g146
sg33
g12
sa(dp423
S'trials.thisIndex'
p424
g23
(g66
S'\x07\x00\x00\x00\x00\x00\x00\x00'
p425
tp426
Rp427
sg16
F1.669389009475708
sg22
g32
sg52
Vpepo
p428
sg51
g73
sg50
VRipete "pepo" da sempre
p429
sS'trials.thisRepN'
p430
I0
sg59
g98
sg55
g99
sg56
g78
sg15
S'space'
p431
sS'trials.thisN'
p432
I24
sg53
g99
sg58
g102
sg49
g23
(g66
S'\x08\x00\x00\x00\x00\x00\x00\x00'
p433
tp434
Rp435
sS'trials.thisTrialN'
p436
I24
sg54
g87
sg20
g21
sg34
g39
sg57
g88
sg33
g12
sa(dp437
S'trials.thisIndex'
p438
g23
(g66
S'c\x00\x00\x00\x00\x00\x00\x00'
p439
tp440
Rp441
sg16
F2.0371100902557373
sg22
g32
sg52
g277
sg51
g73
sg50
VRipete "taco" da sempre
p442
sS'trials.thisRepN'
p443
I0
sg59
g137
sg55
g81
sg56
g118
sg15
S'space'
p444
sS'trials.thisN'
p445
I25
sg53
g77
sg58
g121
sg49
g23
(g66
S'd\x00\x00\x00\x00\x00\x00\x00'
p446
tp447
Rp448
sS'trials.thisTrialN'
p449
I25
sg54
g126
sg20
g21
sg34
g39
sg57
g127
sg33
g12
sa(dp450
S'trials.thisIndex'
p451
g23
(g66
S'\x81\x00\x00\x00\x00\x00\x00\x00'
p452
tp453
Rp454
sg16
F2.0344090461730957
sg22
g32
sg52
Vcopo
p455
sg51
g95
sg50
VHa detto "copo" sei volte
p456
sS'trials.thisRepN'
p457
I0
sg59
g98
sg55
g99
sg56
g138
sg15
S'space'
p458
sS'trials.thisN'
p459
I26
sg53
g81
sg58
g82
sg49
g23
(g66
S'\x82\x00\x00\x00\x00\x00\x00\x00'
p460
tp461
Rp462
sS'trials.thisTrialN'
p463
I26
sg54
g145
sg20
g21
sg34
g39
sg57
g146
sg33
g12
sa(dp464
S'trials.thisIndex'
p465
g23
(g66
S'\x97\x00\x00\x00\x00\x00\x00\x00'
p466
tp467
Rp468
sg16
F1.8368518352508545
sg22
g32
sg52
g209
sg51
g73
sg50
VRipete "coto" da sempre
p469
sS'trials.thisRepN'
p470
I0
sg59
g76
sg55
g77
sg56
g138
sg15
S'space'
p471
sS'trials.thisN'
p472
I27
sg53
g81
sg58
g82
sg49
g23
(g66
S'\x98\x00\x00\x00\x00\x00\x00\x00'
p473
tp474
Rp475
sS'trials.thisTrialN'
p476
I27
sg54
g145
sg20
g21
sg34
g39
sg57
g146
sg33
g12
sa(dp477
S'trials.thisIndex'
p478
g23
(g66
S'.\x00\x00\x00\x00\x00\x00\x00'
p479
tp480
Rp481
sg16
F1.8160028457641602
sg22
g32
sg52
g360
sg51
g115
sg50
VSentivo "pico" di nuovo
p482
sS'trials.thisRepN'
p483
I0
sg59
g137
sg55
g81
sg56
g78
sg15
S'space'
p484
sS'trials.thisN'
p485
I28
sg53
g99
sg58
g102
sg49
g23
(g66
S'/\x00\x00\x00\x00\x00\x00\x00'
p486
tp487
Rp488
sS'trials.thisTrialN'
p489
I28
sg54
g107
sg20
g21
sg34
g39
sg57
g108
sg33
g12
sa(dp490
S'trials.thisIndex'
p491
g23
(g66
S'{\x00\x00\x00\x00\x00\x00\x00'
p492
tp493
Rp494
sg16
F1.6531660556793213
sg22
g32
sg52
Vchepo
p495
sg51
g73
sg50
VRipete "chepo" da sempre
p496
sS'trials.thisRepN'
p497
I0
sg59
g98
sg55
g99
sg56
g78
sg15
S'space'
p498
sS'trials.thisN'
p499
I29
sg53
g81
sg58
g82
sg49
g23
(g66
S'|\x00\x00\x00\x00\x00\x00\x00'
p500
tp501
Rp502
sS'trials.thisTrialN'
p503
I29
sg54
g87
sg20
g21
sg34
g39
sg57
g88
sg33
g12
sa(dp504
S'trials.thisIndex'
p505
g23
(g66
S'r\x00\x00\x00\x00\x00\x00\x00'
p506
tp507
Rp508
sg16
F1.8293399810791016
sg22
g32
sg52
g250
sg51
g115
sg50
VSentivo "tuco" di nuovo
p509
sS'trials.thisRepN'
p510
I0
sg59
g137
sg55
g81
sg56
g138
sg15
S'space'
p511
sS'trials.thisN'
p512
I30
sg53
g77
sg58
g121
sg49
g23
(g66
S's\x00\x00\x00\x00\x00\x00\x00'
p513
tp514
Rp515
sS'trials.thisTrialN'
p516
I30
sg54
g189
sg20
g21
sg34
g39
sg57
g108
sg33
g12
sa(dp517
S'trials.thisIndex'
p518
g23
(g66
S'|\x00\x00\x00\x00\x00\x00\x00'
p519
tp520
Rp521
sg16
F2.0198159217834473
sg22
g32
sg52
Vchipo
p522
sg51
g134
sg50
VScrivete "chipo" sul foglio
p523
sS'trials.thisRepN'
p524
I0
sg59
g98
sg55
g99
sg56
g78
sg15
S'space'
p525
sS'trials.thisN'
p526
I31
sg53
g81
sg58
g82
sg49
g23
(g66
S'}\x00\x00\x00\x00\x00\x00\x00'
p527
tp528
Rp529
sS'trials.thisTrialN'
p530
I31
sg54
g107
sg20
g21
sg34
g39
sg57
g108
sg33
g12
sa(dp531
S'trials.thisIndex'
p532
g23
(g66
S'X\x00\x00\x00\x00\x00\x00\x00'
p533
tp534
Rp535
sg16
F2.004188060760498
sg22
g32
sg52
Vtoto
p536
sg51
g134
sg50
VScrivete "toto" sul foglio
p537
sS'trials.thisRepN'
p538
I0
sg59
g76
sg55
g77
sg56
g138
sg15
S'space'
p539
sS'trials.thisN'
p540
I32
sg53
g77
sg58
g121
sg49
g23
(g66
S'Y\x00\x00\x00\x00\x00\x00\x00'
p541
tp542
Rp543
sS'trials.thisTrialN'
p544
I32
sg54
g145
sg20
g21
sg34
g39
sg57
g146
sg33
g12
sa(dp545
S'trials.thisIndex'
p546
g23
(g66
S'6\x00\x00\x00\x00\x00\x00\x00'
p547
tp548
Rp549
sg16
F1.6699590682983398
sg22
g32
sg52
g304
sg51
g115
sg50
VSentivo "puco" di nuovo
p550
sS'trials.thisRepN'
p551
I0
sg59
g137
sg55
g81
sg56
g138
sg15
S'space'
p552
sS'trials.thisN'
p553
I33
sg53
g99
sg58
g102
sg49
g23
(g66
S'7\x00\x00\x00\x00\x00\x00\x00'
p554
tp555
Rp556
sS'trials.thisTrialN'
p557
I33
sg54
g189
sg20
g21
sg34
g39
sg57
g108
sg33
g12
sa(dp558
S'trials.thisIndex'
p559
g23
(g66
S'&\x00\x00\x00\x00\x00\x00\x00'
p560
tp561
Rp562
sg16
F1.635207176208496
sg22
g32
sg52
Vpaco
p563
sg51
g115
sg50
VSentivo "paco" di nuovo
p564
sS'trials.thisRepN'
p565
I0
sg59
g137
sg55
g81
sg56
g118
sg15
S'space'
p566
sS'trials.thisN'
p567
I34
sg53
g99
sg58
g102
sg49
g23
(g66
S"'\x00\x00\x00\x00\x00\x00\x00"
p568
tp569
Rp570
sS'trials.thisTrialN'
p571
I34
sg54
g126
sg20
g21
sg34
g39
sg57
g127
sg33
g12
sa(dp572
S'trials.thisIndex'
p573
g23
(g66
S'\x00\x00\x00\x00\x00\x00\x00\x00'
p574
tp575
Rp576
sg16
F2.120496988296509
sg22
g32
sg52
Vpapo
p577
sg51
g134
sg50
VScrivete "papo" sul foglio
p578
sS'trials.thisRepN'
p579
I0
sg59
g98
sg55
g99
sg56
g118
sg15
S'space'
p580
sS'trials.thisN'
p581
I35
sg53
g99
sg58
g102
sg49
g23
(g66
S'\x01\x00\x00\x00\x00\x00\x00\x00'
p582
tp583
Rp584
sS'trials.thisTrialN'
p585
I35
sg54
g126
sg20
g21
sg34
g39
sg57
g127
sg33
g12
sa(dp586
S'trials.thisIndex'
p587
g23
(g66
S'Z\x00\x00\x00\x00\x00\x00\x00'
p588
tp589
Rp590
sg16
F1.9031181335449219
sg22
g32
sg52
g536
sg51
g115
sg50
VSentivo "toto" di nuovo
p591
sS'trials.thisRepN'
p592
I0
sg59
g76
sg55
g77
sg56
g138
sg15
S'space'
p593
sS'trials.thisN'
p594
I36
sg53
g77
sg58
g121
sg49
g23
(g66
S'[\x00\x00\x00\x00\x00\x00\x00'
p595
tp596
Rp597
sS'trials.thisTrialN'
p598
I36
sg54
g145
sg20
g21
sg34
g39
sg57
g146
sg33
g12
sa(dp599
S'trials.thisIndex'
p600
g23
(g66
S'\x9d\x00\x00\x00\x00\x00\x00\x00'
p601
tp602
Rp603
sg16
F2.036953926086426
sg22
g32
sg52
Vcheco
p604
sg51
g95
sg50
VHa detto "checo" sei volte
p605
sS'trials.thisRepN'
p606
I0
sg59
g137
sg55
g81
sg56
g78
sg15
S'space'
p607
sS'trials.thisN'
p608
I37
sg53
g81
sg58
g82
sg49
g23
(g66
S'\x9e\x00\x00\x00\x00\x00\x00\x00'
p609
tp610
Rp611
sS'trials.thisTrialN'
p612
I37
sg54
g87
sg20
g21
sg34
g39
sg57
g88
sg33
g12
sa(dp613
S'trials.thisIndex'
p614
g23
(g66
S'O\x00\x00\x00\x00\x00\x00\x00'
p615
tp616
Rp617
sg16
F2.0537219047546387
sg22
g32
sg52
g152
sg51
g73
sg50
VRipete "tato" da sempre
p618
sS'trials.thisRepN'
p619
I0
sg59
g76
sg55
g77
sg56
g118
sg15
S'space'
p620
sS'trials.thisN'
p621
I38
sg53
g77
sg58
g121
sg49
g23
(g66
S'P\x00\x00\x00\x00\x00\x00\x00'
p622
tp623
Rp624
sS'trials.thisTrialN'
p625
I38
sg54
g126
sg20
g21
sg34
g39
sg57
g127
sg33
g12
sa(dp626
S'trials.thisIndex'
p627
g23
(g66
S'u\x00\x00\x00\x00\x00\x00\x00'
p628
tp629
Rp630
sg16
F1.7191948890686035
sg22
g32
sg52
Vcapo
p631
sg51
g95
sg50
VHa detto "capo" sei volte
p632
sS'trials.thisRepN'
p633
I0
sg59
g98
sg55
g99
sg56
g118
sg15
S'space'
p634
sS'trials.thisN'
p635
I39
sg53
g81
sg58
g82
sg49
g23
(g66
S'v\x00\x00\x00\x00\x00\x00\x00'
p636
tp637
Rp638
sS'trials.thisTrialN'
p639
I39
sg54
g126
sg20
g21
sg34
g39
sg57
g127
sg33
g12
sa(dp640
S'trials.thisIndex'
p641
g23
(g66
S'~\x00\x00\x00\x00\x00\x00\x00'
p642
tp643
Rp644
sg16
F1.8514258861541748
sg22
g32
sg52
g522
sg51
g115
sg50
VSentivo "chipo" di nuovo
p645
sS'trials.thisRepN'
p646
I0
sg59
g98
sg55
g99
sg56
g78
sg15
S'space'
p647
sS'trials.thisN'
p648
I40
sg53
g81
sg58
g82
sg49
g23
(g66
S'\x7f\x00\x00\x00\x00\x00\x00\x00'
p649
tp650
Rp651
sS'trials.thisTrialN'
p652
I40
sg54
g107
sg20
g21
sg34
g39
sg57
g108
sg33
g12
sa(dp653
S'trials.thisIndex'
p654
g23
(g66
S'\x88\x00\x00\x00\x00\x00\x00\x00'
p655
tp656
Rp657
sg16
F1.7867240905761719
sg22
g32
sg52
Vcato
p658
sg51
g134
sg50
VScrivete "cato" sul foglio
p659
sS'trials.thisRepN'
p660
I0
sg59
g76
sg55
g77
sg56
g118
sg15
S'space'
p661
sS'trials.thisN'
p662
I41
sg53
g81
sg58
g82
sg49
g23
(g66
S'\x89\x00\x00\x00\x00\x00\x00\x00'
p663
tp664
Rp665
sS'trials.thisTrialN'
p666
I41
sg54
g126
sg20
g21
sg34
g39
sg57
g127
sg33
g12
sa(dp667
S'trials.thisIndex'
p668
g23
(g66
S'\x16\x00\x00\x00\x00\x00\x00\x00'
p669
tp670
Rp671
sg16
F1.9526231288909912
sg22
g32
sg52
Vpato
p672
sg51
g115
sg50
VSentivo "pato" di nuovo
p673
sS'trials.thisRepN'
p674
I0
sg59
g76
sg55
g77
sg56
g118
sg15
S'space'
p675
sS'trials.thisN'
p676
I42
sg53
g99
sg58
g102
sg49
g23
(g66
S'\x17\x00\x00\x00\x00\x00\x00\x00'
p677
tp678
Rp679
sS'trials.thisTrialN'
p680
I42
sg54
g126
sg20
g21
sg34
g39
sg57
g127
sg33
g12
sa(dp681
S'trials.thisIndex'
p682
g23
(g66
S'(\x00\x00\x00\x00\x00\x00\x00'
p683
tp684
Rp685
sg16
F1.936859130859375
sg22
g32
sg52
g332
sg51
g134
sg50
VScrivete "peco" sul foglio
p686
sS'trials.thisRepN'
p687
I0
sg59
g137
sg55
g81
sg56
g78
sg15
S'space'
p688
sS'trials.thisN'
p689
I43
sg53
g99
sg58
g102
sg49
g23
(g66
S')\x00\x00\x00\x00\x00\x00\x00'
p690
tp691
Rp692
sS'trials.thisTrialN'
p693
I43
sg54
g87
sg20
g21
sg34
g39
sg57
g88
sg33
g12
sa(dp694
S'trials.thisIndex'
p695
g23
(g66
S'`\x00\x00\x00\x00\x00\x00\x00'
p696
tp697
Rp698
sg16
F1.9025599956512451
sg22
g32
sg52
g277
sg51
g134
sg50
VScrivete "taco" sul foglio
p699
sS'trials.thisRepN'
p700
I0
sg59
g137
sg55
g81
sg56
g118
sg15
S'space'
p701
sS'trials.thisN'
p702
I44
sg53
g77
sg58
g121
sg49
g23
(g66
S'a\x00\x00\x00\x00\x00\x00\x00'
p703
tp704
Rp705
sS'trials.thisTrialN'
p706
I44
sg54
g126
sg20
g21
sg34
g39
sg57
g127
sg33
g12
sa(dp707
S'trials.thisIndex'
p708
g23
(g66
S'e\x00\x00\x00\x00\x00\x00\x00'
p709
tp710
Rp711
sg16
F2.1861300468444824
sg22
g32
sg52
Vteco
p712
sg51
g95
sg50
VHa detto "teco" sei volte
p713
sS'trials.thisRepN'
p714
I0
sg59
g137
sg55
g81
sg56
g78
sg15
S'space'
p715
sS'trials.thisN'
p716
I45
sg53
g77
sg58
g121
sg49
g23
(g66
S'f\x00\x00\x00\x00\x00\x00\x00'
p717
tp718
Rp719
sS'trials.thisTrialN'
p720
I45
sg54
g87
sg20
g21
sg34
g39
sg57
g88
sg33
g12
sa(dp721
S'trials.thisIndex'
p722
g23
(g66
S'\xa9\x00\x00\x00\x00\x00\x00\x00'
p723
tp724
Rp725
sg16
F1.7871367931365967
sg22
g32
sg52
g387
sg51
g95
sg50
VHa detto "cuco" sei volte
p726
sS'trials.thisRepN'
p727
I0
sg59
g137
sg55
g81
sg56
g138
sg15
S'space'
p728
sS'trials.thisN'
p729
I46
sg53
g81
sg58
g82
sg49
g23
(g66
S'\xaa\x00\x00\x00\x00\x00\x00\x00'
p730
tp731
Rp732
sS'trials.thisTrialN'
p733
I46
sg54
g189
sg20
g21
sg34
g39
sg57
g108
sg33
g12
sa(dp734
S'trials.thisIndex'
p735
g23
(g66
S"'\x00\x00\x00\x00\x00\x00\x00"
p736
tp737
Rp738
sg16
F2.3053090572357178
sg22
g32
sg52
g563
sg51
g73
sg50
VRipete "paco" da sempre
p739
sS'trials.thisRepN'
p740
I0
sg59
g137
sg55
g81
sg56
g118
sg15
S'space'
p741
sS'trials.thisN'
p742
I47
sg53
g99
sg58
g102
sg49
g23
(g66
S'(\x00\x00\x00\x00\x00\x00\x00'
p743
tp744
Rp745
sS'trials.thisTrialN'
p746
I47
sg54
g126
sg20
g21
sg34
g39
sg57
g127
sg33
g12
sa(dp747
S'trials.thisIndex'
p748
g23
(g66
S'l\x00\x00\x00\x00\x00\x00\x00'
p749
tp750
Rp751
sg16
F2.0370500087738037
sg22
g32
sg52
g318
sg51
g134
sg50
VScrivete "toco" sul foglio
p752
sS'trials.thisRepN'
p753
I0
sg59
g137
sg55
g81
sg56
g138
sg15
S'space'
p754
sS'trials.thisN'
p755
I48
sg53
g77
sg58
g121
sg49
g23
(g66
S'm\x00\x00\x00\x00\x00\x00\x00'
p756
tp757
Rp758
sS'trials.thisTrialN'
p759
I48
sg54
g145
sg20
g21
sg34
g39
sg57
g146
sg33
g12
sa(dp760
S'trials.thisIndex'
p761
g23
(g66
S'\xa8\x00\x00\x00\x00\x00\x00\x00'
p762
tp763
Rp764
sg16
F1.986691951751709
sg22
g32
sg52
g387
sg51
g134
sg50
VScrivete "cuco" sul foglio
p765
sS'trials.thisRepN'
p766
I0
sg59
g137
sg55
g81
sg56
g138
sg15
S'space'
p767
sS'trials.thisN'
p768
I49
sg53
g81
sg58
g82
sg49
g23
(g66
S'\xa9\x00\x00\x00\x00\x00\x00\x00'
p769
tp770
Rp771
sS'trials.thisTrialN'
p772
I49
sg54
g189
sg20
g21
sg34
g39
sg57
g108
sg33
g12
sa(dp773
S'trials.thisIndex'
p774
g23
(g66
S'\xa5\x00\x00\x00\x00\x00\x00\x00'
p775
tp776
Rp777
sg16
F1.955063819885254
sg22
g32
sg52
g133
sg51
g95
sg50
VHa detto "coco" sei volte
p778
sS'trials.thisRepN'
p779
I0
sg59
g137
sg55
g81
sg56
g138
sg15
S'space'
p780
sS'trials.thisN'
p781
I50
sg53
g81
sg58
g82
sg49
g23
(g66
S'\xa6\x00\x00\x00\x00\x00\x00\x00'
p782
tp783
Rp784
sS'trials.thisTrialN'
p785
I50
sg54
g145
sg20
g21
sg34
g39
sg57
g146
sg33
g12
sa(dp786
S'trials.thisIndex'
p787
g23
(g66
S'\x1a\x00\x00\x00\x00\x00\x00\x00'
p788
tp789
Rp790
sg16
F1.8335418701171875
sg22
g32
sg52
Vpito
p791
sg51
g115
sg50
VSentivo "pito" di nuovo
p792
sS'trials.thisRepN'
p793
I0
sg59
g76
sg55
g77
sg56
g78
sg15
S'space'
p794
sS'trials.thisN'
p795
I51
sg53
g99
sg58
g102
sg49
g23
(g66
S'\x1b\x00\x00\x00\x00\x00\x00\x00'
p796
tp797
Rp798
sS'trials.thisTrialN'
p799
I51
sg54
g107
sg20
g21
sg34
g39
sg57
g108
sg33
g12
sa(dp800
S'trials.thisIndex'
p801
g23
(g66
S'\x8d\x00\x00\x00\x00\x00\x00\x00'
p802
tp803
Rp804
sg16
F1.8539609909057617
sg22
g32
sg52
g72
sg51
g95
sg50
VHa detto "cheto" sei volte
p805
sS'trials.thisRepN'
p806
I0
sg59
g76
sg55
g77
sg56
g78
sg15
S'space'
p807
sS'trials.thisN'
p808
I52
sg53
g81
sg58
g82
sg49
g23
(g66
S'\x8e\x00\x00\x00\x00\x00\x00\x00'
p809
tp810
Rp811
sS'trials.thisTrialN'
p812
I52
sg54
g87
sg20
g21
sg34
g39
sg57
g88
sg33
g12
sa(dp813
S'trials.thisIndex'
p814
g23
(g66
S'\xa2\x00\x00\x00\x00\x00\x00\x00'
p815
tp816
Rp817
sg16
F1.8868680000305176
sg22
g32
sg52
Vchico
p818
sg51
g115
sg50
VSentivo "chico" di nuovo
p819
sS'trials.thisRepN'
p820
I0
sg59
g137
sg55
g81
sg56
g78
sg15
S'space'
p821
sS'trials.thisN'
p822
I53
sg53
g81
sg58
g82
sg49
g23
(g66
S'\xa3\x00\x00\x00\x00\x00\x00\x00'
p823
tp824
Rp825
sS'trials.thisTrialN'
p826
I53
sg54
g107
sg20
g21
sg34
g39
sg57
g108
sg33
g12
sa(dp827
S'trials.thisIndex'
p828
g23
(g66
S'q\x00\x00\x00\x00\x00\x00\x00'
p829
tp830
Rp831
sg16
F2.0190811157226562
sg22
g32
sg52
g250
sg51
g95
sg50
VHa detto "tuco" sei volte
p832
sS'trials.thisRepN'
p833
I0
sg59
g137
sg55
g81
sg56
g138
sg15
S'space'
p834
sS'trials.thisN'
p835
I54
sg53
g77
sg58
g121
sg49
g23
(g66
S'r\x00\x00\x00\x00\x00\x00\x00'
p836
tp837
Rp838
sS'trials.thisTrialN'
p839
I54
sg54
g189
sg20
g21
sg34
g39
sg57
g108
sg33
g12
sa(dp840
S'trials.thisIndex'
p841
g23
(g66
S'2\x00\x00\x00\x00\x00\x00\x00'
p842
tp843
Rp844
sg16
F1.8340721130371094
sg22
g32
sg52
Vpoco
p845
sg51
g115
sg50
VSentivo "poco" di nuovo
p846
sS'trials.thisRepN'
p847
I0
sg59
g137
sg55
g81
sg56
g138
sg15
S'space'
p848
sS'trials.thisN'
p849
I55
sg53
g99
sg58
g102
sg49
g23
(g66
S'3\x00\x00\x00\x00\x00\x00\x00'
p850
tp851
Rp852
sS'trials.thisTrialN'
p853
I55
sg54
g145
sg20
g21
sg34
g39
sg57
g146
sg33
g12
sa(dp854
S'trials.thisIndex'
p855
g23
(g66
S'M\x00\x00\x00\x00\x00\x00\x00'
p856
tp857
Rp858
sg16
F1.7860500812530518
sg22
g32
sg52
g152
sg51
g95
sg50
VHa detto "tato" sei volte
p859
sS'trials.thisRepN'
p860
I0
sg59
g76
sg55
g77
sg56
g118
sg15
S'space'
p861
sS'trials.thisN'
p862
I56
sg53
g77
sg58
g121
sg49
g23
(g66
S'N\x00\x00\x00\x00\x00\x00\x00'
p863
tp864
Rp865
sS'trials.thisTrialN'
p866
I56
sg54
g126
sg20
g21
sg34
g39
sg57
g127
sg33
g12
sa(dp867
S'trials.thisIndex'
p868
g23
(g66
S'\x98\x00\x00\x00\x00\x00\x00\x00'
p869
tp870
Rp871
sg16
F2.0876479148864746
sg22
g32
sg52
Vcuto
p872
sg51
g134
sg50
VScrivete "cuto" sul foglio
p873
sS'trials.thisRepN'
p874
I0
sg59
g76
sg55
g77
sg56
g138
sg15
S'space'
p875
sS'trials.thisN'
p876
I57
sg53
g81
sg58
g82
sg49
g23
(g66
S'\x99\x00\x00\x00\x00\x00\x00\x00'
p877
tp878
Rp879
sS'trials.thisTrialN'
p880
I57
sg54
g189
sg20
g21
sg34
g39
sg57
g108
sg33
g12
sa(dp881
S'trials.thisIndex'
p882
g23
(g66
S'\xa7\x00\x00\x00\x00\x00\x00\x00'
p883
tp884
Rp885
sg16
F1.8377130031585693
sg22
g32
sg52
g133
sg51
g73
sg50
VRipete "coco" da sempre
p886
sS'trials.thisRepN'
p887
I0
sg59
g137
sg55
g81
sg56
g138
sg15
S'space'
p888
sS'trials.thisN'
p889
I58
sg53
g81
sg58
g82
sg49
g23
(g66
S'\xa8\x00\x00\x00\x00\x00\x00\x00'
p890
tp891
Rp892
sS'trials.thisTrialN'
p893
I58
sg54
g145
sg20
g21
sg34
g39
sg57
g146
sg33
g12
sa(dp894
S'trials.thisIndex'
p895
g23
(g66
S'f\x00\x00\x00\x00\x00\x00\x00'
p896
tp897
Rp898
sg16
F1.9044508934020996
sg22
g32
sg52
g712
sg51
g115
sg50
VSentivo "teco" di nuovo
p899
sS'trials.thisRepN'
p900
I0
sg59
g137
sg55
g81
sg56
g78
sg15
S'space'
p901
sS'trials.thisN'
p902
I59
sg53
g77
sg58
g121
sg49
g23
(g66
S'g\x00\x00\x00\x00\x00\x00\x00'
p903
tp904
Rp905
sS'trials.thisTrialN'
p906
I59
sg54
g87
sg20
g21
sg34
g39
sg57
g88
sg33
g12
sa(dp907
S'trials.thisIndex'
p908
g23
(g66
S'h\x00\x00\x00\x00\x00\x00\x00'
p909
tp910
Rp911
sg16
F1.9883239269256592
sg22
g32
sg52
Vtico
p912
sg51
g134
sg50
VScrivete "tico" sul foglio
p913
sS'trials.thisRepN'
p914
I0
sg59
g137
sg55
g81
sg56
g78
sg15
S'space'
p915
sS'trials.thisN'
p916
I60
sg53
g77
sg58
g121
sg49
g23
(g66
S'i\x00\x00\x00\x00\x00\x00\x00'
p917
tp918
Rp919
sS'trials.thisTrialN'
p920
I60
sg54
g107
sg20
g21
sg34
g39
sg57
g108
sg33
g12
sa(dp921
S'trials.thisIndex'
p922
g23
(g66
S'B\x00\x00\x00\x00\x00\x00\x00'
p923
tp924
Rp925
sg16
F1.8372981548309326
sg22
g32
sg52
Vtipo
p926
sg51
g115
sg50
VSentivo "tipo" di nuovo
p927
sS'trials.thisRepN'
p928
I0
sg59
g98
sg55
g99
sg56
g78
sg15
S'space'
p929
sS'trials.thisN'
p930
I61
sg53
g77
sg58
g121
sg49
g23
(g66
S'C\x00\x00\x00\x00\x00\x00\x00'
p931
tp932
Rp933
sS'trials.thisTrialN'
p934
I61
sg54
g107
sg20
g21
sg34
g39
sg57
g108
sg33
g12
sa(dp935
S'trials.thisIndex'
p936
g23
(g66
S'8\x00\x00\x00\x00\x00\x00\x00'
p937
tp938
Rp939
sg16
F1.787658929824829
sg22
g32
sg52
g114
sg51
g134
sg50
VScrivete "tapo" sul foglio
p940
sS'trials.thisRepN'
p941
I0
sg59
g98
sg55
g99
sg56
g118
sg15
S'space'
p942
sS'trials.thisN'
p943
I62
sg53
g77
sg58
g121
sg49
g23
(g66
S'9\x00\x00\x00\x00\x00\x00\x00'
p944
tp945
Rp946
sS'trials.thisTrialN'
p947
I62
sg54
g126
sg20
g21
sg34
g39
sg57
g127
sg33
g12
sa(dp948
S'trials.thisIndex'
p949
g23
(g66
S'A\x00\x00\x00\x00\x00\x00\x00'
p950
tp951
Rp952
sg16
F2.070866107940674
sg22
g32
sg52
g926
sg51
g95
sg50
VHa detto "tipo" sei volte
p953
sS'trials.thisRepN'
p954
I0
sg59
g98
sg55
g99
sg56
g78
sg15
S'space'
p955
sS'trials.thisN'
p956
I63
sg53
g77
sg58
g121
sg49
g23
(g66
S'B\x00\x00\x00\x00\x00\x00\x00'
p957
tp958
Rp959
sS'trials.thisTrialN'
p960
I63
sg54
g107
sg20
g21
sg34
g39
sg57
g108
sg33
g12
sa(dp961
S'trials.thisIndex'
p962
g23
(g66
S'H\x00\x00\x00\x00\x00\x00\x00'
p963
tp964
Rp965
sg16
F1.9697580337524414
sg22
g32
sg52
g180
sg51
g134
sg50
VScrivete "tupo" sul foglio
p966
sS'trials.thisRepN'
p967
I0
sg59
g98
sg55
g99
sg56
g138
sg15
S'space'
p968
sS'trials.thisN'
p969
I64
sg53
g77
sg58
g121
sg49
g23
(g66
S'I\x00\x00\x00\x00\x00\x00\x00'
p970
tp971
Rp972
sS'trials.thisTrialN'
p973
I64
sg54
g189
sg20
g21
sg34
g39
sg57
g108
sg33
g12
sa(dp974
S'trials.thisIndex'
p975
g23
(g66
S'R\x00\x00\x00\x00\x00\x00\x00'
p976
tp977
Rp978
sg16
F1.8029940128326416
sg22
g32
sg52
g401
sg51
g115
sg50
VSentivo "teto" di nuovo
p979
sS'trials.thisRepN'
p980
I0
sg59
g76
sg55
g77
sg56
g78
sg15
S'space'
p981
sS'trials.thisN'
p982
I65
sg53
g77
sg58
g121
sg49
g23
(g66
S'S\x00\x00\x00\x00\x00\x00\x00'
p983
tp984
Rp985
sS'trials.thisTrialN'
p986
I65
sg54
g87
sg20
g21
sg34
g39
sg57
g88
sg33
g12
sa(dp987
S'trials.thisIndex'
p988
g23
(g66
S'\x83\x00\x00\x00\x00\x00\x00\x00'
p989
tp990
Rp991
sg16
F1.9704561233520508
sg22
g32
sg52
g455
sg51
g73
sg50
VRipete "copo" da sempre
p992
sS'trials.thisRepN'
p993
I0
sg59
g98
sg55
g99
sg56
g138
sg15
S'space'
p994
sS'trials.thisN'
p995
I66
sg53
g81
sg58
g82
sg49
g23
(g66
S'\x84\x00\x00\x00\x00\x00\x00\x00'
p996
tp997
Rp998
sS'trials.thisTrialN'
p999
I66
sg54
g145
sg20
g21
sg34
g39
sg57
g146
sg33
g12
sa(dp1000
S'trials.thisIndex'
p1001
g23
(g66
S'a\x00\x00\x00\x00\x00\x00\x00'
p1002
tp1003
Rp1004
sg16
F1.8860580921173096
sg22
g32
sg52
g277
sg51
g95
sg50
VHa detto "taco" sei volte
p1005
sS'trials.thisRepN'
p1006
I0
sg59
g137
sg55
g81
sg56
g118
sg15
S'space'
p1007
sS'trials.thisN'
p1008
I67
sg53
g77
sg58
g121
sg49
g23
(g66
S'b\x00\x00\x00\x00\x00\x00\x00'
p1009
tp1010
Rp1011
sS'trials.thisTrialN'
p1012
I67
sg54
g126
sg20
g21
sg34
g39
sg57
g127
sg33
g12
sa(dp1013
S'trials.thisIndex'
p1014
g23
(g66
S'P\x00\x00\x00\x00\x00\x00\x00'
p1015
tp1016
Rp1017
sg16
F2.121428966522217
sg22
g32
sg52
g401
sg51
g134
sg50
VScrivete "teto" sul foglio
p1018
sS'trials.thisRepN'
p1019
I0
sg59
g76
sg55
g77
sg56
g78
sg15
S'space'
p1020
sS'trials.thisN'
p1021
I68
sg53
g77
sg58
g121
sg49
g23
(g66
S'Q\x00\x00\x00\x00\x00\x00\x00'
p1022
tp1023
Rp1024
sS'trials.thisTrialN'
p1025
I68
sg54
g87
sg20
g21
sg34
g39
sg57
g88
sg33
g12
sa(dp1026
S'trials.thisIndex'
p1027
g23
(g66
S'\x9c\x00\x00\x00\x00\x00\x00\x00'
p1028
tp1029
Rp1030
sg16
F2.0343639850616455
sg22
g32
sg52
g604
sg51
g134
sg50
VScrivete "checo" sul foglio
p1031
sS'trials.thisRepN'
p1032
I0
sg59
g137
sg55
g81
sg56
g78
sg15
S'space'
p1033
sS'trials.thisN'
p1034
I69
sg53
g81
sg58
g82
sg49
g23
(g66
S'\x9d\x00\x00\x00\x00\x00\x00\x00'
p1035
tp1036
Rp1037
sS'trials.thisTrialN'
p1038
I69
sg54
g87
sg20
g21
sg34
g39
sg57
g88
sg33
g12
sa(dp1039
S'trials.thisIndex'
p1040
g23
(g66
S'\xaa\x00\x00\x00\x00\x00\x00\x00'
p1041
tp1042
Rp1043
sg16
F2.1374900341033936
sg22
g32
sg52
g387
sg51
g115
sg50
VSentivo "cuco" di nuovo
p1044
sS'trials.thisRepN'
p1045
I0
sg59
g137
sg55
g81
sg56
g138
sg15
S'space'
p1046
sS'trials.thisN'
p1047
I70
sg53
g81
sg58
g82
sg49
g23
(g66
S'\xab\x00\x00\x00\x00\x00\x00\x00'
p1048
tp1049
Rp1050
sS'trials.thisTrialN'
p1051
I70
sg54
g189
sg20
g21
sg34
g39
sg57
g108
sg33
g12
sa(dp1052
S'trials.thisIndex'
p1053
g23
(g66
S'\x8e\x00\x00\x00\x00\x00\x00\x00'
p1054
tp1055
Rp1056
sg16
F1.7015960216522217
sg22
g32
sg52
g72
sg51
g115
sg50
VSentivo "cheto" di nuovo
p1057
sS'trials.thisRepN'
p1058
I0
sg59
g76
sg55
g77
sg56
g78
sg15
S'space'
p1059
sS'trials.thisN'
p1060
I71
sg53
g81
sg58
g82
sg49
g23
(g66
S'\x8f\x00\x00\x00\x00\x00\x00\x00'
p1061
tp1062
Rp1063
sS'trials.thisTrialN'
p1064
I71
sg54
g87
sg20
g21
sg34
g39
sg57
g88
sg33
g12
sa(dp1065
S'trials.thisIndex'
p1066
g23
(g66
S'1\x00\x00\x00\x00\x00\x00\x00'
p1067
tp1068
Rp1069
sg16
F1.8862650394439697
sg22
g32
sg52
g845
sg51
g95
sg50
VHa detto "poco" sei volte
p1070
sS'trials.thisRepN'
p1071
I0
sg59
g137
sg55
g81
sg56
g138
sg15
S'space'
p1072
sS'trials.thisN'
p1073
I72
sg53
g99
sg58
g102
sg49
g23
(g66
S'2\x00\x00\x00\x00\x00\x00\x00'
p1074
tp1075
Rp1076
sS'trials.thisTrialN'
p1077
I72
sg54
g145
sg20
g21
sg34
g39
sg57
g146
sg33
g12
sa(dp1078
S'trials.thisIndex'
p1079
g23
(g66
S'\x8c\x00\x00\x00\x00\x00\x00\x00'
p1080
tp1081
Rp1082
sg16
F1.969628095626831
sg22
g32
sg52
g72
sg51
g134
sg50
VScrivete "cheto" sul foglio
p1083
sS'trials.thisRepN'
p1084
I0
sg59
g76
sg55
g77
sg56
g78
sg15
S'space'
p1085
sS'trials.thisN'
p1086
I73
sg53
g81
sg58
g82
sg49
g23
(g66
S'\x8d\x00\x00\x00\x00\x00\x00\x00'
p1087
tp1088
Rp1089
sS'trials.thisTrialN'
p1090
I73
sg54
g87
sg20
g21
sg34
g39
sg57
g88
sg33
g12
sa(dp1091
S'trials.thisIndex'
p1092
g23
(g66
S'\x15\x00\x00\x00\x00\x00\x00\x00'
p1093
tp1094
Rp1095
sg16
F1.820478916168213
sg22
g32
sg52
g672
sg51
g95
sg50
VHa detto "pato" sei volte
p1096
sS'trials.thisRepN'
p1097
I0
sg59
g76
sg55
g77
sg56
g118
sg15
S'space'
p1098
sS'trials.thisN'
p1099
I74
sg53
g99
sg58
g102
sg49
g23
(g66
S'\x16\x00\x00\x00\x00\x00\x00\x00'
p1100
tp1101
Rp1102
sS'trials.thisTrialN'
p1103
I74
sg54
g126
sg20
g21
sg34
g39
sg57
g127
sg33
g12
sa(dp1104
S'trials.thisIndex'
p1105
g23
(g66
S'K\x00\x00\x00\x00\x00\x00\x00'
p1106
tp1107
Rp1108
sg16
F2.053652048110962
sg22
g32
sg52
g180
sg51
g73
sg50
VRipete "tupo" da sempre
p1109
sS'trials.thisRepN'
p1110
I0
sg59
g98
sg55
g99
sg56
g138
sg15
S'space'
p1111
sS'trials.thisN'
p1112
I75
sg53
g77
sg58
g121
sg49
g23
(g66
S'L\x00\x00\x00\x00\x00\x00\x00'
p1113
tp1114
Rp1115
sS'trials.thisTrialN'
p1116
I75
sg54
g189
sg20
g21
sg34
g39
sg57
g108
sg33
g12
sa(dp1117
S'trials.thisIndex'
p1118
g23
(g66
S'v\x00\x00\x00\x00\x00\x00\x00'
p1119
tp1120
Rp1121
sg16
F1.5211849212646484
sg22
g32
sg52
g631
sg51
g115
sg50
VSentivo "capo" di nuovo
p1122
sS'trials.thisRepN'
p1123
I0
sg59
g98
sg55
g99
sg56
g118
sg15
S'space'
p1124
sS'trials.thisN'
p1125
I76
sg53
g81
sg58
g82
sg49
g23
(g66
S'w\x00\x00\x00\x00\x00\x00\x00'
p1126
tp1127
Rp1128
sS'trials.thisTrialN'
p1129
I76
sg54
g126
sg20
g21
sg34
g39
sg57
g127
sg33
g12
sa(dp1130
S'trials.thisIndex'
p1131
g23
(g66
S'\x93\x00\x00\x00\x00\x00\x00\x00'
p1132
tp1133
Rp1134
sg16
F1.9871149063110352
sg22
g32
sg52
Vchito
p1135
sg51
g73
sg50
VRipete "chito" da sempre
p1136
sS'trials.thisRepN'
p1137
I0
sg59
g76
sg55
g77
sg56
g78
sg15
S'space'
p1138
sS'trials.thisN'
p1139
I77
sg53
g81
sg58
g82
sg49
g23
(g66
S'\x94\x00\x00\x00\x00\x00\x00\x00'
p1140
tp1141
Rp1142
sS'trials.thisTrialN'
p1143
I77
sg54
g107
sg20
g21
sg34
g39
sg57
g108
sg33
g12
sa(dp1144
S'trials.thisIndex'
p1145
g23
(g66
S't\x00\x00\x00\x00\x00\x00\x00'
p1146
tp1147
Rp1148
sg16
F1.8218510150909424
sg22
g32
sg52
g631
sg51
g134
sg50
VScrivete "capo" sul foglio
p1149
sS'trials.thisRepN'
p1150
I0
sg59
g98
sg55
g99
sg56
g118
sg15
S'space'
p1151
sS'trials.thisN'
p1152
I78
sg53
g81
sg58
g82
sg49
g23
(g66
S'u\x00\x00\x00\x00\x00\x00\x00'
p1153
tp1154
Rp1155
sS'trials.thisTrialN'
p1156
I78
sg54
g126
sg20
g21
sg34
g39
sg57
g127
sg33
g12
sa(dp1157
S'trials.thisIndex'
p1158
g23
(g66
S'-\x00\x00\x00\x00\x00\x00\x00'
p1159
tp1160
Rp1161
sg16
F1.820641040802002
sg22
g32
sg52
g360
sg51
g95
sg50
VHa detto "pico" sei volte
p1162
sS'trials.thisRepN'
p1163
I0
sg59
g137
sg55
g81
sg56
g78
sg15
S'space'
p1164
sS'trials.thisN'
p1165
I79
sg53
g99
sg58
g102
sg49
g23
(g66
S'.\x00\x00\x00\x00\x00\x00\x00'
p1166
tp1167
Rp1168
sS'trials.thisTrialN'
p1169
I79
sg54
g107
sg20
g21
sg34
g39
sg57
g108
sg33
g12
sa(dp1170
S'trials.thisIndex'
p1171
g23
(g66
S'\x9a\x00\x00\x00\x00\x00\x00\x00'
p1172
tp1173
Rp1174
sg16
F1.7210021018981934
sg22
g32
sg52
g872
sg51
g115
sg50
VSentivo "cuto" di nuovo
p1175
sS'trials.thisRepN'
p1176
I0
sg59
g76
sg55
g77
sg56
g138
sg15
S'space'
p1177
sS'trials.thisN'
p1178
I80
sg53
g81
sg58
g82
sg49
g23
(g66
S'\x9b\x00\x00\x00\x00\x00\x00\x00'
p1179
tp1180
Rp1181
sS'trials.thisTrialN'
p1182
I80
sg54
g189
sg20
g21
sg34
g39
sg57
g108
sg33
g12
sa(dp1183
S'trials.thisIndex'
p1184
g23
(g66
S'\x99\x00\x00\x00\x00\x00\x00\x00'
p1185
tp1186
Rp1187
sg16
F2.0052390098571777
sg22
g32
sg52
g872
sg51
g95
sg50
VHa detto "cuto" sei volte
p1188
sS'trials.thisRepN'
p1189
I0
sg59
g76
sg55
g77
sg56
g138
sg15
S'space'
p1190
sS'trials.thisN'
p1191
I81
sg53
g81
sg58
g82
sg49
g23
(g66
S'\x9a\x00\x00\x00\x00\x00\x00\x00'
p1192
tp1193
Rp1194
sS'trials.thisTrialN'
p1195
I81
sg54
g189
sg20
g21
sg34
g39
sg57
g108
sg33
g12
sa(dp1196
S'trials.thisIndex'
p1197
g23
(g66
S'\x04\x00\x00\x00\x00\x00\x00\x00'
p1198
tp1199
Rp1200
sg16
F1.9380419254302979
sg22
g32
sg52
g428
sg51
g134
sg50
VScrivete "pepo" sul foglio
p1201
sS'trials.thisRepN'
p1202
I0
sg59
g98
sg55
g99
sg56
g78
sg15
S'space'
p1203
sS'trials.thisN'
p1204
I82
sg53
g99
sg58
g102
sg49
g23
(g66
S'\x05\x00\x00\x00\x00\x00\x00\x00'
p1205
tp1206
Rp1207
sS'trials.thisTrialN'
p1208
I82
sg54
g87
sg20
g21
sg34
g39
sg57
g88
sg33
g12
sa(dp1209
S'trials.thisIndex'
p1210
g23
(g66
S'\x9e\x00\x00\x00\x00\x00\x00\x00'
p1211
tp1212
Rp1213
sg16
F1.8362209796905518
sg22
g32
sg52
g604
sg51
g115
sg50
VSentivo "checo" di nuovo
p1214
sS'trials.thisRepN'
p1215
I0
sg59
g137
sg55
g81
sg56
g78
sg15
S'space'
p1216
sS'trials.thisN'
p1217
I83
sg53
g81
sg58
g82
sg49
g23
(g66
S'\x9f\x00\x00\x00\x00\x00\x00\x00'
p1218
tp1219
Rp1220
sS'trials.thisTrialN'
p1221
I83
sg54
g87
sg20
g21
sg34
g39
sg57
g88
sg33
g12
sa(dp1222
S'trials.thisIndex'
p1223
g23
(g66
S'x\x00\x00\x00\x00\x00\x00\x00'
p1224
tp1225
Rp1226
sg16
F1.921231985092163
sg22
g32
sg52
g495
sg51
g134
sg50
VScrivete "chepo" sul foglio
p1227
sS'trials.thisRepN'
p1228
I0
sg59
g98
sg55
g99
sg56
g78
sg15
S'space'
p1229
sS'trials.thisN'
p1230
I84
sg53
g81
sg58
g82
sg49
g23
(g66
S'y\x00\x00\x00\x00\x00\x00\x00'
p1231
tp1232
Rp1233
sS'trials.thisTrialN'
p1234
I84
sg54
g87
sg20
g21
sg34
g39
sg57
g88
sg33
g12
sa(dp1235
S'trials.thisIndex'
p1236
g23
(g66
S'\x03\x00\x00\x00\x00\x00\x00\x00'
p1237
tp1238
Rp1239
sg16
F1.7531909942626953
sg22
g32
sg52
g577
sg51
g73
sg50
VRipete "papo" da sempre
p1240
sS'trials.thisRepN'
p1241
I0
sg59
g98
sg55
g99
sg56
g118
sg15
S'space'
p1242
sS'trials.thisN'
p1243
I85
sg53
g99
sg58
g102
sg49
g23
(g66
S'\x04\x00\x00\x00\x00\x00\x00\x00'
p1244
tp1245
Rp1246
sS'trials.thisTrialN'
p1247
I85
sg54
g126
sg20
g21
sg34
g39
sg57
g127
sg33
g12
sa(dp1248
S'trials.thisIndex'
p1249
g23
(g66
S'Y\x00\x00\x00\x00\x00\x00\x00'
p1250
tp1251
Rp1252
sg16
F2.035407066345215
sg22
g32
sg52
g536
sg51
g95
sg50
VHa detto "toto" sei volte
p1253
sS'trials.thisRepN'
p1254
I0
sg59
g76
sg55
g77
sg56
g138
sg15
S'space'
p1255
sS'trials.thisN'
p1256
I86
sg53
g77
sg58
g121
sg49
g23
(g66
S'Z\x00\x00\x00\x00\x00\x00\x00'
p1257
tp1258
Rp1259
sS'trials.thisTrialN'
p1260
I86
sg54
g145
sg20
g21
sg34
g39
sg57
g146
sg33
g12
sa(dp1261
S'trials.thisIndex'
p1262
g23
(g66
S'p\x00\x00\x00\x00\x00\x00\x00'
p1263
tp1264
Rp1265
sg16
F11.408370971679688
sg22
g32
sg52
g250
sg51
g134
sg50
VScrivete "tuco" sul foglio
p1266
sS'trials.thisRepN'
p1267
I0
sg59
g137
sg55
g81
sg56
g138
sg15
S'space'
p1268
sS'trials.thisN'
p1269
I87
sg53
g77
sg58
g121
sg49
g23
(g66
S'q\x00\x00\x00\x00\x00\x00\x00'
p1270
tp1271
Rp1272
sS'trials.thisTrialN'
p1273
I87
sg54
g189
sg20
g21
sg34
g39
sg57
g108
sg33
g12
sa(dp1274
S'trials.thisIndex'
p1275
g23
(g66
S'\xa0\x00\x00\x00\x00\x00\x00\x00'
p1276
tp1277
Rp1278
sg16
F1.9876399040222168
sg22
g32
sg52
g818
sg51
g134
sg50
VScrivete "chico" sul foglio
p1279
sS'trials.thisRepN'
p1280
I0
sg59
g137
sg55
g81
sg56
g78
sg15
S'space'
p1281
sS'trials.thisN'
p1282
I88
sg53
g81
sg58
g82
sg49
g23
(g66
S'\xa1\x00\x00\x00\x00\x00\x00\x00'
p1283
tp1284
Rp1285
sS'trials.thisTrialN'
p1286
I88
sg54
g107
sg20
g21
sg34
g39
sg57
g108
sg33
g12
sa(dp1287
S'trials.thisIndex'
p1288
g23
(g66
S'F\x00\x00\x00\x00\x00\x00\x00'
p1289
tp1290
Rp1291
sg16
F1.7031419277191162
sg22
g32
sg52
Vtopo
p1292
sg51
g115
sg50
VSentivo "topo" di nuovo
p1293
sS'trials.thisRepN'
p1294
I0
sg59
g98
sg55
g99
sg56
g138
sg15
S'space'
p1295
sS'trials.thisN'
p1296
I89
sg53
g77
sg58
g121
sg49
g23
(g66
S'G\x00\x00\x00\x00\x00\x00\x00'
p1297
tp1298
Rp1299
sS'trials.thisTrialN'
p1300
I89
sg54
g145
sg20
g21
sg34
g39
sg57
g146
sg33
g12
sa(dp1301
S'trials.thisIndex'
p1302
g23
(g66
S';\x00\x00\x00\x00\x00\x00\x00'
p1303
tp1304
Rp1305
sg16
F1.736976146697998
sg22
g32
sg52
g114
sg51
g73
sg50
VRipete "tapo" da sempre
p1306
sS'trials.thisRepN'
p1307
I0
sg59
g98
sg55
g99
sg56
g118
sg15
S'space'
p1308
sS'trials.thisN'
p1309
I90
sg53
g77
sg58
g121
sg49
g23
(g66
S'<\x00\x00\x00\x00\x00\x00\x00'
p1310
tp1311
Rp1312
sS'trials.thisTrialN'
p1313
I90
sg54
g126
sg20
g21
sg34
g39
sg57
g127
sg33
g12
sa(dp1314
S'trials.thisIndex'
p1315
g23
(g66
S'\x80\x00\x00\x00\x00\x00\x00\x00'
p1316
tp1317
Rp1318
sg16
F1.8876450061798096
sg22
g32
sg52
g455
sg51
g134
sg50
VScrivete "copo" sul foglio
p1319
sS'trials.thisRepN'
p1320
I0
sg59
g98
sg55
g99
sg56
g138
sg15
S'space'
p1321
sS'trials.thisN'
p1322
I91
sg53
g81
sg58
g82
sg49
g23
(g66
S'\x81\x00\x00\x00\x00\x00\x00\x00'
p1323
tp1324
Rp1325
sS'trials.thisTrialN'
p1326
I91
sg54
g145
sg20
g21
sg34
g39
sg57
g146
sg33
g12
sa(dp1327
S'trials.thisIndex'
p1328
g23
(g66
S'\x82\x00\x00\x00\x00\x00\x00\x00'
p1329
tp1330
Rp1331
sg16
F1.8378469944000244
sg22
g32
sg52
g455
sg51
g115
sg50
VSentivo "copo" di nuovo
p1332
sS'trials.thisRepN'
p1333
I0
sg59
g98
sg55
g99
sg56
g138
sg15
S'space'
p1334
sS'trials.thisN'
p1335
I92
sg53
g81
sg58
g82
sg49
g23
(g66
S'\x83\x00\x00\x00\x00\x00\x00\x00'
p1336
tp1337
Rp1338
sS'trials.thisTrialN'
p1339
I92
sg54
g145
sg20
g21
sg34
g39
sg57
g146
sg33
g12
sa(dp1340
S'trials.thisIndex'
p1341
g23
(g66
S'G\x00\x00\x00\x00\x00\x00\x00'
p1342
tp1343
Rp1344
sg16
F1.6867830753326416
sg22
g32
sg52
g1292
sg51
g73
sg50
VRipete "topo" da sempre
p1345
sS'trials.thisRepN'
p1346
I0
sg59
g98
sg55
g99
sg56
g138
sg15
S'space'
p1347
sS'trials.thisN'
p1348
I93
sg53
g77
sg58
g121
sg49
g23
(g66
S'H\x00\x00\x00\x00\x00\x00\x00'
p1349
tp1350
Rp1351
sS'trials.thisTrialN'
p1352
I93
sg54
g145
sg20
g21
sg34
g39
sg57
g146
sg33
g12
sa(dp1353
S'trials.thisIndex'
p1354
g23
(g66
S'\x86\x00\x00\x00\x00\x00\x00\x00'
p1355
tp1356
Rp1357
sg16
F1.6041579246520996
sg22
g32
sg52
g195
sg51
g115
sg50
VSentivo "cupo" di nuovo
p1358
sS'trials.thisRepN'
p1359
I0
sg59
g98
sg55
g99
sg56
g138
sg15
S'space'
p1360
sS'trials.thisN'
p1361
I94
sg53
g81
sg58
g82
sg49
g23
(g66
S'\x87\x00\x00\x00\x00\x00\x00\x00'
p1362
tp1363
Rp1364
sS'trials.thisTrialN'
p1365
I94
sg54
g189
sg20
g21
sg34
g39
sg57
g108
sg33
g12
sa(dp1366
S'trials.thisIndex'
p1367
g23
(g66
S'\x05\x00\x00\x00\x00\x00\x00\x00'
p1368
tp1369
Rp1370
sg16
F1.7881889343261719
sg22
g32
sg52
g428
sg51
g95
sg50
VHa detto "pepo" sei volte
p1371
sS'trials.thisRepN'
p1372
I0
sg59
g98
sg55
g99
sg56
g78
sg15
S'space'
p1373
sS'trials.thisN'
p1374
I95
sg53
g99
sg58
g102
sg49
g23
(g66
S'\x06\x00\x00\x00\x00\x00\x00\x00'
p1375
tp1376
Rp1377
sS'trials.thisTrialN'
p1378
I95
sg54
g87
sg20
g21
sg34
g39
sg57
g88
sg33
g12
sa(dp1379
S'trials.thisIndex'
p1380
g23
(g66
S'}\x00\x00\x00\x00\x00\x00\x00'
p1381
tp1382
Rp1383
sg16
F2.0009169578552246
sg22
g32
sg52
g522
sg51
g95
sg50
VHa detto "chipo" sei volte
p1384
sS'trials.thisRepN'
p1385
I0
sg59
g98
sg55
g99
sg56
g78
sg15
S'space'
p1386
sS'trials.thisN'
p1387
I96
sg53
g81
sg58
g82
sg49
g23
(g66
S'~\x00\x00\x00\x00\x00\x00\x00'
p1388
tp1389
Rp1390
sS'trials.thisTrialN'
p1391
I96
sg54
g107
sg20
g21
sg34
g39
sg57
g108
sg33
g12
sa(dp1392
S'trials.thisIndex'
p1393
g23
(g66
S'Q\x00\x00\x00\x00\x00\x00\x00'
p1394
tp1395
Rp1396
sg16
F1.720215082168579
sg22
g32
sg52
g401
sg51
g95
sg50
VHa detto "teto" sei volte
p1397
sS'trials.thisRepN'
p1398
I0
sg59
g76
sg55
g77
sg56
g78
sg15
S'space'
p1399
sS'trials.thisN'
p1400
I97
sg53
g77
sg58
g121
sg49
g23
(g66
S'R\x00\x00\x00\x00\x00\x00\x00'
p1401
tp1402
Rp1403
sS'trials.thisTrialN'
p1404
I97
sg54
g87
sg20
g21
sg34
g39
sg57
g88
sg33
g12
sa(dp1405
S'trials.thisIndex'
p1406
g23
(g66
S'+\x00\x00\x00\x00\x00\x00\x00'
p1407
tp1408
Rp1409
sg16
F1.7042019367218018
sg22
g32
sg52
g332
sg51
g73
sg50
VRipete "peco" da sempre
p1410
sS'trials.thisRepN'
p1411
I0
sg59
g137
sg55
g81
sg56
g78
sg15
S'space'
p1412
sS'trials.thisN'
p1413
I98
sg53
g99
sg58
g102
sg49
g23
(g66
S',\x00\x00\x00\x00\x00\x00\x00'
p1414
tp1415
Rp1416
sS'trials.thisTrialN'
p1417
I98
sg54
g87
sg20
g21
sg34
g39
sg57
g88
sg33
g12
sa(dp1418
S'trials.thisIndex'
p1419
g23
(g66
S'@\x00\x00\x00\x00\x00\x00\x00'
p1420
tp1421
Rp1422
sg16
F1.9554898738861084
sg22
g32
sg52
g926
sg51
g134
sg50
VScrivete "tipo" sul foglio
p1423
sS'trials.thisRepN'
p1424
I0
sg59
g98
sg55
g99
sg56
g78
sg15
S'space'
p1425
sS'trials.thisN'
p1426
I99
sg53
g77
sg58
g121
sg49
g23
(g66
S'A\x00\x00\x00\x00\x00\x00\x00'
p1427
tp1428
Rp1429
sS'trials.thisTrialN'
p1430
I99
sg54
g107
sg20
g21
sg34
g39
sg57
g108
sg33
g12
sa(dp1431
S'trials.thisIndex'
p1432
g23
(g66
S'\x06\x00\x00\x00\x00\x00\x00\x00'
p1433
tp1434
Rp1435
sg16
F1.620879888534546
sg22
g32
sg52
g428
sg51
g115
sg50
VSentivo "pepo" di nuovo
p1436
sS'trials.thisRepN'
p1437
I0
sg59
g98
sg55
g99
sg56
g78
sg15
S'space'
p1438
sS'trials.thisN'
p1439
I100
sg53
g99
sg58
g102
sg49
g23
(g66
S'\x07\x00\x00\x00\x00\x00\x00\x00'
p1440
tp1441
Rp1442
sS'trials.thisTrialN'
p1443
I100
sg54
g87
sg20
g21
sg34
g39
sg57
g88
sg33
g12
sa(dp1444
S'trials.thisIndex'
p1445
g23
(g66
S'w\x00\x00\x00\x00\x00\x00\x00'
p1446
tp1447
Rp1448
sg16
F2.2719438076019287
sg22
g32
sg52
g631
sg51
g73
sg50
VRipete "capo" da sempre
p1449
sS'trials.thisRepN'
p1450
I0
sg59
g98
sg55
g99
sg56
g118
sg15
S'space'
p1451
sS'trials.thisN'
p1452
I101
sg53
g81
sg58
g82
sg49
g23
(g66
S'x\x00\x00\x00\x00\x00\x00\x00'
p1453
tp1454
Rp1455
sS'trials.thisTrialN'
p1456
I101
sg54
g126
sg20
g21
sg34
g39
sg57
g127
sg33
g12
sa(dp1457
S'trials.thisIndex'
p1458
g23
(g66
S'E\x00\x00\x00\x00\x00\x00\x00'
p1459
tp1460
Rp1461
sg16
F2.1222620010375977
sg22
g32
sg52
g1292
sg51
g95
sg50
VHa detto "topo" sei volte
p1462
sS'trials.thisRepN'
p1463
I0
sg59
g98
sg55
g99
sg56
g138
sg15
S'space'
p1464
sS'trials.thisN'
p1465
I102
sg53
g77
sg58
g121
sg49
g23
(g66
S'F\x00\x00\x00\x00\x00\x00\x00'
p1466
tp1467
Rp1468
sS'trials.thisTrialN'
p1469
I102
sg54
g145
sg20
g21
sg34
g39
sg57
g146
sg33
g12
sa(dp1470
S'trials.thisIndex'
p1471
g23
(g66
S'=\x00\x00\x00\x00\x00\x00\x00'
p1472
tp1473
Rp1474
sg16
F1.9207110404968262
sg22
g32
sg52
g236
sg51
g95
sg50
VHa detto "tepo" sei volte
p1475
sS'trials.thisRepN'
p1476
I0
sg59
g98
sg55
g99
sg56
g78
sg15
S'space'
p1477
sS'trials.thisN'
p1478
I103
sg53
g77
sg58
g121
sg49
g23
(g66
S'>\x00\x00\x00\x00\x00\x00\x00'
p1479
tp1480
Rp1481
sS'trials.thisTrialN'
p1482
I103
sg54
g87
sg20
g21
sg34
g39
sg57
g88
sg33
g12
sa(dp1483
S'trials.thisIndex'
p1484
g23
(g66
S'z\x00\x00\x00\x00\x00\x00\x00'
p1485
tp1486
Rp1487
sg16
F1.5884339809417725
sg22
g32
sg52
g495
sg51
g115
sg50
VSentivo "chepo" di nuovo
p1488
sS'trials.thisRepN'
p1489
I0
sg59
g98
sg55
g99
sg56
g78
sg15
S'space'
p1490
sS'trials.thisN'
p1491
I104
sg53
g81
sg58
g82
sg49
g23
(g66
S'{\x00\x00\x00\x00\x00\x00\x00'
p1492
tp1493
Rp1494
sS'trials.thisTrialN'
p1495
I104
sg54
g87
sg20
g21
sg34
g39
sg57
g88
sg33
g12
sa(dp1496
S'trials.thisIndex'
p1497
g23
(g66
S'%\x00\x00\x00\x00\x00\x00\x00'
p1498
tp1499
Rp1500
sg16
F1.7553720474243164
sg22
g32
sg52
g563
sg51
g95
sg50
VHa detto "paco" sei volte
p1501
sS'trials.thisRepN'
p1502
I0
sg59
g137
sg55
g81
sg56
g118
sg15
S'space'
p1503
sS'trials.thisN'
p1504
I105
sg53
g99
sg58
g102
sg49
g23
(g66
S'&\x00\x00\x00\x00\x00\x00\x00'
p1505
tp1506
Rp1507
sS'trials.thisTrialN'
p1508
I105
sg54
g126
sg20
g21
sg34
g39
sg57
g127
sg33
g12
sa(dp1509
S'trials.thisIndex'
p1510
g23
(g66
S'!\x00\x00\x00\x00\x00\x00\x00'
p1511
tp1512
Rp1513
sg16
F1.8546090126037598
sg22
g32
sg52
Vputo
p1514
sg51
g95
sg50
VHa detto "puto" sei volte
p1515
sS'trials.thisRepN'
p1516
I0
sg59
g76
sg55
g77
sg56
g138
sg15
S'space'
p1517
sS'trials.thisN'
p1518
I106
sg53
g99
sg58
g102
sg49
g23
(g66
S'"\x00\x00\x00\x00\x00\x00\x00'
p1519
tp1520
Rp1521
sS'trials.thisTrialN'
p1522
I106
sg54
g189
sg20
g21
sg34
g39
sg57
g108
sg33
g12
sa(dp1523
S'trials.thisIndex'
p1524
g23
(g66
S'\x08\x00\x00\x00\x00\x00\x00\x00'
p1525
tp1526
Rp1527
sg16
F1.9211621284484863
sg22
g32
sg52
g94
sg51
g134
sg50
VScrivete "pipo" sul foglio
p1528
sS'trials.thisRepN'
p1529
I0
sg59
g98
sg55
g99
sg56
g78
sg15
S'space'
p1530
sS'trials.thisN'
p1531
I107
sg53
g99
sg58
g102
sg49
g23
(g66
S'\t\x00\x00\x00\x00\x00\x00\x00'
p1532
tp1533
Rp1534
sS'trials.thisTrialN'
p1535
I107
sg54
g107
sg20
g21
sg34
g39
sg57
g108
sg33
g12
sa(dp1536
S'trials.thisIndex'
p1537
g23
(g66
S'n\x00\x00\x00\x00\x00\x00\x00'
p1538
tp1539
Rp1540
sg16
F1.721250057220459
sg22
g32
sg52
g318
sg51
g115
sg50
VSentivo "toco" di nuovo
p1541
sS'trials.thisRepN'
p1542
I0
sg59
g137
sg55
g81
sg56
g138
sg15
S'space'
p1543
sS'trials.thisN'
p1544
I108
sg53
g77
sg58
g121
sg49
g23
(g66
S'o\x00\x00\x00\x00\x00\x00\x00'
p1545
tp1546
Rp1547
sS'trials.thisTrialN'
p1548
I108
sg54
g145
sg20
g21
sg34
g39
sg57
g146
sg33
g12
sa(dp1549
S'trials.thisIndex'
p1550
g23
(g66
S']\x00\x00\x00\x00\x00\x00\x00'
p1551
tp1552
Rp1553
sg16
F1.6184000968933105
sg22
g32
sg52
g346
sg51
g95
sg50
VHa detto "tuto" sei volte
p1554
sS'trials.thisRepN'
p1555
I0
sg59
g76
sg55
g77
sg56
g138
sg15
S'space'
p1556
sS'trials.thisN'
p1557
I109
sg53
g77
sg58
g121
sg49
g23
(g66
S'^\x00\x00\x00\x00\x00\x00\x00'
p1558
tp1559
Rp1560
sS'trials.thisTrialN'
p1561
I109
sg54
g189
sg20
g21
sg34
g39
sg57
g108
sg33
g12
sa(dp1562
S'trials.thisIndex'
p1563
g23
(g66
S'9\x00\x00\x00\x00\x00\x00\x00'
p1564
tp1565
Rp1566
sg16
F1.7363920211791992
sg22
g32
sg52
g114
sg51
g95
sg50
VHa detto "tapo" sei volte
p1567
sS'trials.thisRepN'
p1568
I0
sg59
g98
sg55
g99
sg56
g118
sg15
S'space'
p1569
sS'trials.thisN'
p1570
I110
sg53
g77
sg58
g121
sg49
g23
(g66
S':\x00\x00\x00\x00\x00\x00\x00'
p1571
tp1572
Rp1573
sS'trials.thisTrialN'
p1574
I110
sg54
g126
sg20
g21
sg34
g39
sg57
g127
sg33
g12
sa(dp1575
S'trials.thisIndex'
p1576
g23
(g66
S'\x91\x00\x00\x00\x00\x00\x00\x00'
p1577
tp1578
Rp1579
sg16
F1.5210940837860107
sg22
g32
sg52
g1135
sg51
g95
sg50
VHa detto "chito" sei volte
p1580
sS'trials.thisRepN'
p1581
I0
sg59
g76
sg55
g77
sg56
g78
sg15
S'space'
p1582
sS'trials.thisN'
p1583
I111
sg53
g81
sg58
g82
sg49
g23
(g66
S'\x92\x00\x00\x00\x00\x00\x00\x00'
p1584
tp1585
Rp1586
sS'trials.thisTrialN'
p1587
I111
sg54
g107
sg20
g21
sg34
g39
sg57
g108
sg33
g12
sa(dp1588
S'trials.thisIndex'
p1589
g23
(g66
S'\x1b\x00\x00\x00\x00\x00\x00\x00'
p1590
tp1591
Rp1592
sg16
F1.8704931735992432
sg22
g32
sg52
g791
sg51
g73
sg50
VRipete "pito" da sempre
p1593
sS'trials.thisRepN'
p1594
I0
sg59
g76
sg55
g77
sg56
g78
sg15
S'space'
p1595
sS'trials.thisN'
p1596
I112
sg53
g99
sg58
g102
sg49
g23
(g66
S'\x1c\x00\x00\x00\x00\x00\x00\x00'
p1597
tp1598
Rp1599
sS'trials.thisTrialN'
p1600
I112
sg54
g107
sg20
g21
sg34
g39
sg57
g108
sg33
g12
sa(dp1601
S'trials.thisIndex'
p1602
g23
(g66
S'd\x00\x00\x00\x00\x00\x00\x00'
p1603
tp1604
Rp1605
sg16
F1.6870949268341064
sg22
g32
sg52
g712
sg51
g134
sg50
VScrivete "teco" sul foglio
p1606
sS'trials.thisRepN'
p1607
I0
sg59
g137
sg55
g81
sg56
g78
sg15
S'space'
p1608
sS'trials.thisN'
p1609
I113
sg53
g77
sg58
g121
sg49
g23
(g66
S'e\x00\x00\x00\x00\x00\x00\x00'
p1610
tp1611
Rp1612
sS'trials.thisTrialN'
p1613
I113
sg54
g87
sg20
g21
sg34
g39
sg57
g88
sg33
g12
sa(dp1614
S'trials.thisIndex'
p1615
g23
(g66
S'\x92\x00\x00\x00\x00\x00\x00\x00'
p1616
tp1617
Rp1618
sg16
F1.654094934463501
sg22
g32
sg52
g1135
sg51
g115
sg50
VSentivo "chito" di nuovo
p1619
sS'trials.thisRepN'
p1620
I0
sg59
g76
sg55
g77
sg56
g78
sg15
S'space'
p1621
sS'trials.thisN'
p1622
I114
sg53
g81
sg58
g82
sg49
g23
(g66
S'\x93\x00\x00\x00\x00\x00\x00\x00'
p1623
tp1624
Rp1625
sS'trials.thisTrialN'
p1626
I114
sg54
g107
sg20
g21
sg34
g39
sg57
g108
sg33
g12
sa(dp1627
S'trials.thisIndex'
p1628
g23
(g66
S'j\x00\x00\x00\x00\x00\x00\x00'
p1629
tp1630
Rp1631
sg16
F1.7212469577789307
sg22
g32
sg52
g912
sg51
g115
sg50
VSentivo "tico" di nuovo
p1632
sS'trials.thisRepN'
p1633
I0
sg59
g137
sg55
g81
sg56
g78
sg15
S'space'
p1634
sS'trials.thisN'
p1635
I115
sg53
g77
sg58
g121
sg49
g23
(g66
S'k\x00\x00\x00\x00\x00\x00\x00'
p1636
tp1637
Rp1638
sS'trials.thisTrialN'
p1639
I115
sg54
g107
sg20
g21
sg34
g39
sg57
g108
sg33
g12
sa(dp1640
S'trials.thisIndex'
p1641
g23
(g66
S'\x12\x00\x00\x00\x00\x00\x00\x00'
p1642
tp1643
Rp1644
sg16
F1.6039009094238281
sg22
g32
sg52
Vpupo
p1645
sg51
g115
sg50
VSentivo "pupo" di nuovo
p1646
sS'trials.thisRepN'
p1647
I0
sg59
g98
sg55
g99
sg56
g138
sg15
S'space'
p1648
sS'trials.thisN'
p1649
I116
sg53
g99
sg58
g102
sg49
g23
(g66
S'\x13\x00\x00\x00\x00\x00\x00\x00'
p1650
tp1651
Rp1652
sS'trials.thisTrialN'
p1653
I116
sg54
g189
sg20
g21
sg34
g39
sg57
g108
sg33
g12
sa(dp1654
S'trials.thisIndex'
p1655
g23
(g66
S'\x1e\x00\x00\x00\x00\x00\x00\x00'
p1656
tp1657
Rp1658
sg16
F1.5718481540679932
sg22
g32
sg52
Vpoto
p1659
sg51
g115
sg50
VSentivo "poto" di nuovo
p1660
sS'trials.thisRepN'
p1661
I0
sg59
g76
sg55
g77
sg56
g138
sg15
S'space'
p1662
sS'trials.thisN'
p1663
I117
sg53
g99
sg58
g102
sg49
g23
(g66
S'\x1f\x00\x00\x00\x00\x00\x00\x00'
p1664
tp1665
Rp1666
sS'trials.thisTrialN'
p1667
I117
sg54
g145
sg20
g21
sg34
g39
sg57
g146
sg33
g12
sa(dp1668
S'trials.thisIndex'
p1669
g23
(g66
S'\x0e\x00\x00\x00\x00\x00\x00\x00'
p1670
tp1671
Rp1672
sg16
F1.5204927921295166
sg22
g32
sg52
g166
sg51
g115
sg50
VSentivo "popo" di nuovo
p1673
sS'trials.thisRepN'
p1674
I0
sg59
g98
sg55
g99
sg56
g138
sg15
S'space'
p1675
sS'trials.thisN'
p1676
I118
sg53
g99
sg58
g102
sg49
g23
(g66
S'\x0f\x00\x00\x00\x00\x00\x00\x00'
p1677
tp1678
Rp1679
sS'trials.thisTrialN'
p1680
I118
sg54
g145
sg20
g21
sg34
g39
sg57
g146
sg33
g12
sa(dp1681
S'trials.thisIndex'
p1682
g23
(g66
S'\x89\x00\x00\x00\x00\x00\x00\x00'
p1683
tp1684
Rp1685
sg16
F1.9340581893920898
sg22
g32
sg52
g658
sg51
g95
sg50
VHa detto "cato" sei volte
p1686
sS'trials.thisRepN'
p1687
I0
sg59
g76
sg55
g77
sg56
g118
sg15
S'space'
p1688
sS'trials.thisN'
p1689
I119
sg53
g81
sg58
g82
sg49
g23
(g66
S'\x8a\x00\x00\x00\x00\x00\x00\x00'
p1690
tp1691
Rp1692
sS'trials.thisTrialN'
p1693
I119
sg54
g126
sg20
g21
sg34
g39
sg57
g127
sg33
g12
sa(dp1694
S'trials.thisIndex'
p1695
g23
(g66
S'[\x00\x00\x00\x00\x00\x00\x00'
p1696
tp1697
Rp1698
sg16
F1.6868319511413574
sg22
g32
sg52
g536
sg51
g73
sg50
VRipete "toto" da sempre
p1699
sS'trials.thisRepN'
p1700
I0
sg59
g76
sg55
g77
sg56
g138
sg15
S'space'
p1701
sS'trials.thisN'
p1702
I120
sg53
g77
sg58
g121
sg49
g23
(g66
S'\\\x00\x00\x00\x00\x00\x00\x00'
p1703
tp1704
Rp1705
sS'trials.thisTrialN'
p1706
I120
sg54
g145
sg20
g21
sg34
g39
sg57
g146
sg33
g12
sa(dp1707
S'trials.thisIndex'
p1708
g23
(g66
S'\xa3\x00\x00\x00\x00\x00\x00\x00'
p1709
tp1710
Rp1711
sg16
F1.550981044769287
sg22
g32
sg52
g818
sg51
g73
sg50
VRipete "chico" da sempre
p1712
sS'trials.thisRepN'
p1713
I0
sg59
g137
sg55
g81
sg56
g78
sg15
S'space'
p1714
sS'trials.thisN'
p1715
I121
sg53
g81
sg58
g82
sg49
g23
(g66
S'\xa4\x00\x00\x00\x00\x00\x00\x00'
p1716
tp1717
Rp1718
sS'trials.thisTrialN'
p1719
I121
sg54
g107
sg20
g21
sg34
g39
sg57
g108
sg33
g12
sa(dp1720
S'trials.thisIndex'
p1721
g23
(g66
S',\x00\x00\x00\x00\x00\x00\x00'
p1722
tp1723
Rp1724
sg16
F1.8194351196289062
sg22
g32
sg52
g360
sg51
g134
sg50
VScrivete "pico" sul foglio
p1725
sS'trials.thisRepN'
p1726
I0
sg59
g137
sg55
g81
sg56
g78
sg15
S'space'
p1727
sS'trials.thisN'
p1728
I122
sg53
g99
sg58
g102
sg49
g23
(g66
S'-\x00\x00\x00\x00\x00\x00\x00'
p1729
tp1730
Rp1731
sS'trials.thisTrialN'
p1732
I122
sg54
g107
sg20
g21
sg34
g39
sg57
g108
sg33
g12
sa(dp1733
S'trials.thisIndex'
p1734
g23
(g66
S'"\x00\x00\x00\x00\x00\x00\x00'
p1735
tp1736
Rp1737
sg16
F1.5519778728485107
sg22
g32
sg52
g1514
sg51
g115
sg50
VSentivo "puto" di nuovo
p1738
sS'trials.thisRepN'
p1739
I0
sg59
g76
sg55
g77
sg56
g138
sg15
S'space'
p1740
sS'trials.thisN'
p1741
I123
sg53
g99
sg58
g102
sg49
g23
(g66
S'#\x00\x00\x00\x00\x00\x00\x00'
p1742
tp1743
Rp1744
sS'trials.thisTrialN'
p1745
I123
sg54
g189
sg20
g21
sg34
g39
sg57
g108
sg33
g12
sa(dp1746
S'trials.thisIndex'
p1747
g23
(g66
S'\x9f\x00\x00\x00\x00\x00\x00\x00'
p1748
tp1749
Rp1750
sg16
F1.7040557861328125
sg22
g32
sg52
g604
sg51
g73
sg50
VRipete "checo" da sempre
p1751
sS'trials.thisRepN'
p1752
I0
sg59
g137
sg55
g81
sg56
g78
sg15
S'space'
p1753
sS'trials.thisN'
p1754
I124
sg53
g81
sg58
g82
sg49
g23
(g66
S'\xa0\x00\x00\x00\x00\x00\x00\x00'
p1755
tp1756
Rp1757
sS'trials.thisTrialN'
p1758
I124
sg54
g87
sg20
g21
sg34
g39
sg57
g88
sg33
g12
sa(dp1759
S'trials.thisIndex'
p1760
g23
(g66
S'#\x00\x00\x00\x00\x00\x00\x00'
p1761
tp1762
Rp1763
sg16
F1.7537329196929932
sg22
g32
sg52
g1514
sg51
g73
sg50
VRipete "puto" da sempre
p1764
sS'trials.thisRepN'
p1765
I0
sg59
g76
sg55
g77
sg56
g138
sg15
S'space'
p1766
sS'trials.thisN'
p1767
I125
sg53
g99
sg58
g102
sg49
g23
(g66
S'$\x00\x00\x00\x00\x00\x00\x00'
p1768
tp1769
Rp1770
sS'trials.thisTrialN'
p1771
I125
sg54
g189
sg20
g21
sg34
g39
sg57
g108
sg33
g12
sa(dp1772
S'trials.thisIndex'
p1773
g23
(g66
S'W\x00\x00\x00\x00\x00\x00\x00'
p1774
tp1775
Rp1776
sg16
F1.7206652164459229
sg22
g32
sg52
Vtito
p1777
sg51
g73
sg50
VRipete "tito" da sempre
p1778
sS'trials.thisRepN'
p1779
I0
sg59
g76
sg55
g77
sg56
g78
sg15
S'space'
p1780
sS'trials.thisN'
p1781
I126
sg53
g77
sg58
g121
sg49
g23
(g66
S'X\x00\x00\x00\x00\x00\x00\x00'
p1782
tp1783
Rp1784
sS'trials.thisTrialN'
p1785
I126
sg54
g107
sg20
g21
sg34
g39
sg57
g108
sg33
g12
sa(dp1786
S'trials.thisIndex'
p1787
g23
(g66
S'\x13\x00\x00\x00\x00\x00\x00\x00'
p1788
tp1789
Rp1790
sg16
F1.7383770942687988
sg22
g32
sg52
g1645
sg51
g73
sg50
VRipete "pupo" da sempre
p1791
sS'trials.thisRepN'
p1792
I0
sg59
g98
sg55
g99
sg56
g138
sg15
S'space'
p1793
sS'trials.thisN'
p1794
I127
sg53
g99
sg58
g102
sg49
g23
(g66
S'\x14\x00\x00\x00\x00\x00\x00\x00'
p1795
tp1796
Rp1797
sS'trials.thisTrialN'
p1798
I127
sg54
g189
sg20
g21
sg34
g39
sg57
g108
sg33
g12
sa(dp1799
S'trials.thisIndex'
p1800
g23
(g66
S'\n\x00\x00\x00\x00\x00\x00\x00'
p1801
tp1802
Rp1803
sg16
F1.5536479949951172
sg22
g32
sg52
g94
sg51
g115
sg50
VSentivo "pipo" di nuovo
p1804
sS'trials.thisRepN'
p1805
I0
sg59
g98
sg55
g99
sg56
g78
sg15
S'space'
p1806
sS'trials.thisN'
p1807
I128
sg53
g99
sg58
g102
sg49
g23
(g66
S'\x0b\x00\x00\x00\x00\x00\x00\x00'
p1808
tp1809
Rp1810
sS'trials.thisTrialN'
p1811
I128
sg54
g107
sg20
g21
sg34
g39
sg57
g108
sg33
g12
sa(dp1812
S'trials.thisIndex'
p1813
g23
(g66
S'\x0b\x00\x00\x00\x00\x00\x00\x00'
p1814
tp1815
Rp1816
sg16
F1.5533931255340576
sg22
g32
sg52
g94
sg51
g73
sg50
VRipete "pipo" da sempre
p1817
sS'trials.thisRepN'
p1818
I0
sg59
g98
sg55
g99
sg56
g78
sg15
S'space'
p1819
sS'trials.thisN'
p1820
I129
sg53
g99
sg58
g102
sg49
g23
(g66
S'\x0c\x00\x00\x00\x00\x00\x00\x00'
p1821
tp1822
Rp1823
sS'trials.thisTrialN'
p1824
I129
sg54
g107
sg20
g21
sg34
g39
sg57
g108
sg33
g12
sa(dp1825
S'trials.thisIndex'
p1826
g23
(g66
S'\x02\x00\x00\x00\x00\x00\x00\x00'
p1827
tp1828
Rp1829
sg16
F1.704097032546997
sg22
g32
sg52
g577
sg51
g115
sg50
VSentivo "papo" di nuovo
p1830
sS'trials.thisRepN'
p1831
I0
sg59
g98
sg55
g99
sg56
g118
sg15
S'space'
p1832
sS'trials.thisN'
p1833
I130
sg53
g99
sg58
g102
sg49
g23
(g66
S'\x03\x00\x00\x00\x00\x00\x00\x00'
p1834
tp1835
Rp1836
sS'trials.thisTrialN'
p1837
I130
sg54
g126
sg20
g21
sg34
g39
sg57
g127
sg33
g12
sa(dp1838
S'trials.thisIndex'
p1839
g23
(g66
S'\r\x00\x00\x00\x00\x00\x00\x00'
p1840
tp1841
Rp1842
sg16
F1.7550759315490723
sg22
g32
sg52
g166
sg51
g95
sg50
VHa detto "popo" sei volte
p1843
sS'trials.thisRepN'
p1844
I0
sg59
g98
sg55
g99
sg56
g138
sg15
S'space'
p1845
sS'trials.thisN'
p1846
I131
sg53
g99
sg58
g102
sg49
g23
(g66
S'\x0e\x00\x00\x00\x00\x00\x00\x00'
p1847
tp1848
Rp1849
sS'trials.thisTrialN'
p1850
I131
sg54
g145
sg20
g21
sg34
g39
sg57
g146
sg33
g12
sa(dp1851
S'trials.thisIndex'
p1852
g23
(g66
S'\x10\x00\x00\x00\x00\x00\x00\x00'
p1853
tp1854
Rp1855
sg16
F1.972066879272461
sg22
g32
sg52
g1645
sg51
g134
sg50
VScrivete "pupo" sul foglio
p1856
sS'trials.thisRepN'
p1857
I0
sg59
g98
sg55
g99
sg56
g138
sg15
S'space'
p1858
sS'trials.thisN'
p1859
I132
sg53
g99
sg58
g102
sg49
g23
(g66
S'\x11\x00\x00\x00\x00\x00\x00\x00'
p1860
tp1861
Rp1862
sS'trials.thisTrialN'
p1863
I132
sg54
g189
sg20
g21
sg34
g39
sg57
g108
sg33
g12
sa(dp1864
S'trials.thisIndex'
p1865
g23
(g66
S'<\x00\x00\x00\x00\x00\x00\x00'
p1866
tp1867
Rp1868
sg16
F1.6709849834442139
sg22
g32
sg52
g236
sg51
g134
sg50
VScrivete "tepo" sul foglio
p1869
sS'trials.thisRepN'
p1870
I0
sg59
g98
sg55
g99
sg56
g78
sg15
S'space'
p1871
sS'trials.thisN'
p1872
I133
sg53
g77
sg58
g121
sg49
g23
(g66
S'=\x00\x00\x00\x00\x00\x00\x00'
p1873
tp1874
Rp1875
sS'trials.thisTrialN'
p1876
I133
sg54
g87
sg20
g21
sg34
g39
sg57
g88
sg33
g12
sa(dp1877
S'trials.thisIndex'
p1878
g23
(g66
S'\x90\x00\x00\x00\x00\x00\x00\x00'
p1879
tp1880
Rp1881
sg16
F1.9014379978179932
sg22
g32
sg52
g1135
sg51
g134
sg50
VScrivete "chito" sul foglio
p1882
sS'trials.thisRepN'
p1883
I0
sg59
g76
sg55
g77
sg56
g78
sg15
S'space'
p1884
sS'trials.thisN'
p1885
I134
sg53
g81
sg58
g82
sg49
g23
(g66
S'\x91\x00\x00\x00\x00\x00\x00\x00'
p1886
tp1887
Rp1888
sS'trials.thisTrialN'
p1889
I134
sg54
g107
sg20
g21
sg34
g39
sg57
g108
sg33
g12
sa(dp1890
S'trials.thisIndex'
p1891
g23
(g66
S'^\x00\x00\x00\x00\x00\x00\x00'
p1892
tp1893
Rp1894
sg16
F1.8372480869293213
sg22
g32
sg52
g346
sg51
g115
sg50
VSentivo "tuto" di nuovo
p1895
sS'trials.thisRepN'
p1896
I0
sg59
g76
sg55
g77
sg56
g138
sg15
S'space'
p1897
sS'trials.thisN'
p1898
I135
sg53
g77
sg58
g121
sg49
g23
(g66
S'_\x00\x00\x00\x00\x00\x00\x00'
p1899
tp1900
Rp1901
sS'trials.thisTrialN'
p1902
I135
sg54
g189
sg20
g21
sg34
g39
sg57
g108
sg33
g12
sa(dp1903
S'trials.thisIndex'
p1904
g23
(g66
S'\x14\x00\x00\x00\x00\x00\x00\x00'
p1905
tp1906
Rp1907
sg16
F1.6215472221374512
sg22
g32
sg52
g672
sg51
g134
sg50
VScrivete "pato" sul foglio
p1908
sS'trials.thisRepN'
p1909
I0
sg59
g76
sg55
g77
sg56
g118
sg15
S'space'
p1910
sS'trials.thisN'
p1911
I136
sg53
g99
sg58
g102
sg49
g23
(g66
S'\x15\x00\x00\x00\x00\x00\x00\x00'
p1912
tp1913
Rp1914
sS'trials.thisTrialN'
p1915
I136
sg54
g126
sg20
g21
sg34
g39
sg57
g127
sg33
g12
sa(dp1916
S'trials.thisIndex'
p1917
g23
(g66
S'\x0f\x00\x00\x00\x00\x00\x00\x00'
p1918
tp1919
Rp1920
sg16
F1.872668981552124
sg22
g32
sg52
g166
sg51
g73
sg50
VRipete "popo" da sempre
p1921
sS'trials.thisRepN'
p1922
I0
sg59
g98
sg55
g99
sg56
g138
sg15
S'space'
p1923
sS'trials.thisN'
p1924
I137
sg53
g99
sg58
g102
sg49
g23
(g66
S'\x10\x00\x00\x00\x00\x00\x00\x00'
p1925
tp1926
Rp1927
sS'trials.thisTrialN'
p1928
I137
sg54
g145
sg20
g21
sg34
g39
sg57
g146
sg33
g12
sa(dp1929
S'trials.thisIndex'
p1930
g23
(g66
S'\x1d\x00\x00\x00\x00\x00\x00\x00'
p1931
tp1932
Rp1933
sg16
F1.6044931411743164
sg22
g32
sg52
g1659
sg51
g95
sg50
VHa detto "poto" sei volte
p1934
sS'trials.thisRepN'
p1935
I0
sg59
g76
sg55
g77
sg56
g138
sg15
S'space'
p1936
sS'trials.thisN'
p1937
I138
sg53
g99
sg58
g102
sg49
g23
(g66
S'\x1e\x00\x00\x00\x00\x00\x00\x00'
p1938
tp1939
Rp1940
sS'trials.thisTrialN'
p1941
I138
sg54
g145
sg20
g21
sg34
g39
sg57
g146
sg33
g12
sa(dp1942
S'trials.thisIndex'
p1943
g23
(g66
S'\x11\x00\x00\x00\x00\x00\x00\x00'
p1944
tp1945
Rp1946
sg16
F1.7714648246765137
sg22
g32
sg52
g1645
sg51
g95
sg50
VHa detto "pupo" sei volte
p1947
sS'trials.thisRepN'
p1948
I0
sg59
g98
sg55
g99
sg56
g138
sg15
S'space'
p1949
sS'trials.thisN'
p1950
I139
sg53
g99
sg58
g102
sg49
g23
(g66
S'\x12\x00\x00\x00\x00\x00\x00\x00'
p1951
tp1952
Rp1953
sS'trials.thisTrialN'
p1954
I139
sg54
g189
sg20
g21
sg34
g39
sg57
g108
sg33
g12
sa(dp1955
S'trials.thisIndex'
p1956
g23
(g66
S'g\x00\x00\x00\x00\x00\x00\x00'
p1957
tp1958
Rp1959
sg16
F1.5052051544189453
sg22
g32
sg52
g712
sg51
g73
sg50
VRipete "teco" da sempre
p1960
sS'trials.thisRepN'
p1961
I0
sg59
g137
sg55
g81
sg56
g78
sg15
S'space'
p1962
sS'trials.thisN'
p1963
I140
sg53
g77
sg58
g121
sg49
g23
(g66
S'h\x00\x00\x00\x00\x00\x00\x00'
p1964
tp1965
Rp1966
sS'trials.thisTrialN'
p1967
I140
sg54
g87
sg20
g21
sg34
g39
sg57
g88
sg33
g12
sa(dp1968
S'trials.thisIndex'
p1969
g23
(g66
S'\xa1\x00\x00\x00\x00\x00\x00\x00'
p1970
tp1971
Rp1972
sg16
F1.7379469871520996
sg22
g32
sg52
g818
sg51
g95
sg50
VHa detto "chico" sei volte
p1973
sS'trials.thisRepN'
p1974
I0
sg59
g137
sg55
g81
sg56
g78
sg15
S'space'
p1975
sS'trials.thisN'
p1976
I141
sg53
g81
sg58
g82
sg49
g23
(g66
S'\xa2\x00\x00\x00\x00\x00\x00\x00'
p1977
tp1978
Rp1979
sS'trials.thisTrialN'
p1980
I141
sg54
g107
sg20
g21
sg34
g39
sg57
g108
sg33
g12
sa(dp1981
S'trials.thisIndex'
p1982
g23
(g66
S'\x1c\x00\x00\x00\x00\x00\x00\x00'
p1983
tp1984
Rp1985
sg16
F1.82328200340271
sg22
g32
sg52
g1659
sg51
g134
sg50
VScrivete "poto" sul foglio
p1986
sS'trials.thisRepN'
p1987
I0
sg59
g76
sg55
g77
sg56
g138
sg15
S'space'
p1988
sS'trials.thisN'
p1989
I142
sg53
g99
sg58
g102
sg49
g23
(g66
S'\x1d\x00\x00\x00\x00\x00\x00\x00'
p1990
tp1991
Rp1992
sS'trials.thisTrialN'
p1993
I142
sg54
g145
sg20
g21
sg34
g39
sg57
g146
sg33
g12
sa(dp1994
S'trials.thisIndex'
p1995
g23
(g66
S'\x1f\x00\x00\x00\x00\x00\x00\x00'
p1996
tp1997
Rp1998
sg16
F1.6725990772247314
sg22
g32
sg52
g1659
sg51
g73
sg50
VRipete "poto" da sempre
p1999
sS'trials.thisRepN'
p2000
I0
sg59
g76
sg55
g77
sg56
g138
sg15
S'space'
p2001
sS'trials.thisN'
p2002
I143
sg53
g99
sg58
g102
sg49
g23
(g66
S' \x00\x00\x00\x00\x00\x00\x00'
p2003
tp2004
Rp2005
sS'trials.thisTrialN'
p2006
I143
sg54
g145
sg20
g21
sg34
g39
sg57
g146
sg33
g12
sa(dp2007
S'trials.thisIndex'
p2008
g23
(g66
S'>\x00\x00\x00\x00\x00\x00\x00'
p2009
tp2010
Rp2011
sg16
F1.6038079261779785
sg22
g32
sg52
g236
sg51
g115
sg50
VSentivo "tepo" di nuovo
p2012
sS'trials.thisRepN'
p2013
I0
sg59
g98
sg55
g99
sg56
g78
sg15
S'space'
p2014
sS'trials.thisN'
p2015
I144
sg53
g77
sg58
g121
sg49
g23
(g66
S'?\x00\x00\x00\x00\x00\x00\x00'
p2016
tp2017
Rp2018
sS'trials.thisTrialN'
p2019
I144
sg54
g87
sg20
g21
sg34
g39
sg57
g88
sg33
g12
sa(dp2020
S'trials.thisIndex'
p2021
g23
(g66
S'\\\x00\x00\x00\x00\x00\x00\x00'
p2022
tp2023
Rp2024
sg16
F1.7883110046386719
sg22
g32
sg52
g346
sg51
g134
sg50
VScrivete "tuto" sul foglio
p2025
sS'trials.thisRepN'
p2026
I0
sg59
g76
sg55
g77
sg56
g138
sg15
S'space'
p2027
sS'trials.thisN'
p2028
I145
sg53
g77
sg58
g121
sg49
g23
(g66
S']\x00\x00\x00\x00\x00\x00\x00'
p2029
tp2030
Rp2031
sS'trials.thisTrialN'
p2032
I145
sg54
g189
sg20
g21
sg34
g39
sg57
g108
sg33
g12
sa(dp2033
S'trials.thisIndex'
p2034
g23
(g66
S')\x00\x00\x00\x00\x00\x00\x00'
p2035
tp2036
Rp2037
sg16
F1.7548890113830566
sg22
g32
sg52
g332
sg51
g95
sg50
VHa detto "peco" sei volte
p2038
sS'trials.thisRepN'
p2039
I0
sg59
g137
sg55
g81
sg56
g78
sg15
S'space'
p2040
sS'trials.thisN'
p2041
I146
sg53
g99
sg58
g102
sg49
g23
(g66
S'*\x00\x00\x00\x00\x00\x00\x00'
p2042
tp2043
Rp2044
sS'trials.thisTrialN'
p2045
I146
sg54
g87
sg20
g21
sg34
g39
sg57
g88
sg33
g12
sa(dp2046
S'trials.thisIndex'
p2047
g23
(g66
S'\x8b\x00\x00\x00\x00\x00\x00\x00'
p2048
tp2049
Rp2050
sg16
F1.8554811477661133
sg22
g32
sg52
g658
sg51
g73
sg50
VRipete "cato" da sempre
p2051
sS'trials.thisRepN'
p2052
I0
sg59
g76
sg55
g77
sg56
g118
sg15
S'space'
p2053
sS'trials.thisN'
p2054
I147
sg53
g81
sg58
g82
sg49
g23
(g66
S'\x8c\x00\x00\x00\x00\x00\x00\x00'
p2055
tp2056
Rp2057
sS'trials.thisTrialN'
p2058
I147
sg54
g126
sg20
g21
sg34
g39
sg57
g127
sg33
g12
sa(dp2059
S'trials.thisIndex'
p2060
g23
(g66
S'k\x00\x00\x00\x00\x00\x00\x00'
p2061
tp2062
Rp2063
sg16
F1.9048588275909424
sg22
g32
sg52
g912
sg51
g73
sg50
VRipete "tico" da sempre
p2064
sS'trials.thisRepN'
p2065
I0
sg59
g137
sg55
g81
sg56
g78
sg15
S'space'
p2066
sS'trials.thisN'
p2067
I148
sg53
g77
sg58
g121
sg49
g23
(g66
S'l\x00\x00\x00\x00\x00\x00\x00'
p2068
tp2069
Rp2070
sS'trials.thisTrialN'
p2071
I148
sg54
g107
sg20
g21
sg34
g39
sg57
g108
sg33
g12
sa(dp2072
S'trials.thisIndex'
p2073
g23
(g66
S'\x85\x00\x00\x00\x00\x00\x00\x00'
p2074
tp2075
Rp2076
sg16
F1.9229710102081299
sg22
g32
sg52
g195
sg51
g95
sg50
VHa detto "cupo" sei volte
p2077
sS'trials.thisRepN'
p2078
I0
sg59
g98
sg55
g99
sg56
g138
sg15
S'space'
p2079
sS'trials.thisN'
p2080
I149
sg53
g81
sg58
g82
sg49
g23
(g66
S'\x86\x00\x00\x00\x00\x00\x00\x00'
p2081
tp2082
Rp2083
sS'trials.thisTrialN'
p2084
I149
sg54
g189
sg20
g21
sg34
g39
sg57
g108
sg33
g12
sa(dp2085
S'trials.thisIndex'
p2086
g23
(g66
S'0\x00\x00\x00\x00\x00\x00\x00'
p2087
tp2088
Rp2089
sg16
F1.8547279834747314
sg22
g32
sg52
g845
sg51
g134
sg50
VScrivete "poco" sul foglio
p2090
sS'trials.thisRepN'
p2091
I0
sg59
g137
sg55
g81
sg56
g138
sg15
S'space'
p2092
sS'trials.thisN'
p2093
I150
sg53
g99
sg58
g102
sg49
g23
(g66
S'1\x00\x00\x00\x00\x00\x00\x00'
p2094
tp2095
Rp2096
sS'trials.thisTrialN'
p2097
I150
sg54
g145
sg20
g21
sg34
g39
sg57
g146
sg33
g12
sa(dp2098
S'trials.thisIndex'
p2099
g23
(g66
S'C\x00\x00\x00\x00\x00\x00\x00'
p2100
tp2101
Rp2102
sg16
F1.4713358879089355
sg22
g32
sg52
g926
sg51
g73
sg50
VRipete "tipo" da sempre
p2103
sS'trials.thisRepN'
p2104
I0
sg59
g98
sg55
g99
sg56
g78
sg15
S'space'
p2105
sS'trials.thisN'
p2106
I151
sg53
g77
sg58
g121
sg49
g23
(g66
S'D\x00\x00\x00\x00\x00\x00\x00'
p2107
tp2108
Rp2109
sS'trials.thisTrialN'
p2110
I151
sg54
g107
sg20
g21
sg34
g39
sg57
g108
sg33
g12
sa(dp2111
S'trials.thisIndex'
p2112
g23
(g66
S'U\x00\x00\x00\x00\x00\x00\x00'
p2113
tp2114
Rp2115
sg16
F1.5880398750305176
sg22
g32
sg52
g1777
sg51
g95
sg50
VHa detto "tito" sei volte
p2116
sS'trials.thisRepN'
p2117
I0
sg59
g76
sg55
g77
sg56
g78
sg15
S'space'
p2118
sS'trials.thisN'
p2119
I152
sg53
g77
sg58
g121
sg49
g23
(g66
S'V\x00\x00\x00\x00\x00\x00\x00'
p2120
tp2121
Rp2122
sS'trials.thisTrialN'
p2123
I152
sg54
g107
sg20
g21
sg34
g39
sg57
g108
sg33
g12
sa(dp2124
S'trials.thisIndex'
p2125
g23
(g66
S'\x94\x00\x00\x00\x00\x00\x00\x00'
p2126
tp2127
Rp2128
sg16
F1.621755838394165
sg22
g32
sg52
g209
sg51
g134
sg50
VScrivete "coto" sul foglio
p2129
sS'trials.thisRepN'
p2130
I0
sg59
g76
sg55
g77
sg56
g138
sg15
S'space'
p2131
sS'trials.thisN'
p2132
I153
sg53
g81
sg58
g82
sg49
g23
(g66
S'\x95\x00\x00\x00\x00\x00\x00\x00'
p2133
tp2134
Rp2135
sS'trials.thisTrialN'
p2136
I153
sg54
g145
sg20
g21
sg34
g39
sg57
g146
sg33
g12
sa(dp2137
S'trials.thisIndex'
p2138
g23
(g66
S'i\x00\x00\x00\x00\x00\x00\x00'
p2139
tp2140
Rp2141
sg16
F1.3868398666381836
sg22
g32
sg52
g912
sg51
g95
sg50
VHa detto "tico" sei volte
p2142
sS'trials.thisRepN'
p2143
I0
sg59
g137
sg55
g81
sg56
g78
sg15
S'space'
p2144
sS'trials.thisN'
p2145
I154
sg53
g77
sg58
g121
sg49
g23
(g66
S'j\x00\x00\x00\x00\x00\x00\x00'
p2146
tp2147
Rp2148
sS'trials.thisTrialN'
p2149
I154
sg54
g107
sg20
g21
sg34
g39
sg57
g108
sg33
g12
sa(dp2150
S'trials.thisIndex'
p2151
g23
(g66
S'\x01\x00\x00\x00\x00\x00\x00\x00'
p2152
tp2153
Rp2154
sg16
F1.5041310787200928
sg22
g32
sg52
g577
sg51
g95
sg50
VHa detto "papo" sei volte
p2155
sS'trials.thisRepN'
p2156
I0
sg59
g98
sg55
g99
sg56
g118
sg15
S'space'
p2157
sS'trials.thisN'
p2158
I155
sg53
g99
sg58
g102
sg49
g23
(g66
S'\x02\x00\x00\x00\x00\x00\x00\x00'
p2159
tp2160
Rp2161
sS'trials.thisTrialN'
p2162
I155
sg54
g126
sg20
g21
sg34
g39
sg57
g127
sg33
g12
sa(dp2163
S'trials.thisIndex'
p2164
g23
(g66
S'\x9b\x00\x00\x00\x00\x00\x00\x00'
p2165
tp2166
Rp2167
sg16
F1.7713100910186768
sg22
g32
sg52
g872
sg51
g73
sg50
VRipete "cuto" da sempre
p2168
sS'trials.thisRepN'
p2169
I0
sg59
g76
sg55
g77
sg56
g138
sg15
S'space'
p2170
sS'trials.thisN'
p2171
I156
sg53
g81
sg58
g82
sg49
g23
(g66
S'\x9c\x00\x00\x00\x00\x00\x00\x00'
p2172
tp2173
Rp2174
sS'trials.thisTrialN'
p2175
I156
sg54
g189
sg20
g21
sg34
g39
sg57
g108
sg33
g12
sa(dp2176
S'trials.thisIndex'
p2177
g23
(g66
S'V\x00\x00\x00\x00\x00\x00\x00'
p2178
tp2179
Rp2180
sg16
F1.4878301620483398
sg22
g32
sg52
g1777
sg51
g115
sg50
VSentivo "tito" di nuovo
p2181
sS'trials.thisRepN'
p2182
I0
sg59
g76
sg55
g77
sg56
g78
sg15
S'space'
p2183
sS'trials.thisN'
p2184
I157
sg53
g77
sg58
g121
sg49
g23
(g66
S'W\x00\x00\x00\x00\x00\x00\x00'
p2185
tp2186
Rp2187
sS'trials.thisTrialN'
p2188
I157
sg54
g107
sg20
g21
sg34
g39
sg57
g108
sg33
g12
sa(dp2189
S'trials.thisIndex'
p2190
g23
(g66
S' \x00\x00\x00\x00\x00\x00\x00'
p2191
tp2192
Rp2193
sg16
F1.6371791362762451
sg22
g32
sg52
g1514
sg51
g134
sg50
VScrivete "puto" sul foglio
p2194
sS'trials.thisRepN'
p2195
I0
sg59
g76
sg55
g77
sg56
g138
sg15
S'space'
p2196
sS'trials.thisN'
p2197
I158
sg53
g99
sg58
g102
sg49
g23
(g66
S'!\x00\x00\x00\x00\x00\x00\x00'
p2198
tp2199
Rp2200
sS'trials.thisTrialN'
p2201
I158
sg54
g189
sg20
g21
sg34
g39
sg57
g108
sg33
g12
sa(dp2202
S'trials.thisIndex'
p2203
g23
(g66
S'\x8a\x00\x00\x00\x00\x00\x00\x00'
p2204
tp2205
Rp2206
sg16
F1.5861549377441406
sg22
g32
sg52
g658
sg51
g115
sg50
VSentivo "cato" di nuovo
p2207
sS'trials.thisRepN'
p2208
I0
sg59
g76
sg55
g77
sg56
g118
sg15
S'space'
p2209
sS'trials.thisN'
p2210
I159
sg53
g81
sg58
g82
sg49
g23
(g66
S'\x8b\x00\x00\x00\x00\x00\x00\x00'
p2211
tp2212
Rp2213
sS'trials.thisTrialN'
p2214
I159
sg54
g126
sg20
g21
sg34
g39
sg57
g127
sg33
g12
sa(dp2215
S'trials.thisIndex'
p2216
g23
(g66
S'$\x00\x00\x00\x00\x00\x00\x00'
p2217
tp2218
Rp2219
sg16
F1.6371519565582275
sg22
g32
sg52
g563
sg51
g134
sg50
VScrivete "paco" sul foglio
p2220
sS'trials.thisRepN'
p2221
I0
sg59
g137
sg55
g81
sg56
g118
sg15
S'space'
p2222
sS'trials.thisN'
p2223
I160
sg53
g99
sg58
g102
sg49
g23
(g66
S'%\x00\x00\x00\x00\x00\x00\x00'
p2224
tp2225
Rp2226
sS'trials.thisTrialN'
p2227
I160
sg54
g126
sg20
g21
sg34
g39
sg57
g127
sg33
g12
sa(dp2228
S'trials.thisIndex'
p2229
g23
(g66
S'\x18\x00\x00\x00\x00\x00\x00\x00'
p2230
tp2231
Rp2232
sg16
F1.5881738662719727
sg22
g32
sg52
g791
sg51
g134
sg50
VScrivete "pito" sul foglio
p2233
sS'trials.thisRepN'
p2234
I0
sg59
g76
sg55
g77
sg56
g78
sg15
S'space'
p2235
sS'trials.thisN'
p2236
I161
sg53
g99
sg58
g102
sg49
g23
(g66
S'\x19\x00\x00\x00\x00\x00\x00\x00'
p2237
tp2238
Rp2239
sS'trials.thisTrialN'
p2240
I161
sg54
g107
sg20
g21
sg34
g39
sg57
g108
sg33
g12
sa(dp2241
S'trials.thisIndex'
p2242
g23
(g66
S'3\x00\x00\x00\x00\x00\x00\x00'
p2243
tp2244
Rp2245
sg16
F1.7044880390167236
sg22
g32
sg52
g845
sg51
g73
sg50
VRipete "poco" da sempre
p2246
sS'trials.thisRepN'
p2247
I0
sg59
g137
sg55
g81
sg56
g138
sg15
S'space'
p2248
sS'trials.thisN'
p2249
I162
sg53
g99
sg58
g102
sg49
g23
(g66
S'4\x00\x00\x00\x00\x00\x00\x00'
p2250
tp2251
Rp2252
sS'trials.thisTrialN'
p2253
I162
sg54
g145
sg20
g21
sg34
g39
sg57
g146
sg33
g12
sa(dp2254
S'trials.thisIndex'
p2255
g23
(g66
S'T\x00\x00\x00\x00\x00\x00\x00'
p2256
tp2257
Rp2258
sg16
F1.8204319477081299
sg22
g32
sg52
g1777
sg51
g134
sg50
VScrivete "tito" sul foglio
p2259
sS'trials.thisRepN'
p2260
I0
sg59
g76
sg55
g77
sg56
g78
sg15
S'space'
p2261
sS'trials.thisN'
p2262
I163
sg53
g77
sg58
g121
sg49
g23
(g66
S'U\x00\x00\x00\x00\x00\x00\x00'
p2263
tp2264
Rp2265
sS'trials.thisTrialN'
p2266
I163
sg54
g107
sg20
g21
sg34
g39
sg57
g108
sg33
g12
sa(dp2267
S'trials.thisIndex'
p2268
g23
(g66
S'7\x00\x00\x00\x00\x00\x00\x00'
p2269
tp2270
Rp2271
sg16
F1.6524920463562012
sg22
g32
sg52
g304
sg51
g73
sg50
VRipete "puco" da sempre
p2272
sS'trials.thisRepN'
p2273
I0
sg59
g137
sg55
g81
sg56
g138
sg15
S'space'
p2274
sS'trials.thisN'
p2275
I164
sg53
g99
sg58
g102
sg49
g23
(g66
S'8\x00\x00\x00\x00\x00\x00\x00'
p2276
tp2277
Rp2278
sS'trials.thisTrialN'
p2279
I164
sg54
g189
sg20
g21
sg34
g39
sg57
g108
sg33
g12
sa(dp2280
S'trials.thisIndex'
p2281
g23
(g66
S'\x17\x00\x00\x00\x00\x00\x00\x00'
p2282
tp2283
Rp2284
sg16
F1.8042070865631104
sg22
g32
sg52
g672
sg51
g73
sg50
VRipete "pato" da sempre
p2285
sS'trials.thisRepN'
p2286
I0
sg59
g76
sg55
g77
sg56
g118
sg15
S'space'
p2287
sS'trials.thisN'
p2288
I165
sg53
g99
sg58
g102
sg49
g23
(g66
S'\x18\x00\x00\x00\x00\x00\x00\x00'
p2289
tp2290
Rp2291
sS'trials.thisTrialN'
p2292
I165
sg54
g126
sg20
g21
sg34
g39
sg57
g127
sg33
g12
sa(dp2293
S'trials.thisIndex'
p2294
g23
(g66
S'\x7f\x00\x00\x00\x00\x00\x00\x00'
p2295
tp2296
Rp2297
sg16
F1.7546029090881348
sg22
g32
sg52
g522
sg51
g73
sg50
VRipete "chipo" da sempre
p2298
sS'trials.thisRepN'
p2299
I0
sg59
g98
sg55
g99
sg56
g78
sg15
S'space'
p2300
sS'trials.thisN'
p2301
I166
sg53
g81
sg58
g82
sg49
g23
(g66
S'\x80\x00\x00\x00\x00\x00\x00\x00'
p2302
tp2303
Rp2304
sS'trials.thisTrialN'
p2305
I166
sg54
g107
sg20
g21
sg34
g39
sg57
g108
sg33
g12
sa(dp2306
S'trials.thisIndex'
p2307
g23
(g66
S'm\x00\x00\x00\x00\x00\x00\x00'
p2308
tp2309
Rp2310
sg16
F1.7376630306243896
sg22
g32
sg52
g318
sg51
g95
sg50
VHa detto "toco" sei volte
p2311
sS'trials.thisRepN'
p2312
I0
sg59
g137
sg55
g81
sg56
g138
sg15
S'space'
p2313
sS'trials.thisN'
p2314
I167
sg53
g77
sg58
g121
sg49
g23
(g66
S'n\x00\x00\x00\x00\x00\x00\x00'
p2315
tp2316
Rp2317
sS'trials.thisTrialN'
p2318
I167
sg54
g145
sg20
g21
sg34
g39
sg57
g146
sg33
g12
sa(dp2319
S'trials.thisIndex'
p2320
g23
(g66
S'5\x00\x00\x00\x00\x00\x00\x00'
p2321
tp2322
Rp2323
sg16
F1.4041340351104736
sg22
g32
sg52
g304
sg51
g95
sg50
VHa detto "puco" sei volte
p2324
sS'trials.thisRepN'
p2325
I0
sg59
g137
sg55
g81
sg56
g138
sg15
S'space'
p2326
sS'trials.thisN'
p2327
I168
sg53
g99
sg58
g102
sg49
g23
(g66
S'6\x00\x00\x00\x00\x00\x00\x00'
p2328
tp2329
Rp2330
sS'trials.thisTrialN'
p2331
I168
sg54
g189
sg20
g21
sg34
g39
sg57
g108
sg33
g12
sa(dp2332
S'trials.thisIndex'
p2333
g23
(g66
S'\x19\x00\x00\x00\x00\x00\x00\x00'
p2334
tp2335
Rp2336
sg16
F1.570739984512329
sg22
g32
sg52
g791
sg51
g95
sg50
VHa detto "pito" sei volte
p2337
sS'trials.thisRepN'
p2338
I0
sg59
g76
sg55
g77
sg56
g78
sg15
S'space'
p2339
sS'trials.thisN'
p2340
I169
sg53
g99
sg58
g102
sg49
g23
(g66
S'\x1a\x00\x00\x00\x00\x00\x00\x00'
p2341
tp2342
Rp2343
sS'trials.thisTrialN'
p2344
I169
sg54
g107
sg20
g21
sg34
g39
sg57
g108
sg33
g12
sa(dp2345
S'trials.thisIndex'
p2346
g23
(g66
S'y\x00\x00\x00\x00\x00\x00\x00'
p2347
tp2348
Rp2349
sg16
F1.5361981391906738
sg22
g32
sg52
g495
sg51
g95
sg50
VHa detto "chepo" sei volte
p2350
sS'trials.thisRepN'
p2351
I0
sg59
g98
sg55
g99
sg56
g78
sg15
S'space'
p2352
sS'trials.thisN'
p2353
I170
sg53
g81
sg58
g82
sg49
g23
(g66
S'z\x00\x00\x00\x00\x00\x00\x00'
p2354
tp2355
Rp2356
sS'trials.thisTrialN'
p2357
I170
sg54
g87
sg20
g21
sg34
g39
sg57
g88
sg33
g12
sa(dp2358
S'trials.thisIndex'
p2359
g23
(g66
S'D\x00\x00\x00\x00\x00\x00\x00'
p2360
tp2361
Rp2362
sg16
F1.6568419933319092
sg22
g32
sg52
g1292
sg51
g134
sg50
VScrivete "topo" sul foglio
p2363
sS'trials.thisRepN'
p2364
I0
sg59
g98
sg55
g99
sg56
g138
sg15
S'space'
p2365
sS'trials.thisN'
p2366
I171
sg53
g77
sg58
g121
sg49
g23
(g66
S'E\x00\x00\x00\x00\x00\x00\x00'
p2367
tp2368
Rp2369
sS'trials.thisTrialN'
p2370
I171
sg54
g145
sg20
g21
sg34
g39
sg57
g146
sg33
g12
sasS'loops'
p2371
(lp2372
g0
(cpsychopy.data.trial
TrialHandler
p2373
g2
Ntp2374
Rp2375
(dp2376
S'origin'
p2377
NsS'thisTrial'
p2378
(lp2379
sS'_exp'
p2380
I4643503952
sg11
S'trials'
p2381
sg6
I-1
sS'thisRepN'
p2382
I1
sg17
I01
sg18
g19
sS'data'
p2383
g0
(cpsychopy.data.base
DataHandler
p2384
c__builtin__
dict
p2385
(dp2386
S'ran'
p2387
cnumpy.ma.core
_mareconstruct
p2388
(cnumpy.ma.core
MaskedArray
p2389
cnumpy
ndarray
p2390
(I0
tp2391
S'b'
p2392
tp2393
Rp2394
(I1
(I172
I1
tp2395
g24
(S'f4'
p2396
I0
I1
tp2397
Rp2398
(I3
S'<'
p2399
NNNI-1
I-1
I0
tp2400
bI00
S'\x00\x00\x80?\x00\x00\x80?\x00\x00\x80?\x00\x00\x80?\x00\x00\x80?\x00\x00\x80?\x00\x00\x80?\x00\x00\x80?\x00\x00\x80?\x00\x00\x80?\x00\x00\x80?\x00\x00\x80?\x00\x00\x80?\x00\x00\x80?\x00\x00\x80?\x00\x00\x80?\x00\x00\x80?\x00\x00\x80?\x00\x00\x80?\x00\x00\x80?\x00\x00\x80?\x00\x00\x80?\x00\x00\x80?\x00\x00\x80?\x00\x00\x80?\x00\x00\x80?\x00\x00\x80?\x00\x00\x80?\x00\x00\x80?\x00\x00\x80?\x00\x00\x80?\x00\x00\x80?\x00\x00\x80?\x00\x00\x80?\x00\x00\x80?\x00\x00\x80?\x00\x00\x80?\x00\x00\x80?\x00\x00\x80?\x00\x00\x80?\x00\x00\x80?\x00\x00\x80?\x00\x00\x80?\x00\x00\x80?\x00\x00\x80?\x00\x00\x80?\x00\x00\x80?\x00\x00\x80?\x00\x00\x80?\x00\x00\x80?\x00\x00\x80?\x00\x00\x80?\x00\x00\x80?\x00\x00\x80?\x00\x00\x80?\x00\x00\x80?\x00\x00\x80?\x00\x00\x80?\x00\x00\x80?\x00\x00\x80?\x00\x00\x80?\x00\x00\x80?\x00\x00\x80?\x00\x00\x80?\x00\x00\x80?\x00\x00\x80?\x00\x00\x80?\x00\x00\x80?\x00\x00\x80?\x00\x00\x80?\x00\x00\x80?\x00\x00\x80?\x00\x00\x80?\x00\x00\x80?\x00\x00\x80?\x00\x00\x80?\x00\x00\x80?\x00\x00\x80?\x00\x00\x80?\x00\x00\x80?\x00\x00\x80?\x00\x00\x80?\x00\x00\x80?\x00\x00\x80?\x00\x00\x80?\x00\x00\x80?\x00\x00\x80?\x00\x00\x80?\x00\x00\x80?\x00\x00\x80?\x00\x00\x80?\x00\x00\x80?\x00\x00\x80?\x00\x00\x80?\x00\x00\x80?\x00\x00\x80?\x00\x00\x80?\x00\x00\x80?\x00\x00\x80?\x00\x00\x80?\x00\x00\x80?\x00\x00\x80?\x00\x00\x80?\x00\x00\x80?\x00\x00\x80?\x00\x00\x80?\x00\x00\x80?\x00\x00\x80?\x00\x00\x80?\x00\x00\x80?\x00\x00\x80?\x00\x00\x80?\x00\x00\x80?\x00\x00\x80?\x00\x00\x80?\x00\x00\x80?\x00\x00\x80?\x00\x00\x80?\x00\x00\x80?\x00\x00\x80?\x00\x00\x80?\x00\x00\x80?\x00\x00\x80?\x00\x00\x80?\x00\x00\x80?\x00\x00\x80?\x00\x00\x80?\x00\x00\x80?\x00\x00\x80?\x00\x00\x80?\x00\x00\x80?\x00\x00\x80?\x00\x00\x80?\x00\x00\x80?\x00\x00\x80?\x00\x00\x80?\x00\x00\x80?\x00\x00\x80?\x00\x00\x80?\x00\x00\x80?\x00\x00\x80?\x00\x00\x80?\x00\x00\x80?\x00\x00\x80?\x00\x00\x80?\x00\x00\x80?\x00\x00\x80?\x00\x00\x80?\x00\x00\x80?\x00\x00\x80?\x00\x00\x80?\x00\x00\x80?\x00\x00\x80?\x00\x00\x80?\x00\x00\x80?\x00\x00\x80?\x00\x00\x80?\x00\x00\x80?\x00\x00\x80?\x00\x00\x80?\x00\x00\x80?\x00\x00\x80?\x00\x00\x80?\x00\x00\x80?\x00\x00\x80?\x00\x00\x80?\x00\x00\x80?\x00\x00\x80?\x00\x00\x80?\x00\x00\x80?\x00\x00\x80?\x00\x00\x80?'
p2401
S'\x00\x00\x00\x00\x00\x00\x00\x00\x00\x00\x00\x00\x00\x00\x00\x00\x00\x00\x00\x00\x00\x00\x00\x00\x00\x00\x00\x00\x00\x00\x00\x00\x00\x00\x00\x00\x00\x00\x00\x00\x00\x00\x00\x00\x00\x00\x00\x00\x00\x00\x00\x00\x00\x00\x00\x00\x00\x00\x00\x00\x00\x00\x00\x00\x00\x00\x00\x00\x00\x00\x00\x00\x00\x00\x00\x00\x00\x00\x00\x00\x00\x00\x00\x00\x00\x00\x00\x00\x00\x00\x00\x00\x00\x00\x00\x00\x00\x00\x00\x00\x00\x00\x00\x00\x00\x00\x00\x00\x00\x00\x00\x00\x00\x00\x00\x00\x00\x00\x00\x00\x00\x00\x00\x00\x00\x00\x00\x00\x00\x00\x00\x00\x00\x00\x00\x00\x00\x00\x00\x00\x00\x00\x00\x00\x00\x00\x00\x00\x00\x00\x00\x00\x00\x00\x00\x00\x00\x00\x00\x00\x00\x00\x00\x00\x00\x00\x00\x00\x00\x00\x00\x00'
p2402
Ntp2403
bsg16
g2388
(g2389
g2390
g2391
g2392
tp2404
Rp2405
(I1
(I172
I1
tp2406
g2398
I00
S'9\xb6\x07@^\x87\xc0?\xda\x1f\xda?\x90h\xe0?\xc2\x11\xf8?`\xe3\xe4?\xfex\xcf?\x8a\xae\xd5?\xa4\xe8\xf5?\xb9R!@\xf0\xdd\xc6?\x96\xd5\xc6?\x97\x90\x14@T\xa6\xe0?\x82\x9f\xc2?\x9e\xb3\xef?\xb0l\xfc?\\\xbf\xe2?\xa0L\xcd?$\x83\xde?\xdc\x8e\xcf?t\x05\xe9?\x8e\xef\xf9?B\xf0\xe6?HI\xcb?\x02\x0e\xc9?\x80\xb1\xea?Rl\xef?Na\xe9?\x08`\xcd?R2\xc9?\xba\x17\xd6?\x16\x8f\xd1?\xd4c\xed?6\xa7\xc6?Rz\xe0?2\x8e\xd1?\x08\xb0\xe0?xN\xd1?/\x8a\x13@\x00\xeb\xf7?4\xa0\xe0?xD\xed?J#\xda?@\xe3\xe8?\xc4\n\xe9?\xc8r\xe8?\xb8\x01\x0b@\xbag\xed?"q\xf1?\xe0\xc2\xea?\xaa,\xda?\xd8A\xed?\xaa\xba\xb3?8\xc1\xd5?\xdc\x84\xd3?\x02\xd2\xe4?\x18B\xde?t\xe9\x0c@<U\xde?\xd6\xe2\xd5?\xdc\xd9\xf5?\x94I\xcd?\xb8!\x0f@~M\xfa?\x12\x89\x04@\x96,\xeb?\xbcT\xbc?f\x13\xd4?$\xd3\x07@\x8e\x00\xda?\x82\xe8\xd7?\x08!\xfc?\xfa\x81\x13@\x02\xcf\xf5?\to\x03@\x16N\x12@J\x9d\xe4?@Q\x02@.p\x03@~\xc5\x07@\x020\xdc?\x82\xc8\xe6?b\x16\xfc?\xea\x03\xe9?\xe4D\xcb?8q\xbe?\xc2>\xdc?\x9eD\x00@\x1cD\x02@`\x99\xf3?\x1c\xea\xd7?`\xe7\xe4?\xbc\'\xcf?\xf2*\xeb?J\xb7\xf3?\x16\x87\xf3?Zj\xf1?"8\xfa?\x03`\x02@\xba\xf2\xd7?\x8e\xe9\x0b@\x0c\xc5\xf3?\x90\xaa\xc0?f\x81\xfe?\xf8\x83\xb1?\xd2Q\xdc?j\xd2\xf3?\x07_\x02@\xbek\xde?\xecQ\xdc?\xd7\xfa\x0e@\xb0\x886A\xa08\x01@\xd0\'\xea?s\xbf\x08@j2\xe9?\x94\x0e\xdc?0\xb6\xc2?\x87g\x11@\xee\xea\xf5?$\xa2\xc4?\xceQ\xcb?\xf2\x9a\xd3?\xaaD\x01@\x06\x0f\x00@\x86\xfb\xec?\xd4\x96\xe0?Z\x9e\xf1?\xc23\x02@\x92>\xeb?\xe87\xfc?\x1a6\x11@\xea#\xf6?\x0cU\xcd?"\xe7)@`\xb3\xe4?8\x8f\xf7? \x07\xcb?h\x80\xed?\xc6\x1c\xfc?\x98N\xed?\xe6\xcd\xd9?\xbe}*ARb\xf3?6\xb3\xc2?b\xb9\xd3?\xc8Y\xfe?\xb2\x95\xcf?+2\x10@[c\x03@\xf6\x1d\xeb?\x06\x9c\x05@\xd6U\x00@\xccI\xdc?J\xba\xe2?\x053\x02@t]\x02@J\t\xeb?\x80\x1e\xda?\xfcj\xfe?\x0cu\xde?\xe4\x84\xf1?\x8c\x86\xc6?\xd1\xcf\t@\x88?\xfa?x!\xed?.:\xeb?\xecK\xfe?\xe6\xc0\xe4?\xa3\xcc\x08@Lo\xf1?'
p2407
S'\x00\x00\x00\x00\x00\x00\x00\x00\x00\x00\x00\x00\x00\x00\x00\x00\x00\x00\x00\x00\x00\x00\x00\x00\x00\x00\x00\x00\x00\x00\x00\x00\x00\x00\x00\x00\x00\x00\x00\x00\x00\x00\x00\x00\x00\x00\x00\x00\x00\x00\x00\x00\x00\x00\x00\x00\x00\x00\x00\x00\x00\x00\x00\x00\x00\x00\x00\x00\x00\x00\x00\x00\x00\x00\x00\x00\x00\x00\x00\x00\x00\x00\x00\x00\x00\x00\x00\x00\x00\x00\x00\x00\x00\x00\x00\x00\x00\x00\x00\x00\x00\x00\x00\x00\x00\x00\x00\x00\x00\x00\x00\x00\x00\x00\x00\x00\x00\x00\x00\x00\x00\x00\x00\x00\x00\x00\x00\x00\x00\x00\x00\x00\x00\x00\x00\x00\x00\x00\x00\x00\x00\x00\x00\x00\x00\x00\x00\x00\x00\x00\x00\x00\x00\x00\x00\x00\x00\x00\x00\x00\x00\x00\x00\x00\x00\x00\x00\x00\x00\x00\x00\x00'
p2408
Ntp2409
bsS'order'
p2410
g2388
(g2389
g2390
g2391
g2392
tp2411
Rp2412
(I1
(I172
I1
tp2413
g2398
I00
S'\x00\x00\x0cB\x00\x00\x1bC\x00\x00\x02C\x00\x00\xaaB\x00\x00\xa4B\x00\x00\xbeB\x00\x00\xc8B\x00\x00\xc0A\x00\x00\xd6B\x00\x00\x80?\x00\x00\x00C\x00\x00\x01C\x00\x00\xa0@\x00\x00\x03C\x00\x00\xecB\x00\x00\tC\x00\x00\x04C\x00\x00\x0bC\x00\x00\xe8B\x00\x00\xfeB\x00\x00\x08C\x00\x00\x94B\x00\x00(B\x00\x00%C\x00\x00!C\x00\x00)C\x00\x00LB\x00\x00\xe0B\x00\x00\x0eC\x00\x00\nC\x00\x00\xeaB\x00\x00\x0fC\x00\x00\x1eC\x00\x00\xd4B\x00\x00\xf6B\x00\x00\xfaB\x00\x00 C\x00\x00\xd2B\x00\x00\x08B\x00\x00<B\x00\x00,B\x00\x00\x12C\x00\x00\x88A\x00\x00\xc4B\x00\x00\xf4B\x00\x00\x9eB\x00\x00\xe0A\x00\x00\x98A\x00\x00\x16C\x00\x00\x90B\x00\x00\\B\x00\x00"C\x00\x00pA\x00\x00(C\x00\x00\x04B\x00\x00$C\x00\x00xB\x00\x00\xdcB\x00\x00\x00@\x00\x00\xb4B\x00\x00\x05C\x00\x00\xceB\x00\x00\x10C\x00\x00 A\x00\x00\xc6B\x00\x00|B\x00\x00tB\x00\x00\x17C\x00\x00+C\x00\x00\xccB\x00\x00\xb2B\x00\x00\xbaB\x00\x00\x80B\x00\x00\xa0A\x00\x00\xc0@\x00\x00\x96B\x00\x00`A\x00\x00`B\x00\x00\x80@\x00\x00\x18B\x00\x00\x88B\x00\x00\xc2B\x00\x00\x82B\x00\x00\xb0A\x00\x00#C\x00\x00\x18C\x00\x00\x1dC\x00\x00\xfcB\x00\x00\x00B\x00\x00\xacB\x00\x00\x10B\x00\x00\xf0B\x00\x00\x11C\x00\x00\xdaB\x00\x00\x07C\x00\x00\x90A\x00\x000B\x00\x00\x86B\x00\x00PA\x00\x00\xc8A\x00\x00\xe2B\x00\x004B\x00\x00lB\x00\x00\x0cC\x00\x00pB\x00\x00\x1aC\x00\x00\xe6B\x00\x00\x14C\x00\x00@B\x00\x00\'C\x00\x00\xd8B\x00\x00\x80A\x00\x00\xaeB\x00\x00XB\x00\x00\xf0A\x00\x000A\x00\x00\x9cB\x00\x00\x1cB\x00\x00\x98B\x00\x00\xcaB\x00\x00\xa8B\x00\x00*C\x00\x00\xd0B\x00\x00\xe8A\x00\x00\xf8A\x00\x00\xc0B\x00\x00 B\x00\x00&C\x00\x00\xb6B\x00\x00\xd0A\x00\x00\xb8B\x00\x00\x84B\x00\x00\xe0@\x00\x00\x15C\x00\x00\xbcB\x00\x00\x10A\x00\x00$B\x00\x00\xeeB\x00\x00\x1fC\x00\x00\x13C\x00\x00\x92B\x00\x00PB\x00\x00\x8eB\x00\x00\x00\x00\x00\x00\x06C\x00\x00\xdeB\x00\x00\xe4B\x00\x00\x9aB\x00\x00\x19C\x00\x00\x00A\x00\x00@A\x00\x00\xd8A\x00\x00dB\x00\x00\xa2B\x00\x00\xa0B\x00\x00\x1cC\x00\x00\x8aB\x00\x00\x14B\x00\x00\xa6B\x00\x00\xf8B\x00\x00\xb0B\x00\x00\rC\x00\x00TB\x00\x00\xf2B\x00\x00@@\x00\x00HB\x00\x00\xb8A\x00\x00hB\x00\x00DB\x00\x008B\x00\x00\x8cB\x00\x00\xa8A'
p2414
S'\x00\x00\x00\x00\x00\x00\x00\x00\x00\x00\x00\x00\x00\x00\x00\x00\x00\x00\x00\x00\x00\x00\x00\x00\x00\x00\x00\x00\x00\x00\x00\x00\x00\x00\x00\x00\x00\x00\x00\x00\x00\x00\x00\x00\x00\x00\x00\x00\x00\x00\x00\x00\x00\x00\x00\x00\x00\x00\x00\x00\x00\x00\x00\x00\x00\x00\x00\x00\x00\x00\x00\x00\x00\x00\x00\x00\x00\x00\x00\x00\x00\x00\x00\x00\x00\x00\x00\x00\x00\x00\x00\x00\x00\x00\x00\x00\x00\x00\x00\x00\x00\x00\x00\x00\x00\x00\x00\x00\x00\x00\x00\x00\x00\x00\x00\x00\x00\x00\x00\x00\x00\x00\x00\x00\x00\x00\x00\x00\x00\x00\x00\x00\x00\x00\x00\x00\x00\x00\x00\x00\x00\x00\x00\x00\x00\x00\x00\x00\x00\x00\x00\x00\x00\x00\x00\x00\x00\x00\x00\x00\x00\x00\x00\x00\x00\x00\x00\x00\x00\x00\x00\x00'
p2415
Ntp2416
bsg15
cnumpy.core.multiarray
_reconstruct
p2417
(g2390
(I0
tp2418
g2392
tp2419
Rp2420
(I1
(I172
I1
tp2421
g24
(S'O8'
p2422
I0
I1
tp2423
Rp2424
(I3
S'|'
p2425
NNNI-1
I-1
I63
tp2426
bI00
(lp2427
g580
ag2157
ag1832
ag1242
ag1203
ag1373
ag1438
ag431
ag1530
ag100
ag1806
ag1819
ag169
ag1845
ag1675
ag1923
ag1858
ag1949
ag1648
ag1793
ag1910
ag1098
ag675
ag2287
ag2235
ag2339
ag794
ag1595
ag1988
ag1936
ag1662
ag2001
ag2196
ag1517
ag1740
ag1766
ag2222
ag1503
ag566
ag741
ag688
ag2040
ag335
ag1412
ag1727
ag1164
ag484
ag363
ag2092
ag1072
ag848
ag2248
ag307
ag2326
ag552
ag2274
ag942
ag1569
ag119
ag1308
ag1871
ag1477
ag2014
ag239
ag1425
ag955
ag929
ag2105
ag2365
ag1464
ag1295
ag1347
ag968
ag376
ag183
ag1111
ag293
ag861
ag155
ag620
ag1020
ag1399
ag981
ag404
ag2261
ag2118
ag2183
ag1780
ag539
ag1255
ag593
ag1701
ag2027
ag1556
ag1897
ag349
ag701
ag1007
ag280
ag444
ag1608
ag715
ag901
ag1962
ag915
ag2144
ag1634
ag2066
ag754
ag2313
ag1543
ag321
ag1268
ag834
ag511
ag253
ag1151
ag634
ag1124
ag1451
ag1229
ag2352
ag1490
ag498
ag525
ag1386
ag647
ag2300
ag1321
ag458
ag1334
ag994
ag198
ag2079
ag1360
ag225
ag661
ag1688
ag2209
ag2053
ag1085
ag807
ag1059
ag79
ag1884
ag1582
ag1621
ag1138
ag2131
ag212
ag266
ag471
ag875
ag1190
ag1177
ag2170
ag1033
ag607
ag1216
ag1753
ag1281
ag1975
ag821
ag1714
ag139
ag780
ag417
ag888
ag767
ag728
ag1046
ag390
atp2428
bstp2429
Rp2430
(dp2431
S'isNumeric'
p2432
(dp2433
g2387
I01
sg16
I01
sg2410
I01
sg15
I00
ssg2381
g2375
sS'dataTypes'
p2434
(lp2435
g2387
ag2410
ag15
ag16
asS'dataShape'
p2436
(lp2437
I172
aI1
asbsS'method'
p2438
S'random'
p2439
sS'sequenceIndices'
p2440
g2417
(g2390
(I0
tp2441
g2392
tp2442
Rp2443
(I1
(I172
I1
tp2444
g66
I00
S'\x8f\x00\x00\x00\x00\x00\x00\x00\t\x00\x00\x00\x00\x00\x00\x00:\x00\x00\x00\x00\x00\x00\x00\xa4\x00\x00\x00\x00\x00\x00\x00N\x00\x00\x00\x00\x00\x00\x00\x0c\x00\x00\x00\x00\x00\x00\x00J\x00\x00\x00\x00\x00\x00\x00\x84\x00\x00\x00\x00\x00\x00\x00\x95\x00\x00\x00\x00\x00\x00\x00\x87\x00\x00\x00\x00\x00\x00\x00?\x00\x00\x00\x00\x00\x00\x00s\x00\x00\x00\x00\x00\x00\x00\x96\x00\x00\x00\x00\x00\x00\x00b\x00\x00\x00\x00\x00\x00\x00L\x00\x00\x00\x00\x00\x00\x004\x00\x00\x00\x00\x00\x00\x00o\x00\x00\x00\x00\x00\x00\x00*\x00\x00\x00\x00\x00\x00\x00_\x00\x00\x00\x00\x00\x00\x00/\x00\x00\x00\x00\x00\x00\x00I\x00\x00\x00\x00\x00\x00\x00\xab\x00\x00\x00\x00\x00\x00\x00S\x00\x00\x00\x00\x00\x00\x00\xa6\x00\x00\x00\x00\x00\x00\x00\x07\x00\x00\x00\x00\x00\x00\x00c\x00\x00\x00\x00\x00\x00\x00\x81\x00\x00\x00\x00\x00\x00\x00\x97\x00\x00\x00\x00\x00\x00\x00.\x00\x00\x00\x00\x00\x00\x00{\x00\x00\x00\x00\x00\x00\x00r\x00\x00\x00\x00\x00\x00\x00|\x00\x00\x00\x00\x00\x00\x00X\x00\x00\x00\x00\x00\x00\x006\x00\x00\x00\x00\x00\x00\x00&\x00\x00\x00\x00\x00\x00\x00\x00\x00\x00\x00\x00\x00\x00\x00Z\x00\x00\x00\x00\x00\x00\x00\x9d\x00\x00\x00\x00\x00\x00\x00O\x00\x00\x00\x00\x00\x00\x00u\x00\x00\x00\x00\x00\x00\x00~\x00\x00\x00\x00\x00\x00\x00\x88\x00\x00\x00\x00\x00\x00\x00\x16\x00\x00\x00\x00\x00\x00\x00(\x00\x00\x00\x00\x00\x00\x00`\x00\x00\x00\x00\x00\x00\x00e\x00\x00\x00\x00\x00\x00\x00\xa9\x00\x00\x00\x00\x00\x00\x00\'\x00\x00\x00\x00\x00\x00\x00l\x00\x00\x00\x00\x00\x00\x00\xa8\x00\x00\x00\x00\x00\x00\x00\xa5\x00\x00\x00\x00\x00\x00\x00\x1a\x00\x00\x00\x00\x00\x00\x00\x8d\x00\x00\x00\x00\x00\x00\x00\xa2\x00\x00\x00\x00\x00\x00\x00q\x00\x00\x00\x00\x00\x00\x002\x00\x00\x00\x00\x00\x00\x00M\x00\x00\x00\x00\x00\x00\x00\x98\x00\x00\x00\x00\x00\x00\x00\xa7\x00\x00\x00\x00\x00\x00\x00f\x00\x00\x00\x00\x00\x00\x00h\x00\x00\x00\x00\x00\x00\x00B\x00\x00\x00\x00\x00\x00\x008\x00\x00\x00\x00\x00\x00\x00A\x00\x00\x00\x00\x00\x00\x00H\x00\x00\x00\x00\x00\x00\x00R\x00\x00\x00\x00\x00\x00\x00\x83\x00\x00\x00\x00\x00\x00\x00a\x00\x00\x00\x00\x00\x00\x00P\x00\x00\x00\x00\x00\x00\x00\x9c\x00\x00\x00\x00\x00\x00\x00\xaa\x00\x00\x00\x00\x00\x00\x00\x8e\x00\x00\x00\x00\x00\x00\x001\x00\x00\x00\x00\x00\x00\x00\x8c\x00\x00\x00\x00\x00\x00\x00\x15\x00\x00\x00\x00\x00\x00\x00K\x00\x00\x00\x00\x00\x00\x00v\x00\x00\x00\x00\x00\x00\x00\x93\x00\x00\x00\x00\x00\x00\x00t\x00\x00\x00\x00\x00\x00\x00-\x00\x00\x00\x00\x00\x00\x00\x9a\x00\x00\x00\x00\x00\x00\x00\x99\x00\x00\x00\x00\x00\x00\x00\x04\x00\x00\x00\x00\x00\x00\x00\x9e\x00\x00\x00\x00\x00\x00\x00x\x00\x00\x00\x00\x00\x00\x00\x03\x00\x00\x00\x00\x00\x00\x00Y\x00\x00\x00\x00\x00\x00\x00p\x00\x00\x00\x00\x00\x00\x00\xa0\x00\x00\x00\x00\x00\x00\x00F\x00\x00\x00\x00\x00\x00\x00;\x00\x00\x00\x00\x00\x00\x00\x80\x00\x00\x00\x00\x00\x00\x00\x82\x00\x00\x00\x00\x00\x00\x00G\x00\x00\x00\x00\x00\x00\x00\x86\x00\x00\x00\x00\x00\x00\x00\x05\x00\x00\x00\x00\x00\x00\x00}\x00\x00\x00\x00\x00\x00\x00Q\x00\x00\x00\x00\x00\x00\x00+\x00\x00\x00\x00\x00\x00\x00@\x00\x00\x00\x00\x00\x00\x00\x06\x00\x00\x00\x00\x00\x00\x00w\x00\x00\x00\x00\x00\x00\x00E\x00\x00\x00\x00\x00\x00\x00=\x00\x00\x00\x00\x00\x00\x00z\x00\x00\x00\x00\x00\x00\x00%\x00\x00\x00\x00\x00\x00\x00!\x00\x00\x00\x00\x00\x00\x00\x08\x00\x00\x00\x00\x00\x00\x00n\x00\x00\x00\x00\x00\x00\x00]\x00\x00\x00\x00\x00\x00\x009\x00\x00\x00\x00\x00\x00\x00\x91\x00\x00\x00\x00\x00\x00\x00\x1b\x00\x00\x00\x00\x00\x00\x00d\x00\x00\x00\x00\x00\x00\x00\x92\x00\x00\x00\x00\x00\x00\x00j\x00\x00\x00\x00\x00\x00\x00\x12\x00\x00\x00\x00\x00\x00\x00\x1e\x00\x00\x00\x00\x00\x00\x00\x0e\x00\x00\x00\x00\x00\x00\x00\x89\x00\x00\x00\x00\x00\x00\x00[\x00\x00\x00\x00\x00\x00\x00\xa3\x00\x00\x00\x00\x00\x00\x00,\x00\x00\x00\x00\x00\x00\x00"\x00\x00\x00\x00\x00\x00\x00\x9f\x00\x00\x00\x00\x00\x00\x00#\x00\x00\x00\x00\x00\x00\x00W\x00\x00\x00\x00\x00\x00\x00\x13\x00\x00\x00\x00\x00\x00\x00\n\x00\x00\x00\x00\x00\x00\x00\x0b\x00\x00\x00\x00\x00\x00\x00\x02\x00\x00\x00\x00\x00\x00\x00\r\x00\x00\x00\x00\x00\x00\x00\x10\x00\x00\x00\x00\x00\x00\x00<\x00\x00\x00\x00\x00\x00\x00\x90\x00\x00\x00\x00\x00\x00\x00^\x00\x00\x00\x00\x00\x00\x00\x14\x00\x00\x00\x00\x00\x00\x00\x0f\x00\x00\x00\x00\x00\x00\x00\x1d\x00\x00\x00\x00\x00\x00\x00\x11\x00\x00\x00\x00\x00\x00\x00g\x00\x00\x00\x00\x00\x00\x00\xa1\x00\x00\x00\x00\x00\x00\x00\x1c\x00\x00\x00\x00\x00\x00\x00\x1f\x00\x00\x00\x00\x00\x00\x00>\x00\x00\x00\x00\x00\x00\x00\\\x00\x00\x00\x00\x00\x00\x00)\x00\x00\x00\x00\x00\x00\x00\x8b\x00\x00\x00\x00\x00\x00\x00k\x00\x00\x00\x00\x00\x00\x00\x85\x00\x00\x00\x00\x00\x00\x000\x00\x00\x00\x00\x00\x00\x00C\x00\x00\x00\x00\x00\x00\x00U\x00\x00\x00\x00\x00\x00\x00\x94\x00\x00\x00\x00\x00\x00\x00i\x00\x00\x00\x00\x00\x00\x00\x01\x00\x00\x00\x00\x00\x00\x00\x9b\x00\x00\x00\x00\x00\x00\x00V\x00\x00\x00\x00\x00\x00\x00 \x00\x00\x00\x00\x00\x00\x00\x8a\x00\x00\x00\x00\x00\x00\x00$\x00\x00\x00\x00\x00\x00\x00\x18\x00\x00\x00\x00\x00\x00\x003\x00\x00\x00\x00\x00\x00\x00T\x00\x00\x00\x00\x00\x00\x007\x00\x00\x00\x00\x00\x00\x00\x17\x00\x00\x00\x00\x00\x00\x00\x7f\x00\x00\x00\x00\x00\x00\x00m\x00\x00\x00\x00\x00\x00\x005\x00\x00\x00\x00\x00\x00\x00\x19\x00\x00\x00\x00\x00\x00\x00y\x00\x00\x00\x00\x00\x00\x00D\x00\x00\x00\x00\x00\x00\x00'
p2445
tp2446
bsS'finished'
p2447
I01
sS'nReps'
p2448
I1
sS'nRemaining'
p2449
I-1
sS'trialList'
p2450
(lp2451
ccollections
OrderedDict
p2452
((lp2453
(lp2454
g49
ag584
aa(lp2455
g50
ag578
aa(lp2456
g51
ag134
aa(lp2457
g52
ag577
aa(lp2458
g53
ag99
aa(lp2459
g54
ag126
aa(lp2460
g55
ag99
aa(lp2461
g56
ag118
aa(lp2462
g57
ag127
aa(lp2463
g58
ag102
aa(lp2464
g59
ag98
aatp2465
Rp2466
ag2452
((lp2467
(lp2468
g49
ag2161
aa(lp2469
g50
ag2155
aa(lp2470
g51
ag95
aa(lp2471
g52
ag577
aa(lp2472
g53
ag99
aa(lp2473
g54
ag126
aa(lp2474
g55
ag99
aa(lp2475
g56
ag118
aa(lp2476
g57
ag127
aa(lp2477
g58
ag102
aa(lp2478
g59
ag98
aatp2479
Rp2480
ag2452
((lp2481
(lp2482
g49
ag1836
aa(lp2483
g50
ag1830
aa(lp2484
g51
ag115
aa(lp2485
g52
ag577
aa(lp2486
g53
ag99
aa(lp2487
g54
ag126
aa(lp2488
g55
ag99
aa(lp2489
g56
ag118
aa(lp2490
g57
ag127
aa(lp2491
g58
ag102
aa(lp2492
g59
ag98
aatp2493
Rp2494
ag2452
((lp2495
(lp2496
g49
ag1246
aa(lp2497
g50
ag1240
aa(lp2498
g51
ag73
aa(lp2499
g52
ag577
aa(lp2500
g53
ag99
aa(lp2501
g54
ag126
aa(lp2502
g55
ag99
aa(lp2503
g56
ag118
aa(lp2504
g57
ag127
aa(lp2505
g58
ag102
aa(lp2506
g59
ag98
aatp2507
Rp2508
ag2452
((lp2509
(lp2510
g49
ag1207
aa(lp2511
g50
ag1201
aa(lp2512
g51
ag134
aa(lp2513
g52
ag428
aa(lp2514
g53
ag99
aa(lp2515
g54
ag87
aa(lp2516
g55
ag99
aa(lp2517
g56
ag78
aa(lp2518
g57
ag88
aa(lp2519
g58
ag102
aa(lp2520
g59
ag98
aatp2521
Rp2522
ag2452
((lp2523
(lp2524
g49
ag1377
aa(lp2525
g50
ag1371
aa(lp2526
g51
ag95
aa(lp2527
g52
ag428
aa(lp2528
g53
ag99
aa(lp2529
g54
ag87
aa(lp2530
g55
ag99
aa(lp2531
g56
ag78
aa(lp2532
g57
ag88
aa(lp2533
g58
ag102
aa(lp2534
g59
ag98
aatp2535
Rp2536
ag2452
((lp2537
(lp2538
g49
ag1442
aa(lp2539
g50
ag1436
aa(lp2540
g51
ag115
aa(lp2541
g52
ag428
aa(lp2542
g53
ag99
aa(lp2543
g54
ag87
aa(lp2544
g55
ag99
aa(lp2545
g56
ag78
aa(lp2546
g57
ag88
aa(lp2547
g58
ag102
aa(lp2548
g59
ag98
aatp2549
Rp2550
ag2452
((lp2551
(lp2552
g49
ag435
aa(lp2553
g50
ag429
aa(lp2554
g51
ag73
aa(lp2555
g52
ag428
aa(lp2556
g53
ag99
aa(lp2557
g54
ag87
aa(lp2558
g55
ag99
aa(lp2559
g56
ag78
aa(lp2560
g57
ag88
aa(lp2561
g58
ag102
aa(lp2562
g59
ag98
aatp2563
Rp2564
ag2452
((lp2565
(lp2566
g49
ag1534
aa(lp2567
g50
ag1528
aa(lp2568
g51
ag134
aa(lp2569
g52
ag94
aa(lp2570
g53
ag99
aa(lp2571
g54
ag107
aa(lp2572
g55
ag99
aa(lp2573
g56
ag78
aa(lp2574
g57
ag108
aa(lp2575
g58
ag102
aa(lp2576
g59
ag98
aatp2577
Rp2578
ag2452
((lp2579
(lp2580
g49
ag105
aa(lp2581
g50
ag96
aa(lp2582
g51
ag95
aa(lp2583
g52
ag94
aa(lp2584
g53
ag99
aa(lp2585
g54
ag107
aa(lp2586
g55
ag99
aa(lp2587
g56
ag78
aa(lp2588
g57
ag108
aa(lp2589
g58
ag102
aa(lp2590
g59
ag98
aatp2591
Rp2592
ag2452
((lp2593
(lp2594
g49
ag1810
aa(lp2595
g50
ag1804
aa(lp2596
g51
ag115
aa(lp2597
g52
ag94
aa(lp2598
g53
ag99
aa(lp2599
g54
ag107
aa(lp2600
g55
ag99
aa(lp2601
g56
ag78
aa(lp2602
g57
ag108
aa(lp2603
g58
ag102
aa(lp2604
g59
ag98
aatp2605
Rp2606
ag2452
((lp2607
(lp2608
g49
ag1823
aa(lp2609
g50
ag1817
aa(lp2610
g51
ag73
aa(lp2611
g52
ag94
aa(lp2612
g53
ag99
aa(lp2613
g54
ag107
aa(lp2614
g55
ag99
aa(lp2615
g56
ag78
aa(lp2616
g57
ag108
aa(lp2617
g58
ag102
aa(lp2618
g59
ag98
aatp2619
Rp2620
ag2452
((lp2621
(lp2622
g49
ag173
aa(lp2623
g50
ag167
aa(lp2624
g51
ag134
aa(lp2625
g52
ag166
aa(lp2626
g53
ag99
aa(lp2627
g54
ag145
aa(lp2628
g55
ag99
aa(lp2629
g56
ag138
aa(lp2630
g57
ag146
aa(lp2631
g58
ag102
aa(lp2632
g59
ag98
aatp2633
Rp2634
ag2452
((lp2635
(lp2636
g49
ag1849
aa(lp2637
g50
ag1843
aa(lp2638
g51
ag95
aa(lp2639
g52
ag166
aa(lp2640
g53
ag99
aa(lp2641
g54
ag145
aa(lp2642
g55
ag99
aa(lp2643
g56
ag138
aa(lp2644
g57
ag146
aa(lp2645
g58
ag102
aa(lp2646
g59
ag98
aatp2647
Rp2648
ag2452
((lp2649
(lp2650
g49
ag1679
aa(lp2651
g50
ag1673
aa(lp2652
g51
ag115
aa(lp2653
g52
ag166
aa(lp2654
g53
ag99
aa(lp2655
g54
ag145
aa(lp2656
g55
ag99
aa(lp2657
g56
ag138
aa(lp2658
g57
ag146
aa(lp2659
g58
ag102
aa(lp2660
g59
ag98
aatp2661
Rp2662
ag2452
((lp2663
(lp2664
g49
ag1927
aa(lp2665
g50
ag1921
aa(lp2666
g51
ag73
aa(lp2667
g52
ag166
aa(lp2668
g53
ag99
aa(lp2669
g54
ag145
aa(lp2670
g55
ag99
aa(lp2671
g56
ag138
aa(lp2672
g57
ag146
aa(lp2673
g58
ag102
aa(lp2674
g59
ag98
aatp2675
Rp2676
ag2452
((lp2677
(lp2678
g49
ag1862
aa(lp2679
g50
ag1856
aa(lp2680
g51
ag134
aa(lp2681
g52
ag1645
aa(lp2682
g53
ag99
aa(lp2683
g54
ag189
aa(lp2684
g55
ag99
aa(lp2685
g56
ag138
aa(lp2686
g57
ag108
aa(lp2687
g58
ag102
aa(lp2688
g59
ag98
aatp2689
Rp2690
ag2452
((lp2691
(lp2692
g49
ag1953
aa(lp2693
g50
ag1947
aa(lp2694
g51
ag95
aa(lp2695
g52
ag1645
aa(lp2696
g53
ag99
aa(lp2697
g54
ag189
aa(lp2698
g55
ag99
aa(lp2699
g56
ag138
aa(lp2700
g57
ag108
aa(lp2701
g58
ag102
aa(lp2702
g59
ag98
aatp2703
Rp2704
ag2452
((lp2705
(lp2706
g49
ag1652
aa(lp2707
g50
ag1646
aa(lp2708
g51
ag115
aa(lp2709
g52
ag1645
aa(lp2710
g53
ag99
aa(lp2711
g54
ag189
aa(lp2712
g55
ag99
aa(lp2713
g56
ag138
aa(lp2714
g57
ag108
aa(lp2715
g58
ag102
aa(lp2716
g59
ag98
aatp2717
Rp2718
ag2452
((lp2719
(lp2720
g49
ag1797
aa(lp2721
g50
ag1791
aa(lp2722
g51
ag73
aa(lp2723
g52
ag1645
aa(lp2724
g53
ag99
aa(lp2725
g54
ag189
aa(lp2726
g55
ag99
aa(lp2727
g56
ag138
aa(lp2728
g57
ag108
aa(lp2729
g58
ag102
aa(lp2730
g59
ag98
aatp2731
Rp2732
ag2452
((lp2733
(lp2734
g49
ag1914
aa(lp2735
g50
ag1908
aa(lp2736
g51
ag134
aa(lp2737
g52
ag672
aa(lp2738
g53
ag99
aa(lp2739
g54
ag126
aa(lp2740
g55
ag77
aa(lp2741
g56
ag118
aa(lp2742
g57
ag127
aa(lp2743
g58
ag102
aa(lp2744
g59
ag76
aatp2745
Rp2746
ag2452
((lp2747
(lp2748
g49
ag1102
aa(lp2749
g50
ag1096
aa(lp2750
g51
ag95
aa(lp2751
g52
ag672
aa(lp2752
g53
ag99
aa(lp2753
g54
ag126
aa(lp2754
g55
ag77
aa(lp2755
g56
ag118
aa(lp2756
g57
ag127
aa(lp2757
g58
ag102
aa(lp2758
g59
ag76
aatp2759
Rp2760
ag2452
((lp2761
(lp2762
g49
ag679
aa(lp2763
g50
ag673
aa(lp2764
g51
ag115
aa(lp2765
g52
ag672
aa(lp2766
g53
ag99
aa(lp2767
g54
ag126
aa(lp2768
g55
ag77
aa(lp2769
g56
ag118
aa(lp2770
g57
ag127
aa(lp2771
g58
ag102
aa(lp2772
g59
ag76
aatp2773
Rp2774
ag2452
((lp2775
(lp2776
g49
ag2291
aa(lp2777
g50
ag2285
aa(lp2778
g51
ag73
aa(lp2779
g52
ag672
aa(lp2780
g53
ag99
aa(lp2781
g54
ag126
aa(lp2782
g55
ag77
aa(lp2783
g56
ag118
aa(lp2784
g57
ag127
aa(lp2785
g58
ag102
aa(lp2786
g59
ag76
aatp2787
Rp2788
ag2452
((lp2789
(lp2790
g49
ag2239
aa(lp2791
g50
ag2233
aa(lp2792
g51
ag134
aa(lp2793
g52
ag791
aa(lp2794
g53
ag99
aa(lp2795
g54
ag107
aa(lp2796
g55
ag77
aa(lp2797
g56
ag78
aa(lp2798
g57
ag108
aa(lp2799
g58
ag102
aa(lp2800
g59
ag76
aatp2801
Rp2802
ag2452
((lp2803
(lp2804
g49
ag2343
aa(lp2805
g50
ag2337
aa(lp2806
g51
ag95
aa(lp2807
g52
ag791
aa(lp2808
g53
ag99
aa(lp2809
g54
ag107
aa(lp2810
g55
ag77
aa(lp2811
g56
ag78
aa(lp2812
g57
ag108
aa(lp2813
g58
ag102
aa(lp2814
g59
ag76
aatp2815
Rp2816
ag2452
((lp2817
(lp2818
g49
ag798
aa(lp2819
g50
ag792
aa(lp2820
g51
ag115
aa(lp2821
g52
ag791
aa(lp2822
g53
ag99
aa(lp2823
g54
ag107
aa(lp2824
g55
ag77
aa(lp2825
g56
ag78
aa(lp2826
g57
ag108
aa(lp2827
g58
ag102
aa(lp2828
g59
ag76
aatp2829
Rp2830
ag2452
((lp2831
(lp2832
g49
ag1599
aa(lp2833
g50
ag1593
aa(lp2834
g51
ag73
aa(lp2835
g52
ag791
aa(lp2836
g53
ag99
aa(lp2837
g54
ag107
aa(lp2838
g55
ag77
aa(lp2839
g56
ag78
aa(lp2840
g57
ag108
aa(lp2841
g58
ag102
aa(lp2842
g59
ag76
aatp2843
Rp2844
ag2452
((lp2845
(lp2846
g49
ag1992
aa(lp2847
g50
ag1986
aa(lp2848
g51
ag134
aa(lp2849
g52
ag1659
aa(lp2850
g53
ag99
aa(lp2851
g54
ag145
aa(lp2852
g55
ag77
aa(lp2853
g56
ag138
aa(lp2854
g57
ag146
aa(lp2855
g58
ag102
aa(lp2856
g59
ag76
aatp2857
Rp2858
ag2452
((lp2859
(lp2860
g49
ag1940
aa(lp2861
g50
ag1934
aa(lp2862
g51
ag95
aa(lp2863
g52
ag1659
aa(lp2864
g53
ag99
aa(lp2865
g54
ag145
aa(lp2866
g55
ag77
aa(lp2867
g56
ag138
aa(lp2868
g57
ag146
aa(lp2869
g58
ag102
aa(lp2870
g59
ag76
aatp2871
Rp2872
ag2452
((lp2873
(lp2874
g49
ag1666
aa(lp2875
g50
ag1660
aa(lp2876
g51
ag115
aa(lp2877
g52
ag1659
aa(lp2878
g53
ag99
aa(lp2879
g54
ag145
aa(lp2880
g55
ag77
aa(lp2881
g56
ag138
aa(lp2882
g57
ag146
aa(lp2883
g58
ag102
aa(lp2884
g59
ag76
aatp2885
Rp2886
ag2452
((lp2887
(lp2888
g49
ag2005
aa(lp2889
g50
ag1999
aa(lp2890
g51
ag73
aa(lp2891
g52
ag1659
aa(lp2892
g53
ag99
aa(lp2893
g54
ag145
aa(lp2894
g55
ag77
aa(lp2895
g56
ag138
aa(lp2896
g57
ag146
aa(lp2897
g58
ag102
aa(lp2898
g59
ag76
aatp2899
Rp2900
ag2452
((lp2901
(lp2902
g49
ag2200
aa(lp2903
g50
ag2194
aa(lp2904
g51
ag134
aa(lp2905
g52
ag1514
aa(lp2906
g53
ag99
aa(lp2907
g54
ag189
aa(lp2908
g55
ag77
aa(lp2909
g56
ag138
aa(lp2910
g57
ag108
aa(lp2911
g58
ag102
aa(lp2912
g59
ag76
aatp2913
Rp2914
ag2452
((lp2915
(lp2916
g49
ag1521
aa(lp2917
g50
ag1515
aa(lp2918
g51
ag95
aa(lp2919
g52
ag1514
aa(lp2920
g53
ag99
aa(lp2921
g54
ag189
aa(lp2922
g55
ag77
aa(lp2923
g56
ag138
aa(lp2924
g57
ag108
aa(lp2925
g58
ag102
aa(lp2926
g59
ag76
aatp2927
Rp2928
ag2452
((lp2929
(lp2930
g49
ag1744
aa(lp2931
g50
ag1738
aa(lp2932
g51
ag115
aa(lp2933
g52
ag1514
aa(lp2934
g53
ag99
aa(lp2935
g54
ag189
aa(lp2936
g55
ag77
aa(lp2937
g56
ag138
aa(lp2938
g57
ag108
aa(lp2939
g58
ag102
aa(lp2940
g59
ag76
aatp2941
Rp2942
ag2452
((lp2943
(lp2944
g49
ag1770
aa(lp2945
g50
ag1764
aa(lp2946
g51
ag73
aa(lp2947
g52
ag1514
aa(lp2948
g53
ag99
aa(lp2949
g54
ag189
aa(lp2950
g55
ag77
aa(lp2951
g56
ag138
aa(lp2952
g57
ag108
aa(lp2953
g58
ag102
aa(lp2954
g59
ag76
aatp2955
Rp2956
ag2452
((lp2957
(lp2958
g49
ag2226
aa(lp2959
g50
ag2220
aa(lp2960
g51
ag134
aa(lp2961
g52
ag563
aa(lp2962
g53
ag99
aa(lp2963
g54
ag126
aa(lp2964
g55
ag81
aa(lp2965
g56
ag118
aa(lp2966
g57
ag127
aa(lp2967
g58
ag102
aa(lp2968
g59
ag137
aatp2969
Rp2970
ag2452
((lp2971
(lp2972
g49
ag1507
aa(lp2973
g50
ag1501
aa(lp2974
g51
ag95
aa(lp2975
g52
ag563
aa(lp2976
g53
ag99
aa(lp2977
g54
ag126
aa(lp2978
g55
ag81
aa(lp2979
g56
ag118
aa(lp2980
g57
ag127
aa(lp2981
g58
ag102
aa(lp2982
g59
ag137
aatp2983
Rp2984
ag2452
((lp2985
(lp2986
g49
ag570
aa(lp2987
g50
ag564
aa(lp2988
g51
ag115
aa(lp2989
g52
ag563
aa(lp2990
g53
ag99
aa(lp2991
g54
ag126
aa(lp2992
g55
ag81
aa(lp2993
g56
ag118
aa(lp2994
g57
ag127
aa(lp2995
g58
ag102
aa(lp2996
g59
ag137
aatp2997
Rp2998
ag2452
((lp2999
(lp3000
g49
ag745
aa(lp3001
g50
ag739
aa(lp3002
g51
ag73
aa(lp3003
g52
ag563
aa(lp3004
g53
ag99
aa(lp3005
g54
ag126
aa(lp3006
g55
ag81
aa(lp3007
g56
ag118
aa(lp3008
g57
ag127
aa(lp3009
g58
ag102
aa(lp3010
g59
ag137
aatp3011
Rp3012
ag2452
((lp3013
(lp3014
g49
ag692
aa(lp3015
g50
ag686
aa(lp3016
g51
ag134
aa(lp3017
g52
ag332
aa(lp3018
g53
ag99
aa(lp3019
g54
ag87
aa(lp3020
g55
ag81
aa(lp3021
g56
ag78
aa(lp3022
g57
ag88
aa(lp3023
g58
ag102
aa(lp3024
g59
ag137
aatp3025
Rp3026
ag2452
((lp3027
(lp3028
g49
ag2044
aa(lp3029
g50
ag2038
aa(lp3030
g51
ag95
aa(lp3031
g52
ag332
aa(lp3032
g53
ag99
aa(lp3033
g54
ag87
aa(lp3034
g55
ag81
aa(lp3035
g56
ag78
aa(lp3036
g57
ag88
aa(lp3037
g58
ag102
aa(lp3038
g59
ag137
aatp3039
Rp3040
ag2452
((lp3041
(lp3042
g49
ag339
aa(lp3043
g50
ag333
aa(lp3044
g51
ag115
aa(lp3045
g52
ag332
aa(lp3046
g53
ag99
aa(lp3047
g54
ag87
aa(lp3048
g55
ag81
aa(lp3049
g56
ag78
aa(lp3050
g57
ag88
aa(lp3051
g58
ag102
aa(lp3052
g59
ag137
aatp3053
Rp3054
ag2452
((lp3055
(lp3056
g49
ag1416
aa(lp3057
g50
ag1410
aa(lp3058
g51
ag73
aa(lp3059
g52
ag332
aa(lp3060
g53
ag99
aa(lp3061
g54
ag87
aa(lp3062
g55
ag81
aa(lp3063
g56
ag78
aa(lp3064
g57
ag88
aa(lp3065
g58
ag102
aa(lp3066
g59
ag137
aatp3067
Rp3068
ag2452
((lp3069
(lp3070
g49
ag1731
aa(lp3071
g50
ag1725
aa(lp3072
g51
ag134
aa(lp3073
g52
ag360
aa(lp3074
g53
ag99
aa(lp3075
g54
ag107
aa(lp3076
g55
ag81
aa(lp3077
g56
ag78
aa(lp3078
g57
ag108
aa(lp3079
g58
ag102
aa(lp3080
g59
ag137
aatp3081
Rp3082
ag2452
((lp3083
(lp3084
g49
ag1168
aa(lp3085
g50
ag1162
aa(lp3086
g51
ag95
aa(lp3087
g52
ag360
aa(lp3088
g53
ag99
aa(lp3089
g54
ag107
aa(lp3090
g55
ag81
aa(lp3091
g56
ag78
aa(lp3092
g57
ag108
aa(lp3093
g58
ag102
aa(lp3094
g59
ag137
aatp3095
Rp3096
ag2452
((lp3097
(lp3098
g49
ag488
aa(lp3099
g50
ag482
aa(lp3100
g51
ag115
aa(lp3101
g52
ag360
aa(lp3102
g53
ag99
aa(lp3103
g54
ag107
aa(lp3104
g55
ag81
aa(lp3105
g56
ag78
aa(lp3106
g57
ag108
aa(lp3107
g58
ag102
aa(lp3108
g59
ag137
aatp3109
Rp3110
ag2452
((lp3111
(lp3112
g49
ag367
aa(lp3113
g50
ag361
aa(lp3114
g51
ag73
aa(lp3115
g52
ag360
aa(lp3116
g53
ag99
aa(lp3117
g54
ag107
aa(lp3118
g55
ag81
aa(lp3119
g56
ag78
aa(lp3120
g57
ag108
aa(lp3121
g58
ag102
aa(lp3122
g59
ag137
aatp3123
Rp3124
ag2452
((lp3125
(lp3126
g49
ag2096
aa(lp3127
g50
ag2090
aa(lp3128
g51
ag134
aa(lp3129
g52
ag845
aa(lp3130
g53
ag99
aa(lp3131
g54
ag145
aa(lp3132
g55
ag81
aa(lp3133
g56
ag138
aa(lp3134
g57
ag146
aa(lp3135
g58
ag102
aa(lp3136
g59
ag137
aatp3137
Rp3138
ag2452
((lp3139
(lp3140
g49
ag1076
aa(lp3141
g50
ag1070
aa(lp3142
g51
ag95
aa(lp3143
g52
ag845
aa(lp3144
g53
ag99
aa(lp3145
g54
ag145
aa(lp3146
g55
ag81
aa(lp3147
g56
ag138
aa(lp3148
g57
ag146
aa(lp3149
g58
ag102
aa(lp3150
g59
ag137
aatp3151
Rp3152
ag2452
((lp3153
(lp3154
g49
ag852
aa(lp3155
g50
ag846
aa(lp3156
g51
ag115
aa(lp3157
g52
ag845
aa(lp3158
g53
ag99
aa(lp3159
g54
ag145
aa(lp3160
g55
ag81
aa(lp3161
g56
ag138
aa(lp3162
g57
ag146
aa(lp3163
g58
ag102
aa(lp3164
g59
ag137
aatp3165
Rp3166
ag2452
((lp3167
(lp3168
g49
ag2252
aa(lp3169
g50
ag2246
aa(lp3170
g51
ag73
aa(lp3171
g52
ag845
aa(lp3172
g53
ag99
aa(lp3173
g54
ag145
aa(lp3174
g55
ag81
aa(lp3175
g56
ag138
aa(lp3176
g57
ag146
aa(lp3177
g58
ag102
aa(lp3178
g59
ag137
aatp3179
Rp3180
ag2452
((lp3181
(lp3182
g49
ag311
aa(lp3183
g50
ag305
aa(lp3184
g51
ag134
aa(lp3185
g52
ag304
aa(lp3186
g53
ag99
aa(lp3187
g54
ag189
aa(lp3188
g55
ag81
aa(lp3189
g56
ag138
aa(lp3190
g57
ag108
aa(lp3191
g58
ag102
aa(lp3192
g59
ag137
aatp3193
Rp3194
ag2452
((lp3195
(lp3196
g49
ag2330
aa(lp3197
g50
ag2324
aa(lp3198
g51
ag95
aa(lp3199
g52
ag304
aa(lp3200
g53
ag99
aa(lp3201
g54
ag189
aa(lp3202
g55
ag81
aa(lp3203
g56
ag138
aa(lp3204
g57
ag108
aa(lp3205
g58
ag102
aa(lp3206
g59
ag137
aatp3207
Rp3208
ag2452
((lp3209
(lp3210
g49
ag556
aa(lp3211
g50
ag550
aa(lp3212
g51
ag115
aa(lp3213
g52
ag304
aa(lp3214
g53
ag99
aa(lp3215
g54
ag189
aa(lp3216
g55
ag81
aa(lp3217
g56
ag138
aa(lp3218
g57
ag108
aa(lp3219
g58
ag102
aa(lp3220
g59
ag137
aatp3221
Rp3222
ag2452
((lp3223
(lp3224
g49
ag2278
aa(lp3225
g50
ag2272
aa(lp3226
g51
ag73
aa(lp3227
g52
ag304
aa(lp3228
g53
ag99
aa(lp3229
g54
ag189
aa(lp3230
g55
ag81
aa(lp3231
g56
ag138
aa(lp3232
g57
ag108
aa(lp3233
g58
ag102
aa(lp3234
g59
ag137
aatp3235
Rp3236
ag2452
((lp3237
(lp3238
g49
ag946
aa(lp3239
g50
ag940
aa(lp3240
g51
ag134
aa(lp3241
g52
ag114
aa(lp3242
g53
ag77
aa(lp3243
g54
ag126
aa(lp3244
g55
ag99
aa(lp3245
g56
ag118
aa(lp3246
g57
ag127
aa(lp3247
g58
ag121
aa(lp3248
g59
ag98
aatp3249
Rp3250
ag2452
((lp3251
(lp3252
g49
ag1573
aa(lp3253
g50
ag1567
aa(lp3254
g51
ag95
aa(lp3255
g52
ag114
aa(lp3256
g53
ag77
aa(lp3257
g54
ag126
aa(lp3258
g55
ag99
aa(lp3259
g56
ag118
aa(lp3260
g57
ag127
aa(lp3261
g58
ag121
aa(lp3262
g59
ag98
aatp3263
Rp3264
ag2452
((lp3265
(lp3266
g49
ag124
aa(lp3267
g50
ag116
aa(lp3268
g51
ag115
aa(lp3269
g52
ag114
aa(lp3270
g53
ag77
aa(lp3271
g54
ag126
aa(lp3272
g55
ag99
aa(lp3273
g56
ag118
aa(lp3274
g57
ag127
aa(lp3275
g58
ag121
aa(lp3276
g59
ag98
aatp3277
Rp3278
ag2452
((lp3279
(lp3280
g49
ag1312
aa(lp3281
g50
ag1306
aa(lp3282
g51
ag73
aa(lp3283
g52
ag114
aa(lp3284
g53
ag77
aa(lp3285
g54
ag126
aa(lp3286
g55
ag99
aa(lp3287
g56
ag118
aa(lp3288
g57
ag127
aa(lp3289
g58
ag121
aa(lp3290
g59
ag98
aatp3291
Rp3292
ag2452
((lp3293
(lp3294
g49
ag1875
aa(lp3295
g50
ag1869
aa(lp3296
g51
ag134
aa(lp3297
g52
ag236
aa(lp3298
g53
ag77
aa(lp3299
g54
ag87
aa(lp3300
g55
ag99
aa(lp3301
g56
ag78
aa(lp3302
g57
ag88
aa(lp3303
g58
ag121
aa(lp3304
g59
ag98
aatp3305
Rp3306
ag2452
((lp3307
(lp3308
g49
ag1481
aa(lp3309
g50
ag1475
aa(lp3310
g51
ag95
aa(lp3311
g52
ag236
aa(lp3312
g53
ag77
aa(lp3313
g54
ag87
aa(lp3314
g55
ag99
aa(lp3315
g56
ag78
aa(lp3316
g57
ag88
aa(lp3317
g58
ag121
aa(lp3318
g59
ag98
aatp3319
Rp3320
ag2452
((lp3321
(lp3322
g49
ag2018
aa(lp3323
g50
ag2012
aa(lp3324
g51
ag115
aa(lp3325
g52
ag236
aa(lp3326
g53
ag77
aa(lp3327
g54
ag87
aa(lp3328
g55
ag99
aa(lp3329
g56
ag78
aa(lp3330
g57
ag88
aa(lp3331
g58
ag121
aa(lp3332
g59
ag98
aatp3333
Rp3334
ag2452
((lp3335
(lp3336
g49
ag243
aa(lp3337
g50
ag237
aa(lp3338
g51
ag73
aa(lp3339
g52
ag236
aa(lp3340
g53
ag77
aa(lp3341
g54
ag87
aa(lp3342
g55
ag99
aa(lp3343
g56
ag78
aa(lp3344
g57
ag88
aa(lp3345
g58
ag121
aa(lp3346
g59
ag98
aatp3347
Rp3348
ag2452
((lp3349
(lp3350
g49
ag1429
aa(lp3351
g50
ag1423
aa(lp3352
g51
ag134
aa(lp3353
g52
ag926
aa(lp3354
g53
ag77
aa(lp3355
g54
ag107
aa(lp3356
g55
ag99
aa(lp3357
g56
ag78
aa(lp3358
g57
ag108
aa(lp3359
g58
ag121
aa(lp3360
g59
ag98
aatp3361
Rp3362
ag2452
((lp3363
(lp3364
g49
ag959
aa(lp3365
g50
ag953
aa(lp3366
g51
ag95
aa(lp3367
g52
ag926
aa(lp3368
g53
ag77
aa(lp3369
g54
ag107
aa(lp3370
g55
ag99
aa(lp3371
g56
ag78
aa(lp3372
g57
ag108
aa(lp3373
g58
ag121
aa(lp3374
g59
ag98
aatp3375
Rp3376
ag2452
((lp3377
(lp3378
g49
ag933
aa(lp3379
g50
ag927
aa(lp3380
g51
ag115
aa(lp3381
g52
ag926
aa(lp3382
g53
ag77
aa(lp3383
g54
ag107
aa(lp3384
g55
ag99
aa(lp3385
g56
ag78
aa(lp3386
g57
ag108
aa(lp3387
g58
ag121
aa(lp3388
g59
ag98
aatp3389
Rp3390
ag2452
((lp3391
(lp3392
g49
ag2109
aa(lp3393
g50
ag2103
aa(lp3394
g51
ag73
aa(lp3395
g52
ag926
aa(lp3396
g53
ag77
aa(lp3397
g54
ag107
aa(lp3398
g55
ag99
aa(lp3399
g56
ag78
aa(lp3400
g57
ag108
aa(lp3401
g58
ag121
aa(lp3402
g59
ag98
aatp3403
Rp3404
ag2452
((lp3405
(lp3406
g49
ag2369
aa(lp3407
g50
ag2363
aa(lp3408
g51
ag134
aa(lp3409
g52
ag1292
aa(lp3410
g53
ag77
aa(lp3411
g54
ag145
aa(lp3412
g55
ag99
aa(lp3413
g56
ag138
aa(lp3414
g57
ag146
aa(lp3415
g58
ag121
aa(lp3416
g59
ag98
aatp3417
Rp3418
ag2452
((lp3419
(lp3420
g49
ag1468
aa(lp3421
g50
ag1462
aa(lp3422
g51
ag95
aa(lp3423
g52
ag1292
aa(lp3424
g53
ag77
aa(lp3425
g54
ag145
aa(lp3426
g55
ag99
aa(lp3427
g56
ag138
aa(lp3428
g57
ag146
aa(lp3429
g58
ag121
aa(lp3430
g59
ag98
aatp3431
Rp3432
ag2452
((lp3433
(lp3434
g49
ag1299
aa(lp3435
g50
ag1293
aa(lp3436
g51
ag115
aa(lp3437
g52
ag1292
aa(lp3438
g53
ag77
aa(lp3439
g54
ag145
aa(lp3440
g55
ag99
aa(lp3441
g56
ag138
aa(lp3442
g57
ag146
aa(lp3443
g58
ag121
aa(lp3444
g59
ag98
aatp3445
Rp3446
ag2452
((lp3447
(lp3448
g49
ag1351
aa(lp3449
g50
ag1345
aa(lp3450
g51
ag73
aa(lp3451
g52
ag1292
aa(lp3452
g53
ag77
aa(lp3453
g54
ag145
aa(lp3454
g55
ag99
aa(lp3455
g56
ag138
aa(lp3456
g57
ag146
aa(lp3457
g58
ag121
aa(lp3458
g59
ag98
aatp3459
Rp3460
ag2452
((lp3461
(lp3462
g49
ag972
aa(lp3463
g50
ag966
aa(lp3464
g51
ag134
aa(lp3465
g52
ag180
aa(lp3466
g53
ag77
aa(lp3467
g54
ag189
aa(lp3468
g55
ag99
aa(lp3469
g56
ag138
aa(lp3470
g57
ag108
aa(lp3471
g58
ag121
aa(lp3472
g59
ag98
aatp3473
Rp3474
ag2452
((lp3475
(lp3476
g49
ag380
aa(lp3477
g50
ag374
aa(lp3478
g51
ag95
aa(lp3479
g52
ag180
aa(lp3480
g53
ag77
aa(lp3481
g54
ag189
aa(lp3482
g55
ag99
aa(lp3483
g56
ag138
aa(lp3484
g57
ag108
aa(lp3485
g58
ag121
aa(lp3486
g59
ag98
aatp3487
Rp3488
ag2452
((lp3489
(lp3490
g49
ag187
aa(lp3491
g50
ag181
aa(lp3492
g51
ag115
aa(lp3493
g52
ag180
aa(lp3494
g53
ag77
aa(lp3495
g54
ag189
aa(lp3496
g55
ag99
aa(lp3497
g56
ag138
aa(lp3498
g57
ag108
aa(lp3499
g58
ag121
aa(lp3500
g59
ag98
aatp3501
Rp3502
ag2452
((lp3503
(lp3504
g49
ag1115
aa(lp3505
g50
ag1109
aa(lp3506
g51
ag73
aa(lp3507
g52
ag180
aa(lp3508
g53
ag77
aa(lp3509
g54
ag189
aa(lp3510
g55
ag99
aa(lp3511
g56
ag138
aa(lp3512
g57
ag108
aa(lp3513
g58
ag121
aa(lp3514
g59
ag98
aatp3515
Rp3516
ag2452
((lp3517
(lp3518
g49
ag297
aa(lp3519
g50
ag291
aa(lp3520
g51
ag134
aa(lp3521
g52
ag152
aa(lp3522
g53
ag77
aa(lp3523
g54
ag126
aa(lp3524
g55
ag77
aa(lp3525
g56
ag118
aa(lp3526
g57
ag127
aa(lp3527
g58
ag121
aa(lp3528
g59
ag76
aatp3529
Rp3530
ag2452
((lp3531
(lp3532
g49
ag865
aa(lp3533
g50
ag859
aa(lp3534
g51
ag95
aa(lp3535
g52
ag152
aa(lp3536
g53
ag77
aa(lp3537
g54
ag126
aa(lp3538
g55
ag77
aa(lp3539
g56
ag118
aa(lp3540
g57
ag127
aa(lp3541
g58
ag121
aa(lp3542
g59
ag76
aatp3543
Rp3544
ag2452
((lp3545
(lp3546
g49
ag159
aa(lp3547
g50
ag153
aa(lp3548
g51
ag115
aa(lp3549
g52
ag152
aa(lp3550
g53
ag77
aa(lp3551
g54
ag126
aa(lp3552
g55
ag77
aa(lp3553
g56
ag118
aa(lp3554
g57
ag127
aa(lp3555
g58
ag121
aa(lp3556
g59
ag76
aatp3557
Rp3558
ag2452
((lp3559
(lp3560
g49
ag624
aa(lp3561
g50
ag618
aa(lp3562
g51
ag73
aa(lp3563
g52
ag152
aa(lp3564
g53
ag77
aa(lp3565
g54
ag126
aa(lp3566
g55
ag77
aa(lp3567
g56
ag118
aa(lp3568
g57
ag127
aa(lp3569
g58
ag121
aa(lp3570
g59
ag76
aatp3571
Rp3572
ag2452
((lp3573
(lp3574
g49
ag1024
aa(lp3575
g50
ag1018
aa(lp3576
g51
ag134
aa(lp3577
g52
ag401
aa(lp3578
g53
ag77
aa(lp3579
g54
ag87
aa(lp3580
g55
ag77
aa(lp3581
g56
ag78
aa(lp3582
g57
ag88
aa(lp3583
g58
ag121
aa(lp3584
g59
ag76
aatp3585
Rp3586
ag2452
((lp3587
(lp3588
g49
ag1403
aa(lp3589
g50
ag1397
aa(lp3590
g51
ag95
aa(lp3591
g52
ag401
aa(lp3592
g53
ag77
aa(lp3593
g54
ag87
aa(lp3594
g55
ag77
aa(lp3595
g56
ag78
aa(lp3596
g57
ag88
aa(lp3597
g58
ag121
aa(lp3598
g59
ag76
aatp3599
Rp3600
ag2452
((lp3601
(lp3602
g49
ag985
aa(lp3603
g50
ag979
aa(lp3604
g51
ag115
aa(lp3605
g52
ag401
aa(lp3606
g53
ag77
aa(lp3607
g54
ag87
aa(lp3608
g55
ag77
aa(lp3609
g56
ag78
aa(lp3610
g57
ag88
aa(lp3611
g58
ag121
aa(lp3612
g59
ag76
aatp3613
Rp3614
ag2452
((lp3615
(lp3616
g49
ag408
aa(lp3617
g50
ag402
aa(lp3618
g51
ag73
aa(lp3619
g52
ag401
aa(lp3620
g53
ag77
aa(lp3621
g54
ag87
aa(lp3622
g55
ag77
aa(lp3623
g56
ag78
aa(lp3624
g57
ag88
aa(lp3625
g58
ag121
aa(lp3626
g59
ag76
aatp3627
Rp3628
ag2452
((lp3629
(lp3630
g49
ag2265
aa(lp3631
g50
ag2259
aa(lp3632
g51
ag134
aa(lp3633
g52
ag1777
aa(lp3634
g53
ag77
aa(lp3635
g54
ag107
aa(lp3636
g55
ag77
aa(lp3637
g56
ag78
aa(lp3638
g57
ag108
aa(lp3639
g58
ag121
aa(lp3640
g59
ag76
aatp3641
Rp3642
ag2452
((lp3643
(lp3644
g49
ag2122
aa(lp3645
g50
ag2116
aa(lp3646
g51
ag95
aa(lp3647
g52
ag1777
aa(lp3648
g53
ag77
aa(lp3649
g54
ag107
aa(lp3650
g55
ag77
aa(lp3651
g56
ag78
aa(lp3652
g57
ag108
aa(lp3653
g58
ag121
aa(lp3654
g59
ag76
aatp3655
Rp3656
ag2452
((lp3657
(lp3658
g49
ag2187
aa(lp3659
g50
ag2181
aa(lp3660
g51
ag115
aa(lp3661
g52
ag1777
aa(lp3662
g53
ag77
aa(lp3663
g54
ag107
aa(lp3664
g55
ag77
aa(lp3665
g56
ag78
aa(lp3666
g57
ag108
aa(lp3667
g58
ag121
aa(lp3668
g59
ag76
aatp3669
Rp3670
ag2452
((lp3671
(lp3672
g49
ag1784
aa(lp3673
g50
ag1778
aa(lp3674
g51
ag73
aa(lp3675
g52
ag1777
aa(lp3676
g53
ag77
aa(lp3677
g54
ag107
aa(lp3678
g55
ag77
aa(lp3679
g56
ag78
aa(lp3680
g57
ag108
aa(lp3681
g58
ag121
aa(lp3682
g59
ag76
aatp3683
Rp3684
ag2452
((lp3685
(lp3686
g49
ag543
aa(lp3687
g50
ag537
aa(lp3688
g51
ag134
aa(lp3689
g52
ag536
aa(lp3690
g53
ag77
aa(lp3691
g54
ag145
aa(lp3692
g55
ag77
aa(lp3693
g56
ag138
aa(lp3694
g57
ag146
aa(lp3695
g58
ag121
aa(lp3696
g59
ag76
aatp3697
Rp3698
ag2452
((lp3699
(lp3700
g49
ag1259
aa(lp3701
g50
ag1253
aa(lp3702
g51
ag95
aa(lp3703
g52
ag536
aa(lp3704
g53
ag77
aa(lp3705
g54
ag145
aa(lp3706
g55
ag77
aa(lp3707
g56
ag138
aa(lp3708
g57
ag146
aa(lp3709
g58
ag121
aa(lp3710
g59
ag76
aatp3711
Rp3712
ag2452
((lp3713
(lp3714
g49
ag597
aa(lp3715
g50
ag591
aa(lp3716
g51
ag115
aa(lp3717
g52
ag536
aa(lp3718
g53
ag77
aa(lp3719
g54
ag145
aa(lp3720
g55
ag77
aa(lp3721
g56
ag138
aa(lp3722
g57
ag146
aa(lp3723
g58
ag121
aa(lp3724
g59
ag76
aatp3725
Rp3726
ag2452
((lp3727
(lp3728
g49
ag1705
aa(lp3729
g50
ag1699
aa(lp3730
g51
ag73
aa(lp3731
g52
ag536
aa(lp3732
g53
ag77
aa(lp3733
g54
ag145
aa(lp3734
g55
ag77
aa(lp3735
g56
ag138
aa(lp3736
g57
ag146
aa(lp3737
g58
ag121
aa(lp3738
g59
ag76
aatp3739
Rp3740
ag2452
((lp3741
(lp3742
g49
ag2031
aa(lp3743
g50
ag2025
aa(lp3744
g51
ag134
aa(lp3745
g52
ag346
aa(lp3746
g53
ag77
aa(lp3747
g54
ag189
aa(lp3748
g55
ag77
aa(lp3749
g56
ag138
aa(lp3750
g57
ag108
aa(lp3751
g58
ag121
aa(lp3752
g59
ag76
aatp3753
Rp3754
ag2452
((lp3755
(lp3756
g49
ag1560
aa(lp3757
g50
ag1554
aa(lp3758
g51
ag95
aa(lp3759
g52
ag346
aa(lp3760
g53
ag77
aa(lp3761
g54
ag189
aa(lp3762
g55
ag77
aa(lp3763
g56
ag138
aa(lp3764
g57
ag108
aa(lp3765
g58
ag121
aa(lp3766
g59
ag76
aatp3767
Rp3768
ag2452
((lp3769
(lp3770
g49
ag1901
aa(lp3771
g50
ag1895
aa(lp3772
g51
ag115
aa(lp3773
g52
ag346
aa(lp3774
g53
ag77
aa(lp3775
g54
ag189
aa(lp3776
g55
ag77
aa(lp3777
g56
ag138
aa(lp3778
g57
ag108
aa(lp3779
g58
ag121
aa(lp3780
g59
ag76
aatp3781
Rp3782
ag2452
((lp3783
(lp3784
g49
ag353
aa(lp3785
g50
ag347
aa(lp3786
g51
ag73
aa(lp3787
g52
ag346
aa(lp3788
g53
ag77
aa(lp3789
g54
ag189
aa(lp3790
g55
ag77
aa(lp3791
g56
ag138
aa(lp3792
g57
ag108
aa(lp3793
g58
ag121
aa(lp3794
g59
ag76
aatp3795
Rp3796
ag2452
((lp3797
(lp3798
g49
ag705
aa(lp3799
g50
ag699
aa(lp3800
g51
ag134
aa(lp3801
g52
ag277
aa(lp3802
g53
ag77
aa(lp3803
g54
ag126
aa(lp3804
g55
ag81
aa(lp3805
g56
ag118
aa(lp3806
g57
ag127
aa(lp3807
g58
ag121
aa(lp3808
g59
ag137
aatp3809
Rp3810
ag2452
((lp3811
(lp3812
g49
ag1011
aa(lp3813
g50
ag1005
aa(lp3814
g51
ag95
aa(lp3815
g52
ag277
aa(lp3816
g53
ag77
aa(lp3817
g54
ag126
aa(lp3818
g55
ag81
aa(lp3819
g56
ag118
aa(lp3820
g57
ag127
aa(lp3821
g58
ag121
aa(lp3822
g59
ag137
aatp3823
Rp3824
ag2452
((lp3825
(lp3826
g49
ag284
aa(lp3827
g50
ag278
aa(lp3828
g51
ag115
aa(lp3829
g52
ag277
aa(lp3830
g53
ag77
aa(lp3831
g54
ag126
aa(lp3832
g55
ag81
aa(lp3833
g56
ag118
aa(lp3834
g57
ag127
aa(lp3835
g58
ag121
aa(lp3836
g59
ag137
aatp3837
Rp3838
ag2452
((lp3839
(lp3840
g49
ag448
aa(lp3841
g50
ag442
aa(lp3842
g51
ag73
aa(lp3843
g52
ag277
aa(lp3844
g53
ag77
aa(lp3845
g54
ag126
aa(lp3846
g55
ag81
aa(lp3847
g56
ag118
aa(lp3848
g57
ag127
aa(lp3849
g58
ag121
aa(lp3850
g59
ag137
aatp3851
Rp3852
ag2452
((lp3853
(lp3854
g49
ag1612
aa(lp3855
g50
ag1606
aa(lp3856
g51
ag134
aa(lp3857
g52
ag712
aa(lp3858
g53
ag77
aa(lp3859
g54
ag87
aa(lp3860
g55
ag81
aa(lp3861
g56
ag78
aa(lp3862
g57
ag88
aa(lp3863
g58
ag121
aa(lp3864
g59
ag137
aatp3865
Rp3866
ag2452
((lp3867
(lp3868
g49
ag719
aa(lp3869
g50
ag713
aa(lp3870
g51
ag95
aa(lp3871
g52
ag712
aa(lp3872
g53
ag77
aa(lp3873
g54
ag87
aa(lp3874
g55
ag81
aa(lp3875
g56
ag78
aa(lp3876
g57
ag88
aa(lp3877
g58
ag121
aa(lp3878
g59
ag137
aatp3879
Rp3880
ag2452
((lp3881
(lp3882
g49
ag905
aa(lp3883
g50
ag899
aa(lp3884
g51
ag115
aa(lp3885
g52
ag712
aa(lp3886
g53
ag77
aa(lp3887
g54
ag87
aa(lp3888
g55
ag81
aa(lp3889
g56
ag78
aa(lp3890
g57
ag88
aa(lp3891
g58
ag121
aa(lp3892
g59
ag137
aatp3893
Rp3894
ag2452
((lp3895
(lp3896
g49
ag1966
aa(lp3897
g50
ag1960
aa(lp3898
g51
ag73
aa(lp3899
g52
ag712
aa(lp3900
g53
ag77
aa(lp3901
g54
ag87
aa(lp3902
g55
ag81
aa(lp3903
g56
ag78
aa(lp3904
g57
ag88
aa(lp3905
g58
ag121
aa(lp3906
g59
ag137
aatp3907
Rp3908
ag2452
((lp3909
(lp3910
g49
ag919
aa(lp3911
g50
ag913
aa(lp3912
g51
ag134
aa(lp3913
g52
ag912
aa(lp3914
g53
ag77
aa(lp3915
g54
ag107
aa(lp3916
g55
ag81
aa(lp3917
g56
ag78
aa(lp3918
g57
ag108
aa(lp3919
g58
ag121
aa(lp3920
g59
ag137
aatp3921
Rp3922
ag2452
((lp3923
(lp3924
g49
ag2148
aa(lp3925
g50
ag2142
aa(lp3926
g51
ag95
aa(lp3927
g52
ag912
aa(lp3928
g53
ag77
aa(lp3929
g54
ag107
aa(lp3930
g55
ag81
aa(lp3931
g56
ag78
aa(lp3932
g57
ag108
aa(lp3933
g58
ag121
aa(lp3934
g59
ag137
aatp3935
Rp3936
ag2452
((lp3937
(lp3938
g49
ag1638
aa(lp3939
g50
ag1632
aa(lp3940
g51
ag115
aa(lp3941
g52
ag912
aa(lp3942
g53
ag77
aa(lp3943
g54
ag107
aa(lp3944
g55
ag81
aa(lp3945
g56
ag78
aa(lp3946
g57
ag108
aa(lp3947
g58
ag121
aa(lp3948
g59
ag137
aatp3949
Rp3950
ag2452
((lp3951
(lp3952
g49
ag2070
aa(lp3953
g50
ag2064
aa(lp3954
g51
ag73
aa(lp3955
g52
ag912
aa(lp3956
g53
ag77
aa(lp3957
g54
ag107
aa(lp3958
g55
ag81
aa(lp3959
g56
ag78
aa(lp3960
g57
ag108
aa(lp3961
g58
ag121
aa(lp3962
g59
ag137
aatp3963
Rp3964
ag2452
((lp3965
(lp3966
g49
ag758
aa(lp3967
g50
ag752
aa(lp3968
g51
ag134
aa(lp3969
g52
ag318
aa(lp3970
g53
ag77
aa(lp3971
g54
ag145
aa(lp3972
g55
ag81
aa(lp3973
g56
ag138
aa(lp3974
g57
ag146
aa(lp3975
g58
ag121
aa(lp3976
g59
ag137
aatp3977
Rp3978
ag2452
((lp3979
(lp3980
g49
ag2317
aa(lp3981
g50
ag2311
aa(lp3982
g51
ag95
aa(lp3983
g52
ag318
aa(lp3984
g53
ag77
aa(lp3985
g54
ag145
aa(lp3986
g55
ag81
aa(lp3987
g56
ag138
aa(lp3988
g57
ag146
aa(lp3989
g58
ag121
aa(lp3990
g59
ag137
aatp3991
Rp3992
ag2452
((lp3993
(lp3994
g49
ag1547
aa(lp3995
g50
ag1541
aa(lp3996
g51
ag115
aa(lp3997
g52
ag318
aa(lp3998
g53
ag77
aa(lp3999
g54
ag145
aa(lp4000
g55
ag81
aa(lp4001
g56
ag138
aa(lp4002
g57
ag146
aa(lp4003
g58
ag121
aa(lp4004
g59
ag137
aatp4005
Rp4006
ag2452
((lp4007
(lp4008
g49
ag325
aa(lp4009
g50
ag319
aa(lp4010
g51
ag73
aa(lp4011
g52
ag318
aa(lp4012
g53
ag77
aa(lp4013
g54
ag145
aa(lp4014
g55
ag81
aa(lp4015
g56
ag138
aa(lp4016
g57
ag146
aa(lp4017
g58
ag121
aa(lp4018
g59
ag137
aatp4019
Rp4020
ag2452
((lp4021
(lp4022
g49
ag1272
aa(lp4023
g50
ag1266
aa(lp4024
g51
ag134
aa(lp4025
g52
ag250
aa(lp4026
g53
ag77
aa(lp4027
g54
ag189
aa(lp4028
g55
ag81
aa(lp4029
g56
ag138
aa(lp4030
g57
ag108
aa(lp4031
g58
ag121
aa(lp4032
g59
ag137
aatp4033
Rp4034
ag2452
((lp4035
(lp4036
g49
ag838
aa(lp4037
g50
ag832
aa(lp4038
g51
ag95
aa(lp4039
g52
ag250
aa(lp4040
g53
ag77
aa(lp4041
g54
ag189
aa(lp4042
g55
ag81
aa(lp4043
g56
ag138
aa(lp4044
g57
ag108
aa(lp4045
g58
ag121
aa(lp4046
g59
ag137
aatp4047
Rp4048
ag2452
((lp4049
(lp4050
g49
ag515
aa(lp4051
g50
ag509
aa(lp4052
g51
ag115
aa(lp4053
g52
ag250
aa(lp4054
g53
ag77
aa(lp4055
g54
ag189
aa(lp4056
g55
ag81
aa(lp4057
g56
ag138
aa(lp4058
g57
ag108
aa(lp4059
g58
ag121
aa(lp4060
g59
ag137
aatp4061
Rp4062
ag2452
((lp4063
(lp4064
g49
ag257
aa(lp4065
g50
ag251
aa(lp4066
g51
ag73
aa(lp4067
g52
ag250
aa(lp4068
g53
ag77
aa(lp4069
g54
ag189
aa(lp4070
g55
ag81
aa(lp4071
g56
ag138
aa(lp4072
g57
ag108
aa(lp4073
g58
ag121
aa(lp4074
g59
ag137
aatp4075
Rp4076
ag2452
((lp4077
(lp4078
g49
ag1155
aa(lp4079
g50
ag1149
aa(lp4080
g51
ag134
aa(lp4081
g52
ag631
aa(lp4082
g53
ag81
aa(lp4083
g54
ag126
aa(lp4084
g55
ag99
aa(lp4085
g56
ag118
aa(lp4086
g57
ag127
aa(lp4087
g58
ag82
aa(lp4088
g59
ag98
aatp4089
Rp4090
ag2452
((lp4091
(lp4092
g49
ag638
aa(lp4093
g50
ag632
aa(lp4094
g51
ag95
aa(lp4095
g52
ag631
aa(lp4096
g53
ag81
aa(lp4097
g54
ag126
aa(lp4098
g55
ag99
aa(lp4099
g56
ag118
aa(lp4100
g57
ag127
aa(lp4101
g58
ag82
aa(lp4102
g59
ag98
aatp4103
Rp4104
ag2452
((lp4105
(lp4106
g49
ag1128
aa(lp4107
g50
ag1122
aa(lp4108
g51
ag115
aa(lp4109
g52
ag631
aa(lp4110
g53
ag81
aa(lp4111
g54
ag126
aa(lp4112
g55
ag99
aa(lp4113
g56
ag118
aa(lp4114
g57
ag127
aa(lp4115
g58
ag82
aa(lp4116
g59
ag98
aatp4117
Rp4118
ag2452
((lp4119
(lp4120
g49
ag1455
aa(lp4121
g50
ag1449
aa(lp4122
g51
ag73
aa(lp4123
g52
ag631
aa(lp4124
g53
ag81
aa(lp4125
g54
ag126
aa(lp4126
g55
ag99
aa(lp4127
g56
ag118
aa(lp4128
g57
ag127
aa(lp4129
g58
ag82
aa(lp4130
g59
ag98
aatp4131
Rp4132
ag2452
((lp4133
(lp4134
g49
ag1233
aa(lp4135
g50
ag1227
aa(lp4136
g51
ag134
aa(lp4137
g52
ag495
aa(lp4138
g53
ag81
aa(lp4139
g54
ag87
aa(lp4140
g55
ag99
aa(lp4141
g56
ag78
aa(lp4142
g57
ag88
aa(lp4143
g58
ag82
aa(lp4144
g59
ag98
aatp4145
Rp4146
ag2452
((lp4147
(lp4148
g49
ag2356
aa(lp4149
g50
ag2350
aa(lp4150
g51
ag95
aa(lp4151
g52
ag495
aa(lp4152
g53
ag81
aa(lp4153
g54
ag87
aa(lp4154
g55
ag99
aa(lp4155
g56
ag78
aa(lp4156
g57
ag88
aa(lp4157
g58
ag82
aa(lp4158
g59
ag98
aatp4159
Rp4160
ag2452
((lp4161
(lp4162
g49
ag1494
aa(lp4163
g50
ag1488
aa(lp4164
g51
ag115
aa(lp4165
g52
ag495
aa(lp4166
g53
ag81
aa(lp4167
g54
ag87
aa(lp4168
g55
ag99
aa(lp4169
g56
ag78
aa(lp4170
g57
ag88
aa(lp4171
g58
ag82
aa(lp4172
g59
ag98
aatp4173
Rp4174
ag2452
((lp4175
(lp4176
g49
ag502
aa(lp4177
g50
ag496
aa(lp4178
g51
ag73
aa(lp4179
g52
ag495
aa(lp4180
g53
ag81
aa(lp4181
g54
ag87
aa(lp4182
g55
ag99
aa(lp4183
g56
ag78
aa(lp4184
g57
ag88
aa(lp4185
g58
ag82
aa(lp4186
g59
ag98
aatp4187
Rp4188
ag2452
((lp4189
(lp4190
g49
ag529
aa(lp4191
g50
ag523
aa(lp4192
g51
ag134
aa(lp4193
g52
ag522
aa(lp4194
g53
ag81
aa(lp4195
g54
ag107
aa(lp4196
g55
ag99
aa(lp4197
g56
ag78
aa(lp4198
g57
ag108
aa(lp4199
g58
ag82
aa(lp4200
g59
ag98
aatp4201
Rp4202
ag2452
((lp4203
(lp4204
g49
ag1390
aa(lp4205
g50
ag1384
aa(lp4206
g51
ag95
aa(lp4207
g52
ag522
aa(lp4208
g53
ag81
aa(lp4209
g54
ag107
aa(lp4210
g55
ag99
aa(lp4211
g56
ag78
aa(lp4212
g57
ag108
aa(lp4213
g58
ag82
aa(lp4214
g59
ag98
aatp4215
Rp4216
ag2452
((lp4217
(lp4218
g49
ag651
aa(lp4219
g50
ag645
aa(lp4220
g51
ag115
aa(lp4221
g52
ag522
aa(lp4222
g53
ag81
aa(lp4223
g54
ag107
aa(lp4224
g55
ag99
aa(lp4225
g56
ag78
aa(lp4226
g57
ag108
aa(lp4227
g58
ag82
aa(lp4228
g59
ag98
aatp4229
Rp4230
ag2452
((lp4231
(lp4232
g49
ag2304
aa(lp4233
g50
ag2298
aa(lp4234
g51
ag73
aa(lp4235
g52
ag522
aa(lp4236
g53
ag81
aa(lp4237
g54
ag107
aa(lp4238
g55
ag99
aa(lp4239
g56
ag78
aa(lp4240
g57
ag108
aa(lp4241
g58
ag82
aa(lp4242
g59
ag98
aatp4243
Rp4244
ag2452
((lp4245
(lp4246
g49
ag1325
aa(lp4247
g50
ag1319
aa(lp4248
g51
ag134
aa(lp4249
g52
ag455
aa(lp4250
g53
ag81
aa(lp4251
g54
ag145
aa(lp4252
g55
ag99
aa(lp4253
g56
ag138
aa(lp4254
g57
ag146
aa(lp4255
g58
ag82
aa(lp4256
g59
ag98
aatp4257
Rp4258
ag2452
((lp4259
(lp4260
g49
ag462
aa(lp4261
g50
ag456
aa(lp4262
g51
ag95
aa(lp4263
g52
ag455
aa(lp4264
g53
ag81
aa(lp4265
g54
ag145
aa(lp4266
g55
ag99
aa(lp4267
g56
ag138
aa(lp4268
g57
ag146
aa(lp4269
g58
ag82
aa(lp4270
g59
ag98
aatp4271
Rp4272
ag2452
((lp4273
(lp4274
g49
ag1338
aa(lp4275
g50
ag1332
aa(lp4276
g51
ag115
aa(lp4277
g52
ag455
aa(lp4278
g53
ag81
aa(lp4279
g54
ag145
aa(lp4280
g55
ag99
aa(lp4281
g56
ag138
aa(lp4282
g57
ag146
aa(lp4283
g58
ag82
aa(lp4284
g59
ag98
aatp4285
Rp4286
ag2452
((lp4287
(lp4288
g49
ag998
aa(lp4289
g50
ag992
aa(lp4290
g51
ag73
aa(lp4291
g52
ag455
aa(lp4292
g53
ag81
aa(lp4293
g54
ag145
aa(lp4294
g55
ag99
aa(lp4295
g56
ag138
aa(lp4296
g57
ag146
aa(lp4297
g58
ag82
aa(lp4298
g59
ag98
aatp4299
Rp4300
ag2452
((lp4301
(lp4302
g49
ag202
aa(lp4303
g50
ag196
aa(lp4304
g51
ag134
aa(lp4305
g52
ag195
aa(lp4306
g53
ag81
aa(lp4307
g54
ag189
aa(lp4308
g55
ag99
aa(lp4309
g56
ag138
aa(lp4310
g57
ag108
aa(lp4311
g58
ag82
aa(lp4312
g59
ag98
aatp4313
Rp4314
ag2452
((lp4315
(lp4316
g49
ag2083
aa(lp4317
g50
ag2077
aa(lp4318
g51
ag95
aa(lp4319
g52
ag195
aa(lp4320
g53
ag81
aa(lp4321
g54
ag189
aa(lp4322
g55
ag99
aa(lp4323
g56
ag138
aa(lp4324
g57
ag108
aa(lp4325
g58
ag82
aa(lp4326
g59
ag98
aatp4327
Rp4328
ag2452
((lp4329
(lp4330
g49
ag1364
aa(lp4331
g50
ag1358
aa(lp4332
g51
ag115
aa(lp4333
g52
ag195
aa(lp4334
g53
ag81
aa(lp4335
g54
ag189
aa(lp4336
g55
ag99
aa(lp4337
g56
ag138
aa(lp4338
g57
ag108
aa(lp4339
g58
ag82
aa(lp4340
g59
ag98
aatp4341
Rp4342
ag2452
((lp4343
(lp4344
g49
ag229
aa(lp4345
g50
ag223
aa(lp4346
g51
ag73
aa(lp4347
g52
ag195
aa(lp4348
g53
ag81
aa(lp4349
g54
ag189
aa(lp4350
g55
ag99
aa(lp4351
g56
ag138
aa(lp4352
g57
ag108
aa(lp4353
g58
ag82
aa(lp4354
g59
ag98
aatp4355
Rp4356
ag2452
((lp4357
(lp4358
g49
ag665
aa(lp4359
g50
ag659
aa(lp4360
g51
ag134
aa(lp4361
g52
ag658
aa(lp4362
g53
ag81
aa(lp4363
g54
ag126
aa(lp4364
g55
ag77
aa(lp4365
g56
ag118
aa(lp4366
g57
ag127
aa(lp4367
g58
ag82
aa(lp4368
g59
ag76
aatp4369
Rp4370
ag2452
((lp4371
(lp4372
g49
ag1692
aa(lp4373
g50
ag1686
aa(lp4374
g51
ag95
aa(lp4375
g52
ag658
aa(lp4376
g53
ag81
aa(lp4377
g54
ag126
aa(lp4378
g55
ag77
aa(lp4379
g56
ag118
aa(lp4380
g57
ag127
aa(lp4381
g58
ag82
aa(lp4382
g59
ag76
aatp4383
Rp4384
ag2452
((lp4385
(lp4386
g49
ag2213
aa(lp4387
g50
ag2207
aa(lp4388
g51
ag115
aa(lp4389
g52
ag658
aa(lp4390
g53
ag81
aa(lp4391
g54
ag126
aa(lp4392
g55
ag77
aa(lp4393
g56
ag118
aa(lp4394
g57
ag127
aa(lp4395
g58
ag82
aa(lp4396
g59
ag76
aatp4397
Rp4398
ag2452
((lp4399
(lp4400
g49
ag2057
aa(lp4401
g50
ag2051
aa(lp4402
g51
ag73
aa(lp4403
g52
ag658
aa(lp4404
g53
ag81
aa(lp4405
g54
ag126
aa(lp4406
g55
ag77
aa(lp4407
g56
ag118
aa(lp4408
g57
ag127
aa(lp4409
g58
ag82
aa(lp4410
g59
ag76
aatp4411
Rp4412
ag2452
((lp4413
(lp4414
g49
ag1089
aa(lp4415
g50
ag1083
aa(lp4416
g51
ag134
aa(lp4417
g52
ag72
aa(lp4418
g53
ag81
aa(lp4419
g54
ag87
aa(lp4420
g55
ag77
aa(lp4421
g56
ag78
aa(lp4422
g57
ag88
aa(lp4423
g58
ag82
aa(lp4424
g59
ag76
aatp4425
Rp4426
ag2452
((lp4427
(lp4428
g49
ag811
aa(lp4429
g50
ag805
aa(lp4430
g51
ag95
aa(lp4431
g52
ag72
aa(lp4432
g53
ag81
aa(lp4433
g54
ag87
aa(lp4434
g55
ag77
aa(lp4435
g56
ag78
aa(lp4436
g57
ag88
aa(lp4437
g58
ag82
aa(lp4438
g59
ag76
aatp4439
Rp4440
ag2452
((lp4441
(lp4442
g49
ag1063
aa(lp4443
g50
ag1057
aa(lp4444
g51
ag115
aa(lp4445
g52
ag72
aa(lp4446
g53
ag81
aa(lp4447
g54
ag87
aa(lp4448
g55
ag77
aa(lp4449
g56
ag78
aa(lp4450
g57
ag88
aa(lp4451
g58
ag82
aa(lp4452
g59
ag76
aatp4453
Rp4454
ag2452
((lp4455
(lp4456
g49
ag85
aa(lp4457
g50
ag74
aa(lp4458
g51
ag73
aa(lp4459
g52
ag72
aa(lp4460
g53
ag81
aa(lp4461
g54
ag87
aa(lp4462
g55
ag77
aa(lp4463
g56
ag78
aa(lp4464
g57
ag88
aa(lp4465
g58
ag82
aa(lp4466
g59
ag76
aatp4467
Rp4468
ag2452
((lp4469
(lp4470
g49
ag1888
aa(lp4471
g50
ag1882
aa(lp4472
g51
ag134
aa(lp4473
g52
ag1135
aa(lp4474
g53
ag81
aa(lp4475
g54
ag107
aa(lp4476
g55
ag77
aa(lp4477
g56
ag78
aa(lp4478
g57
ag108
aa(lp4479
g58
ag82
aa(lp4480
g59
ag76
aatp4481
Rp4482
ag2452
((lp4483
(lp4484
g49
ag1586
aa(lp4485
g50
ag1580
aa(lp4486
g51
ag95
aa(lp4487
g52
ag1135
aa(lp4488
g53
ag81
aa(lp4489
g54
ag107
aa(lp4490
g55
ag77
aa(lp4491
g56
ag78
aa(lp4492
g57
ag108
aa(lp4493
g58
ag82
aa(lp4494
g59
ag76
aatp4495
Rp4496
ag2452
((lp4497
(lp4498
g49
ag1625
aa(lp4499
g50
ag1619
aa(lp4500
g51
ag115
aa(lp4501
g52
ag1135
aa(lp4502
g53
ag81
aa(lp4503
g54
ag107
aa(lp4504
g55
ag77
aa(lp4505
g56
ag78
aa(lp4506
g57
ag108
aa(lp4507
g58
ag82
aa(lp4508
g59
ag76
aatp4509
Rp4510
ag2452
((lp4511
(lp4512
g49
ag1142
aa(lp4513
g50
ag1136
aa(lp4514
g51
ag73
aa(lp4515
g52
ag1135
aa(lp4516
g53
ag81
aa(lp4517
g54
ag107
aa(lp4518
g55
ag77
aa(lp4519
g56
ag78
aa(lp4520
g57
ag108
aa(lp4521
g58
ag82
aa(lp4522
g59
ag76
aatp4523
Rp4524
ag2452
((lp4525
(lp4526
g49
ag2135
aa(lp4527
g50
ag2129
aa(lp4528
g51
ag134
aa(lp4529
g52
ag209
aa(lp4530
g53
ag81
aa(lp4531
g54
ag145
aa(lp4532
g55
ag77
aa(lp4533
g56
ag138
aa(lp4534
g57
ag146
aa(lp4535
g58
ag82
aa(lp4536
g59
ag76
aatp4537
Rp4538
ag2452
((lp4539
(lp4540
g49
ag216
aa(lp4541
g50
ag210
aa(lp4542
g51
ag95
aa(lp4543
g52
ag209
aa(lp4544
g53
ag81
aa(lp4545
g54
ag145
aa(lp4546
g55
ag77
aa(lp4547
g56
ag138
aa(lp4548
g57
ag146
aa(lp4549
g58
ag82
aa(lp4550
g59
ag76
aatp4551
Rp4552
ag2452
((lp4553
(lp4554
g49
ag270
aa(lp4555
g50
ag264
aa(lp4556
g51
ag115
aa(lp4557
g52
ag209
aa(lp4558
g53
ag81
aa(lp4559
g54
ag145
aa(lp4560
g55
ag77
aa(lp4561
g56
ag138
aa(lp4562
g57
ag146
aa(lp4563
g58
ag82
aa(lp4564
g59
ag76
aatp4565
Rp4566
ag2452
((lp4567
(lp4568
g49
ag475
aa(lp4569
g50
ag469
aa(lp4570
g51
ag73
aa(lp4571
g52
ag209
aa(lp4572
g53
ag81
aa(lp4573
g54
ag145
aa(lp4574
g55
ag77
aa(lp4575
g56
ag138
aa(lp4576
g57
ag146
aa(lp4577
g58
ag82
aa(lp4578
g59
ag76
aatp4579
Rp4580
ag2452
((lp4581
(lp4582
g49
ag879
aa(lp4583
g50
ag873
aa(lp4584
g51
ag134
aa(lp4585
g52
ag872
aa(lp4586
g53
ag81
aa(lp4587
g54
ag189
aa(lp4588
g55
ag77
aa(lp4589
g56
ag138
aa(lp4590
g57
ag108
aa(lp4591
g58
ag82
aa(lp4592
g59
ag76
aatp4593
Rp4594
ag2452
((lp4595
(lp4596
g49
ag1194
aa(lp4597
g50
ag1188
aa(lp4598
g51
ag95
aa(lp4599
g52
ag872
aa(lp4600
g53
ag81
aa(lp4601
g54
ag189
aa(lp4602
g55
ag77
aa(lp4603
g56
ag138
aa(lp4604
g57
ag108
aa(lp4605
g58
ag82
aa(lp4606
g59
ag76
aatp4607
Rp4608
ag2452
((lp4609
(lp4610
g49
ag1181
aa(lp4611
g50
ag1175
aa(lp4612
g51
ag115
aa(lp4613
g52
ag872
aa(lp4614
g53
ag81
aa(lp4615
g54
ag189
aa(lp4616
g55
ag77
aa(lp4617
g56
ag138
aa(lp4618
g57
ag108
aa(lp4619
g58
ag82
aa(lp4620
g59
ag76
aatp4621
Rp4622
ag2452
((lp4623
(lp4624
g49
ag2174
aa(lp4625
g50
ag2168
aa(lp4626
g51
ag73
aa(lp4627
g52
ag872
aa(lp4628
g53
ag81
aa(lp4629
g54
ag189
aa(lp4630
g55
ag77
aa(lp4631
g56
ag138
aa(lp4632
g57
ag108
aa(lp4633
g58
ag82
aa(lp4634
g59
ag76
aatp4635
Rp4636
ag2452
((lp4637
(lp4638
g49
ag1037
aa(lp4639
g50
ag1031
aa(lp4640
g51
ag134
aa(lp4641
g52
ag604
aa(lp4642
g53
ag81
aa(lp4643
g54
ag87
aa(lp4644
g55
ag81
aa(lp4645
g56
ag78
aa(lp4646
g57
ag88
aa(lp4647
g58
ag82
aa(lp4648
g59
ag137
aatp4649
Rp4650
ag2452
((lp4651
(lp4652
g49
ag611
aa(lp4653
g50
ag605
aa(lp4654
g51
ag95
aa(lp4655
g52
ag604
aa(lp4656
g53
ag81
aa(lp4657
g54
ag87
aa(lp4658
g55
ag81
aa(lp4659
g56
ag78
aa(lp4660
g57
ag88
aa(lp4661
g58
ag82
aa(lp4662
g59
ag137
aatp4663
Rp4664
ag2452
((lp4665
(lp4666
g49
ag1220
aa(lp4667
g50
ag1214
aa(lp4668
g51
ag115
aa(lp4669
g52
ag604
aa(lp4670
g53
ag81
aa(lp4671
g54
ag87
aa(lp4672
g55
ag81
aa(lp4673
g56
ag78
aa(lp4674
g57
ag88
aa(lp4675
g58
ag82
aa(lp4676
g59
ag137
aatp4677
Rp4678
ag2452
((lp4679
(lp4680
g49
ag1757
aa(lp4681
g50
ag1751
aa(lp4682
g51
ag73
aa(lp4683
g52
ag604
aa(lp4684
g53
ag81
aa(lp4685
g54
ag87
aa(lp4686
g55
ag81
aa(lp4687
g56
ag78
aa(lp4688
g57
ag88
aa(lp4689
g58
ag82
aa(lp4690
g59
ag137
aatp4691
Rp4692
ag2452
((lp4693
(lp4694
g49
ag1285
aa(lp4695
g50
ag1279
aa(lp4696
g51
ag134
aa(lp4697
g52
ag818
aa(lp4698
g53
ag81
aa(lp4699
g54
ag107
aa(lp4700
g55
ag81
aa(lp4701
g56
ag78
aa(lp4702
g57
ag108
aa(lp4703
g58
ag82
aa(lp4704
g59
ag137
aatp4705
Rp4706
ag2452
((lp4707
(lp4708
g49
ag1979
aa(lp4709
g50
ag1973
aa(lp4710
g51
ag95
aa(lp4711
g52
ag818
aa(lp4712
g53
ag81
aa(lp4713
g54
ag107
aa(lp4714
g55
ag81
aa(lp4715
g56
ag78
aa(lp4716
g57
ag108
aa(lp4717
g58
ag82
aa(lp4718
g59
ag137
aatp4719
Rp4720
ag2452
((lp4721
(lp4722
g49
ag825
aa(lp4723
g50
ag819
aa(lp4724
g51
ag115
aa(lp4725
g52
ag818
aa(lp4726
g53
ag81
aa(lp4727
g54
ag107
aa(lp4728
g55
ag81
aa(lp4729
g56
ag78
aa(lp4730
g57
ag108
aa(lp4731
g58
ag82
aa(lp4732
g59
ag137
aatp4733
Rp4734
ag2452
((lp4735
(lp4736
g49
ag1718
aa(lp4737
g50
ag1712
aa(lp4738
g51
ag73
aa(lp4739
g52
ag818
aa(lp4740
g53
ag81
aa(lp4741
g54
ag107
aa(lp4742
g55
ag81
aa(lp4743
g56
ag78
aa(lp4744
g57
ag108
aa(lp4745
g58
ag82
aa(lp4746
g59
ag137
aatp4747
Rp4748
ag2452
((lp4749
(lp4750
g49
ag143
aa(lp4751
g50
ag135
aa(lp4752
g51
ag134
aa(lp4753
g52
ag133
aa(lp4754
g53
ag81
aa(lp4755
g54
ag145
aa(lp4756
g55
ag81
aa(lp4757
g56
ag138
aa(lp4758
g57
ag146
aa(lp4759
g58
ag82
aa(lp4760
g59
ag137
aatp4761
Rp4762
ag2452
((lp4763
(lp4764
g49
ag784
aa(lp4765
g50
ag778
aa(lp4766
g51
ag95
aa(lp4767
g52
ag133
aa(lp4768
g53
ag81
aa(lp4769
g54
ag145
aa(lp4770
g55
ag81
aa(lp4771
g56
ag138
aa(lp4772
g57
ag146
aa(lp4773
g58
ag82
aa(lp4774
g59
ag137
aatp4775
Rp4776
ag2452
((lp4777
(lp4778
g49
ag421
aa(lp4779
g50
ag415
aa(lp4780
g51
ag115
aa(lp4781
g52
ag133
aa(lp4782
g53
ag81
aa(lp4783
g54
ag145
aa(lp4784
g55
ag81
aa(lp4785
g56
ag138
aa(lp4786
g57
ag146
aa(lp4787
g58
ag82
aa(lp4788
g59
ag137
aatp4789
Rp4790
ag2452
((lp4791
(lp4792
g49
ag892
aa(lp4793
g50
ag886
aa(lp4794
g51
ag73
aa(lp4795
g52
ag133
aa(lp4796
g53
ag81
aa(lp4797
g54
ag145
aa(lp4798
g55
ag81
aa(lp4799
g56
ag138
aa(lp4800
g57
ag146
aa(lp4801
g58
ag82
aa(lp4802
g59
ag137
aatp4803
Rp4804
ag2452
((lp4805
(lp4806
g49
ag771
aa(lp4807
g50
ag765
aa(lp4808
g51
ag134
aa(lp4809
g52
ag387
aa(lp4810
g53
ag81
aa(lp4811
g54
ag189
aa(lp4812
g55
ag81
aa(lp4813
g56
ag138
aa(lp4814
g57
ag108
aa(lp4815
g58
ag82
aa(lp4816
g59
ag137
aatp4817
Rp4818
ag2452
((lp4819
(lp4820
g49
ag732
aa(lp4821
g50
ag726
aa(lp4822
g51
ag95
aa(lp4823
g52
ag387
aa(lp4824
g53
ag81
aa(lp4825
g54
ag189
aa(lp4826
g55
ag81
aa(lp4827
g56
ag138
aa(lp4828
g57
ag108
aa(lp4829
g58
ag82
aa(lp4830
g59
ag137
aatp4831
Rp4832
ag2452
((lp4833
(lp4834
g49
ag1050
aa(lp4835
g50
ag1044
aa(lp4836
g51
ag115
aa(lp4837
g52
ag387
aa(lp4838
g53
ag81
aa(lp4839
g54
ag189
aa(lp4840
g55
ag81
aa(lp4841
g56
ag138
aa(lp4842
g57
ag108
aa(lp4843
g58
ag82
aa(lp4844
g59
ag137
aatp4845
Rp4846
ag2452
((lp4847
(lp4848
g49
ag394
aa(lp4849
g50
ag388
aa(lp4850
g51
ag73
aa(lp4851
g52
ag387
aa(lp4852
g53
ag81
aa(lp4853
g54
ag189
aa(lp4854
g55
ag81
aa(lp4855
g56
ag138
aa(lp4856
g57
ag108
aa(lp4857
g58
ag82
aa(lp4858
g59
ag137
aatp4859
Rp4860
asS'seed'
p4861
NsS'thisIndex'
p4862
g2362
sS'thisN'
p4863
I172
sS'thisTrialN'
p4864
I0
sS'nTotal'
p4865
I172
sbasS'savePickle'
p4866
I00
sb.