ccopy_reg
_reconstructor
p0
(cpsychopy.data.experiment
ExperimentHandler
p1
c__builtin__
object
p2
Ntp3
Rp4
(dp5
S'originPath'
p6
V/Users/stefano/GitHub/phd-project/italian-egg/experiment/italian-egg.psyexp
p7
sS'dataFileName'
p8
V/Users/stefano/GitHub/phd-project/italian-egg/experiment/results/it11_italian-egg_2018_Aug_23_1615
p9
sS'runtimeInfo'
p10
NsS'name'
p11
S'italian-egg'
p12
sS'dataNames'
p13
(lp14
S'key_resp_2.keys'
p15
aS'key_resp_2.rt'
p16
asS'autoLog'
p17
I01
sS'extraInfo'
p18
(dp19
S'date'
p20
V2018_Aug_23_1615
p21
sS'frameRate'
p22
cnumpy.core.multiarray
scalar
p23
(cnumpy
dtype
p24
(S'f8'
p25
I0
I1
tp26
Rp27
(I3
S'<'
p28
NNNI-1
I-1
I0
tp29
bS'_\xcb\xddC\xfd6N@'
p30
tp31
Rp32
sS'expName'
p33
g12
sVparticipant
p34
g0
(cfuture.types.newstr
newstr
p35
c__builtin__
unicode
p36
Vit11
p37
tp38
Rp39
ssS'loopsUnfinished'
p40
(lp41
sS'saveWideText'
p42
I00
sS'thisEntry'
p43
(dp44
sS'version'
p45
S''
p46
sS'_paramNamesSoFar'
p47
(lp48
Vstimulus_id
p49
aVstimulus
p50
aVsentence
p51
aVword
p52
aVconsonant_1
p53
aVvowel
p54
aVconsonant_2
p55
aVbackness
p56
aVheight
p57
aVplace_1
p58
aVplace_2
p59
asS'entries'
p60
(lp61
(dp62
S'trials.thisIndex'
p63
g23
(g24
(S'i8'
p64
I0
I1
tp65
Rp66
(I3
S'<'
p67
NNNI-1
I-1
I0
tp68
bS'\xa0\x00\x00\x00\x00\x00\x00\x00'
p69
tp70
Rp71
sg16
F14.891724109649658
sg22
g32
sg52
Vchico
p72
sg51
VScrivete X sul foglio
p73
sg50
VScrivete "chico" sul foglio
p74
sS'trials.thisRepN'
p75
I0
sg59
Vvelar
p76
sg55
Vk
p77
sg56
Vfront
p78
sg15
S'space'
p79
sS'trials.thisN'
p80
I0
sg53
g77
sg58
Vvelar
p81
sg49
g23
(g66
S'\xa1\x00\x00\x00\x00\x00\x00\x00'
p82
tp83
Rp84
sS'trials.thisTrialN'
p85
I0
sg54
Vi
p86
sg20
g21
sg34
g39
sg57
Vhigh
p87
sg33
g12
sa(dp88
S'trials.thisIndex'
p89
g23
(g66
S'K\x00\x00\x00\x00\x00\x00\x00'
p90
tp91
Rp92
sg16
F5.438620090484619
sg22
g32
sg52
Vtupo
p93
sg51
VRipete X da sempre
p94
sg50
VRipete "tupo" da sempre
p95
sS'trials.thisRepN'
p96
I0
sg59
Vlabial
p97
sg55
Vp
p98
sg56
Vback
p99
sg15
S'space'
p100
sS'trials.thisN'
p101
I1
sg53
Vt
p102
sg58
Vcoronal
p103
sg49
g23
(g66
S'L\x00\x00\x00\x00\x00\x00\x00'
p104
tp105
Rp106
sS'trials.thisTrialN'
p107
I1
sg54
Vu
p108
sg20
g21
sg34
g39
sg57
g87
sg33
g12
sa(dp109
S'trials.thisIndex'
p110
g23
(g66
S'v\x00\x00\x00\x00\x00\x00\x00'
p111
tp112
Rp113
sg16
F7.8069140911102295
sg22
g32
sg52
Vcapo
p114
sg51
VSentivo X di nuovo
p115
sg50
VSentivo "capo" di nuovo
p116
sS'trials.thisRepN'
p117
I0
sg59
g97
sg55
g98
sg56
Vcentral
p118
sg15
S'space'
p119
sS'trials.thisN'
p120
I2
sg53
g77
sg58
g81
sg49
g23
(g66
S'w\x00\x00\x00\x00\x00\x00\x00'
p121
tp122
Rp123
sS'trials.thisTrialN'
p124
I2
sg54
Va
p125
sg20
g21
sg34
g39
sg57
Vlow
p126
sg33
g12
sa(dp127
S'trials.thisIndex'
p128
g23
(g66
S'[\x00\x00\x00\x00\x00\x00\x00'
p129
tp130
Rp131
sg16
F1.554598093032837
sg22
g32
sg52
Vtoto
p132
sg51
g94
sg50
VRipete "toto" da sempre
p133
sS'trials.thisRepN'
p134
I0
sg59
Vcoronal
p135
sg55
g102
sg56
g99
sg15
S'space'
p136
sS'trials.thisN'
p137
I3
sg53
g102
sg58
g103
sg49
g23
(g66
S'\\\x00\x00\x00\x00\x00\x00\x00'
p138
tp139
Rp140
sS'trials.thisTrialN'
p141
I3
sg54
Vo
p142
sg20
g21
sg34
g39
sg57
Vmid-low
p143
sg33
g12
sa(dp144
S'trials.thisIndex'
p145
g23
(g66
S'\x00\x00\x00\x00\x00\x00\x00\x00'
p146
tp147
Rp148
sg16
F1.6873281002044678
sg22
g32
sg52
Vpapo
p149
sg51
g73
sg50
VScrivete "papo" sul foglio
p150
sS'trials.thisRepN'
p151
I0
sg59
g97
sg55
g98
sg56
g118
sg15
S'space'
p152
sS'trials.thisN'
p153
I4
sg53
g98
sg58
Vlabial
p154
sg49
g23
(g66
S'\x01\x00\x00\x00\x00\x00\x00\x00'
p155
tp156
Rp157
sS'trials.thisTrialN'
p158
I4
sg54
g125
sg20
g21
sg34
g39
sg57
g126
sg33
g12
sa(dp159
S'trials.thisIndex'
p160
g23
(g66
S'\xa5\x00\x00\x00\x00\x00\x00\x00'
p161
tp162
Rp163
sg16
F1.6533949375152588
sg22
g32
sg52
Vcoco
p164
sg51
VHa detto X sei volte
p165
sg50
VHa detto "coco" sei volte
p166
sS'trials.thisRepN'
p167
I0
sg59
g76
sg55
g77
sg56
g99
sg15
S'space'
p168
sS'trials.thisN'
p169
I5
sg53
g77
sg58
g81
sg49
g23
(g66
S'\xa6\x00\x00\x00\x00\x00\x00\x00'
p170
tp171
Rp172
sS'trials.thisTrialN'
p173
I5
sg54
g142
sg20
g21
sg34
g39
sg57
g143
sg33
g12
sa(dp174
S'trials.thisIndex'
p175
g23
(g66
S'{\x00\x00\x00\x00\x00\x00\x00'
p176
tp177
Rp178
sg16
F1.52006196975708
sg22
g32
sg52
Vchepo
p179
sg51
g94
sg50
VRipete "chepo" da sempre
p180
sS'trials.thisRepN'
p181
I0
sg59
g97
sg55
g98
sg56
g78
sg15
S'space'
p182
sS'trials.thisN'
p183
I6
sg53
g77
sg58
g81
sg49
g23
(g66
S'|\x00\x00\x00\x00\x00\x00\x00'
p184
tp185
Rp186
sS'trials.thisTrialN'
p187
I6
sg54
Ve
p188
sg20
g21
sg34
g39
sg57
Vmid-high
p189
sg33
g12
sa(dp190
S'trials.thisIndex'
p191
g23
(g66
S'z\x00\x00\x00\x00\x00\x00\x00'
p192
tp193
Rp194
sg16
F1.3024630546569824
sg22
g32
sg52
g179
sg51
g115
sg50
VSentivo "chepo" di nuovo
p195
sS'trials.thisRepN'
p196
I0
sg59
g97
sg55
g98
sg56
g78
sg15
S'space'
p197
sS'trials.thisN'
p198
I7
sg53
g77
sg58
g81
sg49
g23
(g66
S'{\x00\x00\x00\x00\x00\x00\x00'
p199
tp200
Rp201
sS'trials.thisTrialN'
p202
I7
sg54
g188
sg20
g21
sg34
g39
sg57
g189
sg33
g12
sa(dp203
S'trials.thisIndex'
p204
g23
(g66
S'w\x00\x00\x00\x00\x00\x00\x00'
p205
tp206
Rp207
sg16
F1.385113000869751
sg22
g32
sg52
g114
sg51
g94
sg50
VRipete "capo" da sempre
p208
sS'trials.thisRepN'
p209
I0
sg59
g97
sg55
g98
sg56
g118
sg15
S'space'
p210
sS'trials.thisN'
p211
I8
sg53
g77
sg58
g81
sg49
g23
(g66
S'x\x00\x00\x00\x00\x00\x00\x00'
p212
tp213
Rp214
sS'trials.thisTrialN'
p215
I8
sg54
g125
sg20
g21
sg34
g39
sg57
g126
sg33
g12
sa(dp216
S'trials.thisIndex'
p217
g23
(g66
S'\x8d\x00\x00\x00\x00\x00\x00\x00'
p218
tp219
Rp220
sg16
F1.469451904296875
sg22
g32
sg52
Vcheto
p221
sg51
g165
sg50
VHa detto "cheto" sei volte
p222
sS'trials.thisRepN'
p223
I0
sg59
g135
sg55
g102
sg56
g78
sg15
S'space'
p224
sS'trials.thisN'
p225
I9
sg53
g77
sg58
g81
sg49
g23
(g66
S'\x8e\x00\x00\x00\x00\x00\x00\x00'
p226
tp227
Rp228
sS'trials.thisTrialN'
p229
I9
sg54
g188
sg20
g21
sg34
g39
sg57
g189
sg33
g12
sa(dp230
S'trials.thisIndex'
p231
g23
(g66
S'\x03\x00\x00\x00\x00\x00\x00\x00'
p232
tp233
Rp234
sg16
F1.2351679801940918
sg22
g32
sg52
g149
sg51
g94
sg50
VRipete "papo" da sempre
p235
sS'trials.thisRepN'
p236
I0
sg59
g97
sg55
g98
sg56
g118
sg15
S'space'
p237
sS'trials.thisN'
p238
I10
sg53
g98
sg58
g154
sg49
g23
(g66
S'\x04\x00\x00\x00\x00\x00\x00\x00'
p239
tp240
Rp241
sS'trials.thisTrialN'
p242
I10
sg54
g125
sg20
g21
sg34
g39
sg57
g126
sg33
g12
sa(dp243
S'trials.thisIndex'
p244
g23
(g66
S'\x13\x00\x00\x00\x00\x00\x00\x00'
p245
tp246
Rp247
sg16
F1.4208269119262695
sg22
g32
sg52
Vpupo
p248
sg51
g94
sg50
VRipete "pupo" da sempre
p249
sS'trials.thisRepN'
p250
I0
sg59
g97
sg55
g98
sg56
g99
sg15
S'space'
p251
sS'trials.thisN'
p252
I11
sg53
g98
sg58
g154
sg49
g23
(g66
S'\x14\x00\x00\x00\x00\x00\x00\x00'
p253
tp254
Rp255
sS'trials.thisTrialN'
p256
I11
sg54
g108
sg20
g21
sg34
g39
sg57
g87
sg33
g12
sa(dp257
S'trials.thisIndex'
p258
g23
(g66
S'D\x00\x00\x00\x00\x00\x00\x00'
p259
tp260
Rp261
sg16
F1.3018429279327393
sg22
g32
sg52
Vtopo
p262
sg51
g73
sg50
VScrivete "topo" sul foglio
p263
sS'trials.thisRepN'
p264
I0
sg59
g97
sg55
g98
sg56
g99
sg15
S'space'
p265
sS'trials.thisN'
p266
I12
sg53
g102
sg58
g103
sg49
g23
(g66
S'E\x00\x00\x00\x00\x00\x00\x00'
p267
tp268
Rp269
sS'trials.thisTrialN'
p270
I12
sg54
g142
sg20
g21
sg34
g39
sg57
g143
sg33
g12
sa(dp271
S'trials.thisIndex'
p272
g23
(g66
S':\x00\x00\x00\x00\x00\x00\x00'
p273
tp274
Rp275
sg16
F4.0720579624176025
sg22
g32
sg52
Vtapo
p276
sg51
g115
sg50
VSentivo "tapo" di nuovo
p277
sS'trials.thisRepN'
p278
I0
sg59
g97
sg55
g98
sg56
g118
sg15
S'space'
p279
sS'trials.thisN'
p280
I13
sg53
g102
sg58
g103
sg49
g23
(g66
S';\x00\x00\x00\x00\x00\x00\x00'
p281
tp282
Rp283
sS'trials.thisTrialN'
p284
I13
sg54
g125
sg20
g21
sg34
g39
sg57
g126
sg33
g12
sa(dp285
S'trials.thisIndex'
p286
g23
(g66
S'Q\x00\x00\x00\x00\x00\x00\x00'
p287
tp288
Rp289
sg16
F1.5354321002960205
sg22
g32
sg52
Vteto
p290
sg51
g165
sg50
VHa detto "teto" sei volte
p291
sS'trials.thisRepN'
p292
I0
sg59
g135
sg55
g102
sg56
g78
sg15
S'space'
p293
sS'trials.thisN'
p294
I14
sg53
g102
sg58
g103
sg49
g23
(g66
S'R\x00\x00\x00\x00\x00\x00\x00'
p295
tp296
Rp297
sS'trials.thisTrialN'
p298
I14
sg54
g188
sg20
g21
sg34
g39
sg57
g189
sg33
g12
sa(dp299
S'trials.thisIndex'
p300
g23
(g66
S'Z\x00\x00\x00\x00\x00\x00\x00'
p301
tp302
Rp303
sg16
F1.4027509689331055
sg22
g32
sg52
g132
sg51
g115
sg50
VSentivo "toto" di nuovo
p304
sS'trials.thisRepN'
p305
I0
sg59
g135
sg55
g102
sg56
g99
sg15
S'space'
p306
sS'trials.thisN'
p307
I15
sg53
g102
sg58
g103
sg49
g23
(g66
S'[\x00\x00\x00\x00\x00\x00\x00'
p308
tp309
Rp310
sS'trials.thisTrialN'
p311
I15
sg54
g142
sg20
g21
sg34
g39
sg57
g143
sg33
g12
sa(dp312
S'trials.thisIndex'
p313
g23
(g66
S'c\x00\x00\x00\x00\x00\x00\x00'
p314
tp315
Rp316
sg16
F1.2831370830535889
sg22
g32
sg52
Vtaco
p317
sg51
g94
sg50
VRipete "taco" da sempre
p318
sS'trials.thisRepN'
p319
I0
sg59
g76
sg55
g77
sg56
g118
sg15
S'space'
p320
sS'trials.thisN'
p321
I16
sg53
g102
sg58
g103
sg49
g23
(g66
S'd\x00\x00\x00\x00\x00\x00\x00'
p322
tp323
Rp324
sS'trials.thisTrialN'
p325
I16
sg54
g125
sg20
g21
sg34
g39
sg57
g126
sg33
g12
sa(dp326
S'trials.thisIndex'
p327
g23
(g66
S'\x1d\x00\x00\x00\x00\x00\x00\x00'
p328
tp329
Rp330
sg16
F1.3698899745941162
sg22
g32
sg52
Vpoto
p331
sg51
g165
sg50
VHa detto "poto" sei volte
p332
sS'trials.thisRepN'
p333
I0
sg59
g135
sg55
g102
sg56
g99
sg15
S'space'
p334
sS'trials.thisN'
p335
I17
sg53
g98
sg58
g154
sg49
g23
(g66
S'\x1e\x00\x00\x00\x00\x00\x00\x00'
p336
tp337
Rp338
sS'trials.thisTrialN'
p339
I17
sg54
g142
sg20
g21
sg34
g39
sg57
g143
sg33
g12
sa(dp340
S'trials.thisIndex'
p341
g23
(g66
S'V\x00\x00\x00\x00\x00\x00\x00'
p342
tp343
Rp344
sg16
F1.2197160720825195
sg22
g32
sg52
Vtito
p345
sg51
g115
sg50
VSentivo "tito" di nuovo
p346
sS'trials.thisRepN'
p347
I0
sg59
g135
sg55
g102
sg56
g78
sg15
S'space'
p348
sS'trials.thisN'
p349
I18
sg53
g102
sg58
g103
sg49
g23
(g66
S'W\x00\x00\x00\x00\x00\x00\x00'
p350
tp351
Rp352
sS'trials.thisTrialN'
p353
I18
sg54
g86
sg20
g21
sg34
g39
sg57
g87
sg33
g12
sa(dp354
S'trials.thisIndex'
p355
g23
(g66
S'\x91\x00\x00\x00\x00\x00\x00\x00'
p356
tp357
Rp358
sg16
F1.1034729480743408
sg22
g32
sg52
Vchito
p359
sg51
g165
sg50
VHa detto "chito" sei volte
p360
sS'trials.thisRepN'
p361
I0
sg59
g135
sg55
g102
sg56
g78
sg15
S'space'
p362
sS'trials.thisN'
p363
I19
sg53
g77
sg58
g81
sg49
g23
(g66
S'\x92\x00\x00\x00\x00\x00\x00\x00'
p364
tp365
Rp366
sS'trials.thisTrialN'
p367
I19
sg54
g86
sg20
g21
sg34
g39
sg57
g87
sg33
g12
sa(dp368
S'trials.thisIndex'
p369
g23
(g66
S'\n\x00\x00\x00\x00\x00\x00\x00'
p370
tp371
Rp372
sg16
F1.0010359287261963
sg22
g32
sg52
Vpipo
p373
sg51
g115
sg50
VSentivo "pipo" di nuovo
p374
sS'trials.thisRepN'
p375
I0
sg59
g97
sg55
g98
sg56
g78
sg15
S'space'
p376
sS'trials.thisN'
p377
I20
sg53
g98
sg58
g154
sg49
g23
(g66
S'\x0b\x00\x00\x00\x00\x00\x00\x00'
p378
tp379
Rp380
sS'trials.thisTrialN'
p381
I20
sg54
g86
sg20
g21
sg34
g39
sg57
g87
sg33
g12
sa(dp382
S'trials.thisIndex'
p383
g23
(g66
S'|\x00\x00\x00\x00\x00\x00\x00'
p384
tp385
Rp386
sg16
F1.4866950511932373
sg22
g32
sg52
Vchipo
p387
sg51
g73
sg50
VScrivete "chipo" sul foglio
p388
sS'trials.thisRepN'
p389
I0
sg59
g97
sg55
g98
sg56
g78
sg15
S'space'
p390
sS'trials.thisN'
p391
I21
sg53
g77
sg58
g81
sg49
g23
(g66
S'}\x00\x00\x00\x00\x00\x00\x00'
p392
tp393
Rp394
sS'trials.thisTrialN'
p395
I21
sg54
g86
sg20
g21
sg34
g39
sg57
g87
sg33
g12
sa(dp396
S'trials.thisIndex'
p397
g23
(g66
S'^\x00\x00\x00\x00\x00\x00\x00'
p398
tp399
Rp400
sg16
F1.2518491744995117
sg22
g32
sg52
Vtuto
p401
sg51
g115
sg50
VSentivo "tuto" di nuovo
p402
sS'trials.thisRepN'
p403
I0
sg59
g135
sg55
g102
sg56
g99
sg15
S'space'
p404
sS'trials.thisN'
p405
I22
sg53
g102
sg58
g103
sg49
g23
(g66
S'_\x00\x00\x00\x00\x00\x00\x00'
p406
tp407
Rp408
sS'trials.thisTrialN'
p409
I22
sg54
g108
sg20
g21
sg34
g39
sg57
g87
sg33
g12
sa(dp410
S'trials.thisIndex'
p411
g23
(g66
S'k\x00\x00\x00\x00\x00\x00\x00'
p412
tp413
Rp414
sg16
F1.2861928939819336
sg22
g32
sg52
Vtico
p415
sg51
g94
sg50
VRipete "tico" da sempre
p416
sS'trials.thisRepN'
p417
I0
sg59
g76
sg55
g77
sg56
g78
sg15
S'space'
p418
sS'trials.thisN'
p419
I23
sg53
g102
sg58
g103
sg49
g23
(g66
S'l\x00\x00\x00\x00\x00\x00\x00'
p420
tp421
Rp422
sS'trials.thisTrialN'
p423
I23
sg54
g86
sg20
g21
sg34
g39
sg57
g87
sg33
g12
sa(dp424
S'trials.thisIndex'
p425
g23
(g66
S'\x8a\x00\x00\x00\x00\x00\x00\x00'
p426
tp427
Rp428
sg16
F1.270956039428711
sg22
g32
sg52
Vcato
p429
sg51
g115
sg50
VSentivo "cato" di nuovo
p430
sS'trials.thisRepN'
p431
I0
sg59
g135
sg55
g102
sg56
g118
sg15
S'space'
p432
sS'trials.thisN'
p433
I24
sg53
g77
sg58
g81
sg49
g23
(g66
S'\x8b\x00\x00\x00\x00\x00\x00\x00'
p434
tp435
Rp436
sS'trials.thisTrialN'
p437
I24
sg54
g125
sg20
g21
sg34
g39
sg57
g126
sg33
g12
sa(dp438
S'trials.thisIndex'
p439
g23
(g66
S'\x02\x00\x00\x00\x00\x00\x00\x00'
p440
tp441
Rp442
sg16
F1.2529621124267578
sg22
g32
sg52
g149
sg51
g115
sg50
VSentivo "papo" di nuovo
p443
sS'trials.thisRepN'
p444
I0
sg59
g97
sg55
g98
sg56
g118
sg15
S'space'
p445
sS'trials.thisN'
p446
I25
sg53
g98
sg58
g154
sg49
g23
(g66
S'\x03\x00\x00\x00\x00\x00\x00\x00'
p447
tp448
Rp449
sS'trials.thisTrialN'
p450
I25
sg54
g125
sg20
g21
sg34
g39
sg57
g126
sg33
g12
sa(dp451
S'trials.thisIndex'
p452
g23
(g66
S'#\x00\x00\x00\x00\x00\x00\x00'
p453
tp454
Rp455
sg16
F1.43715500831604
sg22
g32
sg52
Vputo
p456
sg51
g94
sg50
VRipete "puto" da sempre
p457
sS'trials.thisRepN'
p458
I0
sg59
g135
sg55
g102
sg56
g99
sg15
S'space'
p459
sS'trials.thisN'
p460
I26
sg53
g98
sg58
g154
sg49
g23
(g66
S'$\x00\x00\x00\x00\x00\x00\x00'
p461
tp462
Rp463
sS'trials.thisTrialN'
p464
I26
sg54
g108
sg20
g21
sg34
g39
sg57
g87
sg33
g12
sa(dp465
S'trials.thisIndex'
p466
g23
(g66
S'\x9f\x00\x00\x00\x00\x00\x00\x00'
p467
tp468
Rp469
sg16
F1.2522368431091309
sg22
g32
sg52
Vcheco
p470
sg51
g94
sg50
VRipete "checo" da sempre
p471
sS'trials.thisRepN'
p472
I0
sg59
g76
sg55
g77
sg56
g78
sg15
S'space'
p473
sS'trials.thisN'
p474
I27
sg53
g77
sg58
g81
sg49
g23
(g66
S'\xa0\x00\x00\x00\x00\x00\x00\x00'
p475
tp476
Rp477
sS'trials.thisTrialN'
p478
I27
sg54
g188
sg20
g21
sg34
g39
sg57
g189
sg33
g12
sa(dp479
S'trials.thisIndex'
p480
g23
(g66
S'\x0f\x00\x00\x00\x00\x00\x00\x00'
p481
tp482
Rp483
sg16
F1.1346240043640137
sg22
g32
sg52
Vpopo
p484
sg51
g94
sg50
VRipete "popo" da sempre
p485
sS'trials.thisRepN'
p486
I0
sg59
g97
sg55
g98
sg56
g99
sg15
S'space'
p487
sS'trials.thisN'
p488
I28
sg53
g98
sg58
g154
sg49
g23
(g66
S'\x10\x00\x00\x00\x00\x00\x00\x00'
p489
tp490
Rp491
sS'trials.thisTrialN'
p492
I28
sg54
g142
sg20
g21
sg34
g39
sg57
g143
sg33
g12
sa(dp493
S'trials.thisIndex'
p494
g23
(g66
S'C\x00\x00\x00\x00\x00\x00\x00'
p495
tp496
Rp497
sg16
F1.3036460876464844
sg22
g32
sg52
Vtipo
p498
sg51
g94
sg50
VRipete "tipo" da sempre
p499
sS'trials.thisRepN'
p500
I0
sg59
g97
sg55
g98
sg56
g78
sg15
S'space'
p501
sS'trials.thisN'
p502
I29
sg53
g102
sg58
g103
sg49
g23
(g66
S'D\x00\x00\x00\x00\x00\x00\x00'
p503
tp504
Rp505
sS'trials.thisTrialN'
p506
I29
sg54
g86
sg20
g21
sg34
g39
sg57
g87
sg33
g12
sa(dp507
S'trials.thisIndex'
p508
g23
(g66
S'q\x00\x00\x00\x00\x00\x00\x00'
p509
tp510
Rp511
sg16
F1.3198630809783936
sg22
g32
sg52
Vtuco
p512
sg51
g165
sg50
VHa detto "tuco" sei volte
p513
sS'trials.thisRepN'
p514
I0
sg59
g76
sg55
g77
sg56
g99
sg15
S'space'
p515
sS'trials.thisN'
p516
I30
sg53
g102
sg58
g103
sg49
g23
(g66
S'r\x00\x00\x00\x00\x00\x00\x00'
p517
tp518
Rp519
sS'trials.thisTrialN'
p520
I30
sg54
g108
sg20
g21
sg34
g39
sg57
g87
sg33
g12
sa(dp521
S'trials.thisIndex'
p522
g23
(g66
S'\xa2\x00\x00\x00\x00\x00\x00\x00'
p523
tp524
Rp525
sg16
F1.152345895767212
sg22
g32
sg52
g72
sg51
g115
sg50
VSentivo "chico" di nuovo
p526
sS'trials.thisRepN'
p527
I0
sg59
g76
sg55
g77
sg56
g78
sg15
S'space'
p528
sS'trials.thisN'
p529
I31
sg53
g77
sg58
g81
sg49
g23
(g66
S'\xa3\x00\x00\x00\x00\x00\x00\x00'
p530
tp531
Rp532
sS'trials.thisTrialN'
p533
I31
sg54
g86
sg20
g21
sg34
g39
sg57
g87
sg33
g12
sa(dp534
S'trials.thisIndex'
p535
g23
(g66
S'4\x00\x00\x00\x00\x00\x00\x00'
p536
tp537
Rp538
sg16
F1.2519960403442383
sg22
g32
sg52
Vpuco
p539
sg51
g73
sg50
VScrivete "puco" sul foglio
p540
sS'trials.thisRepN'
p541
I0
sg59
g76
sg55
g77
sg56
g99
sg15
S'space'
p542
sS'trials.thisN'
p543
I32
sg53
g98
sg58
g154
sg49
g23
(g66
S'5\x00\x00\x00\x00\x00\x00\x00'
p544
tp545
Rp546
sS'trials.thisTrialN'
p547
I32
sg54
g108
sg20
g21
sg34
g39
sg57
g87
sg33
g12
sa(dp548
S'trials.thisIndex'
p549
g23
(g66
S'h\x00\x00\x00\x00\x00\x00\x00'
p550
tp551
Rp552
sg16
F1.3526339530944824
sg22
g32
sg52
g415
sg51
g73
sg50
VScrivete "tico" sul foglio
p553
sS'trials.thisRepN'
p554
I0
sg59
g76
sg55
g77
sg56
g78
sg15
S'space'
p555
sS'trials.thisN'
p556
I33
sg53
g102
sg58
g103
sg49
g23
(g66
S'i\x00\x00\x00\x00\x00\x00\x00'
p557
tp558
Rp559
sS'trials.thisTrialN'
p560
I33
sg54
g86
sg20
g21
sg34
g39
sg57
g87
sg33
g12
sa(dp561
S'trials.thisIndex'
p562
g23
(g66
S'\x05\x00\x00\x00\x00\x00\x00\x00'
p563
tp564
Rp565
sg16
F1.1528451442718506
sg22
g32
sg52
Vpepo
p566
sg51
g165
sg50
VHa detto "pepo" sei volte
p567
sS'trials.thisRepN'
p568
I0
sg59
g97
sg55
g98
sg56
g78
sg15
S'space'
p569
sS'trials.thisN'
p570
I34
sg53
g98
sg58
g154
sg49
g23
(g66
S'\x06\x00\x00\x00\x00\x00\x00\x00'
p571
tp572
Rp573
sS'trials.thisTrialN'
p574
I34
sg54
g188
sg20
g21
sg34
g39
sg57
g189
sg33
g12
sa(dp575
S'trials.thisIndex'
p576
g23
(g66
S'g\x00\x00\x00\x00\x00\x00\x00'
p577
tp578
Rp579
sg16
F1.369791030883789
sg22
g32
sg52
Vteco
p580
sg51
g94
sg50
VRipete "teco" da sempre
p581
sS'trials.thisRepN'
p582
I0
sg59
g76
sg55
g77
sg56
g78
sg15
S'space'
p583
sS'trials.thisN'
p584
I35
sg53
g102
sg58
g103
sg49
g23
(g66
S'h\x00\x00\x00\x00\x00\x00\x00'
p585
tp586
Rp587
sS'trials.thisTrialN'
p588
I35
sg54
g188
sg20
g21
sg34
g39
sg57
g189
sg33
g12
sa(dp589
S'trials.thisIndex'
p590
g23
(g66
S'E\x00\x00\x00\x00\x00\x00\x00'
p591
tp592
Rp593
sg16
F1.2713580131530762
sg22
g32
sg52
g262
sg51
g165
sg50
VHa detto "topo" sei volte
p594
sS'trials.thisRepN'
p595
I0
sg59
g97
sg55
g98
sg56
g99
sg15
S'space'
p596
sS'trials.thisN'
p597
I36
sg53
g102
sg58
g103
sg49
g23
(g66
S'F\x00\x00\x00\x00\x00\x00\x00'
p598
tp599
Rp600
sS'trials.thisTrialN'
p601
I36
sg54
g142
sg20
g21
sg34
g39
sg57
g143
sg33
g12
sa(dp602
S'trials.thisIndex'
p603
g23
(g66
S'\x1a\x00\x00\x00\x00\x00\x00\x00'
p604
tp605
Rp606
sg16
F1.1359479427337646
sg22
g32
sg52
Vpito
p607
sg51
g115
sg50
VSentivo "pito" di nuovo
p608
sS'trials.thisRepN'
p609
I0
sg59
g135
sg55
g102
sg56
g78
sg15
S'space'
p610
sS'trials.thisN'
p611
I37
sg53
g98
sg58
g154
sg49
g23
(g66
S'\x1b\x00\x00\x00\x00\x00\x00\x00'
p612
tp613
Rp614
sS'trials.thisTrialN'
p615
I37
sg54
g86
sg20
g21
sg34
g39
sg57
g87
sg33
g12
sa(dp616
S'trials.thisIndex'
p617
g23
(g66
S'6\x00\x00\x00\x00\x00\x00\x00'
p618
tp619
Rp620
sg16
F1.2190330028533936
sg22
g32
sg52
g539
sg51
g115
sg50
VSentivo "puco" di nuovo
p621
sS'trials.thisRepN'
p622
I0
sg59
g76
sg55
g77
sg56
g99
sg15
S'space'
p623
sS'trials.thisN'
p624
I38
sg53
g98
sg58
g154
sg49
g23
(g66
S'7\x00\x00\x00\x00\x00\x00\x00'
p625
tp626
Rp627
sS'trials.thisTrialN'
p628
I38
sg54
g108
sg20
g21
sg34
g39
sg57
g87
sg33
g12
sa(dp629
S'trials.thisIndex'
p630
g23
(g66
S',\x00\x00\x00\x00\x00\x00\x00'
p631
tp632
Rp633
sg16
F1.6702070236206055
sg22
g32
sg52
Vpico
p634
sg51
g73
sg50
VScrivete "pico" sul foglio
p635
sS'trials.thisRepN'
p636
I0
sg59
g76
sg55
g77
sg56
g78
sg15
S'space'
p637
sS'trials.thisN'
p638
I39
sg53
g98
sg58
g154
sg49
g23
(g66
S'-\x00\x00\x00\x00\x00\x00\x00'
p639
tp640
Rp641
sS'trials.thisTrialN'
p642
I39
sg54
g86
sg20
g21
sg34
g39
sg57
g87
sg33
g12
sa(dp643
S'trials.thisIndex'
p644
g23
(g66
S'\x0e\x00\x00\x00\x00\x00\x00\x00'
p645
tp646
Rp647
sg16
F1.152649164199829
sg22
g32
sg52
g484
sg51
g115
sg50
VSentivo "popo" di nuovo
p648
sS'trials.thisRepN'
p649
I0
sg59
g97
sg55
g98
sg56
g99
sg15
S'space'
p650
sS'trials.thisN'
p651
I40
sg53
g98
sg58
g154
sg49
g23
(g66
S'\x0f\x00\x00\x00\x00\x00\x00\x00'
p652
tp653
Rp654
sS'trials.thisTrialN'
p655
I40
sg54
g142
sg20
g21
sg34
g39
sg57
g143
sg33
g12
sa(dp656
S'trials.thisIndex'
p657
g23
(g66
S'L\x00\x00\x00\x00\x00\x00\x00'
p658
tp659
Rp660
sg16
F1.5360770225524902
sg22
g32
sg52
Vtato
p661
sg51
g73
sg50
VScrivete "tato" sul foglio
p662
sS'trials.thisRepN'
p663
I0
sg59
g135
sg55
g102
sg56
g118
sg15
S'space'
p664
sS'trials.thisN'
p665
I41
sg53
g102
sg58
g103
sg49
g23
(g66
S'M\x00\x00\x00\x00\x00\x00\x00'
p666
tp667
Rp668
sS'trials.thisTrialN'
p669
I41
sg54
g125
sg20
g21
sg34
g39
sg57
g126
sg33
g12
sa(dp670
S'trials.thisIndex'
p671
g23
(g66
S'b\x00\x00\x00\x00\x00\x00\x00'
p672
tp673
Rp674
sg16
F1.3356220722198486
sg22
g32
sg52
g317
sg51
g115
sg50
VSentivo "taco" di nuovo
p675
sS'trials.thisRepN'
p676
I0
sg59
g76
sg55
g77
sg56
g118
sg15
S'space'
p677
sS'trials.thisN'
p678
I42
sg53
g102
sg58
g103
sg49
g23
(g66
S'c\x00\x00\x00\x00\x00\x00\x00'
p679
tp680
Rp681
sS'trials.thisTrialN'
p682
I42
sg54
g125
sg20
g21
sg34
g39
sg57
g126
sg33
g12
sa(dp683
S'trials.thisIndex'
p684
g23
(g66
S'e\x00\x00\x00\x00\x00\x00\x00'
p685
tp686
Rp687
sg16
F1.4532499313354492
sg22
g32
sg52
g580
sg51
g165
sg50
VHa detto "teco" sei volte
p688
sS'trials.thisRepN'
p689
I0
sg59
g76
sg55
g77
sg56
g78
sg15
S'space'
p690
sS'trials.thisN'
p691
I43
sg53
g102
sg58
g103
sg49
g23
(g66
S'f\x00\x00\x00\x00\x00\x00\x00'
p692
tp693
Rp694
sS'trials.thisTrialN'
p695
I43
sg54
g188
sg20
g21
sg34
g39
sg57
g189
sg33
g12
sa(dp696
S'trials.thisIndex'
p697
g23
(g66
S'\x81\x00\x00\x00\x00\x00\x00\x00'
p698
tp699
Rp700
sg16
F1.4189231395721436
sg22
g32
sg52
Vcopo
p701
sg51
g165
sg50
VHa detto "copo" sei volte
p702
sS'trials.thisRepN'
p703
I0
sg59
g97
sg55
g98
sg56
g99
sg15
S'space'
p704
sS'trials.thisN'
p705
I44
sg53
g77
sg58
g81
sg49
g23
(g66
S'\x82\x00\x00\x00\x00\x00\x00\x00'
p706
tp707
Rp708
sS'trials.thisTrialN'
p709
I44
sg54
g142
sg20
g21
sg34
g39
sg57
g143
sg33
g12
sa(dp710
S'trials.thisIndex'
p711
g23
(g66
S'\x89\x00\x00\x00\x00\x00\x00\x00'
p712
tp713
Rp714
sg16
F1.7191429138183594
sg22
g32
sg52
g429
sg51
g165
sg50
VHa detto "cato" sei volte
p715
sS'trials.thisRepN'
p716
I0
sg59
g135
sg55
g102
sg56
g118
sg15
S'space'
p717
sS'trials.thisN'
p718
I45
sg53
g77
sg58
g81
sg49
g23
(g66
S'\x8a\x00\x00\x00\x00\x00\x00\x00'
p719
tp720
Rp721
sS'trials.thisTrialN'
p722
I45
sg54
g125
sg20
g21
sg34
g39
sg57
g126
sg33
g12
sa(dp723
S'trials.thisIndex'
p724
g23
(g66
S'N\x00\x00\x00\x00\x00\x00\x00'
p725
tp726
Rp727
sg16
F1.319716215133667
sg22
g32
sg52
g661
sg51
g115
sg50
VSentivo "tato" di nuovo
p728
sS'trials.thisRepN'
p729
I0
sg59
g135
sg55
g102
sg56
g118
sg15
S'space'
p730
sS'trials.thisN'
p731
I46
sg53
g102
sg58
g103
sg49
g23
(g66
S'O\x00\x00\x00\x00\x00\x00\x00'
p732
tp733
Rp734
sS'trials.thisTrialN'
p735
I46
sg54
g125
sg20
g21
sg34
g39
sg57
g126
sg33
g12
sa(dp736
S'trials.thisIndex'
p737
g23
(g66
S'\x9b\x00\x00\x00\x00\x00\x00\x00'
p738
tp739
Rp740
sg16
F1.368300199508667
sg22
g32
sg52
Vcuto
p741
sg51
g94
sg50
VRipete "cuto" da sempre
p742
sS'trials.thisRepN'
p743
I0
sg59
g135
sg55
g102
sg56
g99
sg15
S'space'
p744
sS'trials.thisN'
p745
I47
sg53
g77
sg58
g81
sg49
g23
(g66
S'\x9c\x00\x00\x00\x00\x00\x00\x00'
p746
tp747
Rp748
sS'trials.thisTrialN'
p749
I47
sg54
g108
sg20
g21
sg34
g39
sg57
g87
sg33
g12
sa(dp750
S'trials.thisIndex'
p751
g23
(g66
S'$\x00\x00\x00\x00\x00\x00\x00'
p752
tp753
Rp754
sg16
F1.4188170433044434
sg22
g32
sg52
Vpaco
p755
sg51
g73
sg50
VScrivete "paco" sul foglio
p756
sS'trials.thisRepN'
p757
I0
sg59
g76
sg55
g77
sg56
g118
sg15
S'space'
p758
sS'trials.thisN'
p759
I48
sg53
g98
sg58
g154
sg49
g23
(g66
S'%\x00\x00\x00\x00\x00\x00\x00'
p760
tp761
Rp762
sS'trials.thisTrialN'
p763
I48
sg54
g125
sg20
g21
sg34
g39
sg57
g126
sg33
g12
sa(dp764
S'trials.thisIndex'
p765
g23
(g66
S'\xa1\x00\x00\x00\x00\x00\x00\x00'
p766
tp767
Rp768
sg16
F1.3865559101104736
sg22
g32
sg52
g72
sg51
g165
sg50
VHa detto "chico" sei volte
p769
sS'trials.thisRepN'
p770
I0
sg59
g76
sg55
g77
sg56
g78
sg15
S'space'
p771
sS'trials.thisN'
p772
I49
sg53
g77
sg58
g81
sg49
g23
(g66
S'\xa2\x00\x00\x00\x00\x00\x00\x00'
p773
tp774
Rp775
sS'trials.thisTrialN'
p776
I49
sg54
g86
sg20
g21
sg34
g39
sg57
g87
sg33
g12
sa(dp777
S'trials.thisIndex'
p778
g23
(g66
S'f\x00\x00\x00\x00\x00\x00\x00'
p779
tp780
Rp781
sg16
F1.2189929485321045
sg22
g32
sg52
g580
sg51
g115
sg50
VSentivo "teco" di nuovo
p782
sS'trials.thisRepN'
p783
I0
sg59
g76
sg55
g77
sg56
g78
sg15
S'space'
p784
sS'trials.thisN'
p785
I50
sg53
g102
sg58
g103
sg49
g23
(g66
S'g\x00\x00\x00\x00\x00\x00\x00'
p786
tp787
Rp788
sS'trials.thisTrialN'
p789
I50
sg54
g188
sg20
g21
sg34
g39
sg57
g189
sg33
g12
sa(dp790
S'trials.thisIndex'
p791
g23
(g66
S'O\x00\x00\x00\x00\x00\x00\x00'
p792
tp793
Rp794
sg16
F1.3534479141235352
sg22
g32
sg52
g661
sg51
g94
sg50
VRipete "tato" da sempre
p795
sS'trials.thisRepN'
p796
I0
sg59
g135
sg55
g102
sg56
g118
sg15
S'space'
p797
sS'trials.thisN'
p798
I51
sg53
g102
sg58
g103
sg49
g23
(g66
S'P\x00\x00\x00\x00\x00\x00\x00'
p799
tp800
Rp801
sS'trials.thisTrialN'
p802
I51
sg54
g125
sg20
g21
sg34
g39
sg57
g126
sg33
g12
sa(dp803
S'trials.thisIndex'
p804
g23
(g66
S'7\x00\x00\x00\x00\x00\x00\x00'
p805
tp806
Rp807
sg16
F1.302894115447998
sg22
g32
sg52
g539
sg51
g94
sg50
VRipete "puco" da sempre
p808
sS'trials.thisRepN'
p809
I0
sg59
g76
sg55
g77
sg56
g99
sg15
S'space'
p810
sS'trials.thisN'
p811
I52
sg53
g98
sg58
g154
sg49
g23
(g66
S'8\x00\x00\x00\x00\x00\x00\x00'
p812
tp813
Rp814
sS'trials.thisTrialN'
p815
I52
sg54
g108
sg20
g21
sg34
g39
sg57
g87
sg33
g12
sa(dp816
S'trials.thisIndex'
p817
g23
(g66
S'\x10\x00\x00\x00\x00\x00\x00\x00'
p818
tp819
Rp820
sg16
F1.2363371849060059
sg22
g32
sg52
g248
sg51
g73
sg50
VScrivete "pupo" sul foglio
p821
sS'trials.thisRepN'
p822
I0
sg59
g97
sg55
g98
sg56
g99
sg15
S'space'
p823
sS'trials.thisN'
p824
I53
sg53
g98
sg58
g154
sg49
g23
(g66
S'\x11\x00\x00\x00\x00\x00\x00\x00'
p825
tp826
Rp827
sS'trials.thisTrialN'
p828
I53
sg54
g108
sg20
g21
sg34
g39
sg57
g87
sg33
g12
sa(dp829
S'trials.thisIndex'
p830
g23
(g66
S'<\x00\x00\x00\x00\x00\x00\x00'
p831
tp832
Rp833
sg16
F1.335709810256958
sg22
g32
sg52
Vtepo
p834
sg51
g73
sg50
VScrivete "tepo" sul foglio
p835
sS'trials.thisRepN'
p836
I0
sg59
g97
sg55
g98
sg56
g78
sg15
S'space'
p837
sS'trials.thisN'
p838
I54
sg53
g102
sg58
g103
sg49
g23
(g66
S'=\x00\x00\x00\x00\x00\x00\x00'
p839
tp840
Rp841
sS'trials.thisTrialN'
p842
I54
sg54
g188
sg20
g21
sg34
g39
sg57
g189
sg33
g12
sa(dp843
S'trials.thisIndex'
p844
g23
(g66
S'U\x00\x00\x00\x00\x00\x00\x00'
p845
tp846
Rp847
sg16
F1.2521388530731201
sg22
g32
sg52
g345
sg51
g165
sg50
VHa detto "tito" sei volte
p848
sS'trials.thisRepN'
p849
I0
sg59
g135
sg55
g102
sg56
g78
sg15
S'space'
p850
sS'trials.thisN'
p851
I55
sg53
g102
sg58
g103
sg49
g23
(g66
S'V\x00\x00\x00\x00\x00\x00\x00'
p852
tp853
Rp854
sS'trials.thisTrialN'
p855
I55
sg54
g86
sg20
g21
sg34
g39
sg57
g87
sg33
g12
sa(dp856
S'trials.thisIndex'
p857
g23
(g66
S'5\x00\x00\x00\x00\x00\x00\x00'
p858
tp859
Rp860
sg16
F1.318364143371582
sg22
g32
sg52
g539
sg51
g165
sg50
VHa detto "puco" sei volte
p861
sS'trials.thisRepN'
p862
I0
sg59
g76
sg55
g77
sg56
g99
sg15
S'space'
p863
sS'trials.thisN'
p864
I56
sg53
g98
sg58
g154
sg49
g23
(g66
S'6\x00\x00\x00\x00\x00\x00\x00'
p865
tp866
Rp867
sS'trials.thisTrialN'
p868
I56
sg54
g108
sg20
g21
sg34
g39
sg57
g87
sg33
g12
sa(dp869
S'trials.thisIndex'
p870
g23
(g66
S'\x12\x00\x00\x00\x00\x00\x00\x00'
p871
tp872
Rp873
sg16
F1.2203130722045898
sg22
g32
sg52
g248
sg51
g115
sg50
VSentivo "pupo" di nuovo
p874
sS'trials.thisRepN'
p875
I0
sg59
g97
sg55
g98
sg56
g99
sg15
S'space'
p876
sS'trials.thisN'
p877
I57
sg53
g98
sg58
g154
sg49
g23
(g66
S'\x13\x00\x00\x00\x00\x00\x00\x00'
p878
tp879
Rp880
sS'trials.thisTrialN'
p881
I57
sg54
g108
sg20
g21
sg34
g39
sg57
g87
sg33
g12
sa(dp882
S'trials.thisIndex'
p883
g23
(g66
S'\x15\x00\x00\x00\x00\x00\x00\x00'
p884
tp885
Rp886
sg16
F1.335644006729126
sg22
g32
sg52
Vpato
p887
sg51
g165
sg50
VHa detto "pato" sei volte
p888
sS'trials.thisRepN'
p889
I0
sg59
g135
sg55
g102
sg56
g118
sg15
S'space'
p890
sS'trials.thisN'
p891
I58
sg53
g98
sg58
g154
sg49
g23
(g66
S'\x16\x00\x00\x00\x00\x00\x00\x00'
p892
tp893
Rp894
sS'trials.thisTrialN'
p895
I58
sg54
g125
sg20
g21
sg34
g39
sg57
g126
sg33
g12
sa(dp896
S'trials.thisIndex'
p897
g23
(g66
S'\x7f\x00\x00\x00\x00\x00\x00\x00'
p898
tp899
Rp900
sg16
F1.3326079845428467
sg22
g32
sg52
g387
sg51
g94
sg50
VRipete "chipo" da sempre
p901
sS'trials.thisRepN'
p902
I0
sg59
g97
sg55
g98
sg56
g78
sg15
S'space'
p903
sS'trials.thisN'
p904
I59
sg53
g77
sg58
g81
sg49
g23
(g66
S'\x80\x00\x00\x00\x00\x00\x00\x00'
p905
tp906
Rp907
sS'trials.thisTrialN'
p908
I59
sg54
g86
sg20
g21
sg34
g39
sg57
g87
sg33
g12
sa(dp909
S'trials.thisIndex'
p910
g23
(g66
S'@\x00\x00\x00\x00\x00\x00\x00'
p911
tp912
Rp913
sg16
F1.4033238887786865
sg22
g32
sg52
g498
sg51
g73
sg50
VScrivete "tipo" sul foglio
p914
sS'trials.thisRepN'
p915
I0
sg59
g97
sg55
g98
sg56
g78
sg15
S'space'
p916
sS'trials.thisN'
p917
I60
sg53
g102
sg58
g103
sg49
g23
(g66
S'A\x00\x00\x00\x00\x00\x00\x00'
p918
tp919
Rp920
sS'trials.thisTrialN'
p921
I60
sg54
g86
sg20
g21
sg34
g39
sg57
g87
sg33
g12
sa(dp922
S'trials.thisIndex'
p923
g23
(g66
S'\x08\x00\x00\x00\x00\x00\x00\x00'
p924
tp925
Rp926
sg16
F1.2527289390563965
sg22
g32
sg52
g373
sg51
g73
sg50
VScrivete "pipo" sul foglio
p927
sS'trials.thisRepN'
p928
I0
sg59
g97
sg55
g98
sg56
g78
sg15
S'space'
p929
sS'trials.thisN'
p930
I61
sg53
g98
sg58
g154
sg49
g23
(g66
S'\t\x00\x00\x00\x00\x00\x00\x00'
p931
tp932
Rp933
sS'trials.thisTrialN'
p934
I61
sg54
g86
sg20
g21
sg34
g39
sg57
g87
sg33
g12
sa(dp935
S'trials.thisIndex'
p936
g23
(g66
S'P\x00\x00\x00\x00\x00\x00\x00'
p937
tp938
Rp939
sg16
F1.3852550983428955
sg22
g32
sg52
g290
sg51
g73
sg50
VScrivete "teto" sul foglio
p940
sS'trials.thisRepN'
p941
I0
sg59
g135
sg55
g102
sg56
g78
sg15
S'space'
p942
sS'trials.thisN'
p943
I62
sg53
g102
sg58
g103
sg49
g23
(g66
S'Q\x00\x00\x00\x00\x00\x00\x00'
p944
tp945
Rp946
sS'trials.thisTrialN'
p947
I62
sg54
g188
sg20
g21
sg34
g39
sg57
g189
sg33
g12
sa(dp948
S'trials.thisIndex'
p949
g23
(g66
S'\x87\x00\x00\x00\x00\x00\x00\x00'
p950
tp951
Rp952
sg16
F1.2180979251861572
sg22
g32
sg52
Vcupo
p953
sg51
g94
sg50
VRipete "cupo" da sempre
p954
sS'trials.thisRepN'
p955
I0
sg59
g97
sg55
g98
sg56
g99
sg15
S'space'
p956
sS'trials.thisN'
p957
I63
sg53
g77
sg58
g81
sg49
g23
(g66
S'\x88\x00\x00\x00\x00\x00\x00\x00'
p958
tp959
Rp960
sS'trials.thisTrialN'
p961
I63
sg54
g108
sg20
g21
sg34
g39
sg57
g87
sg33
g12
sa(dp962
S'trials.thisIndex'
p963
g23
(g66
S'M\x00\x00\x00\x00\x00\x00\x00'
p964
tp965
Rp966
sg16
F1.3526859283447266
sg22
g32
sg52
g661
sg51
g165
sg50
VHa detto "tato" sei volte
p967
sS'trials.thisRepN'
p968
I0
sg59
g135
sg55
g102
sg56
g118
sg15
S'space'
p969
sS'trials.thisN'
p970
I64
sg53
g102
sg58
g103
sg49
g23
(g66
S'N\x00\x00\x00\x00\x00\x00\x00'
p971
tp972
Rp973
sS'trials.thisTrialN'
p974
I64
sg54
g125
sg20
g21
sg34
g39
sg57
g126
sg33
g12
sa(dp975
S'trials.thisIndex'
p976
g23
(g66
S'J\x00\x00\x00\x00\x00\x00\x00'
p977
tp978
Rp979
sg16
F1.1034748554229736
sg22
g32
sg52
g93
sg51
g115
sg50
VSentivo "tupo" di nuovo
p980
sS'trials.thisRepN'
p981
I0
sg59
g97
sg55
g98
sg56
g99
sg15
S'space'
p982
sS'trials.thisN'
p983
I65
sg53
g102
sg58
g103
sg49
g23
(g66
S'K\x00\x00\x00\x00\x00\x00\x00'
p984
tp985
Rp986
sS'trials.thisTrialN'
p987
I65
sg54
g108
sg20
g21
sg34
g39
sg57
g87
sg33
g12
sa(dp988
S'trials.thisIndex'
p989
g23
(g66
S'm\x00\x00\x00\x00\x00\x00\x00'
p990
tp991
Rp992
sg16
F1.3857638835906982
sg22
g32
sg52
Vtoco
p993
sg51
g165
sg50
VHa detto "toco" sei volte
p994
sS'trials.thisRepN'
p995
I0
sg59
g76
sg55
g77
sg56
g99
sg15
S'space'
p996
sS'trials.thisN'
p997
I66
sg53
g102
sg58
g103
sg49
g23
(g66
S'n\x00\x00\x00\x00\x00\x00\x00'
p998
tp999
Rp1000
sS'trials.thisTrialN'
p1001
I66
sg54
g142
sg20
g21
sg34
g39
sg57
g143
sg33
g12
sa(dp1002
S'trials.thisIndex'
p1003
g23
(g66
S'G\x00\x00\x00\x00\x00\x00\x00'
p1004
tp1005
Rp1006
sg16
F1.604902982711792
sg22
g32
sg52
g262
sg51
g94
sg50
VRipete "topo" da sempre
p1007
sS'trials.thisRepN'
p1008
I0
sg59
g97
sg55
g98
sg56
g99
sg15
S'space'
p1009
sS'trials.thisN'
p1010
I67
sg53
g102
sg58
g103
sg49
g23
(g66
S'H\x00\x00\x00\x00\x00\x00\x00'
p1011
tp1012
Rp1013
sS'trials.thisTrialN'
p1014
I67
sg54
g142
sg20
g21
sg34
g39
sg57
g143
sg33
g12
sa(dp1015
S'trials.thisIndex'
p1016
g23
(g66
S'\x82\x00\x00\x00\x00\x00\x00\x00'
p1017
tp1018
Rp1019
sg16
F1.2043111324310303
sg22
g32
sg52
g701
sg51
g115
sg50
VSentivo "copo" di nuovo
p1020
sS'trials.thisRepN'
p1021
I0
sg59
g97
sg55
g98
sg56
g99
sg15
S'space'
p1022
sS'trials.thisN'
p1023
I68
sg53
g77
sg58
g81
sg49
g23
(g66
S'\x83\x00\x00\x00\x00\x00\x00\x00'
p1024
tp1025
Rp1026
sS'trials.thisTrialN'
p1027
I68
sg54
g142
sg20
g21
sg34
g39
sg57
g143
sg33
g12
sa(dp1028
S'trials.thisIndex'
p1029
g23
(g66
S'\x14\x00\x00\x00\x00\x00\x00\x00'
p1030
tp1031
Rp1032
sg16
F1.4409458637237549
sg22
g32
sg52
g887
sg51
g73
sg50
VScrivete "pato" sul foglio
p1033
sS'trials.thisRepN'
p1034
I0
sg59
g135
sg55
g102
sg56
g118
sg15
S'space'
p1035
sS'trials.thisN'
p1036
I69
sg53
g98
sg58
g154
sg49
g23
(g66
S'\x15\x00\x00\x00\x00\x00\x00\x00'
p1037
tp1038
Rp1039
sS'trials.thisTrialN'
p1040
I69
sg54
g125
sg20
g21
sg34
g39
sg57
g126
sg33
g12
sa(dp1041
S'trials.thisIndex'
p1042
g23
(g66
S'}\x00\x00\x00\x00\x00\x00\x00'
p1043
tp1044
Rp1045
sg16
F1.5540580749511719
sg22
g32
sg52
g387
sg51
g165
sg50
VHa detto "chipo" sei volte
p1046
sS'trials.thisRepN'
p1047
I0
sg59
g97
sg55
g98
sg56
g78
sg15
S'space'
p1048
sS'trials.thisN'
p1049
I70
sg53
g77
sg58
g81
sg49
g23
(g66
S'~\x00\x00\x00\x00\x00\x00\x00'
p1050
tp1051
Rp1052
sS'trials.thisTrialN'
p1053
I70
sg54
g86
sg20
g21
sg34
g39
sg57
g87
sg33
g12
sa(dp1054
S'trials.thisIndex'
p1055
g23
(g66
S'r\x00\x00\x00\x00\x00\x00\x00'
p1056
tp1057
Rp1058
sg16
F1.3199498653411865
sg22
g32
sg52
g512
sg51
g115
sg50
VSentivo "tuco" di nuovo
p1059
sS'trials.thisRepN'
p1060
I0
sg59
g76
sg55
g77
sg56
g99
sg15
S'space'
p1061
sS'trials.thisN'
p1062
I71
sg53
g102
sg58
g103
sg49
g23
(g66
S's\x00\x00\x00\x00\x00\x00\x00'
p1063
tp1064
Rp1065
sS'trials.thisTrialN'
p1066
I71
sg54
g108
sg20
g21
sg34
g39
sg57
g87
sg33
g12
sa(dp1067
S'trials.thisIndex'
p1068
g23
(g66
S'\x8b\x00\x00\x00\x00\x00\x00\x00'
p1069
tp1070
Rp1071
sg16
F1.2721450328826904
sg22
g32
sg52
g429
sg51
g94
sg50
VRipete "cato" da sempre
p1072
sS'trials.thisRepN'
p1073
I0
sg59
g135
sg55
g102
sg56
g118
sg15
S'space'
p1074
sS'trials.thisN'
p1075
I72
sg53
g77
sg58
g81
sg49
g23
(g66
S'\x8c\x00\x00\x00\x00\x00\x00\x00'
p1076
tp1077
Rp1078
sS'trials.thisTrialN'
p1079
I72
sg54
g125
sg20
g21
sg34
g39
sg57
g126
sg33
g12
sa(dp1080
S'trials.thisIndex'
p1081
g23
(g66
S'\xa6\x00\x00\x00\x00\x00\x00\x00'
p1082
tp1083
Rp1084
sg16
F1.0726509094238281
sg22
g32
sg52
g164
sg51
g115
sg50
VSentivo "coco" di nuovo
p1085
sS'trials.thisRepN'
p1086
I0
sg59
g76
sg55
g77
sg56
g99
sg15
S'space'
p1087
sS'trials.thisN'
p1088
I73
sg53
g77
sg58
g81
sg49
g23
(g66
S'\xa7\x00\x00\x00\x00\x00\x00\x00'
p1089
tp1090
Rp1091
sS'trials.thisTrialN'
p1092
I73
sg54
g142
sg20
g21
sg34
g39
sg57
g143
sg33
g12
sa(dp1093
S'trials.thisIndex'
p1094
g23
(g66
S'u\x00\x00\x00\x00\x00\x00\x00'
p1095
tp1096
Rp1097
sg16
F1.4151508808135986
sg22
g32
sg52
g114
sg51
g165
sg50
VHa detto "capo" sei volte
p1098
sS'trials.thisRepN'
p1099
I0
sg59
g97
sg55
g98
sg56
g118
sg15
S'space'
p1100
sS'trials.thisN'
p1101
I74
sg53
g77
sg58
g81
sg49
g23
(g66
S'v\x00\x00\x00\x00\x00\x00\x00'
p1102
tp1103
Rp1104
sS'trials.thisTrialN'
p1105
I74
sg54
g125
sg20
g21
sg34
g39
sg57
g126
sg33
g12
sa(dp1106
S'trials.thisIndex'
p1107
g23
(g66
S'n\x00\x00\x00\x00\x00\x00\x00'
p1108
tp1109
Rp1110
sg16
F1.2550349235534668
sg22
g32
sg52
g993
sg51
g115
sg50
VSentivo "toco" di nuovo
p1111
sS'trials.thisRepN'
p1112
I0
sg59
g76
sg55
g77
sg56
g99
sg15
S'space'
p1113
sS'trials.thisN'
p1114
I75
sg53
g102
sg58
g103
sg49
g23
(g66
S'o\x00\x00\x00\x00\x00\x00\x00'
p1115
tp1116
Rp1117
sS'trials.thisTrialN'
p1118
I75
sg54
g142
sg20
g21
sg34
g39
sg57
g143
sg33
g12
sa(dp1119
S'trials.thisIndex'
p1120
g23
(g66
S'\x1b\x00\x00\x00\x00\x00\x00\x00'
p1121
tp1122
Rp1123
sg16
F1.255012035369873
sg22
g32
sg52
g607
sg51
g94
sg50
VRipete "pito" da sempre
p1124
sS'trials.thisRepN'
p1125
I0
sg59
g135
sg55
g102
sg56
g78
sg15
S'space'
p1126
sS'trials.thisN'
p1127
I76
sg53
g98
sg58
g154
sg49
g23
(g66
S'\x1c\x00\x00\x00\x00\x00\x00\x00'
p1128
tp1129
Rp1130
sS'trials.thisTrialN'
p1131
I76
sg54
g86
sg20
g21
sg34
g39
sg57
g87
sg33
g12
sa(dp1132
S'trials.thisIndex'
p1133
g23
(g66
S'\x0c\x00\x00\x00\x00\x00\x00\x00'
p1134
tp1135
Rp1136
sg16
F1.4315261840820312
sg22
g32
sg52
g484
sg51
g73
sg50
VScrivete "popo" sul foglio
p1137
sS'trials.thisRepN'
p1138
I0
sg59
g97
sg55
g98
sg56
g99
sg15
S'space'
p1139
sS'trials.thisN'
p1140
I77
sg53
g98
sg58
g154
sg49
g23
(g66
S'\r\x00\x00\x00\x00\x00\x00\x00'
p1141
tp1142
Rp1143
sS'trials.thisTrialN'
p1144
I77
sg54
g142
sg20
g21
sg34
g39
sg57
g143
sg33
g12
sa(dp1145
S'trials.thisIndex'
p1146
g23
(g66
S'\x94\x00\x00\x00\x00\x00\x00\x00'
p1147
tp1148
Rp1149
sg16
F1.3355231285095215
sg22
g32
sg52
Vcoto
p1150
sg51
g73
sg50
VScrivete "coto" sul foglio
p1151
sS'trials.thisRepN'
p1152
I0
sg59
g135
sg55
g102
sg56
g99
sg15
S'space'
p1153
sS'trials.thisN'
p1154
I78
sg53
g77
sg58
g81
sg49
g23
(g66
S'\x95\x00\x00\x00\x00\x00\x00\x00'
p1155
tp1156
Rp1157
sS'trials.thisTrialN'
p1158
I78
sg54
g142
sg20
g21
sg34
g39
sg57
g143
sg33
g12
sa(dp1159
S'trials.thisIndex'
p1160
g23
(g66
S'i\x00\x00\x00\x00\x00\x00\x00'
p1161
tp1162
Rp1163
sg16
F1.6699590682983398
sg22
g32
sg52
g415
sg51
g165
sg50
VHa detto "tico" sei volte
p1164
sS'trials.thisRepN'
p1165
I0
sg59
g76
sg55
g77
sg56
g78
sg15
S'space'
p1166
sS'trials.thisN'
p1167
I79
sg53
g102
sg58
g103
sg49
g23
(g66
S'j\x00\x00\x00\x00\x00\x00\x00'
p1168
tp1169
Rp1170
sS'trials.thisTrialN'
p1171
I79
sg54
g86
sg20
g21
sg34
g39
sg57
g87
sg33
g12
sa(dp1172
S'trials.thisIndex'
p1173
g23
(g66
S'?\x00\x00\x00\x00\x00\x00\x00'
p1174
tp1175
Rp1176
sg16
F1.2877120971679688
sg22
g32
sg52
g834
sg51
g94
sg50
VRipete "tepo" da sempre
p1177
sS'trials.thisRepN'
p1178
I0
sg59
g97
sg55
g98
sg56
g78
sg15
S'space'
p1179
sS'trials.thisN'
p1180
I80
sg53
g102
sg58
g103
sg49
g23
(g66
S'@\x00\x00\x00\x00\x00\x00\x00'
p1181
tp1182
Rp1183
sS'trials.thisTrialN'
p1184
I80
sg54
g188
sg20
g21
sg34
g39
sg57
g189
sg33
g12
sa(dp1185
S'trials.thisIndex'
p1186
g23
(g66
S';\x00\x00\x00\x00\x00\x00\x00'
p1187
tp1188
Rp1189
sg16
F1.3064980506896973
sg22
g32
sg52
g276
sg51
g94
sg50
VRipete "tapo" da sempre
p1190
sS'trials.thisRepN'
p1191
I0
sg59
g97
sg55
g98
sg56
g118
sg15
S'space'
p1192
sS'trials.thisN'
p1193
I81
sg53
g102
sg58
g103
sg49
g23
(g66
S'<\x00\x00\x00\x00\x00\x00\x00'
p1194
tp1195
Rp1196
sS'trials.thisTrialN'
p1197
I81
sg54
g125
sg20
g21
sg34
g39
sg57
g126
sg33
g12
sa(dp1198
S'trials.thisIndex'
p1199
g23
(g66
S'"\x00\x00\x00\x00\x00\x00\x00'
p1200
tp1201
Rp1202
sg16
F1.1677820682525635
sg22
g32
sg52
g456
sg51
g115
sg50
VSentivo "puto" di nuovo
p1203
sS'trials.thisRepN'
p1204
I0
sg59
g135
sg55
g102
sg56
g99
sg15
S'space'
p1205
sS'trials.thisN'
p1206
I82
sg53
g98
sg58
g154
sg49
g23
(g66
S'#\x00\x00\x00\x00\x00\x00\x00'
p1207
tp1208
Rp1209
sS'trials.thisTrialN'
p1210
I82
sg54
g108
sg20
g21
sg34
g39
sg57
g87
sg33
g12
sa(dp1211
S'trials.thisIndex'
p1212
g23
(g66
S'_\x00\x00\x00\x00\x00\x00\x00'
p1213
tp1214
Rp1215
sg16
F1.358154058456421
sg22
g32
sg52
g401
sg51
g94
sg50
VRipete "tuto" da sempre
p1216
sS'trials.thisRepN'
p1217
I0
sg59
g135
sg55
g102
sg56
g99
sg15
S'space'
p1218
sS'trials.thisN'
p1219
I83
sg53
g102
sg58
g103
sg49
g23
(g66
S'`\x00\x00\x00\x00\x00\x00\x00'
p1220
tp1221
Rp1222
sS'trials.thisTrialN'
p1223
I83
sg54
g108
sg20
g21
sg34
g39
sg57
g87
sg33
g12
sa(dp1224
S'trials.thisIndex'
p1225
g23
(g66
S'T\x00\x00\x00\x00\x00\x00\x00'
p1226
tp1227
Rp1228
sg16
F1.2204852104187012
sg22
g32
sg52
g345
sg51
g73
sg50
VScrivete "tito" sul foglio
p1229
sS'trials.thisRepN'
p1230
I0
sg59
g135
sg55
g102
sg56
g78
sg15
S'space'
p1231
sS'trials.thisN'
p1232
I84
sg53
g102
sg58
g103
sg49
g23
(g66
S'U\x00\x00\x00\x00\x00\x00\x00'
p1233
tp1234
Rp1235
sS'trials.thisTrialN'
p1236
I84
sg54
g86
sg20
g21
sg34
g39
sg57
g87
sg33
g12
sa(dp1237
S'trials.thisIndex'
p1238
g23
(g66
S'\xa3\x00\x00\x00\x00\x00\x00\x00'
p1239
tp1240
Rp1241
sg16
F5.29121994972229
sg22
g32
sg52
g72
sg51
g94
sg50
VRipete "chico" da sempre
p1242
sS'trials.thisRepN'
p1243
I0
sg59
g76
sg55
g77
sg56
g78
sg15
S'space'
p1244
sS'trials.thisN'
p1245
I85
sg53
g77
sg58
g81
sg49
g23
(g66
S'\xa4\x00\x00\x00\x00\x00\x00\x00'
p1246
tp1247
Rp1248
sS'trials.thisTrialN'
p1249
I85
sg54
g86
sg20
g21
sg34
g39
sg57
g87
sg33
g12
sa(dp1250
S'trials.thisIndex'
p1251
g23
(g66
S'\x04\x00\x00\x00\x00\x00\x00\x00'
p1252
tp1253
Rp1254
sg16
F1.6905851364135742
sg22
g32
sg52
g566
sg51
g73
sg50
VScrivete "pepo" sul foglio
p1255
sS'trials.thisRepN'
p1256
I0
sg59
g97
sg55
g98
sg56
g78
sg15
S'space'
p1257
sS'trials.thisN'
p1258
I86
sg53
g98
sg58
g154
sg49
g23
(g66
S'\x05\x00\x00\x00\x00\x00\x00\x00'
p1259
tp1260
Rp1261
sS'trials.thisTrialN'
p1262
I86
sg54
g188
sg20
g21
sg34
g39
sg57
g189
sg33
g12
sa(dp1263
S'trials.thisIndex'
p1264
g23
(g66
S'3\x00\x00\x00\x00\x00\x00\x00'
p1265
tp1266
Rp1267
sg16
F4.207000970840454
sg22
g32
sg52
Vpoco
p1268
sg51
g94
sg50
VRipete "poco" da sempre
p1269
sS'trials.thisRepN'
p1270
I0
sg59
g76
sg55
g77
sg56
g99
sg15
S'space'
p1271
sS'trials.thisN'
p1272
I87
sg53
g98
sg58
g154
sg49
g23
(g66
S'4\x00\x00\x00\x00\x00\x00\x00'
p1273
tp1274
Rp1275
sS'trials.thisTrialN'
p1276
I87
sg54
g142
sg20
g21
sg34
g39
sg57
g143
sg33
g12
sa(dp1277
S'trials.thisIndex'
p1278
g23
(g66
S't\x00\x00\x00\x00\x00\x00\x00'
p1279
tp1280
Rp1281
sg16
F1.3871910572052002
sg22
g32
sg52
g114
sg51
g73
sg50
VScrivete "capo" sul foglio
p1282
sS'trials.thisRepN'
p1283
I0
sg59
g97
sg55
g98
sg56
g118
sg15
S'space'
p1284
sS'trials.thisN'
p1285
I88
sg53
g77
sg58
g81
sg49
g23
(g66
S'u\x00\x00\x00\x00\x00\x00\x00'
p1286
tp1287
Rp1288
sS'trials.thisTrialN'
p1289
I88
sg54
g125
sg20
g21
sg34
g39
sg57
g126
sg33
g12
sa(dp1290
S'trials.thisIndex'
p1291
g23
(g66
S'\x96\x00\x00\x00\x00\x00\x00\x00'
p1292
tp1293
Rp1294
sg16
F1.172631025314331
sg22
g32
sg52
g1150
sg51
g115
sg50
VSentivo "coto" di nuovo
p1295
sS'trials.thisRepN'
p1296
I0
sg59
g135
sg55
g102
sg56
g99
sg15
S'space'
p1297
sS'trials.thisN'
p1298
I89
sg53
g77
sg58
g81
sg49
g23
(g66
S'\x97\x00\x00\x00\x00\x00\x00\x00'
p1299
tp1300
Rp1301
sS'trials.thisTrialN'
p1302
I89
sg54
g142
sg20
g21
sg34
g39
sg57
g143
sg33
g12
sa(dp1303
S'trials.thisIndex'
p1304
g23
(g66
S'\x93\x00\x00\x00\x00\x00\x00\x00'
p1305
tp1306
Rp1307
sg16
F1.2862529754638672
sg22
g32
sg52
g359
sg51
g94
sg50
VRipete "chito" da sempre
p1308
sS'trials.thisRepN'
p1309
I0
sg59
g135
sg55
g102
sg56
g78
sg15
S'space'
p1310
sS'trials.thisN'
p1311
I90
sg53
g77
sg58
g81
sg49
g23
(g66
S'\x94\x00\x00\x00\x00\x00\x00\x00'
p1312
tp1313
Rp1314
sS'trials.thisTrialN'
p1315
I90
sg54
g86
sg20
g21
sg34
g39
sg57
g87
sg33
g12
sa(dp1316
S'trials.thisIndex'
p1317
g23
(g66
S'\x01\x00\x00\x00\x00\x00\x00\x00'
p1318
tp1319
Rp1320
sg16
F1.3028888702392578
sg22
g32
sg52
g149
sg51
g165
sg50
VHa detto "papo" sei volte
p1321
sS'trials.thisRepN'
p1322
I0
sg59
g97
sg55
g98
sg56
g118
sg15
S'space'
p1323
sS'trials.thisN'
p1324
I91
sg53
g98
sg58
g154
sg49
g23
(g66
S'\x02\x00\x00\x00\x00\x00\x00\x00'
p1325
tp1326
Rp1327
sS'trials.thisTrialN'
p1328
I91
sg54
g125
sg20
g21
sg34
g39
sg57
g126
sg33
g12
sa(dp1329
S'trials.thisIndex'
p1330
g23
(g66
S'=\x00\x00\x00\x00\x00\x00\x00'
p1331
tp1332
Rp1333
sg16
F1.3046588897705078
sg22
g32
sg52
g834
sg51
g165
sg50
VHa detto "tepo" sei volte
p1334
sS'trials.thisRepN'
p1335
I0
sg59
g97
sg55
g98
sg56
g78
sg15
S'space'
p1336
sS'trials.thisN'
p1337
I92
sg53
g102
sg58
g103
sg49
g23
(g66
S'>\x00\x00\x00\x00\x00\x00\x00'
p1338
tp1339
Rp1340
sS'trials.thisTrialN'
p1341
I92
sg54
g188
sg20
g21
sg34
g39
sg57
g189
sg33
g12
sa(dp1342
S'trials.thisIndex'
p1343
g23
(g66
S'.\x00\x00\x00\x00\x00\x00\x00'
p1344
tp1345
Rp1346
sg16
F1.3868350982666016
sg22
g32
sg52
g634
sg51
g115
sg50
VSentivo "pico" di nuovo
p1347
sS'trials.thisRepN'
p1348
I0
sg59
g76
sg55
g77
sg56
g78
sg15
S'space'
p1349
sS'trials.thisN'
p1350
I93
sg53
g98
sg58
g154
sg49
g23
(g66
S'/\x00\x00\x00\x00\x00\x00\x00'
p1351
tp1352
Rp1353
sS'trials.thisTrialN'
p1354
I93
sg54
g86
sg20
g21
sg34
g39
sg57
g87
sg33
g12
sa(dp1355
S'trials.thisIndex'
p1356
g23
(g66
S')\x00\x00\x00\x00\x00\x00\x00'
p1357
tp1358
Rp1359
sg16
F1.236900806427002
sg22
g32
sg52
Vpeco
p1360
sg51
g165
sg50
VHa detto "peco" sei volte
p1361
sS'trials.thisRepN'
p1362
I0
sg59
g76
sg55
g77
sg56
g78
sg15
S'space'
p1363
sS'trials.thisN'
p1364
I94
sg53
g98
sg58
g154
sg49
g23
(g66
S'*\x00\x00\x00\x00\x00\x00\x00'
p1365
tp1366
Rp1367
sS'trials.thisTrialN'
p1368
I94
sg54
g188
sg20
g21
sg34
g39
sg57
g189
sg33
g12
sa(dp1369
S'trials.thisIndex'
p1370
g23
(g66
S'l\x00\x00\x00\x00\x00\x00\x00'
p1371
tp1372
Rp1373
sg16
F1.5011570453643799
sg22
g32
sg52
g993
sg51
g73
sg50
VScrivete "toco" sul foglio
p1374
sS'trials.thisRepN'
p1375
I0
sg59
g76
sg55
g77
sg56
g99
sg15
S'space'
p1376
sS'trials.thisN'
p1377
I95
sg53
g102
sg58
g103
sg49
g23
(g66
S'm\x00\x00\x00\x00\x00\x00\x00'
p1378
tp1379
Rp1380
sS'trials.thisTrialN'
p1381
I95
sg54
g142
sg20
g21
sg34
g39
sg57
g143
sg33
g12
sa(dp1382
S'trials.thisIndex'
p1383
g23
(g66
S'\x17\x00\x00\x00\x00\x00\x00\x00'
p1384
tp1385
Rp1386
sg16
F3.237478017807007
sg22
g32
sg52
g887
sg51
g94
sg50
VRipete "pato" da sempre
p1387
sS'trials.thisRepN'
p1388
I0
sg59
g135
sg55
g102
sg56
g118
sg15
S'space'
p1389
sS'trials.thisN'
p1390
I96
sg53
g98
sg58
g154
sg49
g23
(g66
S'\x18\x00\x00\x00\x00\x00\x00\x00'
p1391
tp1392
Rp1393
sS'trials.thisTrialN'
p1394
I96
sg54
g125
sg20
g21
sg34
g39
sg57
g126
sg33
g12
sa(dp1395
S'trials.thisIndex'
p1396
g23
(g66
S'p\x00\x00\x00\x00\x00\x00\x00'
p1397
tp1398
Rp1399
sg16
F1.4888129234313965
sg22
g32
sg52
g512
sg51
g73
sg50
VScrivete "tuco" sul foglio
p1400
sS'trials.thisRepN'
p1401
I0
sg59
g76
sg55
g77
sg56
g99
sg15
S'space'
p1402
sS'trials.thisN'
p1403
I97
sg53
g102
sg58
g103
sg49
g23
(g66
S'q\x00\x00\x00\x00\x00\x00\x00'
p1404
tp1405
Rp1406
sS'trials.thisTrialN'
p1407
I97
sg54
g108
sg20
g21
sg34
g39
sg57
g87
sg33
g12
sa(dp1408
S'trials.thisIndex'
p1409
g23
(g66
S'\x07\x00\x00\x00\x00\x00\x00\x00'
p1410
tp1411
Rp1412
sg16
F1.2679340839385986
sg22
g32
sg52
g566
sg51
g94
sg50
VRipete "pepo" da sempre
p1413
sS'trials.thisRepN'
p1414
I0
sg59
g97
sg55
g98
sg56
g78
sg15
S'space'
p1415
sS'trials.thisN'
p1416
I98
sg53
g98
sg58
g154
sg49
g23
(g66
S'\x08\x00\x00\x00\x00\x00\x00\x00'
p1417
tp1418
Rp1419
sS'trials.thisTrialN'
p1420
I98
sg54
g188
sg20
g21
sg34
g39
sg57
g189
sg33
g12
sa(dp1421
S'trials.thisIndex'
p1422
g23
(g66
S'1\x00\x00\x00\x00\x00\x00\x00'
p1423
tp1424
Rp1425
sg16
F1.2876920700073242
sg22
g32
sg52
g1268
sg51
g165
sg50
VHa detto "poco" sei volte
p1426
sS'trials.thisRepN'
p1427
I0
sg59
g76
sg55
g77
sg56
g99
sg15
S'space'
p1428
sS'trials.thisN'
p1429
I99
sg53
g98
sg58
g154
sg49
g23
(g66
S'2\x00\x00\x00\x00\x00\x00\x00'
p1430
tp1431
Rp1432
sS'trials.thisTrialN'
p1433
I99
sg54
g142
sg20
g21
sg34
g39
sg57
g143
sg33
g12
sa(dp1434
S'trials.thisIndex'
p1435
g23
(g66
S'\x9e\x00\x00\x00\x00\x00\x00\x00'
p1436
tp1437
Rp1438
sg16
F1.2531991004943848
sg22
g32
sg52
g470
sg51
g115
sg50
VSentivo "checo" di nuovo
p1439
sS'trials.thisRepN'
p1440
I0
sg59
g76
sg55
g77
sg56
g78
sg15
S'space'
p1441
sS'trials.thisN'
p1442
I100
sg53
g77
sg58
g81
sg49
g23
(g66
S'\x9f\x00\x00\x00\x00\x00\x00\x00'
p1443
tp1444
Rp1445
sS'trials.thisTrialN'
p1446
I100
sg54
g188
sg20
g21
sg34
g39
sg57
g189
sg33
g12
sa(dp1447
S'trials.thisIndex'
p1448
g23
(g66
S'!\x00\x00\x00\x00\x00\x00\x00'
p1449
tp1450
Rp1451
sg16
F1.1531240940093994
sg22
g32
sg52
g456
sg51
g165
sg50
VHa detto "puto" sei volte
p1452
sS'trials.thisRepN'
p1453
I0
sg59
g135
sg55
g102
sg56
g99
sg15
S'space'
p1454
sS'trials.thisN'
p1455
I101
sg53
g98
sg58
g154
sg49
g23
(g66
S'"\x00\x00\x00\x00\x00\x00\x00'
p1456
tp1457
Rp1458
sS'trials.thisTrialN'
p1459
I101
sg54
g108
sg20
g21
sg34
g39
sg57
g87
sg33
g12
sa(dp1460
S'trials.thisIndex'
p1461
g23
(g66
S'\x9c\x00\x00\x00\x00\x00\x00\x00'
p1462
tp1463
Rp1464
sg16
F1.3547730445861816
sg22
g32
sg52
g470
sg51
g73
sg50
VScrivete "checo" sul foglio
p1465
sS'trials.thisRepN'
p1466
I0
sg59
g76
sg55
g77
sg56
g78
sg15
S'space'
p1467
sS'trials.thisN'
p1468
I102
sg53
g77
sg58
g81
sg49
g23
(g66
S'\x9d\x00\x00\x00\x00\x00\x00\x00'
p1469
tp1470
Rp1471
sS'trials.thisTrialN'
p1472
I102
sg54
g188
sg20
g21
sg34
g39
sg57
g189
sg33
g12
sa(dp1473
S'trials.thisIndex'
p1474
g23
(g66
S'y\x00\x00\x00\x00\x00\x00\x00'
p1475
tp1476
Rp1477
sg16
F0.8370637893676758
sg22
g32
sg52
g179
sg51
g165
sg50
VHa detto "chepo" sei volte
p1478
sS'trials.thisRepN'
p1479
I0
sg59
g97
sg55
g98
sg56
g78
sg15
S'space'
p1480
sS'trials.thisN'
p1481
I103
sg53
g77
sg58
g81
sg49
g23
(g66
S'z\x00\x00\x00\x00\x00\x00\x00'
p1482
tp1483
Rp1484
sS'trials.thisTrialN'
p1485
I103
sg54
g188
sg20
g21
sg34
g39
sg57
g189
sg33
g12
sa(dp1486
S'trials.thisIndex'
p1487
g23
(g66
S'H\x00\x00\x00\x00\x00\x00\x00'
p1488
tp1489
Rp1490
sg16
F1.570849895477295
sg22
g32
sg52
g93
sg51
g73
sg50
VScrivete "tupo" sul foglio
p1491
sS'trials.thisRepN'
p1492
I0
sg59
g97
sg55
g98
sg56
g99
sg15
S'space'
p1493
sS'trials.thisN'
p1494
I104
sg53
g102
sg58
g103
sg49
g23
(g66
S'I\x00\x00\x00\x00\x00\x00\x00'
p1495
tp1496
Rp1497
sS'trials.thisTrialN'
p1498
I104
sg54
g108
sg20
g21
sg34
g39
sg57
g87
sg33
g12
sa(dp1499
S'trials.thisIndex'
p1500
g23
(g66
S'8\x00\x00\x00\x00\x00\x00\x00'
p1501
tp1502
Rp1503
sg16
F1.4368200302124023
sg22
g32
sg52
g276
sg51
g73
sg50
VScrivete "tapo" sul foglio
p1504
sS'trials.thisRepN'
p1505
I0
sg59
g97
sg55
g98
sg56
g118
sg15
S'space'
p1506
sS'trials.thisN'
p1507
I105
sg53
g102
sg58
g103
sg49
g23
(g66
S'9\x00\x00\x00\x00\x00\x00\x00'
p1508
tp1509
Rp1510
sS'trials.thisTrialN'
p1511
I105
sg54
g125
sg20
g21
sg34
g39
sg57
g126
sg33
g12
sa(dp1512
S'trials.thisIndex'
p1513
g23
(g66
S'\\\x00\x00\x00\x00\x00\x00\x00'
p1514
tp1515
Rp1516
sg16
F1.3859341144561768
sg22
g32
sg52
g401
sg51
g73
sg50
VScrivete "tuto" sul foglio
p1517
sS'trials.thisRepN'
p1518
I0
sg59
g135
sg55
g102
sg56
g99
sg15
S'space'
p1519
sS'trials.thisN'
p1520
I106
sg53
g102
sg58
g103
sg49
g23
(g66
S']\x00\x00\x00\x00\x00\x00\x00'
p1521
tp1522
Rp1523
sS'trials.thisTrialN'
p1524
I106
sg54
g108
sg20
g21
sg34
g39
sg57
g87
sg33
g12
sa(dp1525
S'trials.thisIndex'
p1526
g23
(g66
S'\x1f\x00\x00\x00\x00\x00\x00\x00'
p1527
tp1528
Rp1529
sg16
F1.437513828277588
sg22
g32
sg52
g331
sg51
g94
sg50
VRipete "poto" da sempre
p1530
sS'trials.thisRepN'
p1531
I0
sg59
g135
sg55
g102
sg56
g99
sg15
S'space'
p1532
sS'trials.thisN'
p1533
I107
sg53
g98
sg58
g154
sg49
g23
(g66
S' \x00\x00\x00\x00\x00\x00\x00'
p1534
tp1535
Rp1536
sS'trials.thisTrialN'
p1537
I107
sg54
g142
sg20
g21
sg34
g39
sg57
g143
sg33
g12
sa(dp1538
S'trials.thisIndex'
p1539
g23
(g66
S'\x1e\x00\x00\x00\x00\x00\x00\x00'
p1540
tp1541
Rp1542
sg16
F1.204111099243164
sg22
g32
sg52
g331
sg51
g115
sg50
VSentivo "poto" di nuovo
p1543
sS'trials.thisRepN'
p1544
I0
sg59
g135
sg55
g102
sg56
g99
sg15
S'space'
p1545
sS'trials.thisN'
p1546
I108
sg53
g98
sg58
g154
sg49
g23
(g66
S'\x1f\x00\x00\x00\x00\x00\x00\x00'
p1547
tp1548
Rp1549
sS'trials.thisTrialN'
p1550
I108
sg54
g142
sg20
g21
sg34
g39
sg57
g143
sg33
g12
sa(dp1551
S'trials.thisIndex'
p1552
g23
(g66
S'&\x00\x00\x00\x00\x00\x00\x00'
p1553
tp1554
Rp1555
sg16
F1.2545650005340576
sg22
g32
sg52
g755
sg51
g115
sg50
VSentivo "paco" di nuovo
p1556
sS'trials.thisRepN'
p1557
I0
sg59
g76
sg55
g77
sg56
g118
sg15
S'space'
p1558
sS'trials.thisN'
p1559
I109
sg53
g98
sg58
g154
sg49
g23
(g66
S"'\x00\x00\x00\x00\x00\x00\x00"
p1560
tp1561
Rp1562
sS'trials.thisTrialN'
p1563
I109
sg54
g125
sg20
g21
sg34
g39
sg57
g126
sg33
g12
sa(dp1564
S'trials.thisIndex'
p1565
g23
(g66
S'\x90\x00\x00\x00\x00\x00\x00\x00'
p1566
tp1567
Rp1568
sg16
F1.3361711502075195
sg22
g32
sg52
g359
sg51
g73
sg50
VScrivete "chito" sul foglio
p1569
sS'trials.thisRepN'
p1570
I0
sg59
g135
sg55
g102
sg56
g78
sg15
S'space'
p1571
sS'trials.thisN'
p1572
I110
sg53
g77
sg58
g81
sg49
g23
(g66
S'\x91\x00\x00\x00\x00\x00\x00\x00'
p1573
tp1574
Rp1575
sS'trials.thisTrialN'
p1576
I110
sg54
g86
sg20
g21
sg34
g39
sg57
g87
sg33
g12
sa(dp1577
S'trials.thisIndex'
p1578
g23
(g66
S'\x97\x00\x00\x00\x00\x00\x00\x00'
p1579
tp1580
Rp1581
sg16
F1.2387218475341797
sg22
g32
sg52
g1150
sg51
g94
sg50
VRipete "coto" da sempre
p1582
sS'trials.thisRepN'
p1583
I0
sg59
g135
sg55
g102
sg56
g99
sg15
S'space'
p1584
sS'trials.thisN'
p1585
I111
sg53
g77
sg58
g81
sg49
g23
(g66
S'\x98\x00\x00\x00\x00\x00\x00\x00'
p1586
tp1587
Rp1588
sS'trials.thisTrialN'
p1589
I111
sg54
g142
sg20
g21
sg34
g39
sg57
g143
sg33
g12
sa(dp1590
S'trials.thisIndex'
p1591
g23
(g66
S'\x9d\x00\x00\x00\x00\x00\x00\x00'
p1592
tp1593
Rp1594
sg16
F1.4019920825958252
sg22
g32
sg52
g470
sg51
g165
sg50
VHa detto "checo" sei volte
p1595
sS'trials.thisRepN'
p1596
I0
sg59
g76
sg55
g77
sg56
g78
sg15
S'space'
p1597
sS'trials.thisN'
p1598
I112
sg53
g77
sg58
g81
sg49
g23
(g66
S'\x9e\x00\x00\x00\x00\x00\x00\x00'
p1599
tp1600
Rp1601
sS'trials.thisTrialN'
p1602
I112
sg54
g188
sg20
g21
sg34
g39
sg57
g189
sg33
g12
sa(dp1603
S'trials.thisIndex'
p1604
g23
(g66
S'\xab\x00\x00\x00\x00\x00\x00\x00'
p1605
tp1606
Rp1607
sg16
F1.5028798580169678
sg22
g32
sg52
Vcuco
p1608
sg51
g94
sg50
VRipete "cuco" da sempre
p1609
sS'trials.thisRepN'
p1610
I0
sg59
g76
sg55
g77
sg56
g99
sg15
S'space'
p1611
sS'trials.thisN'
p1612
I113
sg53
g77
sg58
g81
sg49
g23
(g66
S'\xac\x00\x00\x00\x00\x00\x00\x00'
p1613
tp1614
Rp1615
sS'trials.thisTrialN'
p1616
I113
sg54
g108
sg20
g21
sg34
g39
sg57
g87
sg33
g12
sa(dp1617
S'trials.thisIndex'
p1618
g23
(g66
S'0\x00\x00\x00\x00\x00\x00\x00'
p1619
tp1620
Rp1621
sg16
F1.4195129871368408
sg22
g32
sg52
g1268
sg51
g73
sg50
VScrivete "poco" sul foglio
p1622
sS'trials.thisRepN'
p1623
I0
sg59
g76
sg55
g77
sg56
g99
sg15
S'space'
p1624
sS'trials.thisN'
p1625
I114
sg53
g98
sg58
g154
sg49
g23
(g66
S'1\x00\x00\x00\x00\x00\x00\x00'
p1626
tp1627
Rp1628
sS'trials.thisTrialN'
p1629
I114
sg54
g142
sg20
g21
sg34
g39
sg57
g143
sg33
g12
sa(dp1630
S'trials.thisIndex'
p1631
g23
(g66
S'\x18\x00\x00\x00\x00\x00\x00\x00'
p1632
tp1633
Rp1634
sg16
F1.3666009902954102
sg22
g32
sg52
g607
sg51
g73
sg50
VScrivete "pito" sul foglio
p1635
sS'trials.thisRepN'
p1636
I0
sg59
g135
sg55
g102
sg56
g78
sg15
S'space'
p1637
sS'trials.thisN'
p1638
I115
sg53
g98
sg58
g154
sg49
g23
(g66
S'\x19\x00\x00\x00\x00\x00\x00\x00'
p1639
tp1640
Rp1641
sS'trials.thisTrialN'
p1642
I115
sg54
g86
sg20
g21
sg34
g39
sg57
g87
sg33
g12
sa(dp1643
S'trials.thisIndex'
p1644
g23
(g66
S'I\x00\x00\x00\x00\x00\x00\x00'
p1645
tp1646
Rp1647
sg16
F2.055237054824829
sg22
g32
sg52
g93
sg51
g165
sg50
VHa detto "tupo" sei volte
p1648
sS'trials.thisRepN'
p1649
I0
sg59
g97
sg55
g98
sg56
g99
sg15
S'space'
p1650
sS'trials.thisN'
p1651
I116
sg53
g102
sg58
g103
sg49
g23
(g66
S'J\x00\x00\x00\x00\x00\x00\x00'
p1652
tp1653
Rp1654
sS'trials.thisTrialN'
p1655
I116
sg54
g108
sg20
g21
sg34
g39
sg57
g87
sg33
g12
sa(dp1656
S'trials.thisIndex'
p1657
g23
(g66
S'2\x00\x00\x00\x00\x00\x00\x00'
p1658
tp1659
Rp1660
sg16
F1.2537250518798828
sg22
g32
sg52
g1268
sg51
g115
sg50
VSentivo "poco" di nuovo
p1661
sS'trials.thisRepN'
p1662
I0
sg59
g76
sg55
g77
sg56
g99
sg15
S'space'
p1663
sS'trials.thisN'
p1664
I117
sg53
g98
sg58
g154
sg49
g23
(g66
S'3\x00\x00\x00\x00\x00\x00\x00'
p1665
tp1666
Rp1667
sS'trials.thisTrialN'
p1668
I117
sg54
g142
sg20
g21
sg34
g39
sg57
g143
sg33
g12
sa(dp1669
S'trials.thisIndex'
p1670
g23
(g66
S'\x88\x00\x00\x00\x00\x00\x00\x00'
p1671
tp1672
Rp1673
sg16
F1.3371751308441162
sg22
g32
sg52
g429
sg51
g73
sg50
VScrivete "cato" sul foglio
p1674
sS'trials.thisRepN'
p1675
I0
sg59
g135
sg55
g102
sg56
g118
sg15
S'space'
p1676
sS'trials.thisN'
p1677
I118
sg53
g77
sg58
g81
sg49
g23
(g66
S'\x89\x00\x00\x00\x00\x00\x00\x00'
p1678
tp1679
Rp1680
sS'trials.thisTrialN'
p1681
I118
sg54
g125
sg20
g21
sg34
g39
sg57
g126
sg33
g12
sa(dp1682
S'trials.thisIndex'
p1683
g23
(g66
S'+\x00\x00\x00\x00\x00\x00\x00'
p1684
tp1685
Rp1686
sg16
F1.1533281803131104
sg22
g32
sg52
g1360
sg51
g94
sg50
VRipete "peco" da sempre
p1687
sS'trials.thisRepN'
p1688
I0
sg59
g76
sg55
g77
sg56
g78
sg15
S'space'
p1689
sS'trials.thisN'
p1690
I119
sg53
g98
sg58
g154
sg49
g23
(g66
S',\x00\x00\x00\x00\x00\x00\x00'
p1691
tp1692
Rp1693
sS'trials.thisTrialN'
p1694
I119
sg54
g188
sg20
g21
sg34
g39
sg57
g189
sg33
g12
sa(dp1695
S'trials.thisIndex'
p1696
g23
(g66
S'\xa9\x00\x00\x00\x00\x00\x00\x00'
p1697
tp1698
Rp1699
sg16
F1.3030250072479248
sg22
g32
sg52
g1608
sg51
g165
sg50
VHa detto "cuco" sei volte
p1700
sS'trials.thisRepN'
p1701
I0
sg59
g76
sg55
g77
sg56
g99
sg15
S'space'
p1702
sS'trials.thisN'
p1703
I120
sg53
g77
sg58
g81
sg49
g23
(g66
S'\xaa\x00\x00\x00\x00\x00\x00\x00'
p1704
tp1705
Rp1706
sS'trials.thisTrialN'
p1707
I120
sg54
g108
sg20
g21
sg34
g39
sg57
g87
sg33
g12
sa(dp1708
S'trials.thisIndex'
p1709
g23
(g66
S'\x11\x00\x00\x00\x00\x00\x00\x00'
p1710
tp1711
Rp1712
sg16
F1.1855828762054443
sg22
g32
sg52
g248
sg51
g165
sg50
VHa detto "pupo" sei volte
p1713
sS'trials.thisRepN'
p1714
I0
sg59
g97
sg55
g98
sg56
g99
sg15
S'space'
p1715
sS'trials.thisN'
p1716
I121
sg53
g98
sg58
g154
sg49
g23
(g66
S'\x12\x00\x00\x00\x00\x00\x00\x00'
p1717
tp1718
Rp1719
sS'trials.thisTrialN'
p1720
I121
sg54
g108
sg20
g21
sg34
g39
sg57
g87
sg33
g12
sa(dp1721
S'trials.thisIndex'
p1722
g23
(g66
S'*\x00\x00\x00\x00\x00\x00\x00'
p1723
tp1724
Rp1725
sg16
F1.2206928730010986
sg22
g32
sg52
g1360
sg51
g115
sg50
VSentivo "peco" di nuovo
p1726
sS'trials.thisRepN'
p1727
I0
sg59
g76
sg55
g77
sg56
g78
sg15
S'space'
p1728
sS'trials.thisN'
p1729
I122
sg53
g98
sg58
g154
sg49
g23
(g66
S'+\x00\x00\x00\x00\x00\x00\x00'
p1730
tp1731
Rp1732
sS'trials.thisTrialN'
p1733
I122
sg54
g188
sg20
g21
sg34
g39
sg57
g189
sg33
g12
sa(dp1734
S'trials.thisIndex'
p1735
g23
(g66
S'\x9a\x00\x00\x00\x00\x00\x00\x00'
p1736
tp1737
Rp1738
sg16
F1.2010118961334229
sg22
g32
sg52
g741
sg51
g115
sg50
VSentivo "cuto" di nuovo
p1739
sS'trials.thisRepN'
p1740
I0
sg59
g135
sg55
g102
sg56
g99
sg15
S'space'
p1741
sS'trials.thisN'
p1742
I123
sg53
g77
sg58
g81
sg49
g23
(g66
S'\x9b\x00\x00\x00\x00\x00\x00\x00'
p1743
tp1744
Rp1745
sS'trials.thisTrialN'
p1746
I123
sg54
g108
sg20
g21
sg34
g39
sg57
g87
sg33
g12
sa(dp1747
S'trials.thisIndex'
p1748
g23
(g66
S's\x00\x00\x00\x00\x00\x00\x00'
p1749
tp1750
Rp1751
sg16
F1.2696678638458252
sg22
g32
sg52
g512
sg51
g94
sg50
VRipete "tuco" da sempre
p1752
sS'trials.thisRepN'
p1753
I0
sg59
g76
sg55
g77
sg56
g99
sg15
S'space'
p1754
sS'trials.thisN'
p1755
I124
sg53
g102
sg58
g103
sg49
g23
(g66
S't\x00\x00\x00\x00\x00\x00\x00'
p1756
tp1757
Rp1758
sS'trials.thisTrialN'
p1759
I124
sg54
g108
sg20
g21
sg34
g39
sg57
g87
sg33
g12
sa(dp1760
S'trials.thisIndex'
p1761
g23
(g66
S'B\x00\x00\x00\x00\x00\x00\x00'
p1762
tp1763
Rp1764
sg16
F0.9698150157928467
sg22
g32
sg52
g498
sg51
g115
sg50
VSentivo "tipo" di nuovo
p1765
sS'trials.thisRepN'
p1766
I0
sg59
g97
sg55
g98
sg56
g78
sg15
S'space'
p1767
sS'trials.thisN'
p1768
I125
sg53
g102
sg58
g103
sg49
g23
(g66
S'C\x00\x00\x00\x00\x00\x00\x00'
p1769
tp1770
Rp1771
sS'trials.thisTrialN'
p1772
I125
sg54
g86
sg20
g21
sg34
g39
sg57
g87
sg33
g12
sa(dp1773
S'trials.thisIndex'
p1774
g23
(g66
S'\xa4\x00\x00\x00\x00\x00\x00\x00'
p1775
tp1776
Rp1777
sg16
F1.3028981685638428
sg22
g32
sg52
g164
sg51
g73
sg50
VScrivete "coco" sul foglio
p1778
sS'trials.thisRepN'
p1779
I0
sg59
g76
sg55
g77
sg56
g99
sg15
S'space'
p1780
sS'trials.thisN'
p1781
I126
sg53
g77
sg58
g81
sg49
g23
(g66
S'\xa5\x00\x00\x00\x00\x00\x00\x00'
p1782
tp1783
Rp1784
sS'trials.thisTrialN'
p1785
I126
sg54
g142
sg20
g21
sg34
g39
sg57
g143
sg33
g12
sa(dp1786
S'trials.thisIndex'
p1787
g23
(g66
S'\x84\x00\x00\x00\x00\x00\x00\x00'
p1788
tp1789
Rp1790
sg16
F1.2191760540008545
sg22
g32
sg52
g953
sg51
g73
sg50
VScrivete "cupo" sul foglio
p1791
sS'trials.thisRepN'
p1792
I0
sg59
g97
sg55
g98
sg56
g99
sg15
S'space'
p1793
sS'trials.thisN'
p1794
I127
sg53
g77
sg58
g81
sg49
g23
(g66
S'\x85\x00\x00\x00\x00\x00\x00\x00'
p1795
tp1796
Rp1797
sS'trials.thisTrialN'
p1798
I127
sg54
g108
sg20
g21
sg34
g39
sg57
g87
sg33
g12
sa(dp1799
S'trials.thisIndex'
p1800
g23
(g66
S'F\x00\x00\x00\x00\x00\x00\x00'
p1801
tp1802
Rp1803
sg16
F1.1706130504608154
sg22
g32
sg52
g262
sg51
g115
sg50
VSentivo "topo" di nuovo
p1804
sS'trials.thisRepN'
p1805
I0
sg59
g97
sg55
g98
sg56
g99
sg15
S'space'
p1806
sS'trials.thisN'
p1807
I128
sg53
g102
sg58
g103
sg49
g23
(g66
S'G\x00\x00\x00\x00\x00\x00\x00'
p1808
tp1809
Rp1810
sS'trials.thisTrialN'
p1811
I128
sg54
g142
sg20
g21
sg34
g39
sg57
g143
sg33
g12
sa(dp1812
S'trials.thisIndex'
p1813
g23
(g66
S'S\x00\x00\x00\x00\x00\x00\x00'
p1814
tp1815
Rp1816
sg16
F1.186345100402832
sg22
g32
sg52
g290
sg51
g94
sg50
VRipete "teto" da sempre
p1817
sS'trials.thisRepN'
p1818
I0
sg59
g135
sg55
g102
sg56
g78
sg15
S'space'
p1819
sS'trials.thisN'
p1820
I129
sg53
g102
sg58
g103
sg49
g23
(g66
S'T\x00\x00\x00\x00\x00\x00\x00'
p1821
tp1822
Rp1823
sS'trials.thisTrialN'
p1824
I129
sg54
g188
sg20
g21
sg34
g39
sg57
g189
sg33
g12
sa(dp1825
S'trials.thisIndex'
p1826
g23
(g66
S'\x19\x00\x00\x00\x00\x00\x00\x00'
p1827
tp1828
Rp1829
sg16
F1.2534379959106445
sg22
g32
sg52
g607
sg51
g165
sg50
VHa detto "pito" sei volte
p1830
sS'trials.thisRepN'
p1831
I0
sg59
g135
sg55
g102
sg56
g78
sg15
S'space'
p1832
sS'trials.thisN'
p1833
I130
sg53
g98
sg58
g154
sg49
g23
(g66
S'\x1a\x00\x00\x00\x00\x00\x00\x00'
p1834
tp1835
Rp1836
sS'trials.thisTrialN'
p1837
I130
sg54
g86
sg20
g21
sg34
g39
sg57
g87
sg33
g12
sa(dp1838
S'trials.thisIndex'
p1839
g23
(g66
S'R\x00\x00\x00\x00\x00\x00\x00'
p1840
tp1841
Rp1842
sg16
F1.154224157333374
sg22
g32
sg52
g290
sg51
g115
sg50
VSentivo "teto" di nuovo
p1843
sS'trials.thisRepN'
p1844
I0
sg59
g135
sg55
g102
sg56
g78
sg15
S'space'
p1845
sS'trials.thisN'
p1846
I131
sg53
g102
sg58
g103
sg49
g23
(g66
S'S\x00\x00\x00\x00\x00\x00\x00'
p1847
tp1848
Rp1849
sS'trials.thisTrialN'
p1850
I131
sg54
g188
sg20
g21
sg34
g39
sg57
g189
sg33
g12
sa(dp1851
S'trials.thisIndex'
p1852
g23
(g66
S'/\x00\x00\x00\x00\x00\x00\x00'
p1853
tp1854
Rp1855
sg16
F1.1860029697418213
sg22
g32
sg52
g634
sg51
g94
sg50
VRipete "pico" da sempre
p1856
sS'trials.thisRepN'
p1857
I0
sg59
g76
sg55
g77
sg56
g78
sg15
S'space'
p1858
sS'trials.thisN'
p1859
I132
sg53
g98
sg58
g154
sg49
g23
(g66
S'0\x00\x00\x00\x00\x00\x00\x00'
p1860
tp1861
Rp1862
sS'trials.thisTrialN'
p1863
I132
sg54
g86
sg20
g21
sg34
g39
sg57
g87
sg33
g12
sa(dp1864
S'trials.thisIndex'
p1865
g23
(g66
S'\x83\x00\x00\x00\x00\x00\x00\x00'
p1866
tp1867
Rp1868
sg16
F1.1371688842773438
sg22
g32
sg52
g701
sg51
g94
sg50
VRipete "copo" da sempre
p1869
sS'trials.thisRepN'
p1870
I0
sg59
g97
sg55
g98
sg56
g99
sg15
S'space'
p1871
sS'trials.thisN'
p1872
I133
sg53
g77
sg58
g81
sg49
g23
(g66
S'\x84\x00\x00\x00\x00\x00\x00\x00'
p1873
tp1874
Rp1875
sS'trials.thisTrialN'
p1876
I133
sg54
g142
sg20
g21
sg34
g39
sg57
g143
sg33
g12
sa(dp1877
S'trials.thisIndex'
p1878
g23
(g66
S']\x00\x00\x00\x00\x00\x00\x00'
p1879
tp1880
Rp1881
sg16
F1.151378870010376
sg22
g32
sg52
g401
sg51
g165
sg50
VHa detto "tuto" sei volte
p1882
sS'trials.thisRepN'
p1883
I0
sg59
g135
sg55
g102
sg56
g99
sg15
S'space'
p1884
sS'trials.thisN'
p1885
I134
sg53
g102
sg58
g103
sg49
g23
(g66
S'^\x00\x00\x00\x00\x00\x00\x00'
p1886
tp1887
Rp1888
sS'trials.thisTrialN'
p1889
I134
sg54
g108
sg20
g21
sg34
g39
sg57
g87
sg33
g12
sa(dp1890
S'trials.thisIndex'
p1891
g23
(g66
S'-\x00\x00\x00\x00\x00\x00\x00'
p1892
tp1893
Rp1894
sg16
F1.121032953262329
sg22
g32
sg52
g634
sg51
g165
sg50
VHa detto "pico" sei volte
p1895
sS'trials.thisRepN'
p1896
I0
sg59
g76
sg55
g77
sg56
g78
sg15
S'space'
p1897
sS'trials.thisN'
p1898
I135
sg53
g98
sg58
g154
sg49
g23
(g66
S'.\x00\x00\x00\x00\x00\x00\x00'
p1899
tp1900
Rp1901
sS'trials.thisTrialN'
p1902
I135
sg54
g86
sg20
g21
sg34
g39
sg57
g87
sg33
g12
sa(dp1903
S'trials.thisIndex'
p1904
g23
(g66
S'\xaa\x00\x00\x00\x00\x00\x00\x00'
p1905
tp1906
Rp1907
sg16
F1.2380321025848389
sg22
g32
sg52
g1608
sg51
g115
sg50
VSentivo "cuco" di nuovo
p1908
sS'trials.thisRepN'
p1909
I0
sg59
g76
sg55
g77
sg56
g99
sg15
S'space'
p1910
sS'trials.thisN'
p1911
I136
sg53
g77
sg58
g81
sg49
g23
(g66
S'\xab\x00\x00\x00\x00\x00\x00\x00'
p1912
tp1913
Rp1914
sS'trials.thisTrialN'
p1915
I136
sg54
g108
sg20
g21
sg34
g39
sg57
g87
sg33
g12
sa(dp1916
S'trials.thisIndex'
p1917
g23
(g66
S'\r\x00\x00\x00\x00\x00\x00\x00'
p1918
tp1919
Rp1920
sg16
F1.2710700035095215
sg22
g32
sg52
g484
sg51
g165
sg50
VHa detto "popo" sei volte
p1921
sS'trials.thisRepN'
p1922
I0
sg59
g97
sg55
g98
sg56
g99
sg15
S'space'
p1923
sS'trials.thisN'
p1924
I137
sg53
g98
sg58
g154
sg49
g23
(g66
S'\x0e\x00\x00\x00\x00\x00\x00\x00'
p1925
tp1926
Rp1927
sS'trials.thisTrialN'
p1928
I137
sg54
g142
sg20
g21
sg34
g39
sg57
g143
sg33
g12
sa(dp1929
S'trials.thisIndex'
p1930
g23
(g66
S'\x0b\x00\x00\x00\x00\x00\x00\x00'
p1931
tp1932
Rp1933
sg16
F1.0877361297607422
sg22
g32
sg52
g373
sg51
g94
sg50
VRipete "pipo" da sempre
p1934
sS'trials.thisRepN'
p1935
I0
sg59
g97
sg55
g98
sg56
g78
sg15
S'space'
p1936
sS'trials.thisN'
p1937
I138
sg53
g98
sg58
g154
sg49
g23
(g66
S'\x0c\x00\x00\x00\x00\x00\x00\x00'
p1938
tp1939
Rp1940
sS'trials.thisTrialN'
p1941
I138
sg54
g86
sg20
g21
sg34
g39
sg57
g87
sg33
g12
sa(dp1942
S'trials.thisIndex'
p1943
g23
(g66
S'X\x00\x00\x00\x00\x00\x00\x00'
p1944
tp1945
Rp1946
sg16
F1.2385549545288086
sg22
g32
sg52
g132
sg51
g73
sg50
VScrivete "toto" sul foglio
p1947
sS'trials.thisRepN'
p1948
I0
sg59
g135
sg55
g102
sg56
g99
sg15
S'space'
p1949
sS'trials.thisN'
p1950
I139
sg53
g102
sg58
g103
sg49
g23
(g66
S'Y\x00\x00\x00\x00\x00\x00\x00'
p1951
tp1952
Rp1953
sS'trials.thisTrialN'
p1954
I139
sg54
g142
sg20
g21
sg34
g39
sg57
g143
sg33
g12
sa(dp1955
S'trials.thisIndex'
p1956
g23
(g66
S'\x85\x00\x00\x00\x00\x00\x00\x00'
p1957
tp1958
Rp1959
sg16
F1.0722770690917969
sg22
g32
sg52
g953
sg51
g165
sg50
VHa detto "cupo" sei volte
p1960
sS'trials.thisRepN'
p1961
I0
sg59
g97
sg55
g98
sg56
g99
sg15
S'space'
p1962
sS'trials.thisN'
p1963
I140
sg53
g77
sg58
g81
sg49
g23
(g66
S'\x86\x00\x00\x00\x00\x00\x00\x00'
p1964
tp1965
Rp1966
sS'trials.thisTrialN'
p1967
I140
sg54
g108
sg20
g21
sg34
g39
sg57
g87
sg33
g12
sa(dp1968
S'trials.thisIndex'
p1969
g23
(g66
S'd\x00\x00\x00\x00\x00\x00\x00'
p1970
tp1971
Rp1972
sg16
F1.537410020828247
sg22
g32
sg52
g580
sg51
g73
sg50
VScrivete "teco" sul foglio
p1973
sS'trials.thisRepN'
p1974
I0
sg59
g76
sg55
g77
sg56
g78
sg15
S'space'
p1975
sS'trials.thisN'
p1976
I141
sg53
g102
sg58
g103
sg49
g23
(g66
S'e\x00\x00\x00\x00\x00\x00\x00'
p1977
tp1978
Rp1979
sS'trials.thisTrialN'
p1980
I141
sg54
g188
sg20
g21
sg34
g39
sg57
g189
sg33
g12
sa(dp1981
S'trials.thisIndex'
p1982
g23
(g66
S'\x06\x00\x00\x00\x00\x00\x00\x00'
p1983
tp1984
Rp1985
sg16
F1.2719230651855469
sg22
g32
sg52
g566
sg51
g115
sg50
VSentivo "pepo" di nuovo
p1986
sS'trials.thisRepN'
p1987
I0
sg59
g97
sg55
g98
sg56
g78
sg15
S'space'
p1988
sS'trials.thisN'
p1989
I142
sg53
g98
sg58
g154
sg49
g23
(g66
S'\x07\x00\x00\x00\x00\x00\x00\x00'
p1990
tp1991
Rp1992
sS'trials.thisTrialN'
p1993
I142
sg54
g188
sg20
g21
sg34
g39
sg57
g189
sg33
g12
sa(dp1994
S'trials.thisIndex'
p1995
g23
(g66
S'j\x00\x00\x00\x00\x00\x00\x00'
p1996
tp1997
Rp1998
sg16
F1.7546279430389404
sg22
g32
sg52
g415
sg51
g115
sg50
VSentivo "tico" di nuovo
p1999
sS'trials.thisRepN'
p2000
I0
sg59
g76
sg55
g77
sg56
g78
sg15
S'space'
p2001
sS'trials.thisN'
p2002
I143
sg53
g102
sg58
g103
sg49
g23
(g66
S'k\x00\x00\x00\x00\x00\x00\x00'
p2003
tp2004
Rp2005
sS'trials.thisTrialN'
p2006
I143
sg54
g86
sg20
g21
sg34
g39
sg57
g87
sg33
g12
sa(dp2007
S'trials.thisIndex'
p2008
g23
(g66
S'(\x00\x00\x00\x00\x00\x00\x00'
p2009
tp2010
Rp2011
sg16
F1.2540600299835205
sg22
g32
sg52
g1360
sg51
g73
sg50
VScrivete "peco" sul foglio
p2012
sS'trials.thisRepN'
p2013
I0
sg59
g76
sg55
g77
sg56
g78
sg15
S'space'
p2014
sS'trials.thisN'
p2015
I144
sg53
g98
sg58
g154
sg49
g23
(g66
S')\x00\x00\x00\x00\x00\x00\x00'
p2016
tp2017
Rp2018
sS'trials.thisTrialN'
p2019
I144
sg54
g188
sg20
g21
sg34
g39
sg57
g189
sg33
g12
sa(dp2020
S'trials.thisIndex'
p2021
g23
(g66
S'\t\x00\x00\x00\x00\x00\x00\x00'
p2022
tp2023
Rp2024
sg16
F1.005418062210083
sg22
g32
sg52
g373
sg51
g165
sg50
VHa detto "pipo" sei volte
p2025
sS'trials.thisRepN'
p2026
I0
sg59
g97
sg55
g98
sg56
g78
sg15
S'space'
p2027
sS'trials.thisN'
p2028
I145
sg53
g98
sg58
g154
sg49
g23
(g66
S'\n\x00\x00\x00\x00\x00\x00\x00'
p2029
tp2030
Rp2031
sS'trials.thisTrialN'
p2032
I145
sg54
g86
sg20
g21
sg34
g39
sg57
g87
sg33
g12
sa(dp2033
S'trials.thisIndex'
p2034
g23
(g66
S'\x16\x00\x00\x00\x00\x00\x00\x00'
p2035
tp2036
Rp2037
sg16
F1.4716038703918457
sg22
g32
sg52
g887
sg51
g115
sg50
VSentivo "pato" di nuovo
p2038
sS'trials.thisRepN'
p2039
I0
sg59
g135
sg55
g102
sg56
g118
sg15
S'space'
p2040
sS'trials.thisN'
p2041
I146
sg53
g98
sg58
g154
sg49
g23
(g66
S'\x17\x00\x00\x00\x00\x00\x00\x00'
p2042
tp2043
Rp2044
sS'trials.thisTrialN'
p2045
I146
sg54
g125
sg20
g21
sg34
g39
sg57
g126
sg33
g12
sa(dp2046
S'trials.thisIndex'
p2047
g23
(g66
S'\x8c\x00\x00\x00\x00\x00\x00\x00'
p2048
tp2049
Rp2050
sg16
F1.5069482326507568
sg22
g32
sg52
g221
sg51
g73
sg50
VScrivete "cheto" sul foglio
p2051
sS'trials.thisRepN'
p2052
I0
sg59
g135
sg55
g102
sg56
g78
sg15
S'space'
p2053
sS'trials.thisN'
p2054
I147
sg53
g77
sg58
g81
sg49
g23
(g66
S'\x8d\x00\x00\x00\x00\x00\x00\x00'
p2055
tp2056
Rp2057
sS'trials.thisTrialN'
p2058
I147
sg54
g188
sg20
g21
sg34
g39
sg57
g189
sg33
g12
sa(dp2059
S'trials.thisIndex'
p2060
g23
(g66
S'A\x00\x00\x00\x00\x00\x00\x00'
p2061
tp2062
Rp2063
sg16
F1.5389900207519531
sg22
g32
sg52
g498
sg51
g165
sg50
VHa detto "tipo" sei volte
p2064
sS'trials.thisRepN'
p2065
I0
sg59
g97
sg55
g98
sg56
g78
sg15
S'space'
p2066
sS'trials.thisN'
p2067
I148
sg53
g102
sg58
g103
sg49
g23
(g66
S'B\x00\x00\x00\x00\x00\x00\x00'
p2068
tp2069
Rp2070
sS'trials.thisTrialN'
p2071
I148
sg54
g86
sg20
g21
sg34
g39
sg57
g87
sg33
g12
sa(dp2072
S'trials.thisIndex'
p2073
g23
(g66
S'\x8f\x00\x00\x00\x00\x00\x00\x00'
p2074
tp2075
Rp2076
sg16
F1.4378759860992432
sg22
g32
sg52
g221
sg51
g94
sg50
VRipete "cheto" da sempre
p2077
sS'trials.thisRepN'
p2078
I0
sg59
g135
sg55
g102
sg56
g78
sg15
S'space'
p2079
sS'trials.thisN'
p2080
I149
sg53
g77
sg58
g81
sg49
g23
(g66
S'\x90\x00\x00\x00\x00\x00\x00\x00'
p2081
tp2082
Rp2083
sS'trials.thisTrialN'
p2084
I149
sg54
g188
sg20
g21
sg34
g39
sg57
g189
sg33
g12
sa(dp2085
S'trials.thisIndex'
p2086
g23
(g66
S'\x8e\x00\x00\x00\x00\x00\x00\x00'
p2087
tp2088
Rp2089
sg16
F1.2563440799713135
sg22
g32
sg52
g221
sg51
g115
sg50
VSentivo "cheto" di nuovo
p2090
sS'trials.thisRepN'
p2091
I0
sg59
g135
sg55
g102
sg56
g78
sg15
S'space'
p2092
sS'trials.thisN'
p2093
I150
sg53
g77
sg58
g81
sg49
g23
(g66
S'\x8f\x00\x00\x00\x00\x00\x00\x00'
p2094
tp2095
Rp2096
sS'trials.thisTrialN'
p2097
I150
sg54
g188
sg20
g21
sg34
g39
sg57
g189
sg33
g12
sa(dp2098
S'trials.thisIndex'
p2099
g23
(g66
S'%\x00\x00\x00\x00\x00\x00\x00'
p2100
tp2101
Rp2102
sg16
F1.3545598983764648
sg22
g32
sg52
g755
sg51
g165
sg50
VHa detto "paco" sei volte
p2103
sS'trials.thisRepN'
p2104
I0
sg59
g76
sg55
g77
sg56
g118
sg15
S'space'
p2105
sS'trials.thisN'
p2106
I151
sg53
g98
sg58
g154
sg49
g23
(g66
S'&\x00\x00\x00\x00\x00\x00\x00'
p2107
tp2108
Rp2109
sS'trials.thisTrialN'
p2110
I151
sg54
g125
sg20
g21
sg34
g39
sg57
g126
sg33
g12
sa(dp2111
S'trials.thisIndex'
p2112
g23
(g66
S'\x80\x00\x00\x00\x00\x00\x00\x00'
p2113
tp2114
Rp2115
sg16
F1.1222279071807861
sg22
g32
sg52
g701
sg51
g73
sg50
VScrivete "copo" sul foglio
p2116
sS'trials.thisRepN'
p2117
I0
sg59
g97
sg55
g98
sg56
g99
sg15
S'space'
p2118
sS'trials.thisN'
p2119
I152
sg53
g77
sg58
g81
sg49
g23
(g66
S'\x81\x00\x00\x00\x00\x00\x00\x00'
p2120
tp2121
Rp2122
sS'trials.thisTrialN'
p2123
I152
sg54
g142
sg20
g21
sg34
g39
sg57
g143
sg33
g12
sa(dp2124
S'trials.thisIndex'
p2125
g23
(g66
S'\x95\x00\x00\x00\x00\x00\x00\x00'
p2126
tp2127
Rp2128
sg16
F1.522503137588501
sg22
g32
sg52
g1150
sg51
g165
sg50
VHa detto "coto" sei volte
p2129
sS'trials.thisRepN'
p2130
I0
sg59
g135
sg55
g102
sg56
g99
sg15
S'space'
p2131
sS'trials.thisN'
p2132
I153
sg53
g77
sg58
g81
sg49
g23
(g66
S'\x96\x00\x00\x00\x00\x00\x00\x00'
p2133
tp2134
Rp2135
sS'trials.thisTrialN'
p2136
I153
sg54
g142
sg20
g21
sg34
g39
sg57
g143
sg33
g12
sa(dp2137
S'trials.thisIndex'
p2138
g23
(g66
S'x\x00\x00\x00\x00\x00\x00\x00'
p2139
tp2140
Rp2141
sg16
F1.389462947845459
sg22
g32
sg52
g179
sg51
g73
sg50
VScrivete "chepo" sul foglio
p2142
sS'trials.thisRepN'
p2143
I0
sg59
g97
sg55
g98
sg56
g78
sg15
S'space'
p2144
sS'trials.thisN'
p2145
I154
sg53
g77
sg58
g81
sg49
g23
(g66
S'y\x00\x00\x00\x00\x00\x00\x00'
p2146
tp2147
Rp2148
sS'trials.thisTrialN'
p2149
I154
sg54
g188
sg20
g21
sg34
g39
sg57
g189
sg33
g12
sa(dp2150
S'trials.thisIndex'
p2151
g23
(g66
S'\x99\x00\x00\x00\x00\x00\x00\x00'
p2152
tp2153
Rp2154
sg16
F1.2067828178405762
sg22
g32
sg52
g741
sg51
g165
sg50
VHa detto "cuto" sei volte
p2155
sS'trials.thisRepN'
p2156
I0
sg59
g135
sg55
g102
sg56
g99
sg15
S'space'
p2157
sS'trials.thisN'
p2158
I155
sg53
g77
sg58
g81
sg49
g23
(g66
S'\x9a\x00\x00\x00\x00\x00\x00\x00'
p2159
tp2160
Rp2161
sS'trials.thisTrialN'
p2162
I155
sg54
g108
sg20
g21
sg34
g39
sg57
g87
sg33
g12
sa(dp2163
S'trials.thisIndex'
p2164
g23
(g66
S'a\x00\x00\x00\x00\x00\x00\x00'
p2165
tp2166
Rp2167
sg16
F1.22200608253479
sg22
g32
sg52
g317
sg51
g165
sg50
VHa detto "taco" sei volte
p2168
sS'trials.thisRepN'
p2169
I0
sg59
g76
sg55
g77
sg56
g118
sg15
S'space'
p2170
sS'trials.thisN'
p2171
I156
sg53
g102
sg58
g103
sg49
g23
(g66
S'b\x00\x00\x00\x00\x00\x00\x00'
p2172
tp2173
Rp2174
sS'trials.thisTrialN'
p2175
I156
sg54
g125
sg20
g21
sg34
g39
sg57
g126
sg33
g12
sa(dp2176
S'trials.thisIndex'
p2177
g23
(g66
S'o\x00\x00\x00\x00\x00\x00\x00'
p2178
tp2179
Rp2180
sg16
F1.3065049648284912
sg22
g32
sg52
g993
sg51
g94
sg50
VRipete "toco" da sempre
p2181
sS'trials.thisRepN'
p2182
I0
sg59
g76
sg55
g77
sg56
g99
sg15
S'space'
p2183
sS'trials.thisN'
p2184
I157
sg53
g102
sg58
g103
sg49
g23
(g66
S'p\x00\x00\x00\x00\x00\x00\x00'
p2185
tp2186
Rp2187
sS'trials.thisTrialN'
p2188
I157
sg54
g142
sg20
g21
sg34
g39
sg57
g143
sg33
g12
sa(dp2189
S'trials.thisIndex'
p2190
g23
(g66
S'\xa8\x00\x00\x00\x00\x00\x00\x00'
p2191
tp2192
Rp2193
sg16
F1.2385540008544922
sg22
g32
sg52
g1608
sg51
g73
sg50
VScrivete "cuco" sul foglio
p2194
sS'trials.thisRepN'
p2195
I0
sg59
g76
sg55
g77
sg56
g99
sg15
S'space'
p2196
sS'trials.thisN'
p2197
I158
sg53
g77
sg58
g81
sg49
g23
(g66
S'\xa9\x00\x00\x00\x00\x00\x00\x00'
p2198
tp2199
Rp2200
sS'trials.thisTrialN'
p2201
I158
sg54
g108
sg20
g21
sg34
g39
sg57
g87
sg33
g12
sa(dp2202
S'trials.thisIndex'
p2203
g23
(g66
S'`\x00\x00\x00\x00\x00\x00\x00'
p2204
tp2205
Rp2206
sg16
F1.221479892730713
sg22
g32
sg52
g317
sg51
g73
sg50
VScrivete "taco" sul foglio
p2207
sS'trials.thisRepN'
p2208
I0
sg59
g76
sg55
g77
sg56
g118
sg15
S'space'
p2209
sS'trials.thisN'
p2210
I159
sg53
g102
sg58
g103
sg49
g23
(g66
S'a\x00\x00\x00\x00\x00\x00\x00'
p2211
tp2212
Rp2213
sS'trials.thisTrialN'
p2214
I159
sg54
g125
sg20
g21
sg34
g39
sg57
g126
sg33
g12
sa(dp2215
S'trials.thisIndex'
p2216
g23
(g66
S'\x86\x00\x00\x00\x00\x00\x00\x00'
p2217
tp2218
Rp2219
sg16
F1.1046218872070312
sg22
g32
sg52
g953
sg51
g115
sg50
VSentivo "cupo" di nuovo
p2220
sS'trials.thisRepN'
p2221
I0
sg59
g97
sg55
g98
sg56
g99
sg15
S'space'
p2222
sS'trials.thisN'
p2223
I160
sg53
g77
sg58
g81
sg49
g23
(g66
S'\x87\x00\x00\x00\x00\x00\x00\x00'
p2224
tp2225
Rp2226
sS'trials.thisTrialN'
p2227
I160
sg54
g108
sg20
g21
sg34
g39
sg57
g87
sg33
g12
sa(dp2228
S'trials.thisIndex'
p2229
g23
(g66
S'\x92\x00\x00\x00\x00\x00\x00\x00'
p2230
tp2231
Rp2232
sg16
F1.2044529914855957
sg22
g32
sg52
g359
sg51
g115
sg50
VSentivo "chito" di nuovo
p2233
sS'trials.thisRepN'
p2234
I0
sg59
g135
sg55
g102
sg56
g78
sg15
S'space'
p2235
sS'trials.thisN'
p2236
I161
sg53
g77
sg58
g81
sg49
g23
(g66
S'\x93\x00\x00\x00\x00\x00\x00\x00'
p2237
tp2238
Rp2239
sS'trials.thisTrialN'
p2240
I161
sg54
g86
sg20
g21
sg34
g39
sg57
g87
sg33
g12
sa(dp2241
S'trials.thisIndex'
p2242
g23
(g66
S' \x00\x00\x00\x00\x00\x00\x00'
p2243
tp2244
Rp2245
sg16
F1.3040921688079834
sg22
g32
sg52
g456
sg51
g73
sg50
VScrivete "puto" sul foglio
p2246
sS'trials.thisRepN'
p2247
I0
sg59
g135
sg55
g102
sg56
g99
sg15
S'space'
p2248
sS'trials.thisN'
p2249
I162
sg53
g98
sg58
g154
sg49
g23
(g66
S'!\x00\x00\x00\x00\x00\x00\x00'
p2250
tp2251
Rp2252
sS'trials.thisTrialN'
p2253
I162
sg54
g108
sg20
g21
sg34
g39
sg57
g87
sg33
g12
sa(dp2254
S'trials.thisIndex'
p2255
g23
(g66
S'W\x00\x00\x00\x00\x00\x00\x00'
p2256
tp2257
Rp2258
sg16
F1.4547150135040283
sg22
g32
sg52
g345
sg51
g94
sg50
VRipete "tito" da sempre
p2259
sS'trials.thisRepN'
p2260
I0
sg59
g135
sg55
g102
sg56
g78
sg15
S'space'
p2261
sS'trials.thisN'
p2262
I163
sg53
g102
sg58
g103
sg49
g23
(g66
S'X\x00\x00\x00\x00\x00\x00\x00'
p2263
tp2264
Rp2265
sS'trials.thisTrialN'
p2266
I163
sg54
g86
sg20
g21
sg34
g39
sg57
g87
sg33
g12
sa(dp2267
S'trials.thisIndex'
p2268
g23
(g66
S'\xa7\x00\x00\x00\x00\x00\x00\x00'
p2269
tp2270
Rp2271
sg16
F1.1549701690673828
sg22
g32
sg52
g164
sg51
g94
sg50
VRipete "coco" da sempre
p2272
sS'trials.thisRepN'
p2273
I0
sg59
g76
sg55
g77
sg56
g99
sg15
S'space'
p2274
sS'trials.thisN'
p2275
I164
sg53
g77
sg58
g81
sg49
g23
(g66
S'\xa8\x00\x00\x00\x00\x00\x00\x00'
p2276
tp2277
Rp2278
sS'trials.thisTrialN'
p2279
I164
sg54
g142
sg20
g21
sg34
g39
sg57
g143
sg33
g12
sa(dp2280
S'trials.thisIndex'
p2281
g23
(g66
S"'\x00\x00\x00\x00\x00\x00\x00"
p2282
tp2283
Rp2284
sg16
F1.28764009475708
sg22
g32
sg52
g755
sg51
g94
sg50
VRipete "paco" da sempre
p2285
sS'trials.thisRepN'
p2286
I0
sg59
g76
sg55
g77
sg56
g118
sg15
S'space'
p2287
sS'trials.thisN'
p2288
I165
sg53
g98
sg58
g154
sg49
g23
(g66
S'(\x00\x00\x00\x00\x00\x00\x00'
p2289
tp2290
Rp2291
sS'trials.thisTrialN'
p2292
I165
sg54
g125
sg20
g21
sg34
g39
sg57
g126
sg33
g12
sa(dp2293
S'trials.thisIndex'
p2294
g23
(g66
S'Y\x00\x00\x00\x00\x00\x00\x00'
p2295
tp2296
Rp2297
sg16
F1.3711509704589844
sg22
g32
sg52
g132
sg51
g165
sg50
VHa detto "toto" sei volte
p2298
sS'trials.thisRepN'
p2299
I0
sg59
g135
sg55
g102
sg56
g99
sg15
S'space'
p2300
sS'trials.thisN'
p2301
I166
sg53
g102
sg58
g103
sg49
g23
(g66
S'Z\x00\x00\x00\x00\x00\x00\x00'
p2302
tp2303
Rp2304
sS'trials.thisTrialN'
p2305
I166
sg54
g142
sg20
g21
sg34
g39
sg57
g143
sg33
g12
sa(dp2306
S'trials.thisIndex'
p2307
g23
(g66
S'>\x00\x00\x00\x00\x00\x00\x00'
p2308
tp2309
Rp2310
sg16
F1.1213891506195068
sg22
g32
sg52
g834
sg51
g115
sg50
VSentivo "tepo" di nuovo
p2311
sS'trials.thisRepN'
p2312
I0
sg59
g97
sg55
g98
sg56
g78
sg15
S'space'
p2313
sS'trials.thisN'
p2314
I167
sg53
g102
sg58
g103
sg49
g23
(g66
S'?\x00\x00\x00\x00\x00\x00\x00'
p2315
tp2316
Rp2317
sS'trials.thisTrialN'
p2318
I167
sg54
g188
sg20
g21
sg34
g39
sg57
g189
sg33
g12
sa(dp2319
S'trials.thisIndex'
p2320
g23
(g66
S'~\x00\x00\x00\x00\x00\x00\x00'
p2321
tp2322
Rp2323
sg16
F1.0724918842315674
sg22
g32
sg52
g387
sg51
g115
sg50
VSentivo "chipo" di nuovo
p2324
sS'trials.thisRepN'
p2325
I0
sg59
g97
sg55
g98
sg56
g78
sg15
S'space'
p2326
sS'trials.thisN'
p2327
I168
sg53
g77
sg58
g81
sg49
g23
(g66
S'\x7f\x00\x00\x00\x00\x00\x00\x00'
p2328
tp2329
Rp2330
sS'trials.thisTrialN'
p2331
I168
sg54
g86
sg20
g21
sg34
g39
sg57
g87
sg33
g12
sa(dp2332
S'trials.thisIndex'
p2333
g23
(g66
S'9\x00\x00\x00\x00\x00\x00\x00'
p2334
tp2335
Rp2336
sg16
F1.1705090999603271
sg22
g32
sg52
g276
sg51
g165
sg50
VHa detto "tapo" sei volte
p2337
sS'trials.thisRepN'
p2338
I0
sg59
g97
sg55
g98
sg56
g118
sg15
S'space'
p2339
sS'trials.thisN'
p2340
I169
sg53
g102
sg58
g103
sg49
g23
(g66
S':\x00\x00\x00\x00\x00\x00\x00'
p2341
tp2342
Rp2343
sS'trials.thisTrialN'
p2344
I169
sg54
g125
sg20
g21
sg34
g39
sg57
g126
sg33
g12
sa(dp2345
S'trials.thisIndex'
p2346
g23
(g66
S'\x98\x00\x00\x00\x00\x00\x00\x00'
p2347
tp2348
Rp2349
sg16
F1.2205369472503662
sg22
g32
sg52
g741
sg51
g73
sg50
VScrivete "cuto" sul foglio
p2350
sS'trials.thisRepN'
p2351
I0
sg59
g135
sg55
g102
sg56
g99
sg15
S'space'
p2352
sS'trials.thisN'
p2353
I170
sg53
g77
sg58
g81
sg49
g23
(g66
S'\x99\x00\x00\x00\x00\x00\x00\x00'
p2354
tp2355
Rp2356
sS'trials.thisTrialN'
p2357
I170
sg54
g108
sg20
g21
sg34
g39
sg57
g87
sg33
g12
sa(dp2358
S'trials.thisIndex'
p2359
g23
(g66
S'\x1c\x00\x00\x00\x00\x00\x00\x00'
p2360
tp2361
Rp2362
sg16
F1.269808053970337
sg22
g32
sg52
g331
sg51
g73
sg50
VScrivete "poto" sul foglio
p2363
sS'trials.thisRepN'
p2364
I0
sg59
g135
sg55
g102
sg56
g99
sg15
S'space'
p2365
sS'trials.thisN'
p2366
I171
sg53
g98
sg58
g154
sg49
g23
(g66
S'\x1d\x00\x00\x00\x00\x00\x00\x00'
p2367
tp2368
Rp2369
sS'trials.thisTrialN'
p2370
I171
sg54
g142
sg20
g21
sg34
g39
sg57
g143
sg33
g12
sasS'loops'
p2371
(lp2372
g0
(cpsychopy.data.trial
TrialHandler
p2373
g2
Ntp2374
Rp2375
(dp2376
S'origin'
p2377
NsS'thisTrial'
p2378
(lp2379
sS'_exp'
p2380
I4635639632
sg11
S'trials'
p2381
sg6
I-1
sS'thisRepN'
p2382
I1
sg17
I01
sg18
g19
sS'data'
p2383
g0
(cpsychopy.data.base
DataHandler
p2384
c__builtin__
dict
p2385
(dp2386
S'ran'
p2387
cnumpy.ma.core
_mareconstruct
p2388
(cnumpy.ma.core
MaskedArray
p2389
cnumpy
ndarray
p2390
(I0
tp2391
S'b'
p2392
tp2393
Rp2394
(I1
(I172
I1
tp2395
g24
(S'f4'
p2396
I0
I1
tp2397
Rp2398
(I3
S'<'
p2399
NNNI-1
I-1
I0
tp2400
bI00
S'\x00\x00\x80?\x00\x00\x80?\x00\x00\x80?\x00\x00\x80?\x00\x00\x80?\x00\x00\x80?\x00\x00\x80?\x00\x00\x80?\x00\x00\x80?\x00\x00\x80?\x00\x00\x80?\x00\x00\x80?\x00\x00\x80?\x00\x00\x80?\x00\x00\x80?\x00\x00\x80?\x00\x00\x80?\x00\x00\x80?\x00\x00\x80?\x00\x00\x80?\x00\x00\x80?\x00\x00\x80?\x00\x00\x80?\x00\x00\x80?\x00\x00\x80?\x00\x00\x80?\x00\x00\x80?\x00\x00\x80?\x00\x00\x80?\x00\x00\x80?\x00\x00\x80?\x00\x00\x80?\x00\x00\x80?\x00\x00\x80?\x00\x00\x80?\x00\x00\x80?\x00\x00\x80?\x00\x00\x80?\x00\x00\x80?\x00\x00\x80?\x00\x00\x80?\x00\x00\x80?\x00\x00\x80?\x00\x00\x80?\x00\x00\x80?\x00\x00\x80?\x00\x00\x80?\x00\x00\x80?\x00\x00\x80?\x00\x00\x80?\x00\x00\x80?\x00\x00\x80?\x00\x00\x80?\x00\x00\x80?\x00\x00\x80?\x00\x00\x80?\x00\x00\x80?\x00\x00\x80?\x00\x00\x80?\x00\x00\x80?\x00\x00\x80?\x00\x00\x80?\x00\x00\x80?\x00\x00\x80?\x00\x00\x80?\x00\x00\x80?\x00\x00\x80?\x00\x00\x80?\x00\x00\x80?\x00\x00\x80?\x00\x00\x80?\x00\x00\x80?\x00\x00\x80?\x00\x00\x80?\x00\x00\x80?\x00\x00\x80?\x00\x00\x80?\x00\x00\x80?\x00\x00\x80?\x00\x00\x80?\x00\x00\x80?\x00\x00\x80?\x00\x00\x80?\x00\x00\x80?\x00\x00\x80?\x00\x00\x80?\x00\x00\x80?\x00\x00\x80?\x00\x00\x80?\x00\x00\x80?\x00\x00\x80?\x00\x00\x80?\x00\x00\x80?\x00\x00\x80?\x00\x00\x80?\x00\x00\x80?\x00\x00\x80?\x00\x00\x80?\x00\x00\x80?\x00\x00\x80?\x00\x00\x80?\x00\x00\x80?\x00\x00\x80?\x00\x00\x80?\x00\x00\x80?\x00\x00\x80?\x00\x00\x80?\x00\x00\x80?\x00\x00\x80?\x00\x00\x80?\x00\x00\x80?\x00\x00\x80?\x00\x00\x80?\x00\x00\x80?\x00\x00\x80?\x00\x00\x80?\x00\x00\x80?\x00\x00\x80?\x00\x00\x80?\x00\x00\x80?\x00\x00\x80?\x00\x00\x80?\x00\x00\x80?\x00\x00\x80?\x00\x00\x80?\x00\x00\x80?\x00\x00\x80?\x00\x00\x80?\x00\x00\x80?\x00\x00\x80?\x00\x00\x80?\x00\x00\x80?\x00\x00\x80?\x00\x00\x80?\x00\x00\x80?\x00\x00\x80?\x00\x00\x80?\x00\x00\x80?\x00\x00\x80?\x00\x00\x80?\x00\x00\x80?\x00\x00\x80?\x00\x00\x80?\x00\x00\x80?\x00\x00\x80?\x00\x00\x80?\x00\x00\x80?\x00\x00\x80?\x00\x00\x80?\x00\x00\x80?\x00\x00\x80?\x00\x00\x80?\x00\x00\x80?\x00\x00\x80?\x00\x00\x80?\x00\x00\x80?\x00\x00\x80?\x00\x00\x80?\x00\x00\x80?\x00\x00\x80?\x00\x00\x80?\x00\x00\x80?\x00\x00\x80?\x00\x00\x80?\x00\x00\x80?\x00\x00\x80?\x00\x00\x80?\x00\x00\x80?\x00\x00\x80?\x00\x00\x80?\x00\x00\x80?\x00\x00\x80?'
p2401
S'\x00\x00\x00\x00\x00\x00\x00\x00\x00\x00\x00\x00\x00\x00\x00\x00\x00\x00\x00\x00\x00\x00\x00\x00\x00\x00\x00\x00\x00\x00\x00\x00\x00\x00\x00\x00\x00\x00\x00\x00\x00\x00\x00\x00\x00\x00\x00\x00\x00\x00\x00\x00\x00\x00\x00\x00\x00\x00\x00\x00\x00\x00\x00\x00\x00\x00\x00\x00\x00\x00\x00\x00\x00\x00\x00\x00\x00\x00\x00\x00\x00\x00\x00\x00\x00\x00\x00\x00\x00\x00\x00\x00\x00\x00\x00\x00\x00\x00\x00\x00\x00\x00\x00\x00\x00\x00\x00\x00\x00\x00\x00\x00\x00\x00\x00\x00\x00\x00\x00\x00\x00\x00\x00\x00\x00\x00\x00\x00\x00\x00\x00\x00\x00\x00\x00\x00\x00\x00\x00\x00\x00\x00\x00\x00\x00\x00\x00\x00\x00\x00\x00\x00\x00\x00\x00\x00\x00\x00\x00\x00\x00\x00\x00\x00\x00\x00\x00\x00\x00\x00\x00\x00'
p2402
Ntp2403
bsg16
g2388
(g2389
g2390
g2391
g2392
tp2404
Rp2405
(I1
(I172
I1
tp2406
g2398
I00
S'^\xfa\xd7?\x10\xc5\xa6?\x10a\xa0?\xfc\x19\x9e?\x18e\xd8?n\x90\x93?`\xce\xa2?\xaaK\xa2?lY\xa0?\x8a\xb1\x80?\xf2!\x80?\xf0:\x8b?@<\xb7?l\xb2\xa2?\x02\x8a\x93?\\;\x91?L@\x9e?.\xc1\x97?83\x9c?\xa8\xdd\xb5?\xeap\xb8?b\xf6\xaa?\x84]\xbc?\xd72O@\xc8\xec\xae?\xa8p\xa0?\xbef\x91?<\xa4\xa0?\x12\x89\xa2?\x8eX\xaf?P \x9a?t\x00\xb8?~\xec\xa6?\x92\x99\x93?\xe2y\x95?\xb2\xf4\xb7?\xcc\x9b\xb5?8b\xad?\x96\x95\xa0?d\xd1\xa4?\n\x85\xa0?\xc4R\x9e?\xaa?\x9c?B\xa0\x93?X\xc9\xd5?\x02~\x8f?\xd0\x83\xb1?\xf2\xce\x97?\x9a\xb2\xb5?\x18\xd3\xa4?\x10z\xa0?\xc0\x9f\x86@hA\xa0?(\xc0\xa8?F\t\x9c?<\xc5\xa6?\xb8\xe9\xb7?>\xd3\x95?LN\x82@T;\xa7?\x8a\xf8\xaa?\x10\xff\xa6?\xae\x89\x8f?\xc0\xd3\xa4?\x1e\xa0\xb3?\xa0\xfd\xc4?\xccEx?\xe0\xdd\xa6?\xca\xa2\xa6?\xdc\xbb\xa2?\xa6\xd6\x95?vm\xcd?\x9c\x11\xc9?\x01\x89\x03@\xaa>\x8d?-\t\xae@,\x9e\xc4?\xd0$\xad?v\xec\xa8?\xc8=\xad?\nP\xb1?\n\x89\xc4?\x9e\xbd\x93?(\xda\x97?\xdc8\x9c?\x16F\xa0?\xa8\x1f\x9c?\x1a4\xba?\xf8\x88\x9e?\xe0\x81\xaf?X\x8d\xb3?\x12\xfd\xc6?Jf\xb1?b`\x93?\x98<\xa0?\xfe\xd7\xad?tY\x9c?\xb2j\x9c?\xaa\xf5\xaa?\xd6=\xa4?\xda\xc9\xc4?\x18\x04\xba?\xf6\x07\x9c?PU\xaf?\x1c#\xad?8\xc1\xd5?\xa6\x97\xe0?\xf8\xa1\xa4?\xea%\xc0?\xb6`\xb1?\xfc\xa4\xa0?\x8e;\xa7?l\x91\xbe?F\xf1\xa8?\x1e\xf4\xa8?z\x84\xa2?z\x8f\xb1?\xaa#\xb5?>\xd2\xf9@bK\xb1?\xec\xd9\xb1?\xd0IV?\x1c\xb7\xa6?d\x91\xc2?\x06L\xbe?`\xeb\xc6?jG\x89?\xe6\x92\xaa?*\xa5\x8f?F\x9f\xb5?\xde&\x9a?\xc0\x8e\x91?\xf6\r\x9c?`@\x89?@d\x8d?\xa2\xea\x9b?\x8e(\xab?\xe0\x0c\xdc?\xb0\xae\xa2?\xa6\xd5\xa2?\xae\xe3\xc0?\x00\x17\xbc?\xe2\xcf\xa0?R\x0c\xb8?\xa8\x07\xab?\x9a>\x8d?\x84+\x9a?\xf0\xa3\xa4?l\xf2\xaa?b\xe1\xc2?\xc6\x18\x96?p\x8e\x9e?\x8e:\x9c?\xdcw\x9a?\xc2\xba\x99?v$\xaf?4i\xad?zt\xb3?\xd4h\xa0?LI\xa0?\x80DnA\xaaz\xb1?\x12\x80\x93?\xacQ\xa9@^\xc5\xa6?r\xa2\xd3?\xa0L\x89?\x10\xd6\x93?\xf0\x88\x9e?\x86\xc9\xa6?\xd6w\x9e?^^\xc0?'
p2407
S'\x00\x00\x00\x00\x00\x00\x00\x00\x00\x00\x00\x00\x00\x00\x00\x00\x00\x00\x00\x00\x00\x00\x00\x00\x00\x00\x00\x00\x00\x00\x00\x00\x00\x00\x00\x00\x00\x00\x00\x00\x00\x00\x00\x00\x00\x00\x00\x00\x00\x00\x00\x00\x00\x00\x00\x00\x00\x00\x00\x00\x00\x00\x00\x00\x00\x00\x00\x00\x00\x00\x00\x00\x00\x00\x00\x00\x00\x00\x00\x00\x00\x00\x00\x00\x00\x00\x00\x00\x00\x00\x00\x00\x00\x00\x00\x00\x00\x00\x00\x00\x00\x00\x00\x00\x00\x00\x00\x00\x00\x00\x00\x00\x00\x00\x00\x00\x00\x00\x00\x00\x00\x00\x00\x00\x00\x00\x00\x00\x00\x00\x00\x00\x00\x00\x00\x00\x00\x00\x00\x00\x00\x00\x00\x00\x00\x00\x00\x00\x00\x00\x00\x00\x00\x00\x00\x00\x00\x00\x00\x00\x00\x00\x00\x00\x00\x00\x00\x00\x00\x00\x00\x00'
p2408
Ntp2409
bsS'order'
p2410
g2388
(g2389
g2390
g2391
g2392
tp2411
Rp2412
(I1
(I172
I1
tp2413
g2398
I00
S'\x00\x00\x80@\x00\x00\xb6B\x00\x00\xc8A\x00\x00 A\x00\x00\xacB\x00\x00\x08B\x00\x00\x0eC\x00\x00\xc4B\x00\x00tB\x00\x00\x11C\x00\x00\xa0A\x00\x00\nC\x00\x00\x9aB\x00\x00\tC\x00\x00 B\x00\x00\xe0A\x00\x00TB\x00\x00\xf2B\x00\x00dB\x00\x000A\x00\x00\x8aB\x00\x00hB\x00\x00\x12C\x00\x00\xc0B\x00\x00\xe6B\x00\x00\x02C\x00\x00\x14B\x00\x00\x98B\x00\x00+C\x00\x00\x88A\x00\x00\xd8B\x00\x00\xd6B\x00\x00"C\x00\x00\xcaB\x00\x00\xa4B\x00\x00\xd0A\x00\x00@B\x00\x00\x17C\x00\x00\xdaB\x00\x00%C\x00\x00\x10C\x00\x00\xbcB\x00\x00\xf4B\x00\x00\xeeB\x00\x00\x1cB\x00\x00\x07C\x00\x00\xbaB\x00\x00\x04C\x00\x00\xe4B\x00\x00\xc6B\x00\x00\xeaB\x00\x00\xaeB\x00\x00\x00B\x00\x00`B\x00\x00\x18B\x00\x00PB\x00\x00\xd2B\x00\x00)C\x00\x00PA\x00\x00\xa2B\x00\x00XB\x00\x00\xb8B\x00\x00\'C\x00\x00\xa0B\x00\x00pB\x00\x00\x14C\x00\x00\xfaB\x00\x00\xe8A\x00\x00@A\x00\x00\x10B\x00\x00\x00C\x00\x00\x86B\x00\x00\xd0B\x00\x00\xe8B\x00\x00\x82B\x00\x00\x80?\x00\x00$B\x00\x00\x80B\x00\x008B\x00\x00LB\x00\x00xB\x00\x00`A\x00\x00\x03C\x00\x00\x01C\x00\x00\xa8B\x00\x00\\B\x00\x00\x90A\x00\x00#C\x00\x00\x0bC\x00\x00&C\x00\x00pA\x00\x00@@\x00\x00\xd4B\x00\x00\x06C\x00\x00\xb0A\x00\x00\xa6B\x00\x00\x1fC\x00\x00\x1cC\x00\x00(B\x00\x00\x80A\x00\x00\rC\x00\x00,B\x00\x00HB\x00\x00\x0cB\x00\x00\x04B\x00\x00\x9eB\x00\x00\x0fC\x00\x00\xb8A\x00\x00\xbeB\x00\x00\x84B\x00\x00\x96B\x00\x00\x1dC\x00\x00\xc2B\x00\x00\xf0A\x00\x00\x8eB\x00\x00\xf8B\x00\x00\xb0B\x00\x00\x94B\x00\x00\x00@\x00\x00\x00A\x00\x00\x1aC\x00\x00\xceB\x00\x00\xe0@\x00\x00\xc0@\x00\x00\xa8A\x00\x00\x8cB\x00\x00(C\x00\x00lB\x00\x00\x18C\x00\x000B\x00\x00\x88B\x00\x00\x05C\x00\x00\xfeB\x00\x00\x0cC\x00\x00 C\x00\x00|B\x00\x00\xecB\x00\x004B\x00\x00\xc0A\x00\x00\x90B\x00\x00\x13C\x00\x00\x10A\x00\x00\x16C\x00\x00\x15C\x00\x00\xdcB\x00\x00\x98A\x00\x00!C\x00\x00\xb4B\x00\x00\x9cB\x00\x00\x19C\x00\x00\xb2B\x00\x00\xdeB\x00\x00*C\x00\x00\x1bC\x00\x00\xf6B\x00\x00<B\x00\x00\xccB\x00\x00\xe0B\x00\x00\xc8B\x00\x00\xd8A\x00\x00\x00\x00\x00\x00DB\x00\x00\xf8A\x00\x00\xaaB\x00\x00\xfcB\x00\x00\xa0@\x00\x00\x92B\x00\x00$C\x00\x00\x1eC\x00\x00\xf0B\x00\x00\x08C\x00\x00\xe2B'
p2414
S'\x00\x00\x00\x00\x00\x00\x00\x00\x00\x00\x00\x00\x00\x00\x00\x00\x00\x00\x00\x00\x00\x00\x00\x00\x00\x00\x00\x00\x00\x00\x00\x00\x00\x00\x00\x00\x00\x00\x00\x00\x00\x00\x00\x00\x00\x00\x00\x00\x00\x00\x00\x00\x00\x00\x00\x00\x00\x00\x00\x00\x00\x00\x00\x00\x00\x00\x00\x00\x00\x00\x00\x00\x00\x00\x00\x00\x00\x00\x00\x00\x00\x00\x00\x00\x00\x00\x00\x00\x00\x00\x00\x00\x00\x00\x00\x00\x00\x00\x00\x00\x00\x00\x00\x00\x00\x00\x00\x00\x00\x00\x00\x00\x00\x00\x00\x00\x00\x00\x00\x00\x00\x00\x00\x00\x00\x00\x00\x00\x00\x00\x00\x00\x00\x00\x00\x00\x00\x00\x00\x00\x00\x00\x00\x00\x00\x00\x00\x00\x00\x00\x00\x00\x00\x00\x00\x00\x00\x00\x00\x00\x00\x00\x00\x00\x00\x00\x00\x00\x00\x00\x00\x00'
p2415
Ntp2416
bsg15
cnumpy.core.multiarray
_reconstruct
p2417
(g2390
(I0
tp2418
g2392
tp2419
Rp2420
(I1
(I172
I1
tp2421
g24
(S'O8'
p2422
I0
I1
tp2423
Rp2424
(I3
S'|'
p2425
NNNI-1
I-1
I63
tp2426
bI00
(lp2427
g152
ag1323
ag445
ag237
ag1257
ag569
ag1988
ag1415
ag929
ag2027
ag376
ag1936
ag1139
ag1923
ag650
ag487
ag823
ag1715
ag876
ag251
ag1035
ag890
ag2040
ag1389
ag1637
ag1832
ag610
ag1126
ag2365
ag334
ag1545
ag1532
ag2248
ag1454
ag1205
ag459
ag758
ag2105
ag1558
ag2287
ag2014
ag1363
ag1728
ag1689
ag637
ag1897
ag1349
ag1858
ag1624
ag1428
ag1663
ag1271
ag542
ag863
ag623
ag810
ag1506
ag2339
ag279
ag1192
ag837
ag1336
ag2313
ag1179
ag916
ag2066
ag1767
ag501
ag265
ag596
ag1806
ag1009
ag1493
ag1650
ag982
ag100
ag664
ag969
ag730
ag797
ag942
ag293
ag1845
ag1819
ag1231
ag850
ag348
ag2261
ag1949
ag2300
ag306
ag136
ag1519
ag1884
ag404
ag1218
ag2209
ag2170
ag677
ag320
ag1975
ag690
ag784
ag583
ag555
ag1166
ag2001
ag418
ag1376
ag996
ag1113
ag2183
ag1402
ag515
ag1061
ag1754
ag1284
ag1100
ag119
ag210
ag2144
ag1480
ag197
ag182
ag390
ag1048
ag2326
ag903
ag2118
ag704
ag1022
ag1871
ag1793
ag1962
ag2222
ag956
ag1676
ag717
ag432
ag1074
ag2053
ag224
ag2092
ag2079
ag1571
ag362
ag2235
ag1310
ag1153
ag2131
ag1297
ag1584
ag2352
ag2157
ag1741
ag744
ag1467
ag1597
ag1441
ag473
ag79
ag771
ag528
ag1244
ag1780
ag168
ag1087
ag2274
ag2196
ag1702
ag1910
ag1611
atp2428
bstp2429
Rp2430
(dp2431
S'isNumeric'
p2432
(dp2433
g2387
I01
sg16
I01
sg2410
I01
sg15
I00
ssg2381
g2375
sS'dataTypes'
p2434
(lp2435
g2387
ag2410
ag15
ag16
asS'dataShape'
p2436
(lp2437
I172
aI1
asbsS'method'
p2438
S'random'
p2439
sS'sequenceIndices'
p2440
g2417
(g2390
(I0
tp2441
g2392
tp2442
Rp2443
(I1
(I172
I1
tp2444
g66
I00
S'\xa0\x00\x00\x00\x00\x00\x00\x00K\x00\x00\x00\x00\x00\x00\x00v\x00\x00\x00\x00\x00\x00\x00[\x00\x00\x00\x00\x00\x00\x00\x00\x00\x00\x00\x00\x00\x00\x00\xa5\x00\x00\x00\x00\x00\x00\x00{\x00\x00\x00\x00\x00\x00\x00z\x00\x00\x00\x00\x00\x00\x00w\x00\x00\x00\x00\x00\x00\x00\x8d\x00\x00\x00\x00\x00\x00\x00\x03\x00\x00\x00\x00\x00\x00\x00\x13\x00\x00\x00\x00\x00\x00\x00D\x00\x00\x00\x00\x00\x00\x00:\x00\x00\x00\x00\x00\x00\x00Q\x00\x00\x00\x00\x00\x00\x00Z\x00\x00\x00\x00\x00\x00\x00c\x00\x00\x00\x00\x00\x00\x00\x1d\x00\x00\x00\x00\x00\x00\x00V\x00\x00\x00\x00\x00\x00\x00\x91\x00\x00\x00\x00\x00\x00\x00\n\x00\x00\x00\x00\x00\x00\x00|\x00\x00\x00\x00\x00\x00\x00^\x00\x00\x00\x00\x00\x00\x00k\x00\x00\x00\x00\x00\x00\x00\x8a\x00\x00\x00\x00\x00\x00\x00\x02\x00\x00\x00\x00\x00\x00\x00#\x00\x00\x00\x00\x00\x00\x00\x9f\x00\x00\x00\x00\x00\x00\x00\x0f\x00\x00\x00\x00\x00\x00\x00C\x00\x00\x00\x00\x00\x00\x00q\x00\x00\x00\x00\x00\x00\x00\xa2\x00\x00\x00\x00\x00\x00\x004\x00\x00\x00\x00\x00\x00\x00h\x00\x00\x00\x00\x00\x00\x00\x05\x00\x00\x00\x00\x00\x00\x00g\x00\x00\x00\x00\x00\x00\x00E\x00\x00\x00\x00\x00\x00\x00\x1a\x00\x00\x00\x00\x00\x00\x006\x00\x00\x00\x00\x00\x00\x00,\x00\x00\x00\x00\x00\x00\x00\x0e\x00\x00\x00\x00\x00\x00\x00L\x00\x00\x00\x00\x00\x00\x00b\x00\x00\x00\x00\x00\x00\x00e\x00\x00\x00\x00\x00\x00\x00\x81\x00\x00\x00\x00\x00\x00\x00\x89\x00\x00\x00\x00\x00\x00\x00N\x00\x00\x00\x00\x00\x00\x00\x9b\x00\x00\x00\x00\x00\x00\x00$\x00\x00\x00\x00\x00\x00\x00\xa1\x00\x00\x00\x00\x00\x00\x00f\x00\x00\x00\x00\x00\x00\x00O\x00\x00\x00\x00\x00\x00\x007\x00\x00\x00\x00\x00\x00\x00\x10\x00\x00\x00\x00\x00\x00\x00<\x00\x00\x00\x00\x00\x00\x00U\x00\x00\x00\x00\x00\x00\x005\x00\x00\x00\x00\x00\x00\x00\x12\x00\x00\x00\x00\x00\x00\x00\x15\x00\x00\x00\x00\x00\x00\x00\x7f\x00\x00\x00\x00\x00\x00\x00@\x00\x00\x00\x00\x00\x00\x00\x08\x00\x00\x00\x00\x00\x00\x00P\x00\x00\x00\x00\x00\x00\x00\x87\x00\x00\x00\x00\x00\x00\x00M\x00\x00\x00\x00\x00\x00\x00J\x00\x00\x00\x00\x00\x00\x00m\x00\x00\x00\x00\x00\x00\x00G\x00\x00\x00\x00\x00\x00\x00\x82\x00\x00\x00\x00\x00\x00\x00\x14\x00\x00\x00\x00\x00\x00\x00}\x00\x00\x00\x00\x00\x00\x00r\x00\x00\x00\x00\x00\x00\x00\x8b\x00\x00\x00\x00\x00\x00\x00\xa6\x00\x00\x00\x00\x00\x00\x00u\x00\x00\x00\x00\x00\x00\x00n\x00\x00\x00\x00\x00\x00\x00\x1b\x00\x00\x00\x00\x00\x00\x00\x0c\x00\x00\x00\x00\x00\x00\x00\x94\x00\x00\x00\x00\x00\x00\x00i\x00\x00\x00\x00\x00\x00\x00?\x00\x00\x00\x00\x00\x00\x00;\x00\x00\x00\x00\x00\x00\x00"\x00\x00\x00\x00\x00\x00\x00_\x00\x00\x00\x00\x00\x00\x00T\x00\x00\x00\x00\x00\x00\x00\xa3\x00\x00\x00\x00\x00\x00\x00\x04\x00\x00\x00\x00\x00\x00\x003\x00\x00\x00\x00\x00\x00\x00t\x00\x00\x00\x00\x00\x00\x00\x96\x00\x00\x00\x00\x00\x00\x00\x93\x00\x00\x00\x00\x00\x00\x00\x01\x00\x00\x00\x00\x00\x00\x00=\x00\x00\x00\x00\x00\x00\x00.\x00\x00\x00\x00\x00\x00\x00)\x00\x00\x00\x00\x00\x00\x00l\x00\x00\x00\x00\x00\x00\x00\x17\x00\x00\x00\x00\x00\x00\x00p\x00\x00\x00\x00\x00\x00\x00\x07\x00\x00\x00\x00\x00\x00\x001\x00\x00\x00\x00\x00\x00\x00\x9e\x00\x00\x00\x00\x00\x00\x00!\x00\x00\x00\x00\x00\x00\x00\x9c\x00\x00\x00\x00\x00\x00\x00y\x00\x00\x00\x00\x00\x00\x00H\x00\x00\x00\x00\x00\x00\x008\x00\x00\x00\x00\x00\x00\x00\\\x00\x00\x00\x00\x00\x00\x00\x1f\x00\x00\x00\x00\x00\x00\x00\x1e\x00\x00\x00\x00\x00\x00\x00&\x00\x00\x00\x00\x00\x00\x00\x90\x00\x00\x00\x00\x00\x00\x00\x97\x00\x00\x00\x00\x00\x00\x00\x9d\x00\x00\x00\x00\x00\x00\x00\xab\x00\x00\x00\x00\x00\x00\x000\x00\x00\x00\x00\x00\x00\x00\x18\x00\x00\x00\x00\x00\x00\x00I\x00\x00\x00\x00\x00\x00\x002\x00\x00\x00\x00\x00\x00\x00\x88\x00\x00\x00\x00\x00\x00\x00+\x00\x00\x00\x00\x00\x00\x00\xa9\x00\x00\x00\x00\x00\x00\x00\x11\x00\x00\x00\x00\x00\x00\x00*\x00\x00\x00\x00\x00\x00\x00\x9a\x00\x00\x00\x00\x00\x00\x00s\x00\x00\x00\x00\x00\x00\x00B\x00\x00\x00\x00\x00\x00\x00\xa4\x00\x00\x00\x00\x00\x00\x00\x84\x00\x00\x00\x00\x00\x00\x00F\x00\x00\x00\x00\x00\x00\x00S\x00\x00\x00\x00\x00\x00\x00\x19\x00\x00\x00\x00\x00\x00\x00R\x00\x00\x00\x00\x00\x00\x00/\x00\x00\x00\x00\x00\x00\x00\x83\x00\x00\x00\x00\x00\x00\x00]\x00\x00\x00\x00\x00\x00\x00-\x00\x00\x00\x00\x00\x00\x00\xaa\x00\x00\x00\x00\x00\x00\x00\r\x00\x00\x00\x00\x00\x00\x00\x0b\x00\x00\x00\x00\x00\x00\x00X\x00\x00\x00\x00\x00\x00\x00\x85\x00\x00\x00\x00\x00\x00\x00d\x00\x00\x00\x00\x00\x00\x00\x06\x00\x00\x00\x00\x00\x00\x00j\x00\x00\x00\x00\x00\x00\x00(\x00\x00\x00\x00\x00\x00\x00\t\x00\x00\x00\x00\x00\x00\x00\x16\x00\x00\x00\x00\x00\x00\x00\x8c\x00\x00\x00\x00\x00\x00\x00A\x00\x00\x00\x00\x00\x00\x00\x8f\x00\x00\x00\x00\x00\x00\x00\x8e\x00\x00\x00\x00\x00\x00\x00%\x00\x00\x00\x00\x00\x00\x00\x80\x00\x00\x00\x00\x00\x00\x00\x95\x00\x00\x00\x00\x00\x00\x00x\x00\x00\x00\x00\x00\x00\x00\x99\x00\x00\x00\x00\x00\x00\x00a\x00\x00\x00\x00\x00\x00\x00o\x00\x00\x00\x00\x00\x00\x00\xa8\x00\x00\x00\x00\x00\x00\x00`\x00\x00\x00\x00\x00\x00\x00\x86\x00\x00\x00\x00\x00\x00\x00\x92\x00\x00\x00\x00\x00\x00\x00 \x00\x00\x00\x00\x00\x00\x00W\x00\x00\x00\x00\x00\x00\x00\xa7\x00\x00\x00\x00\x00\x00\x00\'\x00\x00\x00\x00\x00\x00\x00Y\x00\x00\x00\x00\x00\x00\x00>\x00\x00\x00\x00\x00\x00\x00~\x00\x00\x00\x00\x00\x00\x009\x00\x00\x00\x00\x00\x00\x00\x98\x00\x00\x00\x00\x00\x00\x00\x1c\x00\x00\x00\x00\x00\x00\x00'
p2445
tp2446
bsS'finished'
p2447
I01
sS'nReps'
p2448
I1
sS'nRemaining'
p2449
I-1
sS'trialList'
p2450
(lp2451
ccollections
OrderedDict
p2452
((lp2453
(lp2454
g49
ag157
aa(lp2455
g50
ag150
aa(lp2456
g51
ag73
aa(lp2457
g52
ag149
aa(lp2458
g53
ag98
aa(lp2459
g54
ag125
aa(lp2460
g55
ag98
aa(lp2461
g56
ag118
aa(lp2462
g57
ag126
aa(lp2463
g58
ag154
aa(lp2464
g59
ag97
aatp2465
Rp2466
ag2452
((lp2467
(lp2468
g49
ag1327
aa(lp2469
g50
ag1321
aa(lp2470
g51
ag165
aa(lp2471
g52
ag149
aa(lp2472
g53
ag98
aa(lp2473
g54
ag125
aa(lp2474
g55
ag98
aa(lp2475
g56
ag118
aa(lp2476
g57
ag126
aa(lp2477
g58
ag154
aa(lp2478
g59
ag97
aatp2479
Rp2480
ag2452
((lp2481
(lp2482
g49
ag449
aa(lp2483
g50
ag443
aa(lp2484
g51
ag115
aa(lp2485
g52
ag149
aa(lp2486
g53
ag98
aa(lp2487
g54
ag125
aa(lp2488
g55
ag98
aa(lp2489
g56
ag118
aa(lp2490
g57
ag126
aa(lp2491
g58
ag154
aa(lp2492
g59
ag97
aatp2493
Rp2494
ag2452
((lp2495
(lp2496
g49
ag241
aa(lp2497
g50
ag235
aa(lp2498
g51
ag94
aa(lp2499
g52
ag149
aa(lp2500
g53
ag98
aa(lp2501
g54
ag125
aa(lp2502
g55
ag98
aa(lp2503
g56
ag118
aa(lp2504
g57
ag126
aa(lp2505
g58
ag154
aa(lp2506
g59
ag97
aatp2507
Rp2508
ag2452
((lp2509
(lp2510
g49
ag1261
aa(lp2511
g50
ag1255
aa(lp2512
g51
ag73
aa(lp2513
g52
ag566
aa(lp2514
g53
ag98
aa(lp2515
g54
ag188
aa(lp2516
g55
ag98
aa(lp2517
g56
ag78
aa(lp2518
g57
ag189
aa(lp2519
g58
ag154
aa(lp2520
g59
ag97
aatp2521
Rp2522
ag2452
((lp2523
(lp2524
g49
ag573
aa(lp2525
g50
ag567
aa(lp2526
g51
ag165
aa(lp2527
g52
ag566
aa(lp2528
g53
ag98
aa(lp2529
g54
ag188
aa(lp2530
g55
ag98
aa(lp2531
g56
ag78
aa(lp2532
g57
ag189
aa(lp2533
g58
ag154
aa(lp2534
g59
ag97
aatp2535
Rp2536
ag2452
((lp2537
(lp2538
g49
ag1992
aa(lp2539
g50
ag1986
aa(lp2540
g51
ag115
aa(lp2541
g52
ag566
aa(lp2542
g53
ag98
aa(lp2543
g54
ag188
aa(lp2544
g55
ag98
aa(lp2545
g56
ag78
aa(lp2546
g57
ag189
aa(lp2547
g58
ag154
aa(lp2548
g59
ag97
aatp2549
Rp2550
ag2452
((lp2551
(lp2552
g49
ag1419
aa(lp2553
g50
ag1413
aa(lp2554
g51
ag94
aa(lp2555
g52
ag566
aa(lp2556
g53
ag98
aa(lp2557
g54
ag188
aa(lp2558
g55
ag98
aa(lp2559
g56
ag78
aa(lp2560
g57
ag189
aa(lp2561
g58
ag154
aa(lp2562
g59
ag97
aatp2563
Rp2564
ag2452
((lp2565
(lp2566
g49
ag933
aa(lp2567
g50
ag927
aa(lp2568
g51
ag73
aa(lp2569
g52
ag373
aa(lp2570
g53
ag98
aa(lp2571
g54
ag86
aa(lp2572
g55
ag98
aa(lp2573
g56
ag78
aa(lp2574
g57
ag87
aa(lp2575
g58
ag154
aa(lp2576
g59
ag97
aatp2577
Rp2578
ag2452
((lp2579
(lp2580
g49
ag2031
aa(lp2581
g50
ag2025
aa(lp2582
g51
ag165
aa(lp2583
g52
ag373
aa(lp2584
g53
ag98
aa(lp2585
g54
ag86
aa(lp2586
g55
ag98
aa(lp2587
g56
ag78
aa(lp2588
g57
ag87
aa(lp2589
g58
ag154
aa(lp2590
g59
ag97
aatp2591
Rp2592
ag2452
((lp2593
(lp2594
g49
ag380
aa(lp2595
g50
ag374
aa(lp2596
g51
ag115
aa(lp2597
g52
ag373
aa(lp2598
g53
ag98
aa(lp2599
g54
ag86
aa(lp2600
g55
ag98
aa(lp2601
g56
ag78
aa(lp2602
g57
ag87
aa(lp2603
g58
ag154
aa(lp2604
g59
ag97
aatp2605
Rp2606
ag2452
((lp2607
(lp2608
g49
ag1940
aa(lp2609
g50
ag1934
aa(lp2610
g51
ag94
aa(lp2611
g52
ag373
aa(lp2612
g53
ag98
aa(lp2613
g54
ag86
aa(lp2614
g55
ag98
aa(lp2615
g56
ag78
aa(lp2616
g57
ag87
aa(lp2617
g58
ag154
aa(lp2618
g59
ag97
aatp2619
Rp2620
ag2452
((lp2621
(lp2622
g49
ag1143
aa(lp2623
g50
ag1137
aa(lp2624
g51
ag73
aa(lp2625
g52
ag484
aa(lp2626
g53
ag98
aa(lp2627
g54
ag142
aa(lp2628
g55
ag98
aa(lp2629
g56
ag99
aa(lp2630
g57
ag143
aa(lp2631
g58
ag154
aa(lp2632
g59
ag97
aatp2633
Rp2634
ag2452
((lp2635
(lp2636
g49
ag1927
aa(lp2637
g50
ag1921
aa(lp2638
g51
ag165
aa(lp2639
g52
ag484
aa(lp2640
g53
ag98
aa(lp2641
g54
ag142
aa(lp2642
g55
ag98
aa(lp2643
g56
ag99
aa(lp2644
g57
ag143
aa(lp2645
g58
ag154
aa(lp2646
g59
ag97
aatp2647
Rp2648
ag2452
((lp2649
(lp2650
g49
ag654
aa(lp2651
g50
ag648
aa(lp2652
g51
ag115
aa(lp2653
g52
ag484
aa(lp2654
g53
ag98
aa(lp2655
g54
ag142
aa(lp2656
g55
ag98
aa(lp2657
g56
ag99
aa(lp2658
g57
ag143
aa(lp2659
g58
ag154
aa(lp2660
g59
ag97
aatp2661
Rp2662
ag2452
((lp2663
(lp2664
g49
ag491
aa(lp2665
g50
ag485
aa(lp2666
g51
ag94
aa(lp2667
g52
ag484
aa(lp2668
g53
ag98
aa(lp2669
g54
ag142
aa(lp2670
g55
ag98
aa(lp2671
g56
ag99
aa(lp2672
g57
ag143
aa(lp2673
g58
ag154
aa(lp2674
g59
ag97
aatp2675
Rp2676
ag2452
((lp2677
(lp2678
g49
ag827
aa(lp2679
g50
ag821
aa(lp2680
g51
ag73
aa(lp2681
g52
ag248
aa(lp2682
g53
ag98
aa(lp2683
g54
ag108
aa(lp2684
g55
ag98
aa(lp2685
g56
ag99
aa(lp2686
g57
ag87
aa(lp2687
g58
ag154
aa(lp2688
g59
ag97
aatp2689
Rp2690
ag2452
((lp2691
(lp2692
g49
ag1719
aa(lp2693
g50
ag1713
aa(lp2694
g51
ag165
aa(lp2695
g52
ag248
aa(lp2696
g53
ag98
aa(lp2697
g54
ag108
aa(lp2698
g55
ag98
aa(lp2699
g56
ag99
aa(lp2700
g57
ag87
aa(lp2701
g58
ag154
aa(lp2702
g59
ag97
aatp2703
Rp2704
ag2452
((lp2705
(lp2706
g49
ag880
aa(lp2707
g50
ag874
aa(lp2708
g51
ag115
aa(lp2709
g52
ag248
aa(lp2710
g53
ag98
aa(lp2711
g54
ag108
aa(lp2712
g55
ag98
aa(lp2713
g56
ag99
aa(lp2714
g57
ag87
aa(lp2715
g58
ag154
aa(lp2716
g59
ag97
aatp2717
Rp2718
ag2452
((lp2719
(lp2720
g49
ag255
aa(lp2721
g50
ag249
aa(lp2722
g51
ag94
aa(lp2723
g52
ag248
aa(lp2724
g53
ag98
aa(lp2725
g54
ag108
aa(lp2726
g55
ag98
aa(lp2727
g56
ag99
aa(lp2728
g57
ag87
aa(lp2729
g58
ag154
aa(lp2730
g59
ag97
aatp2731
Rp2732
ag2452
((lp2733
(lp2734
g49
ag1039
aa(lp2735
g50
ag1033
aa(lp2736
g51
ag73
aa(lp2737
g52
ag887
aa(lp2738
g53
ag98
aa(lp2739
g54
ag125
aa(lp2740
g55
ag102
aa(lp2741
g56
ag118
aa(lp2742
g57
ag126
aa(lp2743
g58
ag154
aa(lp2744
g59
ag135
aatp2745
Rp2746
ag2452
((lp2747
(lp2748
g49
ag894
aa(lp2749
g50
ag888
aa(lp2750
g51
ag165
aa(lp2751
g52
ag887
aa(lp2752
g53
ag98
aa(lp2753
g54
ag125
aa(lp2754
g55
ag102
aa(lp2755
g56
ag118
aa(lp2756
g57
ag126
aa(lp2757
g58
ag154
aa(lp2758
g59
ag135
aatp2759
Rp2760
ag2452
((lp2761
(lp2762
g49
ag2044
aa(lp2763
g50
ag2038
aa(lp2764
g51
ag115
aa(lp2765
g52
ag887
aa(lp2766
g53
ag98
aa(lp2767
g54
ag125
aa(lp2768
g55
ag102
aa(lp2769
g56
ag118
aa(lp2770
g57
ag126
aa(lp2771
g58
ag154
aa(lp2772
g59
ag135
aatp2773
Rp2774
ag2452
((lp2775
(lp2776
g49
ag1393
aa(lp2777
g50
ag1387
aa(lp2778
g51
ag94
aa(lp2779
g52
ag887
aa(lp2780
g53
ag98
aa(lp2781
g54
ag125
aa(lp2782
g55
ag102
aa(lp2783
g56
ag118
aa(lp2784
g57
ag126
aa(lp2785
g58
ag154
aa(lp2786
g59
ag135
aatp2787
Rp2788
ag2452
((lp2789
(lp2790
g49
ag1641
aa(lp2791
g50
ag1635
aa(lp2792
g51
ag73
aa(lp2793
g52
ag607
aa(lp2794
g53
ag98
aa(lp2795
g54
ag86
aa(lp2796
g55
ag102
aa(lp2797
g56
ag78
aa(lp2798
g57
ag87
aa(lp2799
g58
ag154
aa(lp2800
g59
ag135
aatp2801
Rp2802
ag2452
((lp2803
(lp2804
g49
ag1836
aa(lp2805
g50
ag1830
aa(lp2806
g51
ag165
aa(lp2807
g52
ag607
aa(lp2808
g53
ag98
aa(lp2809
g54
ag86
aa(lp2810
g55
ag102
aa(lp2811
g56
ag78
aa(lp2812
g57
ag87
aa(lp2813
g58
ag154
aa(lp2814
g59
ag135
aatp2815
Rp2816
ag2452
((lp2817
(lp2818
g49
ag614
aa(lp2819
g50
ag608
aa(lp2820
g51
ag115
aa(lp2821
g52
ag607
aa(lp2822
g53
ag98
aa(lp2823
g54
ag86
aa(lp2824
g55
ag102
aa(lp2825
g56
ag78
aa(lp2826
g57
ag87
aa(lp2827
g58
ag154
aa(lp2828
g59
ag135
aatp2829
Rp2830
ag2452
((lp2831
(lp2832
g49
ag1130
aa(lp2833
g50
ag1124
aa(lp2834
g51
ag94
aa(lp2835
g52
ag607
aa(lp2836
g53
ag98
aa(lp2837
g54
ag86
aa(lp2838
g55
ag102
aa(lp2839
g56
ag78
aa(lp2840
g57
ag87
aa(lp2841
g58
ag154
aa(lp2842
g59
ag135
aatp2843
Rp2844
ag2452
((lp2845
(lp2846
g49
ag2369
aa(lp2847
g50
ag2363
aa(lp2848
g51
ag73
aa(lp2849
g52
ag331
aa(lp2850
g53
ag98
aa(lp2851
g54
ag142
aa(lp2852
g55
ag102
aa(lp2853
g56
ag99
aa(lp2854
g57
ag143
aa(lp2855
g58
ag154
aa(lp2856
g59
ag135
aatp2857
Rp2858
ag2452
((lp2859
(lp2860
g49
ag338
aa(lp2861
g50
ag332
aa(lp2862
g51
ag165
aa(lp2863
g52
ag331
aa(lp2864
g53
ag98
aa(lp2865
g54
ag142
aa(lp2866
g55
ag102
aa(lp2867
g56
ag99
aa(lp2868
g57
ag143
aa(lp2869
g58
ag154
aa(lp2870
g59
ag135
aatp2871
Rp2872
ag2452
((lp2873
(lp2874
g49
ag1549
aa(lp2875
g50
ag1543
aa(lp2876
g51
ag115
aa(lp2877
g52
ag331
aa(lp2878
g53
ag98
aa(lp2879
g54
ag142
aa(lp2880
g55
ag102
aa(lp2881
g56
ag99
aa(lp2882
g57
ag143
aa(lp2883
g58
ag154
aa(lp2884
g59
ag135
aatp2885
Rp2886
ag2452
((lp2887
(lp2888
g49
ag1536
aa(lp2889
g50
ag1530
aa(lp2890
g51
ag94
aa(lp2891
g52
ag331
aa(lp2892
g53
ag98
aa(lp2893
g54
ag142
aa(lp2894
g55
ag102
aa(lp2895
g56
ag99
aa(lp2896
g57
ag143
aa(lp2897
g58
ag154
aa(lp2898
g59
ag135
aatp2899
Rp2900
ag2452
((lp2901
(lp2902
g49
ag2252
aa(lp2903
g50
ag2246
aa(lp2904
g51
ag73
aa(lp2905
g52
ag456
aa(lp2906
g53
ag98
aa(lp2907
g54
ag108
aa(lp2908
g55
ag102
aa(lp2909
g56
ag99
aa(lp2910
g57
ag87
aa(lp2911
g58
ag154
aa(lp2912
g59
ag135
aatp2913
Rp2914
ag2452
((lp2915
(lp2916
g49
ag1458
aa(lp2917
g50
ag1452
aa(lp2918
g51
ag165
aa(lp2919
g52
ag456
aa(lp2920
g53
ag98
aa(lp2921
g54
ag108
aa(lp2922
g55
ag102
aa(lp2923
g56
ag99
aa(lp2924
g57
ag87
aa(lp2925
g58
ag154
aa(lp2926
g59
ag135
aatp2927
Rp2928
ag2452
((lp2929
(lp2930
g49
ag1209
aa(lp2931
g50
ag1203
aa(lp2932
g51
ag115
aa(lp2933
g52
ag456
aa(lp2934
g53
ag98
aa(lp2935
g54
ag108
aa(lp2936
g55
ag102
aa(lp2937
g56
ag99
aa(lp2938
g57
ag87
aa(lp2939
g58
ag154
aa(lp2940
g59
ag135
aatp2941
Rp2942
ag2452
((lp2943
(lp2944
g49
ag463
aa(lp2945
g50
ag457
aa(lp2946
g51
ag94
aa(lp2947
g52
ag456
aa(lp2948
g53
ag98
aa(lp2949
g54
ag108
aa(lp2950
g55
ag102
aa(lp2951
g56
ag99
aa(lp2952
g57
ag87
aa(lp2953
g58
ag154
aa(lp2954
g59
ag135
aatp2955
Rp2956
ag2452
((lp2957
(lp2958
g49
ag762
aa(lp2959
g50
ag756
aa(lp2960
g51
ag73
aa(lp2961
g52
ag755
aa(lp2962
g53
ag98
aa(lp2963
g54
ag125
aa(lp2964
g55
ag77
aa(lp2965
g56
ag118
aa(lp2966
g57
ag126
aa(lp2967
g58
ag154
aa(lp2968
g59
ag76
aatp2969
Rp2970
ag2452
((lp2971
(lp2972
g49
ag2109
aa(lp2973
g50
ag2103
aa(lp2974
g51
ag165
aa(lp2975
g52
ag755
aa(lp2976
g53
ag98
aa(lp2977
g54
ag125
aa(lp2978
g55
ag77
aa(lp2979
g56
ag118
aa(lp2980
g57
ag126
aa(lp2981
g58
ag154
aa(lp2982
g59
ag76
aatp2983
Rp2984
ag2452
((lp2985
(lp2986
g49
ag1562
aa(lp2987
g50
ag1556
aa(lp2988
g51
ag115
aa(lp2989
g52
ag755
aa(lp2990
g53
ag98
aa(lp2991
g54
ag125
aa(lp2992
g55
ag77
aa(lp2993
g56
ag118
aa(lp2994
g57
ag126
aa(lp2995
g58
ag154
aa(lp2996
g59
ag76
aatp2997
Rp2998
ag2452
((lp2999
(lp3000
g49
ag2291
aa(lp3001
g50
ag2285
aa(lp3002
g51
ag94
aa(lp3003
g52
ag755
aa(lp3004
g53
ag98
aa(lp3005
g54
ag125
aa(lp3006
g55
ag77
aa(lp3007
g56
ag118
aa(lp3008
g57
ag126
aa(lp3009
g58
ag154
aa(lp3010
g59
ag76
aatp3011
Rp3012
ag2452
((lp3013
(lp3014
g49
ag2018
aa(lp3015
g50
ag2012
aa(lp3016
g51
ag73
aa(lp3017
g52
ag1360
aa(lp3018
g53
ag98
aa(lp3019
g54
ag188
aa(lp3020
g55
ag77
aa(lp3021
g56
ag78
aa(lp3022
g57
ag189
aa(lp3023
g58
ag154
aa(lp3024
g59
ag76
aatp3025
Rp3026
ag2452
((lp3027
(lp3028
g49
ag1367
aa(lp3029
g50
ag1361
aa(lp3030
g51
ag165
aa(lp3031
g52
ag1360
aa(lp3032
g53
ag98
aa(lp3033
g54
ag188
aa(lp3034
g55
ag77
aa(lp3035
g56
ag78
aa(lp3036
g57
ag189
aa(lp3037
g58
ag154
aa(lp3038
g59
ag76
aatp3039
Rp3040
ag2452
((lp3041
(lp3042
g49
ag1732
aa(lp3043
g50
ag1726
aa(lp3044
g51
ag115
aa(lp3045
g52
ag1360
aa(lp3046
g53
ag98
aa(lp3047
g54
ag188
aa(lp3048
g55
ag77
aa(lp3049
g56
ag78
aa(lp3050
g57
ag189
aa(lp3051
g58
ag154
aa(lp3052
g59
ag76
aatp3053
Rp3054
ag2452
((lp3055
(lp3056
g49
ag1693
aa(lp3057
g50
ag1687
aa(lp3058
g51
ag94
aa(lp3059
g52
ag1360
aa(lp3060
g53
ag98
aa(lp3061
g54
ag188
aa(lp3062
g55
ag77
aa(lp3063
g56
ag78
aa(lp3064
g57
ag189
aa(lp3065
g58
ag154
aa(lp3066
g59
ag76
aatp3067
Rp3068
ag2452
((lp3069
(lp3070
g49
ag641
aa(lp3071
g50
ag635
aa(lp3072
g51
ag73
aa(lp3073
g52
ag634
aa(lp3074
g53
ag98
aa(lp3075
g54
ag86
aa(lp3076
g55
ag77
aa(lp3077
g56
ag78
aa(lp3078
g57
ag87
aa(lp3079
g58
ag154
aa(lp3080
g59
ag76
aatp3081
Rp3082
ag2452
((lp3083
(lp3084
g49
ag1901
aa(lp3085
g50
ag1895
aa(lp3086
g51
ag165
aa(lp3087
g52
ag634
aa(lp3088
g53
ag98
aa(lp3089
g54
ag86
aa(lp3090
g55
ag77
aa(lp3091
g56
ag78
aa(lp3092
g57
ag87
aa(lp3093
g58
ag154
aa(lp3094
g59
ag76
aatp3095
Rp3096
ag2452
((lp3097
(lp3098
g49
ag1353
aa(lp3099
g50
ag1347
aa(lp3100
g51
ag115
aa(lp3101
g52
ag634
aa(lp3102
g53
ag98
aa(lp3103
g54
ag86
aa(lp3104
g55
ag77
aa(lp3105
g56
ag78
aa(lp3106
g57
ag87
aa(lp3107
g58
ag154
aa(lp3108
g59
ag76
aatp3109
Rp3110
ag2452
((lp3111
(lp3112
g49
ag1862
aa(lp3113
g50
ag1856
aa(lp3114
g51
ag94
aa(lp3115
g52
ag634
aa(lp3116
g53
ag98
aa(lp3117
g54
ag86
aa(lp3118
g55
ag77
aa(lp3119
g56
ag78
aa(lp3120
g57
ag87
aa(lp3121
g58
ag154
aa(lp3122
g59
ag76
aatp3123
Rp3124
ag2452
((lp3125
(lp3126
g49
ag1628
aa(lp3127
g50
ag1622
aa(lp3128
g51
ag73
aa(lp3129
g52
ag1268
aa(lp3130
g53
ag98
aa(lp3131
g54
ag142
aa(lp3132
g55
ag77
aa(lp3133
g56
ag99
aa(lp3134
g57
ag143
aa(lp3135
g58
ag154
aa(lp3136
g59
ag76
aatp3137
Rp3138
ag2452
((lp3139
(lp3140
g49
ag1432
aa(lp3141
g50
ag1426
aa(lp3142
g51
ag165
aa(lp3143
g52
ag1268
aa(lp3144
g53
ag98
aa(lp3145
g54
ag142
aa(lp3146
g55
ag77
aa(lp3147
g56
ag99
aa(lp3148
g57
ag143
aa(lp3149
g58
ag154
aa(lp3150
g59
ag76
aatp3151
Rp3152
ag2452
((lp3153
(lp3154
g49
ag1667
aa(lp3155
g50
ag1661
aa(lp3156
g51
ag115
aa(lp3157
g52
ag1268
aa(lp3158
g53
ag98
aa(lp3159
g54
ag142
aa(lp3160
g55
ag77
aa(lp3161
g56
ag99
aa(lp3162
g57
ag143
aa(lp3163
g58
ag154
aa(lp3164
g59
ag76
aatp3165
Rp3166
ag2452
((lp3167
(lp3168
g49
ag1275
aa(lp3169
g50
ag1269
aa(lp3170
g51
ag94
aa(lp3171
g52
ag1268
aa(lp3172
g53
ag98
aa(lp3173
g54
ag142
aa(lp3174
g55
ag77
aa(lp3175
g56
ag99
aa(lp3176
g57
ag143
aa(lp3177
g58
ag154
aa(lp3178
g59
ag76
aatp3179
Rp3180
ag2452
((lp3181
(lp3182
g49
ag546
aa(lp3183
g50
ag540
aa(lp3184
g51
ag73
aa(lp3185
g52
ag539
aa(lp3186
g53
ag98
aa(lp3187
g54
ag108
aa(lp3188
g55
ag77
aa(lp3189
g56
ag99
aa(lp3190
g57
ag87
aa(lp3191
g58
ag154
aa(lp3192
g59
ag76
aatp3193
Rp3194
ag2452
((lp3195
(lp3196
g49
ag867
aa(lp3197
g50
ag861
aa(lp3198
g51
ag165
aa(lp3199
g52
ag539
aa(lp3200
g53
ag98
aa(lp3201
g54
ag108
aa(lp3202
g55
ag77
aa(lp3203
g56
ag99
aa(lp3204
g57
ag87
aa(lp3205
g58
ag154
aa(lp3206
g59
ag76
aatp3207
Rp3208
ag2452
((lp3209
(lp3210
g49
ag627
aa(lp3211
g50
ag621
aa(lp3212
g51
ag115
aa(lp3213
g52
ag539
aa(lp3214
g53
ag98
aa(lp3215
g54
ag108
aa(lp3216
g55
ag77
aa(lp3217
g56
ag99
aa(lp3218
g57
ag87
aa(lp3219
g58
ag154
aa(lp3220
g59
ag76
aatp3221
Rp3222
ag2452
((lp3223
(lp3224
g49
ag814
aa(lp3225
g50
ag808
aa(lp3226
g51
ag94
aa(lp3227
g52
ag539
aa(lp3228
g53
ag98
aa(lp3229
g54
ag108
aa(lp3230
g55
ag77
aa(lp3231
g56
ag99
aa(lp3232
g57
ag87
aa(lp3233
g58
ag154
aa(lp3234
g59
ag76
aatp3235
Rp3236
ag2452
((lp3237
(lp3238
g49
ag1510
aa(lp3239
g50
ag1504
aa(lp3240
g51
ag73
aa(lp3241
g52
ag276
aa(lp3242
g53
ag102
aa(lp3243
g54
ag125
aa(lp3244
g55
ag98
aa(lp3245
g56
ag118
aa(lp3246
g57
ag126
aa(lp3247
g58
ag103
aa(lp3248
g59
ag97
aatp3249
Rp3250
ag2452
((lp3251
(lp3252
g49
ag2343
aa(lp3253
g50
ag2337
aa(lp3254
g51
ag165
aa(lp3255
g52
ag276
aa(lp3256
g53
ag102
aa(lp3257
g54
ag125
aa(lp3258
g55
ag98
aa(lp3259
g56
ag118
aa(lp3260
g57
ag126
aa(lp3261
g58
ag103
aa(lp3262
g59
ag97
aatp3263
Rp3264
ag2452
((lp3265
(lp3266
g49
ag283
aa(lp3267
g50
ag277
aa(lp3268
g51
ag115
aa(lp3269
g52
ag276
aa(lp3270
g53
ag102
aa(lp3271
g54
ag125
aa(lp3272
g55
ag98
aa(lp3273
g56
ag118
aa(lp3274
g57
ag126
aa(lp3275
g58
ag103
aa(lp3276
g59
ag97
aatp3277
Rp3278
ag2452
((lp3279
(lp3280
g49
ag1196
aa(lp3281
g50
ag1190
aa(lp3282
g51
ag94
aa(lp3283
g52
ag276
aa(lp3284
g53
ag102
aa(lp3285
g54
ag125
aa(lp3286
g55
ag98
aa(lp3287
g56
ag118
aa(lp3288
g57
ag126
aa(lp3289
g58
ag103
aa(lp3290
g59
ag97
aatp3291
Rp3292
ag2452
((lp3293
(lp3294
g49
ag841
aa(lp3295
g50
ag835
aa(lp3296
g51
ag73
aa(lp3297
g52
ag834
aa(lp3298
g53
ag102
aa(lp3299
g54
ag188
aa(lp3300
g55
ag98
aa(lp3301
g56
ag78
aa(lp3302
g57
ag189
aa(lp3303
g58
ag103
aa(lp3304
g59
ag97
aatp3305
Rp3306
ag2452
((lp3307
(lp3308
g49
ag1340
aa(lp3309
g50
ag1334
aa(lp3310
g51
ag165
aa(lp3311
g52
ag834
aa(lp3312
g53
ag102
aa(lp3313
g54
ag188
aa(lp3314
g55
ag98
aa(lp3315
g56
ag78
aa(lp3316
g57
ag189
aa(lp3317
g58
ag103
aa(lp3318
g59
ag97
aatp3319
Rp3320
ag2452
((lp3321
(lp3322
g49
ag2317
aa(lp3323
g50
ag2311
aa(lp3324
g51
ag115
aa(lp3325
g52
ag834
aa(lp3326
g53
ag102
aa(lp3327
g54
ag188
aa(lp3328
g55
ag98
aa(lp3329
g56
ag78
aa(lp3330
g57
ag189
aa(lp3331
g58
ag103
aa(lp3332
g59
ag97
aatp3333
Rp3334
ag2452
((lp3335
(lp3336
g49
ag1183
aa(lp3337
g50
ag1177
aa(lp3338
g51
ag94
aa(lp3339
g52
ag834
aa(lp3340
g53
ag102
aa(lp3341
g54
ag188
aa(lp3342
g55
ag98
aa(lp3343
g56
ag78
aa(lp3344
g57
ag189
aa(lp3345
g58
ag103
aa(lp3346
g59
ag97
aatp3347
Rp3348
ag2452
((lp3349
(lp3350
g49
ag920
aa(lp3351
g50
ag914
aa(lp3352
g51
ag73
aa(lp3353
g52
ag498
aa(lp3354
g53
ag102
aa(lp3355
g54
ag86
aa(lp3356
g55
ag98
aa(lp3357
g56
ag78
aa(lp3358
g57
ag87
aa(lp3359
g58
ag103
aa(lp3360
g59
ag97
aatp3361
Rp3362
ag2452
((lp3363
(lp3364
g49
ag2070
aa(lp3365
g50
ag2064
aa(lp3366
g51
ag165
aa(lp3367
g52
ag498
aa(lp3368
g53
ag102
aa(lp3369
g54
ag86
aa(lp3370
g55
ag98
aa(lp3371
g56
ag78
aa(lp3372
g57
ag87
aa(lp3373
g58
ag103
aa(lp3374
g59
ag97
aatp3375
Rp3376
ag2452
((lp3377
(lp3378
g49
ag1771
aa(lp3379
g50
ag1765
aa(lp3380
g51
ag115
aa(lp3381
g52
ag498
aa(lp3382
g53
ag102
aa(lp3383
g54
ag86
aa(lp3384
g55
ag98
aa(lp3385
g56
ag78
aa(lp3386
g57
ag87
aa(lp3387
g58
ag103
aa(lp3388
g59
ag97
aatp3389
Rp3390
ag2452
((lp3391
(lp3392
g49
ag505
aa(lp3393
g50
ag499
aa(lp3394
g51
ag94
aa(lp3395
g52
ag498
aa(lp3396
g53
ag102
aa(lp3397
g54
ag86
aa(lp3398
g55
ag98
aa(lp3399
g56
ag78
aa(lp3400
g57
ag87
aa(lp3401
g58
ag103
aa(lp3402
g59
ag97
aatp3403
Rp3404
ag2452
((lp3405
(lp3406
g49
ag269
aa(lp3407
g50
ag263
aa(lp3408
g51
ag73
aa(lp3409
g52
ag262
aa(lp3410
g53
ag102
aa(lp3411
g54
ag142
aa(lp3412
g55
ag98
aa(lp3413
g56
ag99
aa(lp3414
g57
ag143
aa(lp3415
g58
ag103
aa(lp3416
g59
ag97
aatp3417
Rp3418
ag2452
((lp3419
(lp3420
g49
ag600
aa(lp3421
g50
ag594
aa(lp3422
g51
ag165
aa(lp3423
g52
ag262
aa(lp3424
g53
ag102
aa(lp3425
g54
ag142
aa(lp3426
g55
ag98
aa(lp3427
g56
ag99
aa(lp3428
g57
ag143
aa(lp3429
g58
ag103
aa(lp3430
g59
ag97
aatp3431
Rp3432
ag2452
((lp3433
(lp3434
g49
ag1810
aa(lp3435
g50
ag1804
aa(lp3436
g51
ag115
aa(lp3437
g52
ag262
aa(lp3438
g53
ag102
aa(lp3439
g54
ag142
aa(lp3440
g55
ag98
aa(lp3441
g56
ag99
aa(lp3442
g57
ag143
aa(lp3443
g58
ag103
aa(lp3444
g59
ag97
aatp3445
Rp3446
ag2452
((lp3447
(lp3448
g49
ag1013
aa(lp3449
g50
ag1007
aa(lp3450
g51
ag94
aa(lp3451
g52
ag262
aa(lp3452
g53
ag102
aa(lp3453
g54
ag142
aa(lp3454
g55
ag98
aa(lp3455
g56
ag99
aa(lp3456
g57
ag143
aa(lp3457
g58
ag103
aa(lp3458
g59
ag97
aatp3459
Rp3460
ag2452
((lp3461
(lp3462
g49
ag1497
aa(lp3463
g50
ag1491
aa(lp3464
g51
ag73
aa(lp3465
g52
ag93
aa(lp3466
g53
ag102
aa(lp3467
g54
ag108
aa(lp3468
g55
ag98
aa(lp3469
g56
ag99
aa(lp3470
g57
ag87
aa(lp3471
g58
ag103
aa(lp3472
g59
ag97
aatp3473
Rp3474
ag2452
((lp3475
(lp3476
g49
ag1654
aa(lp3477
g50
ag1648
aa(lp3478
g51
ag165
aa(lp3479
g52
ag93
aa(lp3480
g53
ag102
aa(lp3481
g54
ag108
aa(lp3482
g55
ag98
aa(lp3483
g56
ag99
aa(lp3484
g57
ag87
aa(lp3485
g58
ag103
aa(lp3486
g59
ag97
aatp3487
Rp3488
ag2452
((lp3489
(lp3490
g49
ag986
aa(lp3491
g50
ag980
aa(lp3492
g51
ag115
aa(lp3493
g52
ag93
aa(lp3494
g53
ag102
aa(lp3495
g54
ag108
aa(lp3496
g55
ag98
aa(lp3497
g56
ag99
aa(lp3498
g57
ag87
aa(lp3499
g58
ag103
aa(lp3500
g59
ag97
aatp3501
Rp3502
ag2452
((lp3503
(lp3504
g49
ag106
aa(lp3505
g50
ag95
aa(lp3506
g51
ag94
aa(lp3507
g52
ag93
aa(lp3508
g53
ag102
aa(lp3509
g54
ag108
aa(lp3510
g55
ag98
aa(lp3511
g56
ag99
aa(lp3512
g57
ag87
aa(lp3513
g58
ag103
aa(lp3514
g59
ag97
aatp3515
Rp3516
ag2452
((lp3517
(lp3518
g49
ag668
aa(lp3519
g50
ag662
aa(lp3520
g51
ag73
aa(lp3521
g52
ag661
aa(lp3522
g53
ag102
aa(lp3523
g54
ag125
aa(lp3524
g55
ag102
aa(lp3525
g56
ag118
aa(lp3526
g57
ag126
aa(lp3527
g58
ag103
aa(lp3528
g59
ag135
aatp3529
Rp3530
ag2452
((lp3531
(lp3532
g49
ag973
aa(lp3533
g50
ag967
aa(lp3534
g51
ag165
aa(lp3535
g52
ag661
aa(lp3536
g53
ag102
aa(lp3537
g54
ag125
aa(lp3538
g55
ag102
aa(lp3539
g56
ag118
aa(lp3540
g57
ag126
aa(lp3541
g58
ag103
aa(lp3542
g59
ag135
aatp3543
Rp3544
ag2452
((lp3545
(lp3546
g49
ag734
aa(lp3547
g50
ag728
aa(lp3548
g51
ag115
aa(lp3549
g52
ag661
aa(lp3550
g53
ag102
aa(lp3551
g54
ag125
aa(lp3552
g55
ag102
aa(lp3553
g56
ag118
aa(lp3554
g57
ag126
aa(lp3555
g58
ag103
aa(lp3556
g59
ag135
aatp3557
Rp3558
ag2452
((lp3559
(lp3560
g49
ag801
aa(lp3561
g50
ag795
aa(lp3562
g51
ag94
aa(lp3563
g52
ag661
aa(lp3564
g53
ag102
aa(lp3565
g54
ag125
aa(lp3566
g55
ag102
aa(lp3567
g56
ag118
aa(lp3568
g57
ag126
aa(lp3569
g58
ag103
aa(lp3570
g59
ag135
aatp3571
Rp3572
ag2452
((lp3573
(lp3574
g49
ag946
aa(lp3575
g50
ag940
aa(lp3576
g51
ag73
aa(lp3577
g52
ag290
aa(lp3578
g53
ag102
aa(lp3579
g54
ag188
aa(lp3580
g55
ag102
aa(lp3581
g56
ag78
aa(lp3582
g57
ag189
aa(lp3583
g58
ag103
aa(lp3584
g59
ag135
aatp3585
Rp3586
ag2452
((lp3587
(lp3588
g49
ag297
aa(lp3589
g50
ag291
aa(lp3590
g51
ag165
aa(lp3591
g52
ag290
aa(lp3592
g53
ag102
aa(lp3593
g54
ag188
aa(lp3594
g55
ag102
aa(lp3595
g56
ag78
aa(lp3596
g57
ag189
aa(lp3597
g58
ag103
aa(lp3598
g59
ag135
aatp3599
Rp3600
ag2452
((lp3601
(lp3602
g49
ag1849
aa(lp3603
g50
ag1843
aa(lp3604
g51
ag115
aa(lp3605
g52
ag290
aa(lp3606
g53
ag102
aa(lp3607
g54
ag188
aa(lp3608
g55
ag102
aa(lp3609
g56
ag78
aa(lp3610
g57
ag189
aa(lp3611
g58
ag103
aa(lp3612
g59
ag135
aatp3613
Rp3614
ag2452
((lp3615
(lp3616
g49
ag1823
aa(lp3617
g50
ag1817
aa(lp3618
g51
ag94
aa(lp3619
g52
ag290
aa(lp3620
g53
ag102
aa(lp3621
g54
ag188
aa(lp3622
g55
ag102
aa(lp3623
g56
ag78
aa(lp3624
g57
ag189
aa(lp3625
g58
ag103
aa(lp3626
g59
ag135
aatp3627
Rp3628
ag2452
((lp3629
(lp3630
g49
ag1235
aa(lp3631
g50
ag1229
aa(lp3632
g51
ag73
aa(lp3633
g52
ag345
aa(lp3634
g53
ag102
aa(lp3635
g54
ag86
aa(lp3636
g55
ag102
aa(lp3637
g56
ag78
aa(lp3638
g57
ag87
aa(lp3639
g58
ag103
aa(lp3640
g59
ag135
aatp3641
Rp3642
ag2452
((lp3643
(lp3644
g49
ag854
aa(lp3645
g50
ag848
aa(lp3646
g51
ag165
aa(lp3647
g52
ag345
aa(lp3648
g53
ag102
aa(lp3649
g54
ag86
aa(lp3650
g55
ag102
aa(lp3651
g56
ag78
aa(lp3652
g57
ag87
aa(lp3653
g58
ag103
aa(lp3654
g59
ag135
aatp3655
Rp3656
ag2452
((lp3657
(lp3658
g49
ag352
aa(lp3659
g50
ag346
aa(lp3660
g51
ag115
aa(lp3661
g52
ag345
aa(lp3662
g53
ag102
aa(lp3663
g54
ag86
aa(lp3664
g55
ag102
aa(lp3665
g56
ag78
aa(lp3666
g57
ag87
aa(lp3667
g58
ag103
aa(lp3668
g59
ag135
aatp3669
Rp3670
ag2452
((lp3671
(lp3672
g49
ag2265
aa(lp3673
g50
ag2259
aa(lp3674
g51
ag94
aa(lp3675
g52
ag345
aa(lp3676
g53
ag102
aa(lp3677
g54
ag86
aa(lp3678
g55
ag102
aa(lp3679
g56
ag78
aa(lp3680
g57
ag87
aa(lp3681
g58
ag103
aa(lp3682
g59
ag135
aatp3683
Rp3684
ag2452
((lp3685
(lp3686
g49
ag1953
aa(lp3687
g50
ag1947
aa(lp3688
g51
ag73
aa(lp3689
g52
ag132
aa(lp3690
g53
ag102
aa(lp3691
g54
ag142
aa(lp3692
g55
ag102
aa(lp3693
g56
ag99
aa(lp3694
g57
ag143
aa(lp3695
g58
ag103
aa(lp3696
g59
ag135
aatp3697
Rp3698
ag2452
((lp3699
(lp3700
g49
ag2304
aa(lp3701
g50
ag2298
aa(lp3702
g51
ag165
aa(lp3703
g52
ag132
aa(lp3704
g53
ag102
aa(lp3705
g54
ag142
aa(lp3706
g55
ag102
aa(lp3707
g56
ag99
aa(lp3708
g57
ag143
aa(lp3709
g58
ag103
aa(lp3710
g59
ag135
aatp3711
Rp3712
ag2452
((lp3713
(lp3714
g49
ag310
aa(lp3715
g50
ag304
aa(lp3716
g51
ag115
aa(lp3717
g52
ag132
aa(lp3718
g53
ag102
aa(lp3719
g54
ag142
aa(lp3720
g55
ag102
aa(lp3721
g56
ag99
aa(lp3722
g57
ag143
aa(lp3723
g58
ag103
aa(lp3724
g59
ag135
aatp3725
Rp3726
ag2452
((lp3727
(lp3728
g49
ag140
aa(lp3729
g50
ag133
aa(lp3730
g51
ag94
aa(lp3731
g52
ag132
aa(lp3732
g53
ag102
aa(lp3733
g54
ag142
aa(lp3734
g55
ag102
aa(lp3735
g56
ag99
aa(lp3736
g57
ag143
aa(lp3737
g58
ag103
aa(lp3738
g59
ag135
aatp3739
Rp3740
ag2452
((lp3741
(lp3742
g49
ag1523
aa(lp3743
g50
ag1517
aa(lp3744
g51
ag73
aa(lp3745
g52
ag401
aa(lp3746
g53
ag102
aa(lp3747
g54
ag108
aa(lp3748
g55
ag102
aa(lp3749
g56
ag99
aa(lp3750
g57
ag87
aa(lp3751
g58
ag103
aa(lp3752
g59
ag135
aatp3753
Rp3754
ag2452
((lp3755
(lp3756
g49
ag1888
aa(lp3757
g50
ag1882
aa(lp3758
g51
ag165
aa(lp3759
g52
ag401
aa(lp3760
g53
ag102
aa(lp3761
g54
ag108
aa(lp3762
g55
ag102
aa(lp3763
g56
ag99
aa(lp3764
g57
ag87
aa(lp3765
g58
ag103
aa(lp3766
g59
ag135
aatp3767
Rp3768
ag2452
((lp3769
(lp3770
g49
ag408
aa(lp3771
g50
ag402
aa(lp3772
g51
ag115
aa(lp3773
g52
ag401
aa(lp3774
g53
ag102
aa(lp3775
g54
ag108
aa(lp3776
g55
ag102
aa(lp3777
g56
ag99
aa(lp3778
g57
ag87
aa(lp3779
g58
ag103
aa(lp3780
g59
ag135
aatp3781
Rp3782
ag2452
((lp3783
(lp3784
g49
ag1222
aa(lp3785
g50
ag1216
aa(lp3786
g51
ag94
aa(lp3787
g52
ag401
aa(lp3788
g53
ag102
aa(lp3789
g54
ag108
aa(lp3790
g55
ag102
aa(lp3791
g56
ag99
aa(lp3792
g57
ag87
aa(lp3793
g58
ag103
aa(lp3794
g59
ag135
aatp3795
Rp3796
ag2452
((lp3797
(lp3798
g49
ag2213
aa(lp3799
g50
ag2207
aa(lp3800
g51
ag73
aa(lp3801
g52
ag317
aa(lp3802
g53
ag102
aa(lp3803
g54
ag125
aa(lp3804
g55
ag77
aa(lp3805
g56
ag118
aa(lp3806
g57
ag126
aa(lp3807
g58
ag103
aa(lp3808
g59
ag76
aatp3809
Rp3810
ag2452
((lp3811
(lp3812
g49
ag2174
aa(lp3813
g50
ag2168
aa(lp3814
g51
ag165
aa(lp3815
g52
ag317
aa(lp3816
g53
ag102
aa(lp3817
g54
ag125
aa(lp3818
g55
ag77
aa(lp3819
g56
ag118
aa(lp3820
g57
ag126
aa(lp3821
g58
ag103
aa(lp3822
g59
ag76
aatp3823
Rp3824
ag2452
((lp3825
(lp3826
g49
ag681
aa(lp3827
g50
ag675
aa(lp3828
g51
ag115
aa(lp3829
g52
ag317
aa(lp3830
g53
ag102
aa(lp3831
g54
ag125
aa(lp3832
g55
ag77
aa(lp3833
g56
ag118
aa(lp3834
g57
ag126
aa(lp3835
g58
ag103
aa(lp3836
g59
ag76
aatp3837
Rp3838
ag2452
((lp3839
(lp3840
g49
ag324
aa(lp3841
g50
ag318
aa(lp3842
g51
ag94
aa(lp3843
g52
ag317
aa(lp3844
g53
ag102
aa(lp3845
g54
ag125
aa(lp3846
g55
ag77
aa(lp3847
g56
ag118
aa(lp3848
g57
ag126
aa(lp3849
g58
ag103
aa(lp3850
g59
ag76
aatp3851
Rp3852
ag2452
((lp3853
(lp3854
g49
ag1979
aa(lp3855
g50
ag1973
aa(lp3856
g51
ag73
aa(lp3857
g52
ag580
aa(lp3858
g53
ag102
aa(lp3859
g54
ag188
aa(lp3860
g55
ag77
aa(lp3861
g56
ag78
aa(lp3862
g57
ag189
aa(lp3863
g58
ag103
aa(lp3864
g59
ag76
aatp3865
Rp3866
ag2452
((lp3867
(lp3868
g49
ag694
aa(lp3869
g50
ag688
aa(lp3870
g51
ag165
aa(lp3871
g52
ag580
aa(lp3872
g53
ag102
aa(lp3873
g54
ag188
aa(lp3874
g55
ag77
aa(lp3875
g56
ag78
aa(lp3876
g57
ag189
aa(lp3877
g58
ag103
aa(lp3878
g59
ag76
aatp3879
Rp3880
ag2452
((lp3881
(lp3882
g49
ag788
aa(lp3883
g50
ag782
aa(lp3884
g51
ag115
aa(lp3885
g52
ag580
aa(lp3886
g53
ag102
aa(lp3887
g54
ag188
aa(lp3888
g55
ag77
aa(lp3889
g56
ag78
aa(lp3890
g57
ag189
aa(lp3891
g58
ag103
aa(lp3892
g59
ag76
aatp3893
Rp3894
ag2452
((lp3895
(lp3896
g49
ag587
aa(lp3897
g50
ag581
aa(lp3898
g51
ag94
aa(lp3899
g52
ag580
aa(lp3900
g53
ag102
aa(lp3901
g54
ag188
aa(lp3902
g55
ag77
aa(lp3903
g56
ag78
aa(lp3904
g57
ag189
aa(lp3905
g58
ag103
aa(lp3906
g59
ag76
aatp3907
Rp3908
ag2452
((lp3909
(lp3910
g49
ag559
aa(lp3911
g50
ag553
aa(lp3912
g51
ag73
aa(lp3913
g52
ag415
aa(lp3914
g53
ag102
aa(lp3915
g54
ag86
aa(lp3916
g55
ag77
aa(lp3917
g56
ag78
aa(lp3918
g57
ag87
aa(lp3919
g58
ag103
aa(lp3920
g59
ag76
aatp3921
Rp3922
ag2452
((lp3923
(lp3924
g49
ag1170
aa(lp3925
g50
ag1164
aa(lp3926
g51
ag165
aa(lp3927
g52
ag415
aa(lp3928
g53
ag102
aa(lp3929
g54
ag86
aa(lp3930
g55
ag77
aa(lp3931
g56
ag78
aa(lp3932
g57
ag87
aa(lp3933
g58
ag103
aa(lp3934
g59
ag76
aatp3935
Rp3936
ag2452
((lp3937
(lp3938
g49
ag2005
aa(lp3939
g50
ag1999
aa(lp3940
g51
ag115
aa(lp3941
g52
ag415
aa(lp3942
g53
ag102
aa(lp3943
g54
ag86
aa(lp3944
g55
ag77
aa(lp3945
g56
ag78
aa(lp3946
g57
ag87
aa(lp3947
g58
ag103
aa(lp3948
g59
ag76
aatp3949
Rp3950
ag2452
((lp3951
(lp3952
g49
ag422
aa(lp3953
g50
ag416
aa(lp3954
g51
ag94
aa(lp3955
g52
ag415
aa(lp3956
g53
ag102
aa(lp3957
g54
ag86
aa(lp3958
g55
ag77
aa(lp3959
g56
ag78
aa(lp3960
g57
ag87
aa(lp3961
g58
ag103
aa(lp3962
g59
ag76
aatp3963
Rp3964
ag2452
((lp3965
(lp3966
g49
ag1380
aa(lp3967
g50
ag1374
aa(lp3968
g51
ag73
aa(lp3969
g52
ag993
aa(lp3970
g53
ag102
aa(lp3971
g54
ag142
aa(lp3972
g55
ag77
aa(lp3973
g56
ag99
aa(lp3974
g57
ag143
aa(lp3975
g58
ag103
aa(lp3976
g59
ag76
aatp3977
Rp3978
ag2452
((lp3979
(lp3980
g49
ag1000
aa(lp3981
g50
ag994
aa(lp3982
g51
ag165
aa(lp3983
g52
ag993
aa(lp3984
g53
ag102
aa(lp3985
g54
ag142
aa(lp3986
g55
ag77
aa(lp3987
g56
ag99
aa(lp3988
g57
ag143
aa(lp3989
g58
ag103
aa(lp3990
g59
ag76
aatp3991
Rp3992
ag2452
((lp3993
(lp3994
g49
ag1117
aa(lp3995
g50
ag1111
aa(lp3996
g51
ag115
aa(lp3997
g52
ag993
aa(lp3998
g53
ag102
aa(lp3999
g54
ag142
aa(lp4000
g55
ag77
aa(lp4001
g56
ag99
aa(lp4002
g57
ag143
aa(lp4003
g58
ag103
aa(lp4004
g59
ag76
aatp4005
Rp4006
ag2452
((lp4007
(lp4008
g49
ag2187
aa(lp4009
g50
ag2181
aa(lp4010
g51
ag94
aa(lp4011
g52
ag993
aa(lp4012
g53
ag102
aa(lp4013
g54
ag142
aa(lp4014
g55
ag77
aa(lp4015
g56
ag99
aa(lp4016
g57
ag143
aa(lp4017
g58
ag103
aa(lp4018
g59
ag76
aatp4019
Rp4020
ag2452
((lp4021
(lp4022
g49
ag1406
aa(lp4023
g50
ag1400
aa(lp4024
g51
ag73
aa(lp4025
g52
ag512
aa(lp4026
g53
ag102
aa(lp4027
g54
ag108
aa(lp4028
g55
ag77
aa(lp4029
g56
ag99
aa(lp4030
g57
ag87
aa(lp4031
g58
ag103
aa(lp4032
g59
ag76
aatp4033
Rp4034
ag2452
((lp4035
(lp4036
g49
ag519
aa(lp4037
g50
ag513
aa(lp4038
g51
ag165
aa(lp4039
g52
ag512
aa(lp4040
g53
ag102
aa(lp4041
g54
ag108
aa(lp4042
g55
ag77
aa(lp4043
g56
ag99
aa(lp4044
g57
ag87
aa(lp4045
g58
ag103
aa(lp4046
g59
ag76
aatp4047
Rp4048
ag2452
((lp4049
(lp4050
g49
ag1065
aa(lp4051
g50
ag1059
aa(lp4052
g51
ag115
aa(lp4053
g52
ag512
aa(lp4054
g53
ag102
aa(lp4055
g54
ag108
aa(lp4056
g55
ag77
aa(lp4057
g56
ag99
aa(lp4058
g57
ag87
aa(lp4059
g58
ag103
aa(lp4060
g59
ag76
aatp4061
Rp4062
ag2452
((lp4063
(lp4064
g49
ag1758
aa(lp4065
g50
ag1752
aa(lp4066
g51
ag94
aa(lp4067
g52
ag512
aa(lp4068
g53
ag102
aa(lp4069
g54
ag108
aa(lp4070
g55
ag77
aa(lp4071
g56
ag99
aa(lp4072
g57
ag87
aa(lp4073
g58
ag103
aa(lp4074
g59
ag76
aatp4075
Rp4076
ag2452
((lp4077
(lp4078
g49
ag1288
aa(lp4079
g50
ag1282
aa(lp4080
g51
ag73
aa(lp4081
g52
ag114
aa(lp4082
g53
ag77
aa(lp4083
g54
ag125
aa(lp4084
g55
ag98
aa(lp4085
g56
ag118
aa(lp4086
g57
ag126
aa(lp4087
g58
ag81
aa(lp4088
g59
ag97
aatp4089
Rp4090
ag2452
((lp4091
(lp4092
g49
ag1104
aa(lp4093
g50
ag1098
aa(lp4094
g51
ag165
aa(lp4095
g52
ag114
aa(lp4096
g53
ag77
aa(lp4097
g54
ag125
aa(lp4098
g55
ag98
aa(lp4099
g56
ag118
aa(lp4100
g57
ag126
aa(lp4101
g58
ag81
aa(lp4102
g59
ag97
aatp4103
Rp4104
ag2452
((lp4105
(lp4106
g49
ag123
aa(lp4107
g50
ag116
aa(lp4108
g51
ag115
aa(lp4109
g52
ag114
aa(lp4110
g53
ag77
aa(lp4111
g54
ag125
aa(lp4112
g55
ag98
aa(lp4113
g56
ag118
aa(lp4114
g57
ag126
aa(lp4115
g58
ag81
aa(lp4116
g59
ag97
aatp4117
Rp4118
ag2452
((lp4119
(lp4120
g49
ag214
aa(lp4121
g50
ag208
aa(lp4122
g51
ag94
aa(lp4123
g52
ag114
aa(lp4124
g53
ag77
aa(lp4125
g54
ag125
aa(lp4126
g55
ag98
aa(lp4127
g56
ag118
aa(lp4128
g57
ag126
aa(lp4129
g58
ag81
aa(lp4130
g59
ag97
aatp4131
Rp4132
ag2452
((lp4133
(lp4134
g49
ag2148
aa(lp4135
g50
ag2142
aa(lp4136
g51
ag73
aa(lp4137
g52
ag179
aa(lp4138
g53
ag77
aa(lp4139
g54
ag188
aa(lp4140
g55
ag98
aa(lp4141
g56
ag78
aa(lp4142
g57
ag189
aa(lp4143
g58
ag81
aa(lp4144
g59
ag97
aatp4145
Rp4146
ag2452
((lp4147
(lp4148
g49
ag1484
aa(lp4149
g50
ag1478
aa(lp4150
g51
ag165
aa(lp4151
g52
ag179
aa(lp4152
g53
ag77
aa(lp4153
g54
ag188
aa(lp4154
g55
ag98
aa(lp4155
g56
ag78
aa(lp4156
g57
ag189
aa(lp4157
g58
ag81
aa(lp4158
g59
ag97
aatp4159
Rp4160
ag2452
((lp4161
(lp4162
g49
ag201
aa(lp4163
g50
ag195
aa(lp4164
g51
ag115
aa(lp4165
g52
ag179
aa(lp4166
g53
ag77
aa(lp4167
g54
ag188
aa(lp4168
g55
ag98
aa(lp4169
g56
ag78
aa(lp4170
g57
ag189
aa(lp4171
g58
ag81
aa(lp4172
g59
ag97
aatp4173
Rp4174
ag2452
((lp4175
(lp4176
g49
ag186
aa(lp4177
g50
ag180
aa(lp4178
g51
ag94
aa(lp4179
g52
ag179
aa(lp4180
g53
ag77
aa(lp4181
g54
ag188
aa(lp4182
g55
ag98
aa(lp4183
g56
ag78
aa(lp4184
g57
ag189
aa(lp4185
g58
ag81
aa(lp4186
g59
ag97
aatp4187
Rp4188
ag2452
((lp4189
(lp4190
g49
ag394
aa(lp4191
g50
ag388
aa(lp4192
g51
ag73
aa(lp4193
g52
ag387
aa(lp4194
g53
ag77
aa(lp4195
g54
ag86
aa(lp4196
g55
ag98
aa(lp4197
g56
ag78
aa(lp4198
g57
ag87
aa(lp4199
g58
ag81
aa(lp4200
g59
ag97
aatp4201
Rp4202
ag2452
((lp4203
(lp4204
g49
ag1052
aa(lp4205
g50
ag1046
aa(lp4206
g51
ag165
aa(lp4207
g52
ag387
aa(lp4208
g53
ag77
aa(lp4209
g54
ag86
aa(lp4210
g55
ag98
aa(lp4211
g56
ag78
aa(lp4212
g57
ag87
aa(lp4213
g58
ag81
aa(lp4214
g59
ag97
aatp4215
Rp4216
ag2452
((lp4217
(lp4218
g49
ag2330
aa(lp4219
g50
ag2324
aa(lp4220
g51
ag115
aa(lp4221
g52
ag387
aa(lp4222
g53
ag77
aa(lp4223
g54
ag86
aa(lp4224
g55
ag98
aa(lp4225
g56
ag78
aa(lp4226
g57
ag87
aa(lp4227
g58
ag81
aa(lp4228
g59
ag97
aatp4229
Rp4230
ag2452
((lp4231
(lp4232
g49
ag907
aa(lp4233
g50
ag901
aa(lp4234
g51
ag94
aa(lp4235
g52
ag387
aa(lp4236
g53
ag77
aa(lp4237
g54
ag86
aa(lp4238
g55
ag98
aa(lp4239
g56
ag78
aa(lp4240
g57
ag87
aa(lp4241
g58
ag81
aa(lp4242
g59
ag97
aatp4243
Rp4244
ag2452
((lp4245
(lp4246
g49
ag2122
aa(lp4247
g50
ag2116
aa(lp4248
g51
ag73
aa(lp4249
g52
ag701
aa(lp4250
g53
ag77
aa(lp4251
g54
ag142
aa(lp4252
g55
ag98
aa(lp4253
g56
ag99
aa(lp4254
g57
ag143
aa(lp4255
g58
ag81
aa(lp4256
g59
ag97
aatp4257
Rp4258
ag2452
((lp4259
(lp4260
g49
ag708
aa(lp4261
g50
ag702
aa(lp4262
g51
ag165
aa(lp4263
g52
ag701
aa(lp4264
g53
ag77
aa(lp4265
g54
ag142
aa(lp4266
g55
ag98
aa(lp4267
g56
ag99
aa(lp4268
g57
ag143
aa(lp4269
g58
ag81
aa(lp4270
g59
ag97
aatp4271
Rp4272
ag2452
((lp4273
(lp4274
g49
ag1026
aa(lp4275
g50
ag1020
aa(lp4276
g51
ag115
aa(lp4277
g52
ag701
aa(lp4278
g53
ag77
aa(lp4279
g54
ag142
aa(lp4280
g55
ag98
aa(lp4281
g56
ag99
aa(lp4282
g57
ag143
aa(lp4283
g58
ag81
aa(lp4284
g59
ag97
aatp4285
Rp4286
ag2452
((lp4287
(lp4288
g49
ag1875
aa(lp4289
g50
ag1869
aa(lp4290
g51
ag94
aa(lp4291
g52
ag701
aa(lp4292
g53
ag77
aa(lp4293
g54
ag142
aa(lp4294
g55
ag98
aa(lp4295
g56
ag99
aa(lp4296
g57
ag143
aa(lp4297
g58
ag81
aa(lp4298
g59
ag97
aatp4299
Rp4300
ag2452
((lp4301
(lp4302
g49
ag1797
aa(lp4303
g50
ag1791
aa(lp4304
g51
ag73
aa(lp4305
g52
ag953
aa(lp4306
g53
ag77
aa(lp4307
g54
ag108
aa(lp4308
g55
ag98
aa(lp4309
g56
ag99
aa(lp4310
g57
ag87
aa(lp4311
g58
ag81
aa(lp4312
g59
ag97
aatp4313
Rp4314
ag2452
((lp4315
(lp4316
g49
ag1966
aa(lp4317
g50
ag1960
aa(lp4318
g51
ag165
aa(lp4319
g52
ag953
aa(lp4320
g53
ag77
aa(lp4321
g54
ag108
aa(lp4322
g55
ag98
aa(lp4323
g56
ag99
aa(lp4324
g57
ag87
aa(lp4325
g58
ag81
aa(lp4326
g59
ag97
aatp4327
Rp4328
ag2452
((lp4329
(lp4330
g49
ag2226
aa(lp4331
g50
ag2220
aa(lp4332
g51
ag115
aa(lp4333
g52
ag953
aa(lp4334
g53
ag77
aa(lp4335
g54
ag108
aa(lp4336
g55
ag98
aa(lp4337
g56
ag99
aa(lp4338
g57
ag87
aa(lp4339
g58
ag81
aa(lp4340
g59
ag97
aatp4341
Rp4342
ag2452
((lp4343
(lp4344
g49
ag960
aa(lp4345
g50
ag954
aa(lp4346
g51
ag94
aa(lp4347
g52
ag953
aa(lp4348
g53
ag77
aa(lp4349
g54
ag108
aa(lp4350
g55
ag98
aa(lp4351
g56
ag99
aa(lp4352
g57
ag87
aa(lp4353
g58
ag81
aa(lp4354
g59
ag97
aatp4355
Rp4356
ag2452
((lp4357
(lp4358
g49
ag1680
aa(lp4359
g50
ag1674
aa(lp4360
g51
ag73
aa(lp4361
g52
ag429
aa(lp4362
g53
ag77
aa(lp4363
g54
ag125
aa(lp4364
g55
ag102
aa(lp4365
g56
ag118
aa(lp4366
g57
ag126
aa(lp4367
g58
ag81
aa(lp4368
g59
ag135
aatp4369
Rp4370
ag2452
((lp4371
(lp4372
g49
ag721
aa(lp4373
g50
ag715
aa(lp4374
g51
ag165
aa(lp4375
g52
ag429
aa(lp4376
g53
ag77
aa(lp4377
g54
ag125
aa(lp4378
g55
ag102
aa(lp4379
g56
ag118
aa(lp4380
g57
ag126
aa(lp4381
g58
ag81
aa(lp4382
g59
ag135
aatp4383
Rp4384
ag2452
((lp4385
(lp4386
g49
ag436
aa(lp4387
g50
ag430
aa(lp4388
g51
ag115
aa(lp4389
g52
ag429
aa(lp4390
g53
ag77
aa(lp4391
g54
ag125
aa(lp4392
g55
ag102
aa(lp4393
g56
ag118
aa(lp4394
g57
ag126
aa(lp4395
g58
ag81
aa(lp4396
g59
ag135
aatp4397
Rp4398
ag2452
((lp4399
(lp4400
g49
ag1078
aa(lp4401
g50
ag1072
aa(lp4402
g51
ag94
aa(lp4403
g52
ag429
aa(lp4404
g53
ag77
aa(lp4405
g54
ag125
aa(lp4406
g55
ag102
aa(lp4407
g56
ag118
aa(lp4408
g57
ag126
aa(lp4409
g58
ag81
aa(lp4410
g59
ag135
aatp4411
Rp4412
ag2452
((lp4413
(lp4414
g49
ag2057
aa(lp4415
g50
ag2051
aa(lp4416
g51
ag73
aa(lp4417
g52
ag221
aa(lp4418
g53
ag77
aa(lp4419
g54
ag188
aa(lp4420
g55
ag102
aa(lp4421
g56
ag78
aa(lp4422
g57
ag189
aa(lp4423
g58
ag81
aa(lp4424
g59
ag135
aatp4425
Rp4426
ag2452
((lp4427
(lp4428
g49
ag228
aa(lp4429
g50
ag222
aa(lp4430
g51
ag165
aa(lp4431
g52
ag221
aa(lp4432
g53
ag77
aa(lp4433
g54
ag188
aa(lp4434
g55
ag102
aa(lp4435
g56
ag78
aa(lp4436
g57
ag189
aa(lp4437
g58
ag81
aa(lp4438
g59
ag135
aatp4439
Rp4440
ag2452
((lp4441
(lp4442
g49
ag2096
aa(lp4443
g50
ag2090
aa(lp4444
g51
ag115
aa(lp4445
g52
ag221
aa(lp4446
g53
ag77
aa(lp4447
g54
ag188
aa(lp4448
g55
ag102
aa(lp4449
g56
ag78
aa(lp4450
g57
ag189
aa(lp4451
g58
ag81
aa(lp4452
g59
ag135
aatp4453
Rp4454
ag2452
((lp4455
(lp4456
g49
ag2083
aa(lp4457
g50
ag2077
aa(lp4458
g51
ag94
aa(lp4459
g52
ag221
aa(lp4460
g53
ag77
aa(lp4461
g54
ag188
aa(lp4462
g55
ag102
aa(lp4463
g56
ag78
aa(lp4464
g57
ag189
aa(lp4465
g58
ag81
aa(lp4466
g59
ag135
aatp4467
Rp4468
ag2452
((lp4469
(lp4470
g49
ag1575
aa(lp4471
g50
ag1569
aa(lp4472
g51
ag73
aa(lp4473
g52
ag359
aa(lp4474
g53
ag77
aa(lp4475
g54
ag86
aa(lp4476
g55
ag102
aa(lp4477
g56
ag78
aa(lp4478
g57
ag87
aa(lp4479
g58
ag81
aa(lp4480
g59
ag135
aatp4481
Rp4482
ag2452
((lp4483
(lp4484
g49
ag366
aa(lp4485
g50
ag360
aa(lp4486
g51
ag165
aa(lp4487
g52
ag359
aa(lp4488
g53
ag77
aa(lp4489
g54
ag86
aa(lp4490
g55
ag102
aa(lp4491
g56
ag78
aa(lp4492
g57
ag87
aa(lp4493
g58
ag81
aa(lp4494
g59
ag135
aatp4495
Rp4496
ag2452
((lp4497
(lp4498
g49
ag2239
aa(lp4499
g50
ag2233
aa(lp4500
g51
ag115
aa(lp4501
g52
ag359
aa(lp4502
g53
ag77
aa(lp4503
g54
ag86
aa(lp4504
g55
ag102
aa(lp4505
g56
ag78
aa(lp4506
g57
ag87
aa(lp4507
g58
ag81
aa(lp4508
g59
ag135
aatp4509
Rp4510
ag2452
((lp4511
(lp4512
g49
ag1314
aa(lp4513
g50
ag1308
aa(lp4514
g51
ag94
aa(lp4515
g52
ag359
aa(lp4516
g53
ag77
aa(lp4517
g54
ag86
aa(lp4518
g55
ag102
aa(lp4519
g56
ag78
aa(lp4520
g57
ag87
aa(lp4521
g58
ag81
aa(lp4522
g59
ag135
aatp4523
Rp4524
ag2452
((lp4525
(lp4526
g49
ag1157
aa(lp4527
g50
ag1151
aa(lp4528
g51
ag73
aa(lp4529
g52
ag1150
aa(lp4530
g53
ag77
aa(lp4531
g54
ag142
aa(lp4532
g55
ag102
aa(lp4533
g56
ag99
aa(lp4534
g57
ag143
aa(lp4535
g58
ag81
aa(lp4536
g59
ag135
aatp4537
Rp4538
ag2452
((lp4539
(lp4540
g49
ag2135
aa(lp4541
g50
ag2129
aa(lp4542
g51
ag165
aa(lp4543
g52
ag1150
aa(lp4544
g53
ag77
aa(lp4545
g54
ag142
aa(lp4546
g55
ag102
aa(lp4547
g56
ag99
aa(lp4548
g57
ag143
aa(lp4549
g58
ag81
aa(lp4550
g59
ag135
aatp4551
Rp4552
ag2452
((lp4553
(lp4554
g49
ag1301
aa(lp4555
g50
ag1295
aa(lp4556
g51
ag115
aa(lp4557
g52
ag1150
aa(lp4558
g53
ag77
aa(lp4559
g54
ag142
aa(lp4560
g55
ag102
aa(lp4561
g56
ag99
aa(lp4562
g57
ag143
aa(lp4563
g58
ag81
aa(lp4564
g59
ag135
aatp4565
Rp4566
ag2452
((lp4567
(lp4568
g49
ag1588
aa(lp4569
g50
ag1582
aa(lp4570
g51
ag94
aa(lp4571
g52
ag1150
aa(lp4572
g53
ag77
aa(lp4573
g54
ag142
aa(lp4574
g55
ag102
aa(lp4575
g56
ag99
aa(lp4576
g57
ag143
aa(lp4577
g58
ag81
aa(lp4578
g59
ag135
aatp4579
Rp4580
ag2452
((lp4581
(lp4582
g49
ag2356
aa(lp4583
g50
ag2350
aa(lp4584
g51
ag73
aa(lp4585
g52
ag741
aa(lp4586
g53
ag77
aa(lp4587
g54
ag108
aa(lp4588
g55
ag102
aa(lp4589
g56
ag99
aa(lp4590
g57
ag87
aa(lp4591
g58
ag81
aa(lp4592
g59
ag135
aatp4593
Rp4594
ag2452
((lp4595
(lp4596
g49
ag2161
aa(lp4597
g50
ag2155
aa(lp4598
g51
ag165
aa(lp4599
g52
ag741
aa(lp4600
g53
ag77
aa(lp4601
g54
ag108
aa(lp4602
g55
ag102
aa(lp4603
g56
ag99
aa(lp4604
g57
ag87
aa(lp4605
g58
ag81
aa(lp4606
g59
ag135
aatp4607
Rp4608
ag2452
((lp4609
(lp4610
g49
ag1745
aa(lp4611
g50
ag1739
aa(lp4612
g51
ag115
aa(lp4613
g52
ag741
aa(lp4614
g53
ag77
aa(lp4615
g54
ag108
aa(lp4616
g55
ag102
aa(lp4617
g56
ag99
aa(lp4618
g57
ag87
aa(lp4619
g58
ag81
aa(lp4620
g59
ag135
aatp4621
Rp4622
ag2452
((lp4623
(lp4624
g49
ag748
aa(lp4625
g50
ag742
aa(lp4626
g51
ag94
aa(lp4627
g52
ag741
aa(lp4628
g53
ag77
aa(lp4629
g54
ag108
aa(lp4630
g55
ag102
aa(lp4631
g56
ag99
aa(lp4632
g57
ag87
aa(lp4633
g58
ag81
aa(lp4634
g59
ag135
aatp4635
Rp4636
ag2452
((lp4637
(lp4638
g49
ag1471
aa(lp4639
g50
ag1465
aa(lp4640
g51
ag73
aa(lp4641
g52
ag470
aa(lp4642
g53
ag77
aa(lp4643
g54
ag188
aa(lp4644
g55
ag77
aa(lp4645
g56
ag78
aa(lp4646
g57
ag189
aa(lp4647
g58
ag81
aa(lp4648
g59
ag76
aatp4649
Rp4650
ag2452
((lp4651
(lp4652
g49
ag1601
aa(lp4653
g50
ag1595
aa(lp4654
g51
ag165
aa(lp4655
g52
ag470
aa(lp4656
g53
ag77
aa(lp4657
g54
ag188
aa(lp4658
g55
ag77
aa(lp4659
g56
ag78
aa(lp4660
g57
ag189
aa(lp4661
g58
ag81
aa(lp4662
g59
ag76
aatp4663
Rp4664
ag2452
((lp4665
(lp4666
g49
ag1445
aa(lp4667
g50
ag1439
aa(lp4668
g51
ag115
aa(lp4669
g52
ag470
aa(lp4670
g53
ag77
aa(lp4671
g54
ag188
aa(lp4672
g55
ag77
aa(lp4673
g56
ag78
aa(lp4674
g57
ag189
aa(lp4675
g58
ag81
aa(lp4676
g59
ag76
aatp4677
Rp4678
ag2452
((lp4679
(lp4680
g49
ag477
aa(lp4681
g50
ag471
aa(lp4682
g51
ag94
aa(lp4683
g52
ag470
aa(lp4684
g53
ag77
aa(lp4685
g54
ag188
aa(lp4686
g55
ag77
aa(lp4687
g56
ag78
aa(lp4688
g57
ag189
aa(lp4689
g58
ag81
aa(lp4690
g59
ag76
aatp4691
Rp4692
ag2452
((lp4693
(lp4694
g49
ag84
aa(lp4695
g50
ag74
aa(lp4696
g51
ag73
aa(lp4697
g52
ag72
aa(lp4698
g53
ag77
aa(lp4699
g54
ag86
aa(lp4700
g55
ag77
aa(lp4701
g56
ag78
aa(lp4702
g57
ag87
aa(lp4703
g58
ag81
aa(lp4704
g59
ag76
aatp4705
Rp4706
ag2452
((lp4707
(lp4708
g49
ag775
aa(lp4709
g50
ag769
aa(lp4710
g51
ag165
aa(lp4711
g52
ag72
aa(lp4712
g53
ag77
aa(lp4713
g54
ag86
aa(lp4714
g55
ag77
aa(lp4715
g56
ag78
aa(lp4716
g57
ag87
aa(lp4717
g58
ag81
aa(lp4718
g59
ag76
aatp4719
Rp4720
ag2452
((lp4721
(lp4722
g49
ag532
aa(lp4723
g50
ag526
aa(lp4724
g51
ag115
aa(lp4725
g52
ag72
aa(lp4726
g53
ag77
aa(lp4727
g54
ag86
aa(lp4728
g55
ag77
aa(lp4729
g56
ag78
aa(lp4730
g57
ag87
aa(lp4731
g58
ag81
aa(lp4732
g59
ag76
aatp4733
Rp4734
ag2452
((lp4735
(lp4736
g49
ag1248
aa(lp4737
g50
ag1242
aa(lp4738
g51
ag94
aa(lp4739
g52
ag72
aa(lp4740
g53
ag77
aa(lp4741
g54
ag86
aa(lp4742
g55
ag77
aa(lp4743
g56
ag78
aa(lp4744
g57
ag87
aa(lp4745
g58
ag81
aa(lp4746
g59
ag76
aatp4747
Rp4748
ag2452
((lp4749
(lp4750
g49
ag1784
aa(lp4751
g50
ag1778
aa(lp4752
g51
ag73
aa(lp4753
g52
ag164
aa(lp4754
g53
ag77
aa(lp4755
g54
ag142
aa(lp4756
g55
ag77
aa(lp4757
g56
ag99
aa(lp4758
g57
ag143
aa(lp4759
g58
ag81
aa(lp4760
g59
ag76
aatp4761
Rp4762
ag2452
((lp4763
(lp4764
g49
ag172
aa(lp4765
g50
ag166
aa(lp4766
g51
ag165
aa(lp4767
g52
ag164
aa(lp4768
g53
ag77
aa(lp4769
g54
ag142
aa(lp4770
g55
ag77
aa(lp4771
g56
ag99
aa(lp4772
g57
ag143
aa(lp4773
g58
ag81
aa(lp4774
g59
ag76
aatp4775
Rp4776
ag2452
((lp4777
(lp4778
g49
ag1091
aa(lp4779
g50
ag1085
aa(lp4780
g51
ag115
aa(lp4781
g52
ag164
aa(lp4782
g53
ag77
aa(lp4783
g54
ag142
aa(lp4784
g55
ag77
aa(lp4785
g56
ag99
aa(lp4786
g57
ag143
aa(lp4787
g58
ag81
aa(lp4788
g59
ag76
aatp4789
Rp4790
ag2452
((lp4791
(lp4792
g49
ag2278
aa(lp4793
g50
ag2272
aa(lp4794
g51
ag94
aa(lp4795
g52
ag164
aa(lp4796
g53
ag77
aa(lp4797
g54
ag142
aa(lp4798
g55
ag77
aa(lp4799
g56
ag99
aa(lp4800
g57
ag143
aa(lp4801
g58
ag81
aa(lp4802
g59
ag76
aatp4803
Rp4804
ag2452
((lp4805
(lp4806
g49
ag2200
aa(lp4807
g50
ag2194
aa(lp4808
g51
ag73
aa(lp4809
g52
ag1608
aa(lp4810
g53
ag77
aa(lp4811
g54
ag108
aa(lp4812
g55
ag77
aa(lp4813
g56
ag99
aa(lp4814
g57
ag87
aa(lp4815
g58
ag81
aa(lp4816
g59
ag76
aatp4817
Rp4818
ag2452
((lp4819
(lp4820
g49
ag1706
aa(lp4821
g50
ag1700
aa(lp4822
g51
ag165
aa(lp4823
g52
ag1608
aa(lp4824
g53
ag77
aa(lp4825
g54
ag108
aa(lp4826
g55
ag77
aa(lp4827
g56
ag99
aa(lp4828
g57
ag87
aa(lp4829
g58
ag81
aa(lp4830
g59
ag76
aatp4831
Rp4832
ag2452
((lp4833
(lp4834
g49
ag1914
aa(lp4835
g50
ag1908
aa(lp4836
g51
ag115
aa(lp4837
g52
ag1608
aa(lp4838
g53
ag77
aa(lp4839
g54
ag108
aa(lp4840
g55
ag77
aa(lp4841
g56
ag99
aa(lp4842
g57
ag87
aa(lp4843
g58
ag81
aa(lp4844
g59
ag76
aatp4845
Rp4846
ag2452
((lp4847
(lp4848
g49
ag1615
aa(lp4849
g50
ag1609
aa(lp4850
g51
ag94
aa(lp4851
g52
ag1608
aa(lp4852
g53
ag77
aa(lp4853
g54
ag108
aa(lp4854
g55
ag77
aa(lp4855
g56
ag99
aa(lp4856
g57
ag87
aa(lp4857
g58
ag81
aa(lp4858
g59
ag76
aatp4859
Rp4860
asS'seed'
p4861
NsS'thisIndex'
p4862
g2362
sS'thisN'
p4863
I172
sS'thisTrialN'
p4864
I0
sS'nTotal'
p4865
I172
sbasS'savePickle'
p4866
I00
sb.