ccopy_reg
_reconstructor
p0
(cpsychopy.data.experiment
ExperimentHandler
p1
c__builtin__
object
p2
Ntp3
Rp4
(dp5
S'originPath'
p6
V/Users/stefano/GitHub/phd-project/italian-egg/experiment/italian-egg.psyexp
p7
sS'dataFileName'
p8
V/Users/stefano/GitHub/phd-project/italian-egg/experiment/results/it12_italian-egg_2018_Aug_29_1100
p9
sS'runtimeInfo'
p10
NsS'name'
p11
S'italian-egg'
p12
sS'dataNames'
p13
(lp14
S'key_resp_2.keys'
p15
aS'key_resp_2.rt'
p16
asS'autoLog'
p17
I01
sS'extraInfo'
p18
(dp19
S'date'
p20
V2018_Aug_29_1100
p21
sS'frameRate'
p22
cnumpy.core.multiarray
scalar
p23
(cnumpy
dtype
p24
(S'f8'
p25
I0
I1
tp26
Rp27
(I3
S'<'
p28
NNNI-1
I-1
I0
tp29
bS'd\x8b\xe1\xcb4)N@'
p30
tp31
Rp32
sS'expName'
p33
g12
sVparticipant
p34
g0
(cfuture.types.newstr
newstr
p35
c__builtin__
unicode
p36
Vit12
p37
tp38
Rp39
ssS'loopsUnfinished'
p40
(lp41
sS'saveWideText'
p42
I00
sS'thisEntry'
p43
(dp44
sS'version'
p45
S''
p46
sS'_paramNamesSoFar'
p47
(lp48
Vstimulus_id
p49
aVstimulus
p50
aVsentence
p51
aVword
p52
aVconsonant_1
p53
aVvowel
p54
aVconsonant_2
p55
aVbackness
p56
aVheight
p57
aVplace_1
p58
aVplace_2
p59
asS'entries'
p60
(lp61
(dp62
S'trials.thisIndex'
p63
g23
(g24
(S'i8'
p64
I0
I1
tp65
Rp66
(I3
S'<'
p67
NNNI-1
I-1
I0
tp68
bS'\x14\x00\x00\x00\x00\x00\x00\x00'
p69
tp70
Rp71
sg16
F2.8366189002990723
sg22
g32
sg52
Vpato
p72
sg51
VScrivete X sul foglio
p73
sg50
VScrivete "pato" sul foglio
p74
sS'trials.thisRepN'
p75
I0
sg59
Vcoronal
p76
sg55
Vt
p77
sg56
Vcentral
p78
sg15
S'space'
p79
sS'trials.thisN'
p80
I0
sg53
Vp
p81
sg58
Vlabial
p82
sg49
g23
(g66
S'\x15\x00\x00\x00\x00\x00\x00\x00'
p83
tp84
Rp85
sS'trials.thisTrialN'
p86
I0
sg54
Va
p87
sg20
g21
sg34
g39
sg57
Vlow
p88
sg33
g12
sa(dp89
S'trials.thisIndex'
p90
g23
(g66
S'\xa2\x00\x00\x00\x00\x00\x00\x00'
p91
tp92
Rp93
sg16
F1.6359670162200928
sg22
g32
sg52
Vchico
p94
sg51
VSentivo X di nuovo
p95
sg50
VSentivo "chico" di nuovo
p96
sS'trials.thisRepN'
p97
I0
sg59
Vvelar
p98
sg55
Vk
p99
sg56
Vfront
p100
sg15
S'space'
p101
sS'trials.thisN'
p102
I1
sg53
g99
sg58
Vvelar
p103
sg49
g23
(g66
S'\xa3\x00\x00\x00\x00\x00\x00\x00'
p104
tp105
Rp106
sS'trials.thisTrialN'
p107
I1
sg54
Vi
p108
sg20
g21
sg34
g39
sg57
Vhigh
p109
sg33
g12
sa(dp110
S'trials.thisIndex'
p111
g23
(g66
S'P\x00\x00\x00\x00\x00\x00\x00'
p112
tp113
Rp114
sg16
F4.687896013259888
sg22
g32
sg52
Vteto
p115
sg51
g73
sg50
VScrivete "teto" sul foglio
p116
sS'trials.thisRepN'
p117
I0
sg59
g76
sg55
g77
sg56
g100
sg15
S'space'
p118
sS'trials.thisN'
p119
I2
sg53
g77
sg58
Vcoronal
p120
sg49
g23
(g66
S'Q\x00\x00\x00\x00\x00\x00\x00'
p121
tp122
Rp123
sS'trials.thisTrialN'
p124
I2
sg54
Ve
p125
sg20
g21
sg34
g39
sg57
Vmid-high
p126
sg33
g12
sa(dp127
S'trials.thisIndex'
p128
g23
(g66
S'\x03\x00\x00\x00\x00\x00\x00\x00'
p129
tp130
Rp131
sg16
F4.553854942321777
sg22
g32
sg52
Vpapo
p132
sg51
VRipete X da sempre
p133
sg50
VRipete "papo" da sempre
p134
sS'trials.thisRepN'
p135
I0
sg59
Vlabial
p136
sg55
g81
sg56
g78
sg15
S'space'
p137
sS'trials.thisN'
p138
I3
sg53
g81
sg58
g82
sg49
g23
(g66
S'\x04\x00\x00\x00\x00\x00\x00\x00'
p139
tp140
Rp141
sS'trials.thisTrialN'
p142
I3
sg54
g87
sg20
g21
sg34
g39
sg57
g88
sg33
g12
sa(dp143
S'trials.thisIndex'
p144
g23
(g66
S'}\x00\x00\x00\x00\x00\x00\x00'
p145
tp146
Rp147
sg16
F2.0032870769500732
sg22
g32
sg52
Vchipo
p148
sg51
VHa detto X sei volte
p149
sg50
VHa detto "chipo" sei volte
p150
sS'trials.thisRepN'
p151
I0
sg59
g136
sg55
g81
sg56
g100
sg15
S'space'
p152
sS'trials.thisN'
p153
I4
sg53
g99
sg58
g103
sg49
g23
(g66
S'~\x00\x00\x00\x00\x00\x00\x00'
p154
tp155
Rp156
sS'trials.thisTrialN'
p157
I4
sg54
g108
sg20
g21
sg34
g39
sg57
g109
sg33
g12
sa(dp158
S'trials.thisIndex'
p159
g23
(g66
S'|\x00\x00\x00\x00\x00\x00\x00'
p160
tp161
Rp162
sg16
F1.635617971420288
sg22
g32
sg52
g148
sg51
g73
sg50
VScrivete "chipo" sul foglio
p163
sS'trials.thisRepN'
p164
I0
sg59
g136
sg55
g81
sg56
g100
sg15
S'space'
p165
sS'trials.thisN'
p166
I5
sg53
g99
sg58
g103
sg49
g23
(g66
S'}\x00\x00\x00\x00\x00\x00\x00'
p167
tp168
Rp169
sS'trials.thisTrialN'
p170
I5
sg54
g108
sg20
g21
sg34
g39
sg57
g109
sg33
g12
sa(dp171
S'trials.thisIndex'
p172
g23
(g66
S'\xab\x00\x00\x00\x00\x00\x00\x00'
p173
tp174
Rp175
sg16
F1.6699090003967285
sg22
g32
sg52
Vcuco
p176
sg51
g133
sg50
VRipete "cuco" da sempre
p177
sS'trials.thisRepN'
p178
I0
sg59
g98
sg55
g99
sg56
Vback
p179
sg15
S'space'
p180
sS'trials.thisN'
p181
I6
sg53
g99
sg58
g103
sg49
g23
(g66
S'\xac\x00\x00\x00\x00\x00\x00\x00'
p182
tp183
Rp184
sS'trials.thisTrialN'
p185
I6
sg54
Vu
p186
sg20
g21
sg34
g39
sg57
g109
sg33
g12
sa(dp187
S'trials.thisIndex'
p188
g23
(g66
S'\xa9\x00\x00\x00\x00\x00\x00\x00'
p189
tp190
Rp191
sg16
F1.570085048675537
sg22
g32
sg52
g176
sg51
g149
sg50
VHa detto "cuco" sei volte
p192
sS'trials.thisRepN'
p193
I0
sg59
g98
sg55
g99
sg56
g179
sg15
S'space'
p194
sS'trials.thisN'
p195
I7
sg53
g99
sg58
g103
sg49
g23
(g66
S'\xaa\x00\x00\x00\x00\x00\x00\x00'
p196
tp197
Rp198
sS'trials.thisTrialN'
p199
I7
sg54
g186
sg20
g21
sg34
g39
sg57
g109
sg33
g12
sa(dp200
S'trials.thisIndex'
p201
g23
(g66
S'\x9c\x00\x00\x00\x00\x00\x00\x00'
p202
tp203
Rp204
sg16
F1.4853951930999756
sg22
g32
sg52
Vcheco
p205
sg51
g73
sg50
VScrivete "checo" sul foglio
p206
sS'trials.thisRepN'
p207
I0
sg59
g98
sg55
g99
sg56
g100
sg15
S'space'
p208
sS'trials.thisN'
p209
I8
sg53
g99
sg58
g103
sg49
g23
(g66
S'\x9d\x00\x00\x00\x00\x00\x00\x00'
p210
tp211
Rp212
sS'trials.thisTrialN'
p213
I8
sg54
g125
sg20
g21
sg34
g39
sg57
g126
sg33
g12
sa(dp214
S'trials.thisIndex'
p215
g23
(g66
S'M\x00\x00\x00\x00\x00\x00\x00'
p216
tp217
Rp218
sg16
F1.402137041091919
sg22
g32
sg52
Vtato
p219
sg51
g149
sg50
VHa detto "tato" sei volte
p220
sS'trials.thisRepN'
p221
I0
sg59
g76
sg55
g77
sg56
g78
sg15
S'space'
p222
sS'trials.thisN'
p223
I9
sg53
g77
sg58
g120
sg49
g23
(g66
S'N\x00\x00\x00\x00\x00\x00\x00'
p224
tp225
Rp226
sS'trials.thisTrialN'
p227
I9
sg54
g87
sg20
g21
sg34
g39
sg57
g88
sg33
g12
sa(dp228
S'trials.thisIndex'
p229
g23
(g66
S'D\x00\x00\x00\x00\x00\x00\x00'
p230
tp231
Rp232
sg16
F1.4356930255889893
sg22
g32
sg52
Vtopo
p233
sg51
g73
sg50
VScrivete "topo" sul foglio
p234
sS'trials.thisRepN'
p235
I0
sg59
g136
sg55
g81
sg56
g179
sg15
S'space'
p236
sS'trials.thisN'
p237
I10
sg53
g77
sg58
g120
sg49
g23
(g66
S'E\x00\x00\x00\x00\x00\x00\x00'
p238
tp239
Rp240
sS'trials.thisTrialN'
p241
I10
sg54
Vo
p242
sg20
g21
sg34
g39
sg57
Vmid-low
p243
sg33
g12
sa(dp244
S'trials.thisIndex'
p245
g23
(g66
S'\x99\x00\x00\x00\x00\x00\x00\x00'
p246
tp247
Rp248
sg16
F1.4357941150665283
sg22
g32
sg52
Vcuto
p249
sg51
g149
sg50
VHa detto "cuto" sei volte
p250
sS'trials.thisRepN'
p251
I0
sg59
g76
sg55
g77
sg56
g179
sg15
S'space'
p252
sS'trials.thisN'
p253
I11
sg53
g99
sg58
g103
sg49
g23
(g66
S'\x9a\x00\x00\x00\x00\x00\x00\x00'
p254
tp255
Rp256
sS'trials.thisTrialN'
p257
I11
sg54
g186
sg20
g21
sg34
g39
sg57
g109
sg33
g12
sa(dp258
S'trials.thisIndex'
p259
g23
(g66
S'$\x00\x00\x00\x00\x00\x00\x00'
p260
tp261
Rp262
sg16
F1.5848281383514404
sg22
g32
sg52
Vpaco
p263
sg51
g73
sg50
VScrivete "paco" sul foglio
p264
sS'trials.thisRepN'
p265
I0
sg59
g98
sg55
g99
sg56
g78
sg15
S'space'
p266
sS'trials.thisN'
p267
I12
sg53
g81
sg58
g82
sg49
g23
(g66
S'%\x00\x00\x00\x00\x00\x00\x00'
p268
tp269
Rp270
sS'trials.thisTrialN'
p271
I12
sg54
g87
sg20
g21
sg34
g39
sg57
g88
sg33
g12
sa(dp272
S'trials.thisIndex'
p273
g23
(g66
S'\x12\x00\x00\x00\x00\x00\x00\x00'
p274
tp275
Rp276
sg16
F1.3668088912963867
sg22
g32
sg52
Vpupo
p277
sg51
g95
sg50
VSentivo "pupo" di nuovo
p278
sS'trials.thisRepN'
p279
I0
sg59
g136
sg55
g81
sg56
g179
sg15
S'space'
p280
sS'trials.thisN'
p281
I13
sg53
g81
sg58
g82
sg49
g23
(g66
S'\x13\x00\x00\x00\x00\x00\x00\x00'
p282
tp283
Rp284
sS'trials.thisTrialN'
p285
I13
sg54
g186
sg20
g21
sg34
g39
sg57
g109
sg33
g12
sa(dp286
S'trials.thisIndex'
p287
g23
(g66
S'=\x00\x00\x00\x00\x00\x00\x00'
p288
tp289
Rp290
sg16
F1.5359039306640625
sg22
g32
sg52
Vtepo
p291
sg51
g149
sg50
VHa detto "tepo" sei volte
p292
sS'trials.thisRepN'
p293
I0
sg59
g136
sg55
g81
sg56
g100
sg15
S'space'
p294
sS'trials.thisN'
p295
I14
sg53
g77
sg58
g120
sg49
g23
(g66
S'>\x00\x00\x00\x00\x00\x00\x00'
p296
tp297
Rp298
sS'trials.thisTrialN'
p299
I14
sg54
g125
sg20
g21
sg34
g39
sg57
g126
sg33
g12
sa(dp300
S'trials.thisIndex'
p301
g23
(g66
S'-\x00\x00\x00\x00\x00\x00\x00'
p302
tp303
Rp304
sg16
F1.552548885345459
sg22
g32
sg52
Vpico
p305
sg51
g149
sg50
VHa detto "pico" sei volte
p306
sS'trials.thisRepN'
p307
I0
sg59
g98
sg55
g99
sg56
g100
sg15
S'space'
p308
sS'trials.thisN'
p309
I15
sg53
g81
sg58
g82
sg49
g23
(g66
S'.\x00\x00\x00\x00\x00\x00\x00'
p310
tp311
Rp312
sS'trials.thisTrialN'
p313
I15
sg54
g108
sg20
g21
sg34
g39
sg57
g109
sg33
g12
sa(dp314
S'trials.thisIndex'
p315
g23
(g66
S'\x1b\x00\x00\x00\x00\x00\x00\x00'
p316
tp317
Rp318
sg16
F4.337602138519287
sg22
g32
sg52
Vpito
p319
sg51
g133
sg50
VRipete "pito" da sempre
p320
sS'trials.thisRepN'
p321
I0
sg59
g76
sg55
g77
sg56
g100
sg15
S'space'
p322
sS'trials.thisN'
p323
I16
sg53
g81
sg58
g82
sg49
g23
(g66
S'\x1c\x00\x00\x00\x00\x00\x00\x00'
p324
tp325
Rp326
sS'trials.thisTrialN'
p327
I16
sg54
g108
sg20
g21
sg34
g39
sg57
g109
sg33
g12
sa(dp328
S'trials.thisIndex'
p329
g23
(g66
S'\n\x00\x00\x00\x00\x00\x00\x00'
p330
tp331
Rp332
sg16
F1.4706521034240723
sg22
g32
sg52
Vpipo
p333
sg51
g95
sg50
VSentivo "pipo" di nuovo
p334
sS'trials.thisRepN'
p335
I0
sg59
g136
sg55
g81
sg56
g100
sg15
S'space'
p336
sS'trials.thisN'
p337
I17
sg53
g81
sg58
g82
sg49
g23
(g66
S'\x0b\x00\x00\x00\x00\x00\x00\x00'
p338
tp339
Rp340
sS'trials.thisTrialN'
p341
I17
sg54
g108
sg20
g21
sg34
g39
sg57
g109
sg33
g12
sa(dp342
S'trials.thisIndex'
p343
g23
(g66
S'\x16\x00\x00\x00\x00\x00\x00\x00'
p344
tp345
Rp346
sg16
F2.120249032974243
sg22
g32
sg52
g72
sg51
g95
sg50
VSentivo "pato" di nuovo
p347
sS'trials.thisRepN'
p348
I0
sg59
g76
sg55
g77
sg56
g78
sg15
S'space'
p349
sS'trials.thisN'
p350
I18
sg53
g81
sg58
g82
sg49
g23
(g66
S'\x17\x00\x00\x00\x00\x00\x00\x00'
p351
tp352
Rp353
sS'trials.thisTrialN'
p354
I18
sg54
g87
sg20
g21
sg34
g39
sg57
g88
sg33
g12
sa(dp355
S'trials.thisIndex'
p356
g23
(g66
S'\x7f\x00\x00\x00\x00\x00\x00\x00'
p357
tp358
Rp359
sg16
F3.687486171722412
sg22
g32
sg52
g148
sg51
g133
sg50
VRipete "chipo" da sempre
p360
sS'trials.thisRepN'
p361
I0
sg59
g136
sg55
g81
sg56
g100
sg15
S'space'
p362
sS'trials.thisN'
p363
I19
sg53
g99
sg58
g103
sg49
g23
(g66
S'\x80\x00\x00\x00\x00\x00\x00\x00'
p364
tp365
Rp366
sS'trials.thisTrialN'
p367
I19
sg54
g108
sg20
g21
sg34
g39
sg57
g109
sg33
g12
sa(dp368
S'trials.thisIndex'
p369
g23
(g66
S'e\x00\x00\x00\x00\x00\x00\x00'
p370
tp371
Rp372
sg16
F1.569870948791504
sg22
g32
sg52
Vteco
p373
sg51
g149
sg50
VHa detto "teco" sei volte
p374
sS'trials.thisRepN'
p375
I0
sg59
g98
sg55
g99
sg56
g100
sg15
S'space'
p376
sS'trials.thisN'
p377
I20
sg53
g77
sg58
g120
sg49
g23
(g66
S'f\x00\x00\x00\x00\x00\x00\x00'
p378
tp379
Rp380
sS'trials.thisTrialN'
p381
I20
sg54
g125
sg20
g21
sg34
g39
sg57
g126
sg33
g12
sa(dp382
S'trials.thisIndex'
p383
g23
(g66
S'\x8b\x00\x00\x00\x00\x00\x00\x00'
p384
tp385
Rp386
sg16
F1.2018821239471436
sg22
g32
sg52
Vcato
p387
sg51
g133
sg50
VRipete "cato" da sempre
p388
sS'trials.thisRepN'
p389
I0
sg59
g76
sg55
g77
sg56
g78
sg15
S'space'
p390
sS'trials.thisN'
p391
I21
sg53
g99
sg58
g103
sg49
g23
(g66
S'\x8c\x00\x00\x00\x00\x00\x00\x00'
p392
tp393
Rp394
sS'trials.thisTrialN'
p395
I21
sg54
g87
sg20
g21
sg34
g39
sg57
g88
sg33
g12
sa(dp396
S'trials.thisIndex'
p397
g23
(g66
S'\x9f\x00\x00\x00\x00\x00\x00\x00'
p398
tp399
Rp400
sg16
F1.4014840126037598
sg22
g32
sg52
g205
sg51
g133
sg50
VRipete "checo" da sempre
p401
sS'trials.thisRepN'
p402
I0
sg59
g98
sg55
g99
sg56
g100
sg15
S'space'
p403
sS'trials.thisN'
p404
I22
sg53
g99
sg58
g103
sg49
g23
(g66
S'\xa0\x00\x00\x00\x00\x00\x00\x00'
p405
tp406
Rp407
sS'trials.thisTrialN'
p408
I22
sg54
g125
sg20
g21
sg34
g39
sg57
g126
sg33
g12
sa(dp409
S'trials.thisIndex'
p410
g23
(g66
S'\x80\x00\x00\x00\x00\x00\x00\x00'
p411
tp412
Rp413
sg16
F1.4369769096374512
sg22
g32
sg52
Vcopo
p414
sg51
g73
sg50
VScrivete "copo" sul foglio
p415
sS'trials.thisRepN'
p416
I0
sg59
g136
sg55
g81
sg56
g179
sg15
S'space'
p417
sS'trials.thisN'
p418
I23
sg53
g99
sg58
g103
sg49
g23
(g66
S'\x81\x00\x00\x00\x00\x00\x00\x00'
p419
tp420
Rp421
sS'trials.thisTrialN'
p422
I23
sg54
g242
sg20
g21
sg34
g39
sg57
g243
sg33
g12
sa(dp423
S'trials.thisIndex'
p424
g23
(g66
S'O\x00\x00\x00\x00\x00\x00\x00'
p425
tp426
Rp427
sg16
F1.3863461017608643
sg22
g32
sg52
g219
sg51
g133
sg50
VRipete "tato" da sempre
p428
sS'trials.thisRepN'
p429
I0
sg59
g76
sg55
g77
sg56
g78
sg15
S'space'
p430
sS'trials.thisN'
p431
I24
sg53
g77
sg58
g120
sg49
g23
(g66
S'P\x00\x00\x00\x00\x00\x00\x00'
p432
tp433
Rp434
sS'trials.thisTrialN'
p435
I24
sg54
g87
sg20
g21
sg34
g39
sg57
g88
sg33
g12
sa(dp436
S'trials.thisIndex'
p437
g23
(g66
S'j\x00\x00\x00\x00\x00\x00\x00'
p438
tp439
Rp440
sg16
F1.2683601379394531
sg22
g32
sg52
Vtico
p441
sg51
g95
sg50
VSentivo "tico" di nuovo
p442
sS'trials.thisRepN'
p443
I0
sg59
g98
sg55
g99
sg56
g100
sg15
S'space'
p444
sS'trials.thisN'
p445
I25
sg53
g77
sg58
g120
sg49
g23
(g66
S'k\x00\x00\x00\x00\x00\x00\x00'
p446
tp447
Rp448
sS'trials.thisTrialN'
p449
I25
sg54
g108
sg20
g21
sg34
g39
sg57
g109
sg33
g12
sa(dp450
S'trials.thisIndex'
p451
g23
(g66
S'd\x00\x00\x00\x00\x00\x00\x00'
p452
tp453
Rp454
sg16
F1.403968095779419
sg22
g32
sg52
g373
sg51
g73
sg50
VScrivete "teco" sul foglio
p455
sS'trials.thisRepN'
p456
I0
sg59
g98
sg55
g99
sg56
g100
sg15
S'space'
p457
sS'trials.thisN'
p458
I26
sg53
g77
sg58
g120
sg49
g23
(g66
S'e\x00\x00\x00\x00\x00\x00\x00'
p459
tp460
Rp461
sS'trials.thisTrialN'
p462
I26
sg54
g125
sg20
g21
sg34
g39
sg57
g126
sg33
g12
sa(dp463
S'trials.thisIndex'
p464
g23
(g66
S']\x00\x00\x00\x00\x00\x00\x00'
p465
tp466
Rp467
sg16
F1.6363141536712646
sg22
g32
sg52
Vtuto
p468
sg51
g149
sg50
VHa detto "tuto" sei volte
p469
sS'trials.thisRepN'
p470
I0
sg59
g76
sg55
g77
sg56
g179
sg15
S'space'
p471
sS'trials.thisN'
p472
I27
sg53
g77
sg58
g120
sg49
g23
(g66
S'^\x00\x00\x00\x00\x00\x00\x00'
p473
tp474
Rp475
sS'trials.thisTrialN'
p476
I27
sg54
g186
sg20
g21
sg34
g39
sg57
g109
sg33
g12
sa(dp477
S'trials.thisIndex'
p478
g23
(g66
S'n\x00\x00\x00\x00\x00\x00\x00'
p479
tp480
Rp481
sg16
F4.121449947357178
sg22
g32
sg52
Vtoco
p482
sg51
g95
sg50
VSentivo "toco" di nuovo
p483
sS'trials.thisRepN'
p484
I0
sg59
g98
sg55
g99
sg56
g179
sg15
S'space'
p485
sS'trials.thisN'
p486
I28
sg53
g77
sg58
g120
sg49
g23
(g66
S'o\x00\x00\x00\x00\x00\x00\x00'
p487
tp488
Rp489
sS'trials.thisTrialN'
p490
I28
sg54
g242
sg20
g21
sg34
g39
sg57
g243
sg33
g12
sa(dp491
S'trials.thisIndex'
p492
g23
(g66
S'\x98\x00\x00\x00\x00\x00\x00\x00'
p493
tp494
Rp495
sg16
F1.6359589099884033
sg22
g32
sg52
g249
sg51
g73
sg50
VScrivete "cuto" sul foglio
p496
sS'trials.thisRepN'
p497
I0
sg59
g76
sg55
g77
sg56
g179
sg15
S'space'
p498
sS'trials.thisN'
p499
I29
sg53
g99
sg58
g103
sg49
g23
(g66
S'\x99\x00\x00\x00\x00\x00\x00\x00'
p500
tp501
Rp502
sS'trials.thisTrialN'
p503
I29
sg54
g186
sg20
g21
sg34
g39
sg57
g109
sg33
g12
sa(dp504
S'trials.thisIndex'
p505
g23
(g66
S'h\x00\x00\x00\x00\x00\x00\x00'
p506
tp507
Rp508
sg16
F1.6880288124084473
sg22
g32
sg52
g441
sg51
g73
sg50
VScrivete "tico" sul foglio
p509
sS'trials.thisRepN'
p510
I0
sg59
g98
sg55
g99
sg56
g100
sg15
S'space'
p511
sS'trials.thisN'
p512
I30
sg53
g77
sg58
g120
sg49
g23
(g66
S'i\x00\x00\x00\x00\x00\x00\x00'
p513
tp514
Rp515
sS'trials.thisTrialN'
p516
I30
sg54
g108
sg20
g21
sg34
g39
sg57
g109
sg33
g12
sa(dp517
S'trials.thisIndex'
p518
g23
(g66
S'\xa5\x00\x00\x00\x00\x00\x00\x00'
p519
tp520
Rp521
sg16
F1.5195820331573486
sg22
g32
sg52
Vcoco
p522
sg51
g149
sg50
VHa detto "coco" sei volte
p523
sS'trials.thisRepN'
p524
I0
sg59
g98
sg55
g99
sg56
g179
sg15
S'space'
p525
sS'trials.thisN'
p526
I31
sg53
g99
sg58
g103
sg49
g23
(g66
S'\xa6\x00\x00\x00\x00\x00\x00\x00'
p527
tp528
Rp529
sS'trials.thisTrialN'
p530
I31
sg54
g242
sg20
g21
sg34
g39
sg57
g243
sg33
g12
sa(dp531
S'trials.thisIndex'
p532
g23
(g66
S'I\x00\x00\x00\x00\x00\x00\x00'
p533
tp534
Rp535
sg16
F1.61934494972229
sg22
g32
sg52
Vtupo
p536
sg51
g149
sg50
VHa detto "tupo" sei volte
p537
sS'trials.thisRepN'
p538
I0
sg59
g136
sg55
g81
sg56
g179
sg15
S'space'
p539
sS'trials.thisN'
p540
I32
sg53
g77
sg58
g120
sg49
g23
(g66
S'J\x00\x00\x00\x00\x00\x00\x00'
p541
tp542
Rp543
sS'trials.thisTrialN'
p544
I32
sg54
g186
sg20
g21
sg34
g39
sg57
g109
sg33
g12
sa(dp545
S'trials.thisIndex'
p546
g23
(g66
S'\x8d\x00\x00\x00\x00\x00\x00\x00'
p547
tp548
Rp549
sg16
F1.4365489482879639
sg22
g32
sg52
Vcheto
p550
sg51
g149
sg50
VHa detto "cheto" sei volte
p551
sS'trials.thisRepN'
p552
I0
sg59
g76
sg55
g77
sg56
g100
sg15
S'space'
p553
sS'trials.thisN'
p554
I33
sg53
g99
sg58
g103
sg49
g23
(g66
S'\x8e\x00\x00\x00\x00\x00\x00\x00'
p555
tp556
Rp557
sS'trials.thisTrialN'
p558
I33
sg54
g125
sg20
g21
sg34
g39
sg57
g126
sg33
g12
sa(dp559
S'trials.thisIndex'
p560
g23
(g66
S'{\x00\x00\x00\x00\x00\x00\x00'
p561
tp562
Rp563
sg16
F4.203922986984253
sg22
g32
sg52
Vchepo
p564
sg51
g133
sg50
VRipete "chepo" da sempre
p565
sS'trials.thisRepN'
p566
I0
sg59
g136
sg55
g81
sg56
g100
sg15
S'space'
p567
sS'trials.thisN'
p568
I34
sg53
g99
sg58
g103
sg49
g23
(g66
S'|\x00\x00\x00\x00\x00\x00\x00'
p569
tp570
Rp571
sS'trials.thisTrialN'
p572
I34
sg54
g125
sg20
g21
sg34
g39
sg57
g126
sg33
g12
sa(dp573
S'trials.thisIndex'
p574
g23
(g66
S'\x85\x00\x00\x00\x00\x00\x00\x00'
p575
tp576
Rp577
sg16
F1.5027368068695068
sg22
g32
sg52
Vcupo
p578
sg51
g149
sg50
VHa detto "cupo" sei volte
p579
sS'trials.thisRepN'
p580
I0
sg59
g136
sg55
g81
sg56
g179
sg15
S'space'
p581
sS'trials.thisN'
p582
I35
sg53
g99
sg58
g103
sg49
g23
(g66
S'\x86\x00\x00\x00\x00\x00\x00\x00'
p583
tp584
Rp585
sS'trials.thisTrialN'
p586
I35
sg54
g186
sg20
g21
sg34
g39
sg57
g109
sg33
g12
sa(dp587
S'trials.thisIndex'
p588
g23
(g66
S'\x11\x00\x00\x00\x00\x00\x00\x00'
p589
tp590
Rp591
sg16
F1.468818187713623
sg22
g32
sg52
g277
sg51
g149
sg50
VHa detto "pupo" sei volte
p592
sS'trials.thisRepN'
p593
I0
sg59
g136
sg55
g81
sg56
g179
sg15
S'space'
p594
sS'trials.thisN'
p595
I36
sg53
g81
sg58
g82
sg49
g23
(g66
S'\x12\x00\x00\x00\x00\x00\x00\x00'
p596
tp597
Rp598
sS'trials.thisTrialN'
p599
I36
sg54
g186
sg20
g21
sg34
g39
sg57
g109
sg33
g12
sa(dp600
S'trials.thisIndex'
p601
g23
(g66
S'H\x00\x00\x00\x00\x00\x00\x00'
p602
tp603
Rp604
sg16
F1.6361641883850098
sg22
g32
sg52
g536
sg51
g73
sg50
VScrivete "tupo" sul foglio
p605
sS'trials.thisRepN'
p606
I0
sg59
g136
sg55
g81
sg56
g179
sg15
S'space'
p607
sS'trials.thisN'
p608
I37
sg53
g77
sg58
g120
sg49
g23
(g66
S'I\x00\x00\x00\x00\x00\x00\x00'
p609
tp610
Rp611
sS'trials.thisTrialN'
p612
I37
sg54
g186
sg20
g21
sg34
g39
sg57
g109
sg33
g12
sa(dp613
S'trials.thisIndex'
p614
g23
(g66
S'p\x00\x00\x00\x00\x00\x00\x00'
p615
tp616
Rp617
sg16
F1.3171980381011963
sg22
g32
sg52
Vtuco
p618
sg51
g73
sg50
VScrivete "tuco" sul foglio
p619
sS'trials.thisRepN'
p620
I0
sg59
g98
sg55
g99
sg56
g179
sg15
S'space'
p621
sS'trials.thisN'
p622
I38
sg53
g77
sg58
g120
sg49
g23
(g66
S'q\x00\x00\x00\x00\x00\x00\x00'
p623
tp624
Rp625
sS'trials.thisTrialN'
p626
I38
sg54
g186
sg20
g21
sg34
g39
sg57
g109
sg33
g12
sa(dp627
S'trials.thisIndex'
p628
g23
(g66
S'(\x00\x00\x00\x00\x00\x00\x00'
p629
tp630
Rp631
sg16
F1.5037829875946045
sg22
g32
sg52
Vpeco
p632
sg51
g73
sg50
VScrivete "peco" sul foglio
p633
sS'trials.thisRepN'
p634
I0
sg59
g98
sg55
g99
sg56
g100
sg15
S'space'
p635
sS'trials.thisN'
p636
I39
sg53
g81
sg58
g82
sg49
g23
(g66
S')\x00\x00\x00\x00\x00\x00\x00'
p637
tp638
Rp639
sS'trials.thisTrialN'
p640
I39
sg54
g125
sg20
g21
sg34
g39
sg57
g126
sg33
g12
sa(dp641
S'trials.thisIndex'
p642
g23
(g66
S'\x0b\x00\x00\x00\x00\x00\x00\x00'
p643
tp644
Rp645
sg16
F1.2532329559326172
sg22
g32
sg52
g333
sg51
g133
sg50
VRipete "pipo" da sempre
p646
sS'trials.thisRepN'
p647
I0
sg59
g136
sg55
g81
sg56
g100
sg15
S'space'
p648
sS'trials.thisN'
p649
I40
sg53
g81
sg58
g82
sg49
g23
(g66
S'\x0c\x00\x00\x00\x00\x00\x00\x00'
p650
tp651
Rp652
sS'trials.thisTrialN'
p653
I40
sg54
g108
sg20
g21
sg34
g39
sg57
g109
sg33
g12
sa(dp654
S'trials.thisIndex'
p655
g23
(g66
S'\x00\x00\x00\x00\x00\x00\x00\x00'
p656
tp657
Rp658
sg16
F1.4711010456085205
sg22
g32
sg52
g132
sg51
g73
sg50
VScrivete "papo" sul foglio
p659
sS'trials.thisRepN'
p660
I0
sg59
g136
sg55
g81
sg56
g78
sg15
S'space'
p661
sS'trials.thisN'
p662
I41
sg53
g81
sg58
g82
sg49
g23
(g66
S'\x01\x00\x00\x00\x00\x00\x00\x00'
p663
tp664
Rp665
sS'trials.thisTrialN'
p666
I41
sg54
g87
sg20
g21
sg34
g39
sg57
g88
sg33
g12
sa(dp667
S'trials.thisIndex'
p668
g23
(g66
S'S\x00\x00\x00\x00\x00\x00\x00'
p669
tp670
Rp671
sg16
F2.937717914581299
sg22
g32
sg52
g115
sg51
g133
sg50
VRipete "teto" da sempre
p672
sS'trials.thisRepN'
p673
I0
sg59
g76
sg55
g77
sg56
g100
sg15
S'space'
p674
sS'trials.thisN'
p675
I42
sg53
g77
sg58
g120
sg49
g23
(g66
S'T\x00\x00\x00\x00\x00\x00\x00'
p676
tp677
Rp678
sS'trials.thisTrialN'
p679
I42
sg54
g125
sg20
g21
sg34
g39
sg57
g126
sg33
g12
sa(dp680
S'trials.thisIndex'
p681
g23
(g66
S',\x00\x00\x00\x00\x00\x00\x00'
p682
tp683
Rp684
sg16
F1.5025718212127686
sg22
g32
sg52
g305
sg51
g73
sg50
VScrivete "pico" sul foglio
p685
sS'trials.thisRepN'
p686
I0
sg59
g98
sg55
g99
sg56
g100
sg15
S'space'
p687
sS'trials.thisN'
p688
I43
sg53
g81
sg58
g82
sg49
g23
(g66
S'-\x00\x00\x00\x00\x00\x00\x00'
p689
tp690
Rp691
sS'trials.thisTrialN'
p692
I43
sg54
g108
sg20
g21
sg34
g39
sg57
g109
sg33
g12
sa(dp693
S'trials.thisIndex'
p694
g23
(g66
S'U\x00\x00\x00\x00\x00\x00\x00'
p695
tp696
Rp697
sg16
F1.3679230213165283
sg22
g32
sg52
Vtito
p698
sg51
g149
sg50
VHa detto "tito" sei volte
p699
sS'trials.thisRepN'
p700
I0
sg59
g76
sg55
g77
sg56
g100
sg15
S'space'
p701
sS'trials.thisN'
p702
I44
sg53
g77
sg58
g120
sg49
g23
(g66
S'V\x00\x00\x00\x00\x00\x00\x00'
p703
tp704
Rp705
sS'trials.thisTrialN'
p706
I44
sg54
g108
sg20
g21
sg34
g39
sg57
g109
sg33
g12
sa(dp707
S'trials.thisIndex'
p708
g23
(g66
S';\x00\x00\x00\x00\x00\x00\x00'
p709
tp710
Rp711
sg16
F1.4029970169067383
sg22
g32
sg52
Vtapo
p712
sg51
g133
sg50
VRipete "tapo" da sempre
p713
sS'trials.thisRepN'
p714
I0
sg59
g136
sg55
g81
sg56
g78
sg15
S'space'
p715
sS'trials.thisN'
p716
I45
sg53
g77
sg58
g120
sg49
g23
(g66
S'<\x00\x00\x00\x00\x00\x00\x00'
p717
tp718
Rp719
sS'trials.thisTrialN'
p720
I45
sg54
g87
sg20
g21
sg34
g39
sg57
g88
sg33
g12
sa(dp721
S'trials.thisIndex'
p722
g23
(g66
S'@\x00\x00\x00\x00\x00\x00\x00'
p723
tp724
Rp725
sg16
F1.4187819957733154
sg22
g32
sg52
Vtipo
p726
sg51
g73
sg50
VScrivete "tipo" sul foglio
p727
sS'trials.thisRepN'
p728
I0
sg59
g136
sg55
g81
sg56
g100
sg15
S'space'
p729
sS'trials.thisN'
p730
I46
sg53
g77
sg58
g120
sg49
g23
(g66
S'A\x00\x00\x00\x00\x00\x00\x00'
p731
tp732
Rp733
sS'trials.thisTrialN'
p734
I46
sg54
g108
sg20
g21
sg34
g39
sg57
g109
sg33
g12
sa(dp735
S'trials.thisIndex'
p736
g23
(g66
S'>\x00\x00\x00\x00\x00\x00\x00'
p737
tp738
Rp739
sg16
F3.687680959701538
sg22
g32
sg52
g291
sg51
g95
sg50
VSentivo "tepo" di nuovo
p740
sS'trials.thisRepN'
p741
I0
sg59
g136
sg55
g81
sg56
g100
sg15
S'space'
p742
sS'trials.thisN'
p743
I47
sg53
g77
sg58
g120
sg49
g23
(g66
S'?\x00\x00\x00\x00\x00\x00\x00'
p744
tp745
Rp746
sS'trials.thisTrialN'
p747
I47
sg54
g125
sg20
g21
sg34
g39
sg57
g126
sg33
g12
sa(dp748
S'trials.thisIndex'
p749
g23
(g66
S'0\x00\x00\x00\x00\x00\x00\x00'
p750
tp751
Rp752
sg16
F1.6368069648742676
sg22
g32
sg52
Vpoco
p753
sg51
g73
sg50
VScrivete "poco" sul foglio
p754
sS'trials.thisRepN'
p755
I0
sg59
g98
sg55
g99
sg56
g179
sg15
S'space'
p756
sS'trials.thisN'
p757
I48
sg53
g81
sg58
g82
sg49
g23
(g66
S'1\x00\x00\x00\x00\x00\x00\x00'
p758
tp759
Rp760
sS'trials.thisTrialN'
p761
I48
sg54
g242
sg20
g21
sg34
g39
sg57
g243
sg33
g12
sa(dp762
S'trials.thisIndex'
p763
g23
(g66
S'\xa1\x00\x00\x00\x00\x00\x00\x00'
p764
tp765
Rp766
sg16
F1.4539539813995361
sg22
g32
sg52
g94
sg51
g149
sg50
VHa detto "chico" sei volte
p767
sS'trials.thisRepN'
p768
I0
sg59
g98
sg55
g99
sg56
g100
sg15
S'space'
p769
sS'trials.thisN'
p770
I49
sg53
g99
sg58
g103
sg49
g23
(g66
S'\xa2\x00\x00\x00\x00\x00\x00\x00'
p771
tp772
Rp773
sS'trials.thisTrialN'
p774
I49
sg54
g108
sg20
g21
sg34
g39
sg57
g109
sg33
g12
sa(dp775
S'trials.thisIndex'
p776
g23
(g66
S'\x87\x00\x00\x00\x00\x00\x00\x00'
p777
tp778
Rp779
sg16
F1.3685269355773926
sg22
g32
sg52
g578
sg51
g133
sg50
VRipete "cupo" da sempre
p780
sS'trials.thisRepN'
p781
I0
sg59
g136
sg55
g81
sg56
g179
sg15
S'space'
p782
sS'trials.thisN'
p783
I50
sg53
g99
sg58
g103
sg49
g23
(g66
S'\x88\x00\x00\x00\x00\x00\x00\x00'
p784
tp785
Rp786
sS'trials.thisTrialN'
p787
I50
sg54
g186
sg20
g21
sg34
g39
sg57
g109
sg33
g12
sa(dp788
S'trials.thisIndex'
p789
g23
(g66
S'L\x00\x00\x00\x00\x00\x00\x00'
p790
tp791
Rp792
sg16
F1.434812068939209
sg22
g32
sg52
g219
sg51
g73
sg50
VScrivete "tato" sul foglio
p793
sS'trials.thisRepN'
p794
I0
sg59
g76
sg55
g77
sg56
g78
sg15
S'space'
p795
sS'trials.thisN'
p796
I51
sg53
g77
sg58
g120
sg49
g23
(g66
S'M\x00\x00\x00\x00\x00\x00\x00'
p797
tp798
Rp799
sS'trials.thisTrialN'
p800
I51
sg54
g87
sg20
g21
sg34
g39
sg57
g88
sg33
g12
sa(dp801
S'trials.thisIndex'
p802
g23
(g66
S'\x94\x00\x00\x00\x00\x00\x00\x00'
p803
tp804
Rp805
sg16
F1.5006790161132812
sg22
g32
sg52
Vcoto
p806
sg51
g73
sg50
VScrivete "coto" sul foglio
p807
sS'trials.thisRepN'
p808
I0
sg59
g76
sg55
g77
sg56
g179
sg15
S'space'
p809
sS'trials.thisN'
p810
I52
sg53
g99
sg58
g103
sg49
g23
(g66
S'\x95\x00\x00\x00\x00\x00\x00\x00'
p811
tp812
Rp813
sS'trials.thisTrialN'
p814
I52
sg54
g242
sg20
g21
sg34
g39
sg57
g243
sg33
g12
sa(dp815
S'trials.thisIndex'
p816
g23
(g66
S'\x1a\x00\x00\x00\x00\x00\x00\x00'
p817
tp818
Rp819
sg16
F4.26859188079834
sg22
g32
sg52
g319
sg51
g95
sg50
VSentivo "pito" di nuovo
p820
sS'trials.thisRepN'
p821
I0
sg59
g76
sg55
g77
sg56
g100
sg15
S'space'
p822
sS'trials.thisN'
p823
I53
sg53
g81
sg58
g82
sg49
g23
(g66
S'\x1b\x00\x00\x00\x00\x00\x00\x00'
p824
tp825
Rp826
sS'trials.thisTrialN'
p827
I53
sg54
g108
sg20
g21
sg34
g39
sg57
g109
sg33
g12
sa(dp828
S'trials.thisIndex'
p829
g23
(g66
S'K\x00\x00\x00\x00\x00\x00\x00'
p830
tp831
Rp832
sg16
F1.3189609050750732
sg22
g32
sg52
g536
sg51
g133
sg50
VRipete "tupo" da sempre
p833
sS'trials.thisRepN'
p834
I0
sg59
g136
sg55
g81
sg56
g179
sg15
S'space'
p835
sS'trials.thisN'
p836
I54
sg53
g77
sg58
g120
sg49
g23
(g66
S'L\x00\x00\x00\x00\x00\x00\x00'
p837
tp838
Rp839
sS'trials.thisTrialN'
p840
I54
sg54
g186
sg20
g21
sg34
g39
sg57
g109
sg33
g12
sa(dp841
S'trials.thisIndex'
p842
g23
(g66
S'\x07\x00\x00\x00\x00\x00\x00\x00'
p843
tp844
Rp845
sg16
F1.386319875717163
sg22
g32
sg52
Vpepo
p846
sg51
g133
sg50
VRipete "pepo" da sempre
p847
sS'trials.thisRepN'
p848
I0
sg59
g136
sg55
g81
sg56
g100
sg15
S'space'
p849
sS'trials.thisN'
p850
I55
sg53
g81
sg58
g82
sg49
g23
(g66
S'\x08\x00\x00\x00\x00\x00\x00\x00'
p851
tp852
Rp853
sS'trials.thisTrialN'
p854
I55
sg54
g125
sg20
g21
sg34
g39
sg57
g126
sg33
g12
sa(dp855
S'trials.thisIndex'
p856
g23
(g66
S'y\x00\x00\x00\x00\x00\x00\x00'
p857
tp858
Rp859
sg16
F1.1682209968566895
sg22
g32
sg52
g564
sg51
g149
sg50
VHa detto "chepo" sei volte
p860
sS'trials.thisRepN'
p861
I0
sg59
g136
sg55
g81
sg56
g100
sg15
S'space'
p862
sS'trials.thisN'
p863
I56
sg53
g99
sg58
g103
sg49
g23
(g66
S'z\x00\x00\x00\x00\x00\x00\x00'
p864
tp865
Rp866
sS'trials.thisTrialN'
p867
I56
sg54
g125
sg20
g21
sg34
g39
sg57
g126
sg33
g12
sa(dp868
S'trials.thisIndex'
p869
g23
(g66
S'\xa3\x00\x00\x00\x00\x00\x00\x00'
p870
tp871
Rp872
sg16
F1.203523874282837
sg22
g32
sg52
g94
sg51
g133
sg50
VRipete "chico" da sempre
p873
sS'trials.thisRepN'
p874
I0
sg59
g98
sg55
g99
sg56
g100
sg15
S'space'
p875
sS'trials.thisN'
p876
I57
sg53
g99
sg58
g103
sg49
g23
(g66
S'\xa4\x00\x00\x00\x00\x00\x00\x00'
p877
tp878
Rp879
sS'trials.thisTrialN'
p880
I57
sg54
g108
sg20
g21
sg34
g39
sg57
g109
sg33
g12
sa(dp881
S'trials.thisIndex'
p882
g23
(g66
S'\x04\x00\x00\x00\x00\x00\x00\x00'
p883
tp884
Rp885
sg16
F1.1017279624938965
sg22
g32
sg52
g846
sg51
g73
sg50
VScrivete "pepo" sul foglio
p886
sS'trials.thisRepN'
p887
I0
sg59
g136
sg55
g81
sg56
g100
sg15
S'space'
p888
sS'trials.thisN'
p889
I58
sg53
g81
sg58
g82
sg49
g23
(g66
S'\x05\x00\x00\x00\x00\x00\x00\x00'
p890
tp891
Rp892
sS'trials.thisTrialN'
p893
I58
sg54
g125
sg20
g21
sg34
g39
sg57
g126
sg33
g12
sa(dp894
S'trials.thisIndex'
p895
g23
(g66
S'B\x00\x00\x00\x00\x00\x00\x00'
p896
tp897
Rp898
sg16
F1.2355449199676514
sg22
g32
sg52
g726
sg51
g95
sg50
VSentivo "tipo" di nuovo
p899
sS'trials.thisRepN'
p900
I0
sg59
g136
sg55
g81
sg56
g100
sg15
S'space'
p901
sS'trials.thisN'
p902
I59
sg53
g77
sg58
g120
sg49
g23
(g66
S'C\x00\x00\x00\x00\x00\x00\x00'
p903
tp904
Rp905
sS'trials.thisTrialN'
p906
I59
sg54
g108
sg20
g21
sg34
g39
sg57
g109
sg33
g12
sa(dp907
S'trials.thisIndex'
p908
g23
(g66
S'\x17\x00\x00\x00\x00\x00\x00\x00'
p909
tp910
Rp911
sg16
F1.3528850078582764
sg22
g32
sg52
g72
sg51
g133
sg50
VRipete "pato" da sempre
p912
sS'trials.thisRepN'
p913
I0
sg59
g76
sg55
g77
sg56
g78
sg15
S'space'
p914
sS'trials.thisN'
p915
I60
sg53
g81
sg58
g82
sg49
g23
(g66
S'\x18\x00\x00\x00\x00\x00\x00\x00'
p916
tp917
Rp918
sS'trials.thisTrialN'
p919
I60
sg54
g87
sg20
g21
sg34
g39
sg57
g88
sg33
g12
sa(dp920
S'trials.thisIndex'
p921
g23
(g66
S'\x91\x00\x00\x00\x00\x00\x00\x00'
p922
tp923
Rp924
sg16
F1.319648027420044
sg22
g32
sg52
Vchito
p925
sg51
g149
sg50
VHa detto "chito" sei volte
p926
sS'trials.thisRepN'
p927
I0
sg59
g76
sg55
g77
sg56
g100
sg15
S'space'
p928
sS'trials.thisN'
p929
I61
sg53
g99
sg58
g103
sg49
g23
(g66
S'\x92\x00\x00\x00\x00\x00\x00\x00'
p930
tp931
Rp932
sS'trials.thisTrialN'
p933
I61
sg54
g108
sg20
g21
sg34
g39
sg57
g109
sg33
g12
sa(dp934
S'trials.thisIndex'
p935
g23
(g66
S'\x9d\x00\x00\x00\x00\x00\x00\x00'
p936
tp937
Rp938
sg16
F1.3525338172912598
sg22
g32
sg52
g205
sg51
g149
sg50
VHa detto "checo" sei volte
p939
sS'trials.thisRepN'
p940
I0
sg59
g98
sg55
g99
sg56
g100
sg15
S'space'
p941
sS'trials.thisN'
p942
I62
sg53
g99
sg58
g103
sg49
g23
(g66
S'\x9e\x00\x00\x00\x00\x00\x00\x00'
p943
tp944
Rp945
sS'trials.thisTrialN'
p946
I62
sg54
g125
sg20
g21
sg34
g39
sg57
g126
sg33
g12
sa(dp947
S'trials.thisIndex'
p948
g23
(g66
S'T\x00\x00\x00\x00\x00\x00\x00'
p949
tp950
Rp951
sg16
F1.3534691333770752
sg22
g32
sg52
g698
sg51
g73
sg50
VScrivete "tito" sul foglio
p952
sS'trials.thisRepN'
p953
I0
sg59
g76
sg55
g77
sg56
g100
sg15
S'space'
p954
sS'trials.thisN'
p955
I63
sg53
g77
sg58
g120
sg49
g23
(g66
S'U\x00\x00\x00\x00\x00\x00\x00'
p956
tp957
Rp958
sS'trials.thisTrialN'
p959
I63
sg54
g108
sg20
g21
sg34
g39
sg57
g109
sg33
g12
sa(dp960
S'trials.thisIndex'
p961
g23
(g66
S'~\x00\x00\x00\x00\x00\x00\x00'
p962
tp963
Rp964
sg16
F1.284548044204712
sg22
g32
sg52
g148
sg51
g95
sg50
VSentivo "chipo" di nuovo
p965
sS'trials.thisRepN'
p966
I0
sg59
g136
sg55
g81
sg56
g100
sg15
S'space'
p967
sS'trials.thisN'
p968
I64
sg53
g99
sg58
g103
sg49
g23
(g66
S'\x7f\x00\x00\x00\x00\x00\x00\x00'
p969
tp970
Rp971
sS'trials.thisTrialN'
p972
I64
sg54
g108
sg20
g21
sg34
g39
sg57
g109
sg33
g12
sa(dp973
S'trials.thisIndex'
p974
g23
(g66
S'q\x00\x00\x00\x00\x00\x00\x00'
p975
tp976
Rp977
sg16
F1.3534159660339355
sg22
g32
sg52
g618
sg51
g149
sg50
VHa detto "tuco" sei volte
p978
sS'trials.thisRepN'
p979
I0
sg59
g98
sg55
g99
sg56
g179
sg15
S'space'
p980
sS'trials.thisN'
p981
I65
sg53
g77
sg58
g120
sg49
g23
(g66
S'r\x00\x00\x00\x00\x00\x00\x00'
p982
tp983
Rp984
sS'trials.thisTrialN'
p985
I65
sg54
g186
sg20
g21
sg34
g39
sg57
g109
sg33
g12
sa(dp986
S'trials.thisIndex'
p987
g23
(g66
S'.\x00\x00\x00\x00\x00\x00\x00'
p988
tp989
Rp990
sg16
F1.18461012840271
sg22
g32
sg52
g305
sg51
g95
sg50
VSentivo "pico" di nuovo
p991
sS'trials.thisRepN'
p992
I0
sg59
g98
sg55
g99
sg56
g100
sg15
S'space'
p993
sS'trials.thisN'
p994
I66
sg53
g81
sg58
g82
sg49
g23
(g66
S'/\x00\x00\x00\x00\x00\x00\x00'
p995
tp996
Rp997
sS'trials.thisTrialN'
p998
I66
sg54
g108
sg20
g21
sg34
g39
sg57
g109
sg33
g12
sa(dp999
S'trials.thisIndex'
p1000
g23
(g66
S'\x0e\x00\x00\x00\x00\x00\x00\x00'
p1001
tp1002
Rp1003
sg16
F1.1350328922271729
sg22
g32
sg52
Vpopo
p1004
sg51
g95
sg50
VSentivo "popo" di nuovo
p1005
sS'trials.thisRepN'
p1006
I0
sg59
g136
sg55
g81
sg56
g179
sg15
S'space'
p1007
sS'trials.thisN'
p1008
I67
sg53
g81
sg58
g82
sg49
g23
(g66
S'\x0f\x00\x00\x00\x00\x00\x00\x00'
p1009
tp1010
Rp1011
sS'trials.thisTrialN'
p1012
I67
sg54
g242
sg20
g21
sg34
g39
sg57
g243
sg33
g12
sa(dp1013
S'trials.thisIndex'
p1014
g23
(g66
S'v\x00\x00\x00\x00\x00\x00\x00'
p1015
tp1016
Rp1017
sg16
F1.2191998958587646
sg22
g32
sg52
Vcapo
p1018
sg51
g95
sg50
VSentivo "capo" di nuovo
p1019
sS'trials.thisRepN'
p1020
I0
sg59
g136
sg55
g81
sg56
g78
sg15
S'space'
p1021
sS'trials.thisN'
p1022
I68
sg53
g99
sg58
g103
sg49
g23
(g66
S'w\x00\x00\x00\x00\x00\x00\x00'
p1023
tp1024
Rp1025
sS'trials.thisTrialN'
p1026
I68
sg54
g87
sg20
g21
sg34
g39
sg57
g88
sg33
g12
sa(dp1027
S'trials.thisIndex'
p1028
g23
(g66
S'\x1c\x00\x00\x00\x00\x00\x00\x00'
p1029
tp1030
Rp1031
sg16
F1.4036378860473633
sg22
g32
sg52
Vpoto
p1032
sg51
g73
sg50
VScrivete "poto" sul foglio
p1033
sS'trials.thisRepN'
p1034
I0
sg59
g76
sg55
g77
sg56
g179
sg15
S'space'
p1035
sS'trials.thisN'
p1036
I69
sg53
g81
sg58
g82
sg49
g23
(g66
S'\x1d\x00\x00\x00\x00\x00\x00\x00'
p1037
tp1038
Rp1039
sS'trials.thisTrialN'
p1040
I69
sg54
g242
sg20
g21
sg34
g39
sg57
g243
sg33
g12
sa(dp1041
S'trials.thisIndex'
p1042
g23
(g66
S'?\x00\x00\x00\x00\x00\x00\x00'
p1043
tp1044
Rp1045
sg16
F4.021803855895996
sg22
g32
sg52
g291
sg51
g133
sg50
VRipete "tepo" da sempre
p1046
sS'trials.thisRepN'
p1047
I0
sg59
g136
sg55
g81
sg56
g100
sg15
S'space'
p1048
sS'trials.thisN'
p1049
I70
sg53
g77
sg58
g120
sg49
g23
(g66
S'@\x00\x00\x00\x00\x00\x00\x00'
p1050
tp1051
Rp1052
sS'trials.thisTrialN'
p1053
I70
sg54
g125
sg20
g21
sg34
g39
sg57
g126
sg33
g12
sa(dp1054
S'trials.thisIndex'
p1055
g23
(g66
S'/\x00\x00\x00\x00\x00\x00\x00'
p1056
tp1057
Rp1058
sg16
F1.287606954574585
sg22
g32
sg52
g305
sg51
g133
sg50
VRipete "pico" da sempre
p1059
sS'trials.thisRepN'
p1060
I0
sg59
g98
sg55
g99
sg56
g100
sg15
S'space'
p1061
sS'trials.thisN'
p1062
I71
sg53
g81
sg58
g82
sg49
g23
(g66
S'0\x00\x00\x00\x00\x00\x00\x00'
p1063
tp1064
Rp1065
sS'trials.thisTrialN'
p1066
I71
sg54
g108
sg20
g21
sg34
g39
sg57
g109
sg33
g12
sa(dp1067
S'trials.thisIndex'
p1068
g23
(g66
S'F\x00\x00\x00\x00\x00\x00\x00'
p1069
tp1070
Rp1071
sg16
F1.2526381015777588
sg22
g32
sg52
g233
sg51
g95
sg50
VSentivo "topo" di nuovo
p1072
sS'trials.thisRepN'
p1073
I0
sg59
g136
sg55
g81
sg56
g179
sg15
S'space'
p1074
sS'trials.thisN'
p1075
I72
sg53
g77
sg58
g120
sg49
g23
(g66
S'G\x00\x00\x00\x00\x00\x00\x00'
p1076
tp1077
Rp1078
sS'trials.thisTrialN'
p1079
I72
sg54
g242
sg20
g21
sg34
g39
sg57
g243
sg33
g12
sa(dp1080
S'trials.thisIndex'
p1081
g23
(g66
S'\x9e\x00\x00\x00\x00\x00\x00\x00'
p1082
tp1083
Rp1084
sg16
F7.35646390914917
sg22
g32
sg52
g205
sg51
g95
sg50
VSentivo "checo" di nuovo
p1085
sS'trials.thisRepN'
p1086
I0
sg59
g98
sg55
g99
sg56
g100
sg15
S'space'
p1087
sS'trials.thisN'
p1088
I73
sg53
g99
sg58
g103
sg49
g23
(g66
S'\x9f\x00\x00\x00\x00\x00\x00\x00'
p1089
tp1090
Rp1091
sS'trials.thisTrialN'
p1092
I73
sg54
g125
sg20
g21
sg34
g39
sg57
g126
sg33
g12
sa(dp1093
S'trials.thisIndex'
p1094
g23
(g66
S'E\x00\x00\x00\x00\x00\x00\x00'
p1095
tp1096
Rp1097
sg16
F1.202345848083496
sg22
g32
sg52
g233
sg51
g149
sg50
VHa detto "topo" sei volte
p1098
sS'trials.thisRepN'
p1099
I0
sg59
g136
sg55
g81
sg56
g179
sg15
S'space'
p1100
sS'trials.thisN'
p1101
I74
sg53
g77
sg58
g120
sg49
g23
(g66
S'F\x00\x00\x00\x00\x00\x00\x00'
p1102
tp1103
Rp1104
sS'trials.thisTrialN'
p1105
I74
sg54
g242
sg20
g21
sg34
g39
sg57
g243
sg33
g12
sa(dp1106
S'trials.thisIndex'
p1107
g23
(g66
S'\x93\x00\x00\x00\x00\x00\x00\x00'
p1108
tp1109
Rp1110
sg16
F1.5197269916534424
sg22
g32
sg52
g925
sg51
g133
sg50
VRipete "chito" da sempre
p1111
sS'trials.thisRepN'
p1112
I0
sg59
g76
sg55
g77
sg56
g100
sg15
S'space'
p1113
sS'trials.thisN'
p1114
I75
sg53
g99
sg58
g103
sg49
g23
(g66
S'\x94\x00\x00\x00\x00\x00\x00\x00'
p1115
tp1116
Rp1117
sS'trials.thisTrialN'
p1118
I75
sg54
g108
sg20
g21
sg34
g39
sg57
g109
sg33
g12
sa(dp1119
S'trials.thisIndex'
p1120
g23
(g66
S'x\x00\x00\x00\x00\x00\x00\x00'
p1121
tp1122
Rp1123
sg16
F1.5363099575042725
sg22
g32
sg52
g564
sg51
g73
sg50
VScrivete "chepo" sul foglio
p1124
sS'trials.thisRepN'
p1125
I0
sg59
g136
sg55
g81
sg56
g100
sg15
S'space'
p1126
sS'trials.thisN'
p1127
I76
sg53
g99
sg58
g103
sg49
g23
(g66
S'y\x00\x00\x00\x00\x00\x00\x00'
p1128
tp1129
Rp1130
sS'trials.thisTrialN'
p1131
I76
sg54
g125
sg20
g21
sg34
g39
sg57
g126
sg33
g12
sa(dp1132
S'trials.thisIndex'
p1133
g23
(g66
S'm\x00\x00\x00\x00\x00\x00\x00'
p1134
tp1135
Rp1136
sg16
F1.4185481071472168
sg22
g32
sg52
g482
sg51
g149
sg50
VHa detto "toco" sei volte
p1137
sS'trials.thisRepN'
p1138
I0
sg59
g98
sg55
g99
sg56
g179
sg15
S'space'
p1139
sS'trials.thisN'
p1140
I77
sg53
g77
sg58
g120
sg49
g23
(g66
S'n\x00\x00\x00\x00\x00\x00\x00'
p1141
tp1142
Rp1143
sS'trials.thisTrialN'
p1144
I77
sg54
g242
sg20
g21
sg34
g39
sg57
g243
sg33
g12
sa(dp1145
S'trials.thisIndex'
p1146
g23
(g66
S'9\x00\x00\x00\x00\x00\x00\x00'
p1147
tp1148
Rp1149
sg16
F1.4855880737304688
sg22
g32
sg52
g712
sg51
g149
sg50
VHa detto "tapo" sei volte
p1150
sS'trials.thisRepN'
p1151
I0
sg59
g136
sg55
g81
sg56
g78
sg15
S'space'
p1152
sS'trials.thisN'
p1153
I78
sg53
g77
sg58
g120
sg49
g23
(g66
S':\x00\x00\x00\x00\x00\x00\x00'
p1154
tp1155
Rp1156
sS'trials.thisTrialN'
p1157
I78
sg54
g87
sg20
g21
sg34
g39
sg57
g88
sg33
g12
sa(dp1158
S'trials.thisIndex'
p1159
g23
(g66
S'z\x00\x00\x00\x00\x00\x00\x00'
p1160
tp1161
Rp1162
sg16
F2.8033950328826904
sg22
g32
sg52
g564
sg51
g95
sg50
VSentivo "chepo" di nuovo
p1163
sS'trials.thisRepN'
p1164
I0
sg59
g136
sg55
g81
sg56
g100
sg15
S'space'
p1165
sS'trials.thisN'
p1166
I79
sg53
g99
sg58
g103
sg49
g23
(g66
S'{\x00\x00\x00\x00\x00\x00\x00'
p1167
tp1168
Rp1169
sS'trials.thisTrialN'
p1170
I79
sg54
g125
sg20
g21
sg34
g39
sg57
g126
sg33
g12
sa(dp1171
S'trials.thisIndex'
p1172
g23
(g66
S'i\x00\x00\x00\x00\x00\x00\x00'
p1173
tp1174
Rp1175
sg16
F1.586479902267456
sg22
g32
sg52
g441
sg51
g149
sg50
VHa detto "tico" sei volte
p1176
sS'trials.thisRepN'
p1177
I0
sg59
g98
sg55
g99
sg56
g100
sg15
S'space'
p1178
sS'trials.thisN'
p1179
I80
sg53
g77
sg58
g120
sg49
g23
(g66
S'j\x00\x00\x00\x00\x00\x00\x00'
p1180
tp1181
Rp1182
sS'trials.thisTrialN'
p1183
I80
sg54
g108
sg20
g21
sg34
g39
sg57
g109
sg33
g12
sa(dp1184
S'trials.thisIndex'
p1185
g23
(g66
S'\t\x00\x00\x00\x00\x00\x00\x00'
p1186
tp1187
Rp1188
sg16
F1.437493085861206
sg22
g32
sg52
g333
sg51
g149
sg50
VHa detto "pipo" sei volte
p1189
sS'trials.thisRepN'
p1190
I0
sg59
g136
sg55
g81
sg56
g100
sg15
S'space'
p1191
sS'trials.thisN'
p1192
I81
sg53
g81
sg58
g82
sg49
g23
(g66
S'\n\x00\x00\x00\x00\x00\x00\x00'
p1193
tp1194
Rp1195
sS'trials.thisTrialN'
p1196
I81
sg54
g108
sg20
g21
sg34
g39
sg57
g109
sg33
g12
sa(dp1197
S'trials.thisIndex'
p1198
g23
(g66
S'W\x00\x00\x00\x00\x00\x00\x00'
p1199
tp1200
Rp1201
sg16
F1.436633825302124
sg22
g32
sg52
g698
sg51
g133
sg50
VRipete "tito" da sempre
p1202
sS'trials.thisRepN'
p1203
I0
sg59
g76
sg55
g77
sg56
g100
sg15
S'space'
p1204
sS'trials.thisN'
p1205
I82
sg53
g77
sg58
g120
sg49
g23
(g66
S'X\x00\x00\x00\x00\x00\x00\x00'
p1206
tp1207
Rp1208
sS'trials.thisTrialN'
p1209
I82
sg54
g108
sg20
g21
sg34
g39
sg57
g109
sg33
g12
sa(dp1210
S'trials.thisIndex'
p1211
g23
(g66
S'g\x00\x00\x00\x00\x00\x00\x00'
p1212
tp1213
Rp1214
sg16
F1.236577033996582
sg22
g32
sg52
g373
sg51
g133
sg50
VRipete "teco" da sempre
p1215
sS'trials.thisRepN'
p1216
I0
sg59
g98
sg55
g99
sg56
g100
sg15
S'space'
p1217
sS'trials.thisN'
p1218
I83
sg53
g77
sg58
g120
sg49
g23
(g66
S'h\x00\x00\x00\x00\x00\x00\x00'
p1219
tp1220
Rp1221
sS'trials.thisTrialN'
p1222
I83
sg54
g125
sg20
g21
sg34
g39
sg57
g126
sg33
g12
sa(dp1223
S'trials.thisIndex'
p1224
g23
(g66
S'Y\x00\x00\x00\x00\x00\x00\x00'
p1225
tp1226
Rp1227
sg16
F1.5494980812072754
sg22
g32
sg52
Vtoto
p1228
sg51
g149
sg50
VHa detto "toto" sei volte
p1229
sS'trials.thisRepN'
p1230
I0
sg59
g76
sg55
g77
sg56
g179
sg15
S'space'
p1231
sS'trials.thisN'
p1232
I84
sg53
g77
sg58
g120
sg49
g23
(g66
S'Z\x00\x00\x00\x00\x00\x00\x00'
p1233
tp1234
Rp1235
sS'trials.thisTrialN'
p1236
I84
sg54
g242
sg20
g21
sg34
g39
sg57
g243
sg33
g12
sa(dp1237
S'trials.thisIndex'
p1238
g23
(g66
S'f\x00\x00\x00\x00\x00\x00\x00'
p1239
tp1240
Rp1241
sg16
F1.3194921016693115
sg22
g32
sg52
g373
sg51
g95
sg50
VSentivo "teco" di nuovo
p1242
sS'trials.thisRepN'
p1243
I0
sg59
g98
sg55
g99
sg56
g100
sg15
S'space'
p1244
sS'trials.thisN'
p1245
I85
sg53
g77
sg58
g120
sg49
g23
(g66
S'g\x00\x00\x00\x00\x00\x00\x00'
p1246
tp1247
Rp1248
sS'trials.thisTrialN'
p1249
I85
sg54
g125
sg20
g21
sg34
g39
sg57
g126
sg33
g12
sa(dp1250
S'trials.thisIndex'
p1251
g23
(g66
S'\xa8\x00\x00\x00\x00\x00\x00\x00'
p1252
tp1253
Rp1254
sg16
F1.4858770370483398
sg22
g32
sg52
g176
sg51
g73
sg50
VScrivete "cuco" sul foglio
p1255
sS'trials.thisRepN'
p1256
I0
sg59
g98
sg55
g99
sg56
g179
sg15
S'space'
p1257
sS'trials.thisN'
p1258
I86
sg53
g99
sg58
g103
sg49
g23
(g66
S'\xa9\x00\x00\x00\x00\x00\x00\x00'
p1259
tp1260
Rp1261
sS'trials.thisTrialN'
p1262
I86
sg54
g186
sg20
g21
sg34
g39
sg57
g109
sg33
g12
sa(dp1263
S'trials.thisIndex'
p1264
g23
(g66
S'\x0c\x00\x00\x00\x00\x00\x00\x00'
p1265
tp1266
Rp1267
sg16
F1.303053855895996
sg22
g32
sg52
g1004
sg51
g73
sg50
VScrivete "popo" sul foglio
p1268
sS'trials.thisRepN'
p1269
I0
sg59
g136
sg55
g81
sg56
g179
sg15
S'space'
p1270
sS'trials.thisN'
p1271
I87
sg53
g81
sg58
g82
sg49
g23
(g66
S'\r\x00\x00\x00\x00\x00\x00\x00'
p1272
tp1273
Rp1274
sS'trials.thisTrialN'
p1275
I87
sg54
g242
sg20
g21
sg34
g39
sg57
g243
sg33
g12
sa(dp1276
S'trials.thisIndex'
p1277
g23
(g66
S'\x06\x00\x00\x00\x00\x00\x00\x00'
p1278
tp1279
Rp1280
sg16
F1.3028979301452637
sg22
g32
sg52
g846
sg51
g95
sg50
VSentivo "pepo" di nuovo
p1281
sS'trials.thisRepN'
p1282
I0
sg59
g136
sg55
g81
sg56
g100
sg15
S'space'
p1283
sS'trials.thisN'
p1284
I88
sg53
g81
sg58
g82
sg49
g23
(g66
S'\x07\x00\x00\x00\x00\x00\x00\x00'
p1285
tp1286
Rp1287
sS'trials.thisTrialN'
p1288
I88
sg54
g125
sg20
g21
sg34
g39
sg57
g126
sg33
g12
sa(dp1289
S'trials.thisIndex'
p1290
g23
(g66
S'3\x00\x00\x00\x00\x00\x00\x00'
p1291
tp1292
Rp1293
sg16
F1.3533170223236084
sg22
g32
sg52
g753
sg51
g133
sg50
VRipete "poco" da sempre
p1294
sS'trials.thisRepN'
p1295
I0
sg59
g98
sg55
g99
sg56
g179
sg15
S'space'
p1296
sS'trials.thisN'
p1297
I89
sg53
g81
sg58
g82
sg49
g23
(g66
S'4\x00\x00\x00\x00\x00\x00\x00'
p1298
tp1299
Rp1300
sS'trials.thisTrialN'
p1301
I89
sg54
g242
sg20
g21
sg34
g39
sg57
g243
sg33
g12
sa(dp1302
S'trials.thisIndex'
p1303
g23
(g66
S'\x0f\x00\x00\x00\x00\x00\x00\x00'
p1304
tp1305
Rp1306
sg16
F1.4346318244934082
sg22
g32
sg52
g1004
sg51
g133
sg50
VRipete "popo" da sempre
p1307
sS'trials.thisRepN'
p1308
I0
sg59
g136
sg55
g81
sg56
g179
sg15
S'space'
p1309
sS'trials.thisN'
p1310
I90
sg53
g81
sg58
g82
sg49
g23
(g66
S'\x10\x00\x00\x00\x00\x00\x00\x00'
p1311
tp1312
Rp1313
sS'trials.thisTrialN'
p1314
I90
sg54
g242
sg20
g21
sg34
g39
sg57
g243
sg33
g12
sa(dp1315
S'trials.thisIndex'
p1316
g23
(g66
S'A\x00\x00\x00\x00\x00\x00\x00'
p1317
tp1318
Rp1319
sg16
F1.3839170932769775
sg22
g32
sg52
g726
sg51
g149
sg50
VHa detto "tipo" sei volte
p1320
sS'trials.thisRepN'
p1321
I0
sg59
g136
sg55
g81
sg56
g100
sg15
S'space'
p1322
sS'trials.thisN'
p1323
I91
sg53
g77
sg58
g120
sg49
g23
(g66
S'B\x00\x00\x00\x00\x00\x00\x00'
p1324
tp1325
Rp1326
sS'trials.thisTrialN'
p1327
I91
sg54
g108
sg20
g21
sg34
g39
sg57
g109
sg33
g12
sa(dp1328
S'trials.thisIndex'
p1329
g23
(g66
S'\x84\x00\x00\x00\x00\x00\x00\x00'
p1330
tp1331
Rp1332
sg16
F1.452848196029663
sg22
g32
sg52
g578
sg51
g73
sg50
VScrivete "cupo" sul foglio
p1333
sS'trials.thisRepN'
p1334
I0
sg59
g136
sg55
g81
sg56
g179
sg15
S'space'
p1335
sS'trials.thisN'
p1336
I92
sg53
g99
sg58
g103
sg49
g23
(g66
S'\x85\x00\x00\x00\x00\x00\x00\x00'
p1337
tp1338
Rp1339
sS'trials.thisTrialN'
p1340
I92
sg54
g186
sg20
g21
sg34
g39
sg57
g109
sg33
g12
sa(dp1341
S'trials.thisIndex'
p1342
g23
(g66
S'\x96\x00\x00\x00\x00\x00\x00\x00'
p1343
tp1344
Rp1345
sg16
F1.3193979263305664
sg22
g32
sg52
g806
sg51
g95
sg50
VSentivo "coto" di nuovo
p1346
sS'trials.thisRepN'
p1347
I0
sg59
g76
sg55
g77
sg56
g179
sg15
S'space'
p1348
sS'trials.thisN'
p1349
I93
sg53
g99
sg58
g103
sg49
g23
(g66
S'\x97\x00\x00\x00\x00\x00\x00\x00'
p1350
tp1351
Rp1352
sS'trials.thisTrialN'
p1353
I93
sg54
g242
sg20
g21
sg34
g39
sg57
g243
sg33
g12
sa(dp1354
S'trials.thisIndex'
p1355
g23
(g66
S'\x8f\x00\x00\x00\x00\x00\x00\x00'
p1356
tp1357
Rp1358
sg16
F1.3847148418426514
sg22
g32
sg52
g550
sg51
g133
sg50
VRipete "cheto" da sempre
p1359
sS'trials.thisRepN'
p1360
I0
sg59
g76
sg55
g77
sg56
g100
sg15
S'space'
p1361
sS'trials.thisN'
p1362
I94
sg53
g99
sg58
g103
sg49
g23
(g66
S'\x90\x00\x00\x00\x00\x00\x00\x00'
p1363
tp1364
Rp1365
sS'trials.thisTrialN'
p1366
I94
sg54
g125
sg20
g21
sg34
g39
sg57
g126
sg33
g12
sa(dp1367
S'trials.thisIndex'
p1368
g23
(g66
S':\x00\x00\x00\x00\x00\x00\x00'
p1369
tp1370
Rp1371
sg16
F1.3364808559417725
sg22
g32
sg52
g712
sg51
g95
sg50
VSentivo "tapo" di nuovo
p1372
sS'trials.thisRepN'
p1373
I0
sg59
g136
sg55
g81
sg56
g78
sg15
S'space'
p1374
sS'trials.thisN'
p1375
I95
sg53
g77
sg58
g120
sg49
g23
(g66
S';\x00\x00\x00\x00\x00\x00\x00'
p1376
tp1377
Rp1378
sS'trials.thisTrialN'
p1379
I95
sg54
g87
sg20
g21
sg34
g39
sg57
g88
sg33
g12
sa(dp1380
S'trials.thisIndex'
p1381
g23
(g66
S'X\x00\x00\x00\x00\x00\x00\x00'
p1382
tp1383
Rp1384
sg16
F1.3026258945465088
sg22
g32
sg52
g1228
sg51
g73
sg50
VScrivete "toto" sul foglio
p1385
sS'trials.thisRepN'
p1386
I0
sg59
g76
sg55
g77
sg56
g179
sg15
S'space'
p1387
sS'trials.thisN'
p1388
I96
sg53
g77
sg58
g120
sg49
g23
(g66
S'Y\x00\x00\x00\x00\x00\x00\x00'
p1389
tp1390
Rp1391
sS'trials.thisTrialN'
p1392
I96
sg54
g242
sg20
g21
sg34
g39
sg57
g243
sg33
g12
sa(dp1393
S'trials.thisIndex'
p1394
g23
(g66
S'\x9b\x00\x00\x00\x00\x00\x00\x00'
p1395
tp1396
Rp1397
sg16
F1.4024720191955566
sg22
g32
sg52
g249
sg51
g133
sg50
VRipete "cuto" da sempre
p1398
sS'trials.thisRepN'
p1399
I0
sg59
g76
sg55
g77
sg56
g179
sg15
S'space'
p1400
sS'trials.thisN'
p1401
I97
sg53
g99
sg58
g103
sg49
g23
(g66
S'\x9c\x00\x00\x00\x00\x00\x00\x00'
p1402
tp1403
Rp1404
sS'trials.thisTrialN'
p1405
I97
sg54
g186
sg20
g21
sg34
g39
sg57
g109
sg33
g12
sa(dp1406
S'trials.thisIndex'
p1407
g23
(g66
S'\xa4\x00\x00\x00\x00\x00\x00\x00'
p1408
tp1409
Rp1410
sg16
F1.4861218929290771
sg22
g32
sg52
g522
sg51
g73
sg50
VScrivete "coco" sul foglio
p1411
sS'trials.thisRepN'
p1412
I0
sg59
g98
sg55
g99
sg56
g179
sg15
S'space'
p1413
sS'trials.thisN'
p1414
I98
sg53
g99
sg58
g103
sg49
g23
(g66
S'\xa5\x00\x00\x00\x00\x00\x00\x00'
p1415
tp1416
Rp1417
sS'trials.thisTrialN'
p1418
I98
sg54
g242
sg20
g21
sg34
g39
sg57
g243
sg33
g12
sa(dp1419
S'trials.thisIndex'
p1420
g23
(g66
S'\x97\x00\x00\x00\x00\x00\x00\x00'
p1421
tp1422
Rp1423
sg16
F1.3201189041137695
sg22
g32
sg52
g806
sg51
g133
sg50
VRipete "coto" da sempre
p1424
sS'trials.thisRepN'
p1425
I0
sg59
g76
sg55
g77
sg56
g179
sg15
S'space'
p1426
sS'trials.thisN'
p1427
I99
sg53
g99
sg58
g103
sg49
g23
(g66
S'\x98\x00\x00\x00\x00\x00\x00\x00'
p1428
tp1429
Rp1430
sS'trials.thisTrialN'
p1431
I99
sg54
g242
sg20
g21
sg34
g39
sg57
g243
sg33
g12
sa(dp1432
S'trials.thisIndex'
p1433
g23
(g66
S'r\x00\x00\x00\x00\x00\x00\x00'
p1434
tp1435
Rp1436
sg16
F1.2699909210205078
sg22
g32
sg52
g618
sg51
g95
sg50
VSentivo "tuco" di nuovo
p1437
sS'trials.thisRepN'
p1438
I0
sg59
g98
sg55
g99
sg56
g179
sg15
S'space'
p1439
sS'trials.thisN'
p1440
I100
sg53
g77
sg58
g120
sg49
g23
(g66
S's\x00\x00\x00\x00\x00\x00\x00'
p1441
tp1442
Rp1443
sS'trials.thisTrialN'
p1444
I100
sg54
g186
sg20
g21
sg34
g39
sg57
g109
sg33
g12
sa(dp1445
S'trials.thisIndex'
p1446
g23
(g66
S'\\\x00\x00\x00\x00\x00\x00\x00'
p1447
tp1448
Rp1449
sg16
F5.539220094680786
sg22
g32
sg52
g468
sg51
g73
sg50
VScrivete "tuto" sul foglio
p1450
sS'trials.thisRepN'
p1451
I0
sg59
g76
sg55
g77
sg56
g179
sg15
S'space'
p1452
sS'trials.thisN'
p1453
I101
sg53
g77
sg58
g120
sg49
g23
(g66
S']\x00\x00\x00\x00\x00\x00\x00'
p1454
tp1455
Rp1456
sS'trials.thisTrialN'
p1457
I101
sg54
g186
sg20
g21
sg34
g39
sg57
g109
sg33
g12
sa(dp1458
S'trials.thisIndex'
p1459
g23
(g66
S'\x1d\x00\x00\x00\x00\x00\x00\x00'
p1460
tp1461
Rp1462
sg16
F1.4684059619903564
sg22
g32
sg52
g1032
sg51
g149
sg50
VHa detto "poto" sei volte
p1463
sS'trials.thisRepN'
p1464
I0
sg59
g76
sg55
g77
sg56
g179
sg15
S'space'
p1465
sS'trials.thisN'
p1466
I102
sg53
g81
sg58
g82
sg49
g23
(g66
S'\x1e\x00\x00\x00\x00\x00\x00\x00'
p1467
tp1468
Rp1469
sS'trials.thisTrialN'
p1470
I102
sg54
g242
sg20
g21
sg34
g39
sg57
g243
sg33
g12
sa(dp1471
S'trials.thisIndex'
p1472
g23
(g66
S'\x90\x00\x00\x00\x00\x00\x00\x00'
p1473
tp1474
Rp1475
sg16
F1.5040550231933594
sg22
g32
sg52
g925
sg51
g73
sg50
VScrivete "chito" sul foglio
p1476
sS'trials.thisRepN'
p1477
I0
sg59
g76
sg55
g77
sg56
g100
sg15
S'space'
p1478
sS'trials.thisN'
p1479
I103
sg53
g99
sg58
g103
sg49
g23
(g66
S'\x91\x00\x00\x00\x00\x00\x00\x00'
p1480
tp1481
Rp1482
sS'trials.thisTrialN'
p1483
I103
sg54
g108
sg20
g21
sg34
g39
sg57
g109
sg33
g12
sa(dp1484
S'trials.thisIndex'
p1485
g23
(g66
S'8\x00\x00\x00\x00\x00\x00\x00'
p1486
tp1487
Rp1488
sg16
F1.4686689376831055
sg22
g32
sg52
g712
sg51
g73
sg50
VScrivete "tapo" sul foglio
p1489
sS'trials.thisRepN'
p1490
I0
sg59
g136
sg55
g81
sg56
g78
sg15
S'space'
p1491
sS'trials.thisN'
p1492
I104
sg53
g77
sg58
g120
sg49
g23
(g66
S'9\x00\x00\x00\x00\x00\x00\x00'
p1493
tp1494
Rp1495
sS'trials.thisTrialN'
p1496
I104
sg54
g87
sg20
g21
sg34
g39
sg57
g88
sg33
g12
sa(dp1497
S'trials.thisIndex'
p1498
g23
(g66
S'C\x00\x00\x00\x00\x00\x00\x00'
p1499
tp1500
Rp1501
sg16
F1.6692438125610352
sg22
g32
sg52
g726
sg51
g133
sg50
VRipete "tipo" da sempre
p1502
sS'trials.thisRepN'
p1503
I0
sg59
g136
sg55
g81
sg56
g100
sg15
S'space'
p1504
sS'trials.thisN'
p1505
I105
sg53
g77
sg58
g120
sg49
g23
(g66
S'D\x00\x00\x00\x00\x00\x00\x00'
p1506
tp1507
Rp1508
sS'trials.thisTrialN'
p1509
I105
sg54
g108
sg20
g21
sg34
g39
sg57
g109
sg33
g12
sa(dp1510
S'trials.thisIndex'
p1511
g23
(g66
S'\xa0\x00\x00\x00\x00\x00\x00\x00'
p1512
tp1513
Rp1514
sg16
F1.8042519092559814
sg22
g32
sg52
g94
sg51
g73
sg50
VScrivete "chico" sul foglio
p1515
sS'trials.thisRepN'
p1516
I0
sg59
g98
sg55
g99
sg56
g100
sg15
S'space'
p1517
sS'trials.thisN'
p1518
I106
sg53
g99
sg58
g103
sg49
g23
(g66
S'\xa1\x00\x00\x00\x00\x00\x00\x00'
p1519
tp1520
Rp1521
sS'trials.thisTrialN'
p1522
I106
sg54
g108
sg20
g21
sg34
g39
sg57
g109
sg33
g12
sa(dp1523
S'trials.thisIndex'
p1524
g23
(g66
S'Z\x00\x00\x00\x00\x00\x00\x00'
p1525
tp1526
Rp1527
sg16
F1.1693410873413086
sg22
g32
sg52
g1228
sg51
g95
sg50
VSentivo "toto" di nuovo
p1528
sS'trials.thisRepN'
p1529
I0
sg59
g76
sg55
g77
sg56
g179
sg15
S'space'
p1530
sS'trials.thisN'
p1531
I107
sg53
g77
sg58
g120
sg49
g23
(g66
S'[\x00\x00\x00\x00\x00\x00\x00'
p1532
tp1533
Rp1534
sS'trials.thisTrialN'
p1535
I107
sg54
g242
sg20
g21
sg34
g39
sg57
g243
sg33
g12
sa(dp1536
S'trials.thisIndex'
p1537
g23
(g66
S'4\x00\x00\x00\x00\x00\x00\x00'
p1538
tp1539
Rp1540
sg16
F1.5857391357421875
sg22
g32
sg52
Vpuco
p1541
sg51
g73
sg50
VScrivete "puco" sul foglio
p1542
sS'trials.thisRepN'
p1543
I0
sg59
g98
sg55
g99
sg56
g179
sg15
S'space'
p1544
sS'trials.thisN'
p1545
I108
sg53
g81
sg58
g82
sg49
g23
(g66
S'5\x00\x00\x00\x00\x00\x00\x00'
p1546
tp1547
Rp1548
sS'trials.thisTrialN'
p1549
I108
sg54
g186
sg20
g21
sg34
g39
sg57
g109
sg33
g12
sa(dp1550
S'trials.thisIndex'
p1551
g23
(g66
S'1\x00\x00\x00\x00\x00\x00\x00'
p1552
tp1553
Rp1554
sg16
F1.3352580070495605
sg22
g32
sg52
g753
sg51
g149
sg50
VHa detto "poco" sei volte
p1555
sS'trials.thisRepN'
p1556
I0
sg59
g98
sg55
g99
sg56
g179
sg15
S'space'
p1557
sS'trials.thisN'
p1558
I109
sg53
g81
sg58
g82
sg49
g23
(g66
S'2\x00\x00\x00\x00\x00\x00\x00'
p1559
tp1560
Rp1561
sS'trials.thisTrialN'
p1562
I109
sg54
g242
sg20
g21
sg34
g39
sg57
g243
sg33
g12
sa(dp1563
S'trials.thisIndex'
p1564
g23
(g66
S"'\x00\x00\x00\x00\x00\x00\x00"
p1565
tp1566
Rp1567
sg16
F1.5525250434875488
sg22
g32
sg52
g263
sg51
g133
sg50
VRipete "paco" da sempre
p1568
sS'trials.thisRepN'
p1569
I0
sg59
g98
sg55
g99
sg56
g78
sg15
S'space'
p1570
sS'trials.thisN'
p1571
I110
sg53
g81
sg58
g82
sg49
g23
(g66
S'(\x00\x00\x00\x00\x00\x00\x00'
p1572
tp1573
Rp1574
sS'trials.thisTrialN'
p1575
I110
sg54
g87
sg20
g21
sg34
g39
sg57
g88
sg33
g12
sa(dp1576
S'trials.thisIndex'
p1577
g23
(g66
S's\x00\x00\x00\x00\x00\x00\x00'
p1578
tp1579
Rp1580
sg16
F2.4024219512939453
sg22
g32
sg52
g618
sg51
g133
sg50
VRipete "tuco" da sempre
p1581
sS'trials.thisRepN'
p1582
I0
sg59
g98
sg55
g99
sg56
g179
sg15
S'space'
p1583
sS'trials.thisN'
p1584
I111
sg53
g77
sg58
g120
sg49
g23
(g66
S't\x00\x00\x00\x00\x00\x00\x00'
p1585
tp1586
Rp1587
sS'trials.thisTrialN'
p1588
I111
sg54
g186
sg20
g21
sg34
g39
sg57
g109
sg33
g12
sa(dp1589
S'trials.thisIndex'
p1590
g23
(g66
S'l\x00\x00\x00\x00\x00\x00\x00'
p1591
tp1592
Rp1593
sg16
F1.3205199241638184
sg22
g32
sg52
g482
sg51
g73
sg50
VScrivete "toco" sul foglio
p1594
sS'trials.thisRepN'
p1595
I0
sg59
g98
sg55
g99
sg56
g179
sg15
S'space'
p1596
sS'trials.thisN'
p1597
I112
sg53
g77
sg58
g120
sg49
g23
(g66
S'm\x00\x00\x00\x00\x00\x00\x00'
p1598
tp1599
Rp1600
sS'trials.thisTrialN'
p1601
I112
sg54
g242
sg20
g21
sg34
g39
sg57
g243
sg33
g12
sa(dp1602
S'trials.thisIndex'
p1603
g23
(g66
S'a\x00\x00\x00\x00\x00\x00\x00'
p1604
tp1605
Rp1606
sg16
F20.526631116867065
sg22
g32
sg52
Vtaco
p1607
sg51
g149
sg50
VHa detto "taco" sei volte
p1608
sS'trials.thisRepN'
p1609
I0
sg59
g98
sg55
g99
sg56
g78
sg15
S'space'
p1610
sS'trials.thisN'
p1611
I113
sg53
g77
sg58
g120
sg49
g23
(g66
S'b\x00\x00\x00\x00\x00\x00\x00'
p1612
tp1613
Rp1614
sS'trials.thisTrialN'
p1615
I113
sg54
g87
sg20
g21
sg34
g39
sg57
g88
sg33
g12
sa(dp1616
S'trials.thisIndex'
p1617
g23
(g66
S'\x1e\x00\x00\x00\x00\x00\x00\x00'
p1618
tp1619
Rp1620
sg16
F1.4866931438446045
sg22
g32
sg52
g1032
sg51
g95
sg50
VSentivo "poto" di nuovo
p1621
sS'trials.thisRepN'
p1622
I0
sg59
g76
sg55
g77
sg56
g179
sg15
S'space'
p1623
sS'trials.thisN'
p1624
I114
sg53
g81
sg58
g82
sg49
g23
(g66
S'\x1f\x00\x00\x00\x00\x00\x00\x00'
p1625
tp1626
Rp1627
sS'trials.thisTrialN'
p1628
I114
sg54
g242
sg20
g21
sg34
g39
sg57
g243
sg33
g12
sa(dp1629
S'trials.thisIndex'
p1630
g23
(g66
S't\x00\x00\x00\x00\x00\x00\x00'
p1631
tp1632
Rp1633
sg16
F1.602126121520996
sg22
g32
sg52
g1018
sg51
g73
sg50
VScrivete "capo" sul foglio
p1634
sS'trials.thisRepN'
p1635
I0
sg59
g136
sg55
g81
sg56
g78
sg15
S'space'
p1636
sS'trials.thisN'
p1637
I115
sg53
g99
sg58
g103
sg49
g23
(g66
S'u\x00\x00\x00\x00\x00\x00\x00'
p1638
tp1639
Rp1640
sS'trials.thisTrialN'
p1641
I115
sg54
g87
sg20
g21
sg34
g39
sg57
g88
sg33
g12
sa(dp1642
S'trials.thisIndex'
p1643
g23
(g66
S'\xaa\x00\x00\x00\x00\x00\x00\x00'
p1644
tp1645
Rp1646
sg16
F1.336681842803955
sg22
g32
sg52
g176
sg51
g95
sg50
VSentivo "cuco" di nuovo
p1647
sS'trials.thisRepN'
p1648
I0
sg59
g98
sg55
g99
sg56
g179
sg15
S'space'
p1649
sS'trials.thisN'
p1650
I116
sg53
g99
sg58
g103
sg49
g23
(g66
S'\xab\x00\x00\x00\x00\x00\x00\x00'
p1651
tp1652
Rp1653
sS'trials.thisTrialN'
p1654
I116
sg54
g186
sg20
g21
sg34
g39
sg57
g109
sg33
g12
sa(dp1655
S'trials.thisIndex'
p1656
g23
(g66
S'\xa6\x00\x00\x00\x00\x00\x00\x00'
p1657
tp1658
Rp1659
sg16
F1.318040132522583
sg22
g32
sg52
g522
sg51
g95
sg50
VSentivo "coco" di nuovo
p1660
sS'trials.thisRepN'
p1661
I0
sg59
g98
sg55
g99
sg56
g179
sg15
S'space'
p1662
sS'trials.thisN'
p1663
I117
sg53
g99
sg58
g103
sg49
g23
(g66
S'\xa7\x00\x00\x00\x00\x00\x00\x00'
p1664
tp1665
Rp1666
sS'trials.thisTrialN'
p1667
I117
sg54
g242
sg20
g21
sg34
g39
sg57
g243
sg33
g12
sa(dp1668
S'trials.thisIndex'
p1669
g23
(g66
S'7\x00\x00\x00\x00\x00\x00\x00'
p1670
tp1671
Rp1672
sg16
F1.368354082107544
sg22
g32
sg52
g1541
sg51
g133
sg50
VRipete "puco" da sempre
p1673
sS'trials.thisRepN'
p1674
I0
sg59
g98
sg55
g99
sg56
g179
sg15
S'space'
p1675
sS'trials.thisN'
p1676
I118
sg53
g81
sg58
g82
sg49
g23
(g66
S'8\x00\x00\x00\x00\x00\x00\x00'
p1677
tp1678
Rp1679
sS'trials.thisTrialN'
p1680
I118
sg54
g186
sg20
g21
sg34
g39
sg57
g109
sg33
g12
sa(dp1681
S'trials.thisIndex'
p1682
g23
(g66
S'!\x00\x00\x00\x00\x00\x00\x00'
p1683
tp1684
Rp1685
sg16
F1.5369980335235596
sg22
g32
sg52
Vputo
p1686
sg51
g149
sg50
VHa detto "puto" sei volte
p1687
sS'trials.thisRepN'
p1688
I0
sg59
g76
sg55
g77
sg56
g179
sg15
S'space'
p1689
sS'trials.thisN'
p1690
I119
sg53
g81
sg58
g82
sg49
g23
(g66
S'"\x00\x00\x00\x00\x00\x00\x00'
p1691
tp1692
Rp1693
sS'trials.thisTrialN'
p1694
I119
sg54
g186
sg20
g21
sg34
g39
sg57
g109
sg33
g12
sa(dp1695
S'trials.thisIndex'
p1696
g23
(g66
S'w\x00\x00\x00\x00\x00\x00\x00'
p1697
tp1698
Rp1699
sg16
F1.3524010181427002
sg22
g32
sg52
g1018
sg51
g133
sg50
VRipete "capo" da sempre
p1700
sS'trials.thisRepN'
p1701
I0
sg59
g136
sg55
g81
sg56
g78
sg15
S'space'
p1702
sS'trials.thisN'
p1703
I120
sg53
g99
sg58
g103
sg49
g23
(g66
S'x\x00\x00\x00\x00\x00\x00\x00'
p1704
tp1705
Rp1706
sS'trials.thisTrialN'
p1707
I120
sg54
g87
sg20
g21
sg34
g39
sg57
g88
sg33
g12
sa(dp1708
S'trials.thisIndex'
p1709
g23
(g66
S' \x00\x00\x00\x00\x00\x00\x00'
p1710
tp1711
Rp1712
sg16
F1.4035630226135254
sg22
g32
sg52
g1686
sg51
g73
sg50
VScrivete "puto" sul foglio
p1713
sS'trials.thisRepN'
p1714
I0
sg59
g76
sg55
g77
sg56
g179
sg15
S'space'
p1715
sS'trials.thisN'
p1716
I121
sg53
g81
sg58
g82
sg49
g23
(g66
S'!\x00\x00\x00\x00\x00\x00\x00'
p1717
tp1718
Rp1719
sS'trials.thisTrialN'
p1720
I121
sg54
g186
sg20
g21
sg34
g39
sg57
g109
sg33
g12
sa(dp1721
S'trials.thisIndex'
p1722
g23
(g66
S'\x8a\x00\x00\x00\x00\x00\x00\x00'
p1723
tp1724
Rp1725
sg16
F3.2711679935455322
sg22
g32
sg52
g387
sg51
g95
sg50
VSentivo "cato" di nuovo
p1726
sS'trials.thisRepN'
p1727
I0
sg59
g76
sg55
g77
sg56
g78
sg15
S'space'
p1728
sS'trials.thisN'
p1729
I122
sg53
g99
sg58
g103
sg49
g23
(g66
S'\x8b\x00\x00\x00\x00\x00\x00\x00'
p1730
tp1731
Rp1732
sS'trials.thisTrialN'
p1733
I122
sg54
g87
sg20
g21
sg34
g39
sg57
g88
sg33
g12
sa(dp1734
S'trials.thisIndex'
p1735
g23
(g66
S'\x02\x00\x00\x00\x00\x00\x00\x00'
p1736
tp1737
Rp1738
sg16
F1.2346270084381104
sg22
g32
sg52
g132
sg51
g95
sg50
VSentivo "papo" di nuovo
p1739
sS'trials.thisRepN'
p1740
I0
sg59
g136
sg55
g81
sg56
g78
sg15
S'space'
p1741
sS'trials.thisN'
p1742
I123
sg53
g81
sg58
g82
sg49
g23
(g66
S'\x03\x00\x00\x00\x00\x00\x00\x00'
p1743
tp1744
Rp1745
sS'trials.thisTrialN'
p1746
I123
sg54
g87
sg20
g21
sg34
g39
sg57
g88
sg33
g12
sa(dp1747
S'trials.thisIndex'
p1748
g23
(g66
S'N\x00\x00\x00\x00\x00\x00\x00'
p1749
tp1750
Rp1751
sg16
F1.1696391105651855
sg22
g32
sg52
g219
sg51
g95
sg50
VSentivo "tato" di nuovo
p1752
sS'trials.thisRepN'
p1753
I0
sg59
g76
sg55
g77
sg56
g78
sg15
S'space'
p1754
sS'trials.thisN'
p1755
I124
sg53
g77
sg58
g120
sg49
g23
(g66
S'O\x00\x00\x00\x00\x00\x00\x00'
p1756
tp1757
Rp1758
sS'trials.thisTrialN'
p1759
I124
sg54
g87
sg20
g21
sg34
g39
sg57
g88
sg33
g12
sa(dp1760
S'trials.thisIndex'
p1761
g23
(g66
S'#\x00\x00\x00\x00\x00\x00\x00'
p1762
tp1763
Rp1764
sg16
F1.369610071182251
sg22
g32
sg52
g1686
sg51
g133
sg50
VRipete "puto" da sempre
p1765
sS'trials.thisRepN'
p1766
I0
sg59
g76
sg55
g77
sg56
g179
sg15
S'space'
p1767
sS'trials.thisN'
p1768
I125
sg53
g81
sg58
g82
sg49
g23
(g66
S'$\x00\x00\x00\x00\x00\x00\x00'
p1769
tp1770
Rp1771
sS'trials.thisTrialN'
p1772
I125
sg54
g186
sg20
g21
sg34
g39
sg57
g109
sg33
g12
sa(dp1773
S'trials.thisIndex'
p1774
g23
(g66
S'<\x00\x00\x00\x00\x00\x00\x00'
p1775
tp1776
Rp1777
sg16
F1.2693068981170654
sg22
g32
sg52
g291
sg51
g73
sg50
VScrivete "tepo" sul foglio
p1778
sS'trials.thisRepN'
p1779
I0
sg59
g136
sg55
g81
sg56
g100
sg15
S'space'
p1780
sS'trials.thisN'
p1781
I126
sg53
g77
sg58
g120
sg49
g23
(g66
S'=\x00\x00\x00\x00\x00\x00\x00'
p1782
tp1783
Rp1784
sS'trials.thisTrialN'
p1785
I126
sg54
g125
sg20
g21
sg34
g39
sg57
g126
sg33
g12
sa(dp1786
S'trials.thisIndex'
p1787
g23
(g66
S'+\x00\x00\x00\x00\x00\x00\x00'
p1788
tp1789
Rp1790
sg16
F1.2201828956604004
sg22
g32
sg52
g632
sg51
g133
sg50
VRipete "peco" da sempre
p1791
sS'trials.thisRepN'
p1792
I0
sg59
g98
sg55
g99
sg56
g100
sg15
S'space'
p1793
sS'trials.thisN'
p1794
I127
sg53
g81
sg58
g82
sg49
g23
(g66
S',\x00\x00\x00\x00\x00\x00\x00'
p1795
tp1796
Rp1797
sS'trials.thisTrialN'
p1798
I127
sg54
g125
sg20
g21
sg34
g39
sg57
g126
sg33
g12
sa(dp1799
S'trials.thisIndex'
p1800
g23
(g66
S'\x8c\x00\x00\x00\x00\x00\x00\x00'
p1801
tp1802
Rp1803
sg16
F1.3189489841461182
sg22
g32
sg52
g550
sg51
g73
sg50
VScrivete "cheto" sul foglio
p1804
sS'trials.thisRepN'
p1805
I0
sg59
g76
sg55
g77
sg56
g100
sg15
S'space'
p1806
sS'trials.thisN'
p1807
I128
sg53
g99
sg58
g103
sg49
g23
(g66
S'\x8d\x00\x00\x00\x00\x00\x00\x00'
p1808
tp1809
Rp1810
sS'trials.thisTrialN'
p1811
I128
sg54
g125
sg20
g21
sg34
g39
sg57
g126
sg33
g12
sa(dp1812
S'trials.thisIndex'
p1813
g23
(g66
S'_\x00\x00\x00\x00\x00\x00\x00'
p1814
tp1815
Rp1816
sg16
F1.253216028213501
sg22
g32
sg52
g468
sg51
g133
sg50
VRipete "tuto" da sempre
p1817
sS'trials.thisRepN'
p1818
I0
sg59
g76
sg55
g77
sg56
g179
sg15
S'space'
p1819
sS'trials.thisN'
p1820
I129
sg53
g77
sg58
g120
sg49
g23
(g66
S'`\x00\x00\x00\x00\x00\x00\x00'
p1821
tp1822
Rp1823
sS'trials.thisTrialN'
p1824
I129
sg54
g186
sg20
g21
sg34
g39
sg57
g109
sg33
g12
sa(dp1825
S'trials.thisIndex'
p1826
g23
(g66
S'*\x00\x00\x00\x00\x00\x00\x00'
p1827
tp1828
Rp1829
sg16
F1.3016548156738281
sg22
g32
sg52
g632
sg51
g95
sg50
VSentivo "peco" di nuovo
p1830
sS'trials.thisRepN'
p1831
I0
sg59
g98
sg55
g99
sg56
g100
sg15
S'space'
p1832
sS'trials.thisN'
p1833
I130
sg53
g81
sg58
g82
sg49
g23
(g66
S'+\x00\x00\x00\x00\x00\x00\x00'
p1834
tp1835
Rp1836
sS'trials.thisTrialN'
p1837
I130
sg54
g125
sg20
g21
sg34
g39
sg57
g126
sg33
g12
sa(dp1838
S'trials.thisIndex'
p1839
g23
(g66
S')\x00\x00\x00\x00\x00\x00\x00'
p1840
tp1841
Rp1842
sg16
F1.3859479427337646
sg22
g32
sg52
g632
sg51
g149
sg50
VHa detto "peco" sei volte
p1843
sS'trials.thisRepN'
p1844
I0
sg59
g98
sg55
g99
sg56
g100
sg15
S'space'
p1845
sS'trials.thisN'
p1846
I131
sg53
g81
sg58
g82
sg49
g23
(g66
S'*\x00\x00\x00\x00\x00\x00\x00'
p1847
tp1848
Rp1849
sS'trials.thisTrialN'
p1850
I131
sg54
g125
sg20
g21
sg34
g39
sg57
g126
sg33
g12
sa(dp1851
S'trials.thisIndex'
p1852
g23
(g66
S'\x95\x00\x00\x00\x00\x00\x00\x00'
p1853
tp1854
Rp1855
sg16
F1.1855249404907227
sg22
g32
sg52
g806
sg51
g149
sg50
VHa detto "coto" sei volte
p1856
sS'trials.thisRepN'
p1857
I0
sg59
g76
sg55
g77
sg56
g179
sg15
S'space'
p1858
sS'trials.thisN'
p1859
I132
sg53
g99
sg58
g103
sg49
g23
(g66
S'\x96\x00\x00\x00\x00\x00\x00\x00'
p1860
tp1861
Rp1862
sS'trials.thisTrialN'
p1863
I132
sg54
g242
sg20
g21
sg34
g39
sg57
g243
sg33
g12
sa(dp1864
S'trials.thisIndex'
p1865
g23
(g66
S'G\x00\x00\x00\x00\x00\x00\x00'
p1866
tp1867
Rp1868
sg16
F1.2370760440826416
sg22
g32
sg52
g233
sg51
g133
sg50
VRipete "topo" da sempre
p1869
sS'trials.thisRepN'
p1870
I0
sg59
g136
sg55
g81
sg56
g179
sg15
S'space'
p1871
sS'trials.thisN'
p1872
I133
sg53
g77
sg58
g120
sg49
g23
(g66
S'H\x00\x00\x00\x00\x00\x00\x00'
p1873
tp1874
Rp1875
sS'trials.thisTrialN'
p1876
I133
sg54
g242
sg20
g21
sg34
g39
sg57
g243
sg33
g12
sa(dp1877
S'trials.thisIndex'
p1878
g23
(g66
S'\x83\x00\x00\x00\x00\x00\x00\x00'
p1879
tp1880
Rp1881
sg16
F1.2857160568237305
sg22
g32
sg52
g414
sg51
g133
sg50
VRipete "copo" da sempre
p1882
sS'trials.thisRepN'
p1883
I0
sg59
g136
sg55
g81
sg56
g179
sg15
S'space'
p1884
sS'trials.thisN'
p1885
I134
sg53
g99
sg58
g103
sg49
g23
(g66
S'\x84\x00\x00\x00\x00\x00\x00\x00'
p1886
tp1887
Rp1888
sS'trials.thisTrialN'
p1889
I134
sg54
g242
sg20
g21
sg34
g39
sg57
g243
sg33
g12
sa(dp1890
S'trials.thisIndex'
p1891
g23
(g66
S'"\x00\x00\x00\x00\x00\x00\x00'
p1892
tp1893
Rp1894
sg16
F0.9691939353942871
sg22
g32
sg52
g1686
sg51
g95
sg50
VSentivo "puto" di nuovo
p1895
sS'trials.thisRepN'
p1896
I0
sg59
g76
sg55
g77
sg56
g179
sg15
S'space'
p1897
sS'trials.thisN'
p1898
I135
sg53
g81
sg58
g82
sg49
g23
(g66
S'#\x00\x00\x00\x00\x00\x00\x00'
p1899
tp1900
Rp1901
sS'trials.thisTrialN'
p1902
I135
sg54
g186
sg20
g21
sg34
g39
sg57
g109
sg33
g12
sa(dp1903
S'trials.thisIndex'
p1904
g23
(g66
S'6\x00\x00\x00\x00\x00\x00\x00'
p1905
tp1906
Rp1907
sg16
F1.1700620651245117
sg22
g32
sg52
g1541
sg51
g95
sg50
VSentivo "puco" di nuovo
p1908
sS'trials.thisRepN'
p1909
I0
sg59
g98
sg55
g99
sg56
g179
sg15
S'space'
p1910
sS'trials.thisN'
p1911
I136
sg53
g81
sg58
g82
sg49
g23
(g66
S'7\x00\x00\x00\x00\x00\x00\x00'
p1912
tp1913
Rp1914
sS'trials.thisTrialN'
p1915
I136
sg54
g186
sg20
g21
sg34
g39
sg57
g109
sg33
g12
sa(dp1916
S'trials.thisIndex'
p1917
g23
(g66
S'\x81\x00\x00\x00\x00\x00\x00\x00'
p1918
tp1919
Rp1920
sg16
F1.3191139698028564
sg22
g32
sg52
g414
sg51
g149
sg50
VHa detto "copo" sei volte
p1921
sS'trials.thisRepN'
p1922
I0
sg59
g136
sg55
g81
sg56
g179
sg15
S'space'
p1923
sS'trials.thisN'
p1924
I137
sg53
g99
sg58
g103
sg49
g23
(g66
S'\x82\x00\x00\x00\x00\x00\x00\x00'
p1925
tp1926
Rp1927
sS'trials.thisTrialN'
p1928
I137
sg54
g242
sg20
g21
sg34
g39
sg57
g243
sg33
g12
sa(dp1929
S'trials.thisIndex'
p1930
g23
(g66
S'\x15\x00\x00\x00\x00\x00\x00\x00'
p1931
tp1932
Rp1933
sg16
F1.3032748699188232
sg22
g32
sg52
g72
sg51
g149
sg50
VHa detto "pato" sei volte
p1934
sS'trials.thisRepN'
p1935
I0
sg59
g76
sg55
g77
sg56
g78
sg15
S'space'
p1936
sS'trials.thisN'
p1937
I138
sg53
g81
sg58
g82
sg49
g23
(g66
S'\x16\x00\x00\x00\x00\x00\x00\x00'
p1938
tp1939
Rp1940
sS'trials.thisTrialN'
p1941
I138
sg54
g87
sg20
g21
sg34
g39
sg57
g88
sg33
g12
sa(dp1942
S'trials.thisIndex'
p1943
g23
(g66
S'R\x00\x00\x00\x00\x00\x00\x00'
p1944
tp1945
Rp1946
sg16
F3.252609968185425
sg22
g32
sg52
g115
sg51
g95
sg50
VSentivo "teto" di nuovo
p1947
sS'trials.thisRepN'
p1948
I0
sg59
g76
sg55
g77
sg56
g100
sg15
S'space'
p1949
sS'trials.thisN'
p1950
I139
sg53
g77
sg58
g120
sg49
g23
(g66
S'S\x00\x00\x00\x00\x00\x00\x00'
p1951
tp1952
Rp1953
sS'trials.thisTrialN'
p1954
I139
sg54
g125
sg20
g21
sg34
g39
sg57
g126
sg33
g12
sa(dp1955
S'trials.thisIndex'
p1956
g23
(g66
S'&\x00\x00\x00\x00\x00\x00\x00'
p1957
tp1958
Rp1959
sg16
F1.1859829425811768
sg22
g32
sg52
g263
sg51
g95
sg50
VSentivo "paco" di nuovo
p1960
sS'trials.thisRepN'
p1961
I0
sg59
g98
sg55
g99
sg56
g78
sg15
S'space'
p1962
sS'trials.thisN'
p1963
I140
sg53
g81
sg58
g82
sg49
g23
(g66
S"'\x00\x00\x00\x00\x00\x00\x00"
p1964
tp1965
Rp1966
sS'trials.thisTrialN'
p1967
I140
sg54
g87
sg20
g21
sg34
g39
sg57
g88
sg33
g12
sa(dp1968
S'trials.thisIndex'
p1969
g23
(g66
S'\x10\x00\x00\x00\x00\x00\x00\x00'
p1970
tp1971
Rp1972
sg16
F1.3847789764404297
sg22
g32
sg52
g277
sg51
g73
sg50
VScrivete "pupo" sul foglio
p1973
sS'trials.thisRepN'
p1974
I0
sg59
g136
sg55
g81
sg56
g179
sg15
S'space'
p1975
sS'trials.thisN'
p1976
I141
sg53
g81
sg58
g82
sg49
g23
(g66
S'\x11\x00\x00\x00\x00\x00\x00\x00'
p1977
tp1978
Rp1979
sS'trials.thisTrialN'
p1980
I141
sg54
g186
sg20
g21
sg34
g39
sg57
g109
sg33
g12
sa(dp1981
S'trials.thisIndex'
p1982
g23
(g66
S'\x01\x00\x00\x00\x00\x00\x00\x00'
p1983
tp1984
Rp1985
sg16
F1.2031149864196777
sg22
g32
sg52
g132
sg51
g149
sg50
VHa detto "papo" sei volte
p1986
sS'trials.thisRepN'
p1987
I0
sg59
g136
sg55
g81
sg56
g78
sg15
S'space'
p1988
sS'trials.thisN'
p1989
I142
sg53
g81
sg58
g82
sg49
g23
(g66
S'\x02\x00\x00\x00\x00\x00\x00\x00'
p1990
tp1991
Rp1992
sS'trials.thisTrialN'
p1993
I142
sg54
g87
sg20
g21
sg34
g39
sg57
g88
sg33
g12
sa(dp1994
S'trials.thisIndex'
p1995
g23
(g66
S'[\x00\x00\x00\x00\x00\x00\x00'
p1996
tp1997
Rp1998
sg16
F1.2543268203735352
sg22
g32
sg52
g1228
sg51
g133
sg50
VRipete "toto" da sempre
p1999
sS'trials.thisRepN'
p2000
I0
sg59
g76
sg55
g77
sg56
g179
sg15
S'space'
p2001
sS'trials.thisN'
p2002
I143
sg53
g77
sg58
g120
sg49
g23
(g66
S'\\\x00\x00\x00\x00\x00\x00\x00'
p2003
tp2004
Rp2005
sS'trials.thisTrialN'
p2006
I143
sg54
g242
sg20
g21
sg34
g39
sg57
g243
sg33
g12
sa(dp2007
S'trials.thisIndex'
p2008
g23
(g66
S'\x86\x00\x00\x00\x00\x00\x00\x00'
p2009
tp2010
Rp2011
sg16
F1.1348631381988525
sg22
g32
sg52
g578
sg51
g95
sg50
VSentivo "cupo" di nuovo
p2012
sS'trials.thisRepN'
p2013
I0
sg59
g136
sg55
g81
sg56
g179
sg15
S'space'
p2014
sS'trials.thisN'
p2015
I144
sg53
g99
sg58
g103
sg49
g23
(g66
S'\x87\x00\x00\x00\x00\x00\x00\x00'
p2016
tp2017
Rp2018
sS'trials.thisTrialN'
p2019
I144
sg54
g186
sg20
g21
sg34
g39
sg57
g109
sg33
g12
sa(dp2020
S'trials.thisIndex'
p2021
g23
(g66
S'\r\x00\x00\x00\x00\x00\x00\x00'
p2022
tp2023
Rp2024
sg16
F1.0014162063598633
sg22
g32
sg52
g1004
sg51
g149
sg50
VHa detto "popo" sei volte
p2025
sS'trials.thisRepN'
p2026
I0
sg59
g136
sg55
g81
sg56
g179
sg15
S'space'
p2027
sS'trials.thisN'
p2028
I145
sg53
g81
sg58
g82
sg49
g23
(g66
S'\x0e\x00\x00\x00\x00\x00\x00\x00'
p2029
tp2030
Rp2031
sS'trials.thisTrialN'
p2032
I145
sg54
g242
sg20
g21
sg34
g39
sg57
g243
sg33
g12
sa(dp2033
S'trials.thisIndex'
p2034
g23
(g66
S'\x1f\x00\x00\x00\x00\x00\x00\x00'
p2035
tp2036
Rp2037
sg16
F1.4538090229034424
sg22
g32
sg52
g1032
sg51
g133
sg50
VRipete "poto" da sempre
p2038
sS'trials.thisRepN'
p2039
I0
sg59
g76
sg55
g77
sg56
g179
sg15
S'space'
p2040
sS'trials.thisN'
p2041
I146
sg53
g81
sg58
g82
sg49
g23
(g66
S' \x00\x00\x00\x00\x00\x00\x00'
p2042
tp2043
Rp2044
sS'trials.thisTrialN'
p2045
I146
sg54
g242
sg20
g21
sg34
g39
sg57
g243
sg33
g12
sa(dp2046
S'trials.thisIndex'
p2047
g23
(g66
S'\xa7\x00\x00\x00\x00\x00\x00\x00'
p2048
tp2049
Rp2050
sg16
F1.2695651054382324
sg22
g32
sg52
g522
sg51
g133
sg50
VRipete "coco" da sempre
p2051
sS'trials.thisRepN'
p2052
I0
sg59
g98
sg55
g99
sg56
g179
sg15
S'space'
p2053
sS'trials.thisN'
p2054
I147
sg53
g99
sg58
g103
sg49
g23
(g66
S'\xa8\x00\x00\x00\x00\x00\x00\x00'
p2055
tp2056
Rp2057
sS'trials.thisTrialN'
p2058
I147
sg54
g242
sg20
g21
sg34
g39
sg57
g243
sg33
g12
sa(dp2059
S'trials.thisIndex'
p2060
g23
(g66
S'Q\x00\x00\x00\x00\x00\x00\x00'
p2061
tp2062
Rp2063
sg16
F1.220108985900879
sg22
g32
sg52
g115
sg51
g149
sg50
VHa detto "teto" sei volte
p2064
sS'trials.thisRepN'
p2065
I0
sg59
g76
sg55
g77
sg56
g100
sg15
S'space'
p2066
sS'trials.thisN'
p2067
I148
sg53
g77
sg58
g120
sg49
g23
(g66
S'R\x00\x00\x00\x00\x00\x00\x00'
p2068
tp2069
Rp2070
sS'trials.thisTrialN'
p2071
I148
sg54
g125
sg20
g21
sg34
g39
sg57
g126
sg33
g12
sa(dp2072
S'trials.thisIndex'
p2073
g23
(g66
S'\x18\x00\x00\x00\x00\x00\x00\x00'
p2074
tp2075
Rp2076
sg16
F1.3843538761138916
sg22
g32
sg52
g319
sg51
g73
sg50
VScrivete "pito" sul foglio
p2077
sS'trials.thisRepN'
p2078
I0
sg59
g76
sg55
g77
sg56
g100
sg15
S'space'
p2079
sS'trials.thisN'
p2080
I149
sg53
g81
sg58
g82
sg49
g23
(g66
S'\x19\x00\x00\x00\x00\x00\x00\x00'
p2081
tp2082
Rp2083
sS'trials.thisTrialN'
p2084
I149
sg54
g108
sg20
g21
sg34
g39
sg57
g109
sg33
g12
sa(dp2085
S'trials.thisIndex'
p2086
g23
(g66
S'\x08\x00\x00\x00\x00\x00\x00\x00'
p2087
tp2088
Rp2089
sg16
F4.402878046035767
sg22
g32
sg52
g333
sg51
g73
sg50
VScrivete "pipo" sul foglio
p2090
sS'trials.thisRepN'
p2091
I0
sg59
g136
sg55
g81
sg56
g100
sg15
S'space'
p2092
sS'trials.thisN'
p2093
I150
sg53
g81
sg58
g82
sg49
g23
(g66
S'\t\x00\x00\x00\x00\x00\x00\x00'
p2094
tp2095
Rp2096
sS'trials.thisTrialN'
p2097
I150
sg54
g108
sg20
g21
sg34
g39
sg57
g109
sg33
g12
sa(dp2098
S'trials.thisIndex'
p2099
g23
(g66
S'`\x00\x00\x00\x00\x00\x00\x00'
p2100
tp2101
Rp2102
sg16
F1.334745168685913
sg22
g32
sg52
g1607
sg51
g73
sg50
VScrivete "taco" sul foglio
p2103
sS'trials.thisRepN'
p2104
I0
sg59
g98
sg55
g99
sg56
g78
sg15
S'space'
p2105
sS'trials.thisN'
p2106
I151
sg53
g77
sg58
g120
sg49
g23
(g66
S'a\x00\x00\x00\x00\x00\x00\x00'
p2107
tp2108
Rp2109
sS'trials.thisTrialN'
p2110
I151
sg54
g87
sg20
g21
sg34
g39
sg57
g88
sg33
g12
sa(dp2111
S'trials.thisIndex'
p2112
g23
(g66
S'\x82\x00\x00\x00\x00\x00\x00\x00'
p2113
tp2114
Rp2115
sg16
F1.2027840614318848
sg22
g32
sg52
g414
sg51
g95
sg50
VSentivo "copo" di nuovo
p2116
sS'trials.thisRepN'
p2117
I0
sg59
g136
sg55
g81
sg56
g179
sg15
S'space'
p2118
sS'trials.thisN'
p2119
I152
sg53
g99
sg58
g103
sg49
g23
(g66
S'\x83\x00\x00\x00\x00\x00\x00\x00'
p2120
tp2121
Rp2122
sS'trials.thisTrialN'
p2123
I152
sg54
g242
sg20
g21
sg34
g39
sg57
g243
sg33
g12
sa(dp2124
S'trials.thisIndex'
p2125
g23
(g66
S'\x89\x00\x00\x00\x00\x00\x00\x00'
p2126
tp2127
Rp2128
sg16
F1.2030987739562988
sg22
g32
sg52
g387
sg51
g149
sg50
VHa detto "cato" sei volte
p2129
sS'trials.thisRepN'
p2130
I0
sg59
g76
sg55
g77
sg56
g78
sg15
S'space'
p2131
sS'trials.thisN'
p2132
I153
sg53
g99
sg58
g103
sg49
g23
(g66
S'\x8a\x00\x00\x00\x00\x00\x00\x00'
p2133
tp2134
Rp2135
sS'trials.thisTrialN'
p2136
I153
sg54
g87
sg20
g21
sg34
g39
sg57
g88
sg33
g12
sa(dp2137
S'trials.thisIndex'
p2138
g23
(g66
S'5\x00\x00\x00\x00\x00\x00\x00'
p2139
tp2140
Rp2141
sg16
F1.1693050861358643
sg22
g32
sg52
g1541
sg51
g149
sg50
VHa detto "puco" sei volte
p2142
sS'trials.thisRepN'
p2143
I0
sg59
g98
sg55
g99
sg56
g179
sg15
S'space'
p2144
sS'trials.thisN'
p2145
I154
sg53
g81
sg58
g82
sg49
g23
(g66
S'6\x00\x00\x00\x00\x00\x00\x00'
p2146
tp2147
Rp2148
sS'trials.thisTrialN'
p2149
I154
sg54
g186
sg20
g21
sg34
g39
sg57
g109
sg33
g12
sa(dp2150
S'trials.thisIndex'
p2151
g23
(g66
S'o\x00\x00\x00\x00\x00\x00\x00'
p2152
tp2153
Rp2154
sg16
F1.1530330181121826
sg22
g32
sg52
g482
sg51
g133
sg50
VRipete "toco" da sempre
p2155
sS'trials.thisRepN'
p2156
I0
sg59
g98
sg55
g99
sg56
g179
sg15
S'space'
p2157
sS'trials.thisN'
p2158
I155
sg53
g77
sg58
g120
sg49
g23
(g66
S'p\x00\x00\x00\x00\x00\x00\x00'
p2159
tp2160
Rp2161
sS'trials.thisTrialN'
p2162
I155
sg54
g242
sg20
g21
sg34
g39
sg57
g243
sg33
g12
sa(dp2163
S'trials.thisIndex'
p2164
g23
(g66
S'\x9a\x00\x00\x00\x00\x00\x00\x00'
p2165
tp2166
Rp2167
sg16
F1.337834119796753
sg22
g32
sg52
g249
sg51
g95
sg50
VSentivo "cuto" di nuovo
p2168
sS'trials.thisRepN'
p2169
I0
sg59
g76
sg55
g77
sg56
g179
sg15
S'space'
p2170
sS'trials.thisN'
p2171
I156
sg53
g99
sg58
g103
sg49
g23
(g66
S'\x9b\x00\x00\x00\x00\x00\x00\x00'
p2172
tp2173
Rp2174
sS'trials.thisTrialN'
p2175
I156
sg54
g186
sg20
g21
sg34
g39
sg57
g109
sg33
g12
sa(dp2176
S'trials.thisIndex'
p2177
g23
(g66
S'c\x00\x00\x00\x00\x00\x00\x00'
p2178
tp2179
Rp2180
sg16
F1.2185640335083008
sg22
g32
sg52
g1607
sg51
g133
sg50
VRipete "taco" da sempre
p2181
sS'trials.thisRepN'
p2182
I0
sg59
g98
sg55
g99
sg56
g78
sg15
S'space'
p2183
sS'trials.thisN'
p2184
I157
sg53
g77
sg58
g120
sg49
g23
(g66
S'd\x00\x00\x00\x00\x00\x00\x00'
p2185
tp2186
Rp2187
sS'trials.thisTrialN'
p2188
I157
sg54
g87
sg20
g21
sg34
g39
sg57
g88
sg33
g12
sa(dp2189
S'trials.thisIndex'
p2190
g23
(g66
S'\x92\x00\x00\x00\x00\x00\x00\x00'
p2191
tp2192
Rp2193
sg16
F1.0504710674285889
sg22
g32
sg52
g925
sg51
g95
sg50
VSentivo "chito" di nuovo
p2194
sS'trials.thisRepN'
p2195
I0
sg59
g76
sg55
g77
sg56
g100
sg15
S'space'
p2196
sS'trials.thisN'
p2197
I158
sg53
g99
sg58
g103
sg49
g23
(g66
S'\x93\x00\x00\x00\x00\x00\x00\x00'
p2198
tp2199
Rp2200
sS'trials.thisTrialN'
p2201
I158
sg54
g108
sg20
g21
sg34
g39
sg57
g109
sg33
g12
sa(dp2202
S'trials.thisIndex'
p2203
g23
(g66
S'V\x00\x00\x00\x00\x00\x00\x00'
p2204
tp2205
Rp2206
sg16
F1.0853538513183594
sg22
g32
sg52
g698
sg51
g95
sg50
VSentivo "tito" di nuovo
p2207
sS'trials.thisRepN'
p2208
I0
sg59
g76
sg55
g77
sg56
g100
sg15
S'space'
p2209
sS'trials.thisN'
p2210
I159
sg53
g77
sg58
g120
sg49
g23
(g66
S'W\x00\x00\x00\x00\x00\x00\x00'
p2211
tp2212
Rp2213
sS'trials.thisTrialN'
p2214
I159
sg54
g108
sg20
g21
sg34
g39
sg57
g109
sg33
g12
sa(dp2215
S'trials.thisIndex'
p2216
g23
(g66
S'\x88\x00\x00\x00\x00\x00\x00\x00'
p2217
tp2218
Rp2219
sg16
F1.3695337772369385
sg22
g32
sg52
g387
sg51
g73
sg50
VScrivete "cato" sul foglio
p2220
sS'trials.thisRepN'
p2221
I0
sg59
g76
sg55
g77
sg56
g78
sg15
S'space'
p2222
sS'trials.thisN'
p2223
I160
sg53
g99
sg58
g103
sg49
g23
(g66
S'\x89\x00\x00\x00\x00\x00\x00\x00'
p2224
tp2225
Rp2226
sS'trials.thisTrialN'
p2227
I160
sg54
g87
sg20
g21
sg34
g39
sg57
g88
sg33
g12
sa(dp2228
S'trials.thisIndex'
p2229
g23
(g66
S'\x8e\x00\x00\x00\x00\x00\x00\x00'
p2230
tp2231
Rp2232
sg16
F1.1031172275543213
sg22
g32
sg52
g550
sg51
g95
sg50
VSentivo "cheto" di nuovo
p2233
sS'trials.thisRepN'
p2234
I0
sg59
g76
sg55
g77
sg56
g100
sg15
S'space'
p2235
sS'trials.thisN'
p2236
I161
sg53
g99
sg58
g103
sg49
g23
(g66
S'\x8f\x00\x00\x00\x00\x00\x00\x00'
p2237
tp2238
Rp2239
sS'trials.thisTrialN'
p2240
I161
sg54
g125
sg20
g21
sg34
g39
sg57
g126
sg33
g12
sa(dp2241
S'trials.thisIndex'
p2242
g23
(g66
S'k\x00\x00\x00\x00\x00\x00\x00'
p2243
tp2244
Rp2245
sg16
F3.1190710067749023
sg22
g32
sg52
g441
sg51
g133
sg50
VRipete "tico" da sempre
p2246
sS'trials.thisRepN'
p2247
I0
sg59
g98
sg55
g99
sg56
g100
sg15
S'space'
p2248
sS'trials.thisN'
p2249
I162
sg53
g77
sg58
g120
sg49
g23
(g66
S'l\x00\x00\x00\x00\x00\x00\x00'
p2250
tp2251
Rp2252
sS'trials.thisTrialN'
p2253
I162
sg54
g108
sg20
g21
sg34
g39
sg57
g109
sg33
g12
sa(dp2254
S'trials.thisIndex'
p2255
g23
(g66
S'^\x00\x00\x00\x00\x00\x00\x00'
p2256
tp2257
Rp2258
sg16
F1.017266035079956
sg22
g32
sg52
g468
sg51
g95
sg50
VSentivo "tuto" di nuovo
p2259
sS'trials.thisRepN'
p2260
I0
sg59
g76
sg55
g77
sg56
g179
sg15
S'space'
p2261
sS'trials.thisN'
p2262
I163
sg53
g77
sg58
g120
sg49
g23
(g66
S'_\x00\x00\x00\x00\x00\x00\x00'
p2263
tp2264
Rp2265
sS'trials.thisTrialN'
p2266
I163
sg54
g186
sg20
g21
sg34
g39
sg57
g109
sg33
g12
sa(dp2267
S'trials.thisIndex'
p2268
g23
(g66
S'J\x00\x00\x00\x00\x00\x00\x00'
p2269
tp2270
Rp2271
sg16
F4.921406984329224
sg22
g32
sg52
g536
sg51
g95
sg50
VSentivo "tupo" di nuovo
p2272
sS'trials.thisRepN'
p2273
I0
sg59
g136
sg55
g81
sg56
g179
sg15
S'space'
p2274
sS'trials.thisN'
p2275
I164
sg53
g77
sg58
g120
sg49
g23
(g66
S'K\x00\x00\x00\x00\x00\x00\x00'
p2276
tp2277
Rp2278
sS'trials.thisTrialN'
p2279
I164
sg54
g186
sg20
g21
sg34
g39
sg57
g109
sg33
g12
sa(dp2280
S'trials.thisIndex'
p2281
g23
(g66
S'u\x00\x00\x00\x00\x00\x00\x00'
p2282
tp2283
Rp2284
sg16
F1.5696918964385986
sg22
g32
sg52
g1018
sg51
g149
sg50
VHa detto "capo" sei volte
p2285
sS'trials.thisRepN'
p2286
I0
sg59
g136
sg55
g81
sg56
g78
sg15
S'space'
p2287
sS'trials.thisN'
p2288
I165
sg53
g99
sg58
g103
sg49
g23
(g66
S'v\x00\x00\x00\x00\x00\x00\x00'
p2289
tp2290
Rp2291
sS'trials.thisTrialN'
p2292
I165
sg54
g87
sg20
g21
sg34
g39
sg57
g88
sg33
g12
sa(dp2293
S'trials.thisIndex'
p2294
g23
(g66
S'\x05\x00\x00\x00\x00\x00\x00\x00'
p2295
tp2296
Rp2297
sg16
F1.5692310333251953
sg22
g32
sg52
g846
sg51
g149
sg50
VHa detto "pepo" sei volte
p2298
sS'trials.thisRepN'
p2299
I0
sg59
g136
sg55
g81
sg56
g100
sg15
S'space'
p2300
sS'trials.thisN'
p2301
I166
sg53
g81
sg58
g82
sg49
g23
(g66
S'\x06\x00\x00\x00\x00\x00\x00\x00'
p2302
tp2303
Rp2304
sS'trials.thisTrialN'
p2305
I166
sg54
g125
sg20
g21
sg34
g39
sg57
g126
sg33
g12
sa(dp2306
S'trials.thisIndex'
p2307
g23
(g66
S'2\x00\x00\x00\x00\x00\x00\x00'
p2308
tp2309
Rp2310
sg16
F1.3346660137176514
sg22
g32
sg52
g753
sg51
g95
sg50
VSentivo "poco" di nuovo
p2311
sS'trials.thisRepN'
p2312
I0
sg59
g98
sg55
g99
sg56
g179
sg15
S'space'
p2313
sS'trials.thisN'
p2314
I167
sg53
g81
sg58
g82
sg49
g23
(g66
S'3\x00\x00\x00\x00\x00\x00\x00'
p2315
tp2316
Rp2317
sS'trials.thisTrialN'
p2318
I167
sg54
g242
sg20
g21
sg34
g39
sg57
g243
sg33
g12
sa(dp2319
S'trials.thisIndex'
p2320
g23
(g66
S'\x19\x00\x00\x00\x00\x00\x00\x00'
p2321
tp2322
Rp2323
sg16
F1.5693719387054443
sg22
g32
sg52
g319
sg51
g149
sg50
VHa detto "pito" sei volte
p2324
sS'trials.thisRepN'
p2325
I0
sg59
g76
sg55
g77
sg56
g100
sg15
S'space'
p2326
sS'trials.thisN'
p2327
I168
sg53
g81
sg58
g82
sg49
g23
(g66
S'\x1a\x00\x00\x00\x00\x00\x00\x00'
p2328
tp2329
Rp2330
sS'trials.thisTrialN'
p2331
I168
sg54
g108
sg20
g21
sg34
g39
sg57
g109
sg33
g12
sa(dp2332
S'trials.thisIndex'
p2333
g23
(g66
S'\x13\x00\x00\x00\x00\x00\x00\x00'
p2334
tp2335
Rp2336
sg16
F1.3542330265045166
sg22
g32
sg52
g277
sg51
g133
sg50
VRipete "pupo" da sempre
p2337
sS'trials.thisRepN'
p2338
I0
sg59
g136
sg55
g81
sg56
g179
sg15
S'space'
p2339
sS'trials.thisN'
p2340
I169
sg53
g81
sg58
g82
sg49
g23
(g66
S'\x14\x00\x00\x00\x00\x00\x00\x00'
p2341
tp2342
Rp2343
sS'trials.thisTrialN'
p2344
I169
sg54
g186
sg20
g21
sg34
g39
sg57
g109
sg33
g12
sa(dp2345
S'trials.thisIndex'
p2346
g23
(g66
S'%\x00\x00\x00\x00\x00\x00\x00'
p2347
tp2348
Rp2349
sg16
F1.2696750164031982
sg22
g32
sg52
g263
sg51
g149
sg50
VHa detto "paco" sei volte
p2350
sS'trials.thisRepN'
p2351
I0
sg59
g98
sg55
g99
sg56
g78
sg15
S'space'
p2352
sS'trials.thisN'
p2353
I170
sg53
g81
sg58
g82
sg49
g23
(g66
S'&\x00\x00\x00\x00\x00\x00\x00'
p2354
tp2355
Rp2356
sS'trials.thisTrialN'
p2357
I170
sg54
g87
sg20
g21
sg34
g39
sg57
g88
sg33
g12
sa(dp2358
S'trials.thisIndex'
p2359
g23
(g66
S'b\x00\x00\x00\x00\x00\x00\x00'
p2360
tp2361
Rp2362
sg16
F2.1537230014801025
sg22
g32
sg52
g1607
sg51
g95
sg50
VSentivo "taco" di nuovo
p2363
sS'trials.thisRepN'
p2364
I0
sg59
g98
sg55
g99
sg56
g78
sg15
S'space'
p2365
sS'trials.thisN'
p2366
I171
sg53
g77
sg58
g120
sg49
g23
(g66
S'c\x00\x00\x00\x00\x00\x00\x00'
p2367
tp2368
Rp2369
sS'trials.thisTrialN'
p2370
I171
sg54
g87
sg20
g21
sg34
g39
sg57
g88
sg33
g12
sasS'loops'
p2371
(lp2372
g0
(cpsychopy.data.trial
TrialHandler
p2373
g2
Ntp2374
Rp2375
(dp2376
S'origin'
p2377
NsS'thisTrial'
p2378
(lp2379
sS'_exp'
p2380
I4628033360
sg11
S'trials'
p2381
sg6
I-1
sS'thisRepN'
p2382
I1
sg17
I01
sg18
g19
sS'data'
p2383
g0
(cpsychopy.data.base
DataHandler
p2384
c__builtin__
dict
p2385
(dp2386
S'ran'
p2387
cnumpy.ma.core
_mareconstruct
p2388
(cnumpy.ma.core
MaskedArray
p2389
cnumpy
ndarray
p2390
(I0
tp2391
S'b'
p2392
tp2393
Rp2394
(I1
(I172
I1
tp2395
g24
(S'f4'
p2396
I0
I1
tp2397
Rp2398
(I3
S'<'
p2399
NNNI-1
I-1
I0
tp2400
bI00
S'\x00\x00\x80?\x00\x00\x80?\x00\x00\x80?\x00\x00\x80?\x00\x00\x80?\x00\x00\x80?\x00\x00\x80?\x00\x00\x80?\x00\x00\x80?\x00\x00\x80?\x00\x00\x80?\x00\x00\x80?\x00\x00\x80?\x00\x00\x80?\x00\x00\x80?\x00\x00\x80?\x00\x00\x80?\x00\x00\x80?\x00\x00\x80?\x00\x00\x80?\x00\x00\x80?\x00\x00\x80?\x00\x00\x80?\x00\x00\x80?\x00\x00\x80?\x00\x00\x80?\x00\x00\x80?\x00\x00\x80?\x00\x00\x80?\x00\x00\x80?\x00\x00\x80?\x00\x00\x80?\x00\x00\x80?\x00\x00\x80?\x00\x00\x80?\x00\x00\x80?\x00\x00\x80?\x00\x00\x80?\x00\x00\x80?\x00\x00\x80?\x00\x00\x80?\x00\x00\x80?\x00\x00\x80?\x00\x00\x80?\x00\x00\x80?\x00\x00\x80?\x00\x00\x80?\x00\x00\x80?\x00\x00\x80?\x00\x00\x80?\x00\x00\x80?\x00\x00\x80?\x00\x00\x80?\x00\x00\x80?\x00\x00\x80?\x00\x00\x80?\x00\x00\x80?\x00\x00\x80?\x00\x00\x80?\x00\x00\x80?\x00\x00\x80?\x00\x00\x80?\x00\x00\x80?\x00\x00\x80?\x00\x00\x80?\x00\x00\x80?\x00\x00\x80?\x00\x00\x80?\x00\x00\x80?\x00\x00\x80?\x00\x00\x80?\x00\x00\x80?\x00\x00\x80?\x00\x00\x80?\x00\x00\x80?\x00\x00\x80?\x00\x00\x80?\x00\x00\x80?\x00\x00\x80?\x00\x00\x80?\x00\x00\x80?\x00\x00\x80?\x00\x00\x80?\x00\x00\x80?\x00\x00\x80?\x00\x00\x80?\x00\x00\x80?\x00\x00\x80?\x00\x00\x80?\x00\x00\x80?\x00\x00\x80?\x00\x00\x80?\x00\x00\x80?\x00\x00\x80?\x00\x00\x80?\x00\x00\x80?\x00\x00\x80?\x00\x00\x80?\x00\x00\x80?\x00\x00\x80?\x00\x00\x80?\x00\x00\x80?\x00\x00\x80?\x00\x00\x80?\x00\x00\x80?\x00\x00\x80?\x00\x00\x80?\x00\x00\x80?\x00\x00\x80?\x00\x00\x80?\x00\x00\x80?\x00\x00\x80?\x00\x00\x80?\x00\x00\x80?\x00\x00\x80?\x00\x00\x80?\x00\x00\x80?\x00\x00\x80?\x00\x00\x80?\x00\x00\x80?\x00\x00\x80?\x00\x00\x80?\x00\x00\x80?\x00\x00\x80?\x00\x00\x80?\x00\x00\x80?\x00\x00\x80?\x00\x00\x80?\x00\x00\x80?\x00\x00\x80?\x00\x00\x80?\x00\x00\x80?\x00\x00\x80?\x00\x00\x80?\x00\x00\x80?\x00\x00\x80?\x00\x00\x80?\x00\x00\x80?\x00\x00\x80?\x00\x00\x80?\x00\x00\x80?\x00\x00\x80?\x00\x00\x80?\x00\x00\x80?\x00\x00\x80?\x00\x00\x80?\x00\x00\x80?\x00\x00\x80?\x00\x00\x80?\x00\x00\x80?\x00\x00\x80?\x00\x00\x80?\x00\x00\x80?\x00\x00\x80?\x00\x00\x80?\x00\x00\x80?\x00\x00\x80?\x00\x00\x80?\x00\x00\x80?\x00\x00\x80?\x00\x00\x80?\x00\x00\x80?\x00\x00\x80?\x00\x00\x80?\x00\x00\x80?\x00\x00\x80?\x00\x00\x80?\x00\x00\x80?\x00\x00\x80?\x00\x00\x80?\x00\x00\x80?\x00\x00\x80?'
p2401
S'\x00\x00\x00\x00\x00\x00\x00\x00\x00\x00\x00\x00\x00\x00\x00\x00\x00\x00\x00\x00\x00\x00\x00\x00\x00\x00\x00\x00\x00\x00\x00\x00\x00\x00\x00\x00\x00\x00\x00\x00\x00\x00\x00\x00\x00\x00\x00\x00\x00\x00\x00\x00\x00\x00\x00\x00\x00\x00\x00\x00\x00\x00\x00\x00\x00\x00\x00\x00\x00\x00\x00\x00\x00\x00\x00\x00\x00\x00\x00\x00\x00\x00\x00\x00\x00\x00\x00\x00\x00\x00\x00\x00\x00\x00\x00\x00\x00\x00\x00\x00\x00\x00\x00\x00\x00\x00\x00\x00\x00\x00\x00\x00\x00\x00\x00\x00\x00\x00\x00\x00\x00\x00\x00\x00\x00\x00\x00\x00\x00\x00\x00\x00\x00\x00\x00\x00\x00\x00\x00\x00\x00\x00\x00\x00\x00\x00\x00\x00\x00\x00\x00\x00\x00\x00\x00\x00\x00\x00\x00\x00\x00\x00\x00\x00\x00\x00\x00\x00\x00\x00\x00\x00'
p2402
Ntp2403
bsg16
g2388
(g2389
g2390
g2391
g2392
tp2404
Rp2405
(I1
(I172
I1
tp2406
g2398
I00
S"\nM\xbc?\xac\xff\x99?B\x08\x9e?.\xb9\x91@l\x05\x8d?\x90\xdc\xc8?\\\xc5\xa6?\xeer\xb1?`\xe4\x8c@\xc6\xff\xb7?T>\xbc?\xf0i\xa0?x\xca\xa6?h.\x80?\xc2H\x91?\x04\xa2\xb7?p@\xb1?<\x02\xbc?\x98\xf3\xae?\x82W\xad?*\x8b5@\xb6\xd1\xa6?)\xb2\x07@V+\xad?\x822\xb1?.\xe1\xc8?N\x98\x88@\xa3\xcd\x8a@h\xaa\xb3?\xba\xf4\xbb?\xf6K\xbe?j\x16\xba?\xf4\xa7\xb3?Z\xbc\xc4?\x18\x1dx?bO\xaf?\xa6\xdb\xca?\xb6\x84\xa2?J\xce\x97?$\xb9\xc6?\xf6{\xc0?\xbef\xb1?\xa0\x9c\xa6?\xf4.\x9c?FT\xc0?\xec\xb9\xc6?N\xa1\x97?N\xd0\xa4?\xe4\x82\xd1?\xbc\xe9\xaa?V\xd6\xaa?~9\xad?\x80\xf9\xca?\xca\xab\x95?\x98\xc4\x95?:&\xaf?X\xfd\xbb?\xc0'\xbe?\xce\x11\xab?h\x95\xb3?\xa6x\xa2?\x80\x98\xc4?\xf7\x02l@\x9e\xb2\x80@\xa6\x9a\xb5?2$\xb1?V&\x9e?\xc8\xa9\xd5?\xca\xc4\xb7?x\xe6\x99?rV\xa0?\x82X\x9e?\xd4m\xd1?\xb2F\xcf?*|\x9d@\xb6\xd3\xa8?\xec\xa7\xb7?:y\xb3?\xbc\xb6\x95?\xcas\xb1?>\x03\x96@\x88,\x9c?\xc3*P@\x92\x03<@z>\xad?\x1a\x18\xaf?\xe0\xec\x8a?\x9e\xe3\xb7?r\xbc\xa6?\xf4U\xc6?\xf8\xac\x95?\xc8\x8d\xa0?JA\xb1@\xber\xd1?\xc65\x82?bi\xa0?\xee\xd8\xaa?\x8a6\xa4A\x99\xd6\t@\xe8\xf9\x9b?:\xb5\xb3?\x88\xf1\xc8?\x1e\xe5\xa8?(H\x9e?T\x11\xd8?\xc6\x11\xcb?\xa0Y\xa2?\xdc\x9eG@\xcc\x06\xa9?\xfc\x92\xb5?\xeb\xe2\x83@\x96\x96\x93?\xf2\x99\xa8?\xbc<\xad?\x10\x8f\xa2?H\xc1\x19@x\x12\xcd?\xaa\xeb\xc8?\xbe\x0e\x9c?z\x1b\xad?\xce\xa5\xc4?D\x88\x95?\xd3j3@\x8a\x86\x86@\xee[\xd1?\xdb5\x00@\x12l\xa4?\xc6\xffk@\xdc\xee\xb7?\xba\xd8\xa8?\xd4\xf4\x99?X\x92\xa4?\xee\xf6\xb9?\xaeY\xc0?2C\x91?\xe4+\xaf?\xe2L\xaf?$\xff\x99?\xd1ZQ@F\xd7\x99?R\xd3\xa8?\xd6\xe0\xb7?\xf22\x8d?V>\xb1?\xe0\x84\xc0?:\xea\xa8?\xd6u\x86?j\x86\xc2?@\x16\xc0?H\xbf\x97?\x08\xe2\xa8?\xa8\xf9\xa8?\x1ag\xd1?\x1a\xc8\xb7?&>\xab?4\x84\xb3?n!\xbe?\xd4\x1f\xad?'h\xeb@\xd4c\xb3?\xba\xf1\xe6?*\x1b\xba?^g\xd1?\x12\r\x9a?>9\xbe?\xaa\x81\xc2?\x8a\xb5\xa8?\x1c\x81\xa2?81\xbe?\x8c\xf8\xc8?d\x18\xab?\x94\xbf\xd5?"
p2407
S'\x00\x00\x00\x00\x00\x00\x00\x00\x00\x00\x00\x00\x00\x00\x00\x00\x00\x00\x00\x00\x00\x00\x00\x00\x00\x00\x00\x00\x00\x00\x00\x00\x00\x00\x00\x00\x00\x00\x00\x00\x00\x00\x00\x00\x00\x00\x00\x00\x00\x00\x00\x00\x00\x00\x00\x00\x00\x00\x00\x00\x00\x00\x00\x00\x00\x00\x00\x00\x00\x00\x00\x00\x00\x00\x00\x00\x00\x00\x00\x00\x00\x00\x00\x00\x00\x00\x00\x00\x00\x00\x00\x00\x00\x00\x00\x00\x00\x00\x00\x00\x00\x00\x00\x00\x00\x00\x00\x00\x00\x00\x00\x00\x00\x00\x00\x00\x00\x00\x00\x00\x00\x00\x00\x00\x00\x00\x00\x00\x00\x00\x00\x00\x00\x00\x00\x00\x00\x00\x00\x00\x00\x00\x00\x00\x00\x00\x00\x00\x00\x00\x00\x00\x00\x00\x00\x00\x00\x00\x00\x00\x00\x00\x00\x00\x00\x00\x00\x00\x00\x00\x00\x00'
p2408
Ntp2409
bsS'order'
p2410
g2388
(g2389
g2390
g2391
g2392
tp2411
Rp2412
(I1
(I172
I1
tp2413
g2398
I00
S'\x00\x00$B\x00\x00\x0eC\x00\x00\xf6B\x00\x00@@\x00\x00hB\x00\x00&C\x00\x00\xb0B\x00\x00\\B\x00\x00\x16C\x00\x00\xa2B\x00\x00\x88A\x00\x00 B\x00\x00\xaeB\x00\x00\x11C\x00\x00\x86B\x00\x00\xb4B\x00\x00\rC\x00\x00\x10B\x00\x00PA\x00\x00)C\x00\x00\x00\x00\x00\x00\nC\x00\x00\x90A\x00\x00pB\x00\x00\x15C\x00\x00(C\x00\x00TB\x00\x00\x80A\x00\x00\x8aB\x00\x00\xccB\x00\x00\xe4B\x00\x00\x12C\x00\x00\xf2B\x00\x00\xeeB\x00\x00\x07C\x00\x00\xfaB\x00\x00@A\x00\x00*C\x00\x00\x0cC\x00\x00\xdcB\x00\x00\x1cB\x00\x00\x03C\x00\x00\x02C\x00\x00\xfeB\x00\x00,B\x00\x00pA\x00\x00\x84B\x00\x00\x8eB\x00\x00@B\x00\x00\xdaB\x00\x00\'C\x00\x00\xb2B\x00\x00\xd8B\x00\x00\x1aC\x00\x00\x08C\x00\x00\xecB\x00\x00\xd0B\x00\x00\x9cB\x00\x00\xbeB\x00\x004B\x00\x00\xfcB\x00\x00`A\x00\x00<B\x00\x00\x8cB\x00\x008B\x00\x00\xb6B\x00\x00lB\x00\x00\xd2B\x00\x00 A\x00\x00\x94B\x00\x00\x90B\x00\x00\x05C\x00\x00\x14B\x00\x00\x00B\x00\x00$C\x00\x00XB\x00\x00LB\x00\x00\x10A\x00\x00\xf8B\x00\x00\xc0A\x00\x00\x00@\x00\x00\x14C\x00\x00\x0bC\x00\x00(B\x00\x00|B\x00\x000B\x00\x00\x1fC\x00\x00\xa4B\x00\x00\xc0B\x00\x00\xa8B\x00\x00\xd6B\x00\x00\x0fC\x00\x00\xcaB\x00\x00\xd8A\x00\x00#C\x00\x00\x01C\x00\x00\x17C\x00\x00\xe2B\x00\x00+C\x00\x00\x1dC\x00\x00\xd0A\x00\x00\xa0A\x00\x00\xaaB\x00\x00\xa6B\x00\x00\xf0A\x00\x00\xa0B\x00\x00\xc8A\x00\x00"C\x00\x00\xe0B\x00\x00\x9aB\x00\x00\xe0A\x00\x00\x1bC\x00\x00\x18B\x00\x00\x82B\x00\x00\xc8B\x00\x00\xdeB\x00\x00\xe6B\x00\x00%C\x00\x00\x88B\x00\x00\xf0B\x00\x00\x98B\x00\x00`B\x00\x00\x9eB\x00\x00\x08B\x00\x00\xa0@\x00\x00\x80@\x00\x00\x80B\x00\x00\x98A\x00\x00\xb8A\x00\x00\tC\x00\x00\x18C\x00\x00\x06C\x00\x00\xb8B\x00\x00\x0cB\x00\x00\x10C\x00\x00HB\x00\x00 C\x00\x00\x19C\x00\x00\xf4B\x00\x00\xa8A\x00\x00\x00C\x00\x00\x04B\x00\x00!C\x00\x00\xbcB\x00\x00\xceB\x00\x00tB\x00\x00\x1eC\x00\x00\x96B\x00\x00PB\x00\x00\x04C\x00\x00\xbaB\x00\x00\xc6B\x00\x00\xe8A\x00\x000A\x00\x00\x1cC\x00\x00\xc2B\x00\x00\x00A\x00\x00xB\x00\x00\x92B\x00\x00\xb0A\x00\x00\xd4B\x00\x00DB\x00\x00\x80?\x00\x00dB\x00\x00\xc4B\x00\x00\xf8A\x00\x00\xeaB\x00\x00\x13C\x00\x00\xacB\x00\x00\xe0@\x00\x00\xe8B\x00\x00\xc0@'
p2414
S'\x00\x00\x00\x00\x00\x00\x00\x00\x00\x00\x00\x00\x00\x00\x00\x00\x00\x00\x00\x00\x00\x00\x00\x00\x00\x00\x00\x00\x00\x00\x00\x00\x00\x00\x00\x00\x00\x00\x00\x00\x00\x00\x00\x00\x00\x00\x00\x00\x00\x00\x00\x00\x00\x00\x00\x00\x00\x00\x00\x00\x00\x00\x00\x00\x00\x00\x00\x00\x00\x00\x00\x00\x00\x00\x00\x00\x00\x00\x00\x00\x00\x00\x00\x00\x00\x00\x00\x00\x00\x00\x00\x00\x00\x00\x00\x00\x00\x00\x00\x00\x00\x00\x00\x00\x00\x00\x00\x00\x00\x00\x00\x00\x00\x00\x00\x00\x00\x00\x00\x00\x00\x00\x00\x00\x00\x00\x00\x00\x00\x00\x00\x00\x00\x00\x00\x00\x00\x00\x00\x00\x00\x00\x00\x00\x00\x00\x00\x00\x00\x00\x00\x00\x00\x00\x00\x00\x00\x00\x00\x00\x00\x00\x00\x00\x00\x00\x00\x00\x00\x00\x00\x00'
p2415
Ntp2416
bsg15
cnumpy.core.multiarray
_reconstruct
p2417
(g2390
(I0
tp2418
g2392
tp2419
Rp2420
(I1
(I172
I1
tp2421
g24
(S'O8'
p2422
I0
I1
tp2423
Rp2424
(I3
S'|'
p2425
NNNI-1
I-1
I63
tp2426
bI00
(lp2427
g661
ag1988
ag1741
ag137
ag888
ag2300
ag1283
ag849
ag2092
ag1191
ag336
ag648
ag1270
ag2027
ag1007
ag1309
ag1975
ag594
ag280
ag2339
ag79
ag1936
ag349
ag914
ag2079
ag2326
ag822
ag322
ag1035
ag1465
ag1623
ag2040
ag1715
ag1689
ag1897
ag1767
ag266
ag2352
ag1962
ag1570
ag635
ag1845
ag1832
ag1793
ag687
ag308
ag993
ag1061
ag756
ag1557
ag2313
ag1296
ag1544
ag2144
ag1910
ag1675
ag1491
ag1152
ag1374
ag715
ag1780
ag294
ag742
ag1048
ag729
ag1322
ag901
ag1504
ag236
ag1100
ag1074
ag1871
ag607
ag539
ag2274
ag835
ag795
ag222
ag1754
ag430
ag118
ag2066
ag1949
ag674
ag954
ag701
ag2209
ag1204
ag1387
ag1231
ag1530
ag2001
ag1452
ag471
ag2261
ag1819
ag2105
ag1610
ag2365
ag2183
ag457
ag376
ag1244
ag1217
ag511
ag1178
ag444
ag2248
ag1596
ag1139
ag485
ag2157
ag621
ag980
ag1439
ag1583
ag1636
ag2287
ag1021
ag1702
ag1126
ag862
ag1165
ag567
ag165
ag152
ag967
ag362
ag417
ag1923
ag2118
ag1884
ag1335
ag581
ag2014
ag782
ag2222
ag2131
ag1728
ag390
ag1806
ag553
ag2235
ag1361
ag1478
ag928
ag2196
ag1113
ag809
ag1858
ag1348
ag1426
ag498
ag252
ag2170
ag1400
ag208
ag941
ag1087
ag403
ag1517
ag769
ag101
ag875
ag1413
ag525
ag1662
ag2053
ag1257
ag194
ag1649
ag180
atp2428
bstp2429
Rp2430
(dp2431
S'isNumeric'
p2432
(dp2433
g2387
I01
sg16
I01
sg2410
I01
sg15
I00
ssg2381
g2375
sS'dataTypes'
p2434
(lp2435
g2387
ag2410
ag15
ag16
asS'dataShape'
p2436
(lp2437
I172
aI1
asbsS'method'
p2438
S'random'
p2439
sS'sequenceIndices'
p2440
g2417
(g2390
(I0
tp2441
g2392
tp2442
Rp2443
(I1
(I172
I1
tp2444
g66
I00
S'\x14\x00\x00\x00\x00\x00\x00\x00\xa2\x00\x00\x00\x00\x00\x00\x00P\x00\x00\x00\x00\x00\x00\x00\x03\x00\x00\x00\x00\x00\x00\x00}\x00\x00\x00\x00\x00\x00\x00|\x00\x00\x00\x00\x00\x00\x00\xab\x00\x00\x00\x00\x00\x00\x00\xa9\x00\x00\x00\x00\x00\x00\x00\x9c\x00\x00\x00\x00\x00\x00\x00M\x00\x00\x00\x00\x00\x00\x00D\x00\x00\x00\x00\x00\x00\x00\x99\x00\x00\x00\x00\x00\x00\x00$\x00\x00\x00\x00\x00\x00\x00\x12\x00\x00\x00\x00\x00\x00\x00=\x00\x00\x00\x00\x00\x00\x00-\x00\x00\x00\x00\x00\x00\x00\x1b\x00\x00\x00\x00\x00\x00\x00\n\x00\x00\x00\x00\x00\x00\x00\x16\x00\x00\x00\x00\x00\x00\x00\x7f\x00\x00\x00\x00\x00\x00\x00e\x00\x00\x00\x00\x00\x00\x00\x8b\x00\x00\x00\x00\x00\x00\x00\x9f\x00\x00\x00\x00\x00\x00\x00\x80\x00\x00\x00\x00\x00\x00\x00O\x00\x00\x00\x00\x00\x00\x00j\x00\x00\x00\x00\x00\x00\x00d\x00\x00\x00\x00\x00\x00\x00]\x00\x00\x00\x00\x00\x00\x00n\x00\x00\x00\x00\x00\x00\x00\x98\x00\x00\x00\x00\x00\x00\x00h\x00\x00\x00\x00\x00\x00\x00\xa5\x00\x00\x00\x00\x00\x00\x00I\x00\x00\x00\x00\x00\x00\x00\x8d\x00\x00\x00\x00\x00\x00\x00{\x00\x00\x00\x00\x00\x00\x00\x85\x00\x00\x00\x00\x00\x00\x00\x11\x00\x00\x00\x00\x00\x00\x00H\x00\x00\x00\x00\x00\x00\x00p\x00\x00\x00\x00\x00\x00\x00(\x00\x00\x00\x00\x00\x00\x00\x0b\x00\x00\x00\x00\x00\x00\x00\x00\x00\x00\x00\x00\x00\x00\x00S\x00\x00\x00\x00\x00\x00\x00,\x00\x00\x00\x00\x00\x00\x00U\x00\x00\x00\x00\x00\x00\x00;\x00\x00\x00\x00\x00\x00\x00@\x00\x00\x00\x00\x00\x00\x00>\x00\x00\x00\x00\x00\x00\x000\x00\x00\x00\x00\x00\x00\x00\xa1\x00\x00\x00\x00\x00\x00\x00\x87\x00\x00\x00\x00\x00\x00\x00L\x00\x00\x00\x00\x00\x00\x00\x94\x00\x00\x00\x00\x00\x00\x00\x1a\x00\x00\x00\x00\x00\x00\x00K\x00\x00\x00\x00\x00\x00\x00\x07\x00\x00\x00\x00\x00\x00\x00y\x00\x00\x00\x00\x00\x00\x00\xa3\x00\x00\x00\x00\x00\x00\x00\x04\x00\x00\x00\x00\x00\x00\x00B\x00\x00\x00\x00\x00\x00\x00\x17\x00\x00\x00\x00\x00\x00\x00\x91\x00\x00\x00\x00\x00\x00\x00\x9d\x00\x00\x00\x00\x00\x00\x00T\x00\x00\x00\x00\x00\x00\x00~\x00\x00\x00\x00\x00\x00\x00q\x00\x00\x00\x00\x00\x00\x00.\x00\x00\x00\x00\x00\x00\x00\x0e\x00\x00\x00\x00\x00\x00\x00v\x00\x00\x00\x00\x00\x00\x00\x1c\x00\x00\x00\x00\x00\x00\x00?\x00\x00\x00\x00\x00\x00\x00/\x00\x00\x00\x00\x00\x00\x00F\x00\x00\x00\x00\x00\x00\x00\x9e\x00\x00\x00\x00\x00\x00\x00E\x00\x00\x00\x00\x00\x00\x00\x93\x00\x00\x00\x00\x00\x00\x00x\x00\x00\x00\x00\x00\x00\x00m\x00\x00\x00\x00\x00\x00\x009\x00\x00\x00\x00\x00\x00\x00z\x00\x00\x00\x00\x00\x00\x00i\x00\x00\x00\x00\x00\x00\x00\t\x00\x00\x00\x00\x00\x00\x00W\x00\x00\x00\x00\x00\x00\x00g\x00\x00\x00\x00\x00\x00\x00Y\x00\x00\x00\x00\x00\x00\x00f\x00\x00\x00\x00\x00\x00\x00\xa8\x00\x00\x00\x00\x00\x00\x00\x0c\x00\x00\x00\x00\x00\x00\x00\x06\x00\x00\x00\x00\x00\x00\x003\x00\x00\x00\x00\x00\x00\x00\x0f\x00\x00\x00\x00\x00\x00\x00A\x00\x00\x00\x00\x00\x00\x00\x84\x00\x00\x00\x00\x00\x00\x00\x96\x00\x00\x00\x00\x00\x00\x00\x8f\x00\x00\x00\x00\x00\x00\x00:\x00\x00\x00\x00\x00\x00\x00X\x00\x00\x00\x00\x00\x00\x00\x9b\x00\x00\x00\x00\x00\x00\x00\xa4\x00\x00\x00\x00\x00\x00\x00\x97\x00\x00\x00\x00\x00\x00\x00r\x00\x00\x00\x00\x00\x00\x00\\\x00\x00\x00\x00\x00\x00\x00\x1d\x00\x00\x00\x00\x00\x00\x00\x90\x00\x00\x00\x00\x00\x00\x008\x00\x00\x00\x00\x00\x00\x00C\x00\x00\x00\x00\x00\x00\x00\xa0\x00\x00\x00\x00\x00\x00\x00Z\x00\x00\x00\x00\x00\x00\x004\x00\x00\x00\x00\x00\x00\x001\x00\x00\x00\x00\x00\x00\x00\'\x00\x00\x00\x00\x00\x00\x00s\x00\x00\x00\x00\x00\x00\x00l\x00\x00\x00\x00\x00\x00\x00a\x00\x00\x00\x00\x00\x00\x00\x1e\x00\x00\x00\x00\x00\x00\x00t\x00\x00\x00\x00\x00\x00\x00\xaa\x00\x00\x00\x00\x00\x00\x00\xa6\x00\x00\x00\x00\x00\x00\x007\x00\x00\x00\x00\x00\x00\x00!\x00\x00\x00\x00\x00\x00\x00w\x00\x00\x00\x00\x00\x00\x00 \x00\x00\x00\x00\x00\x00\x00\x8a\x00\x00\x00\x00\x00\x00\x00\x02\x00\x00\x00\x00\x00\x00\x00N\x00\x00\x00\x00\x00\x00\x00#\x00\x00\x00\x00\x00\x00\x00<\x00\x00\x00\x00\x00\x00\x00+\x00\x00\x00\x00\x00\x00\x00\x8c\x00\x00\x00\x00\x00\x00\x00_\x00\x00\x00\x00\x00\x00\x00*\x00\x00\x00\x00\x00\x00\x00)\x00\x00\x00\x00\x00\x00\x00\x95\x00\x00\x00\x00\x00\x00\x00G\x00\x00\x00\x00\x00\x00\x00\x83\x00\x00\x00\x00\x00\x00\x00"\x00\x00\x00\x00\x00\x00\x006\x00\x00\x00\x00\x00\x00\x00\x81\x00\x00\x00\x00\x00\x00\x00\x15\x00\x00\x00\x00\x00\x00\x00R\x00\x00\x00\x00\x00\x00\x00&\x00\x00\x00\x00\x00\x00\x00\x10\x00\x00\x00\x00\x00\x00\x00\x01\x00\x00\x00\x00\x00\x00\x00[\x00\x00\x00\x00\x00\x00\x00\x86\x00\x00\x00\x00\x00\x00\x00\r\x00\x00\x00\x00\x00\x00\x00\x1f\x00\x00\x00\x00\x00\x00\x00\xa7\x00\x00\x00\x00\x00\x00\x00Q\x00\x00\x00\x00\x00\x00\x00\x18\x00\x00\x00\x00\x00\x00\x00\x08\x00\x00\x00\x00\x00\x00\x00`\x00\x00\x00\x00\x00\x00\x00\x82\x00\x00\x00\x00\x00\x00\x00\x89\x00\x00\x00\x00\x00\x00\x005\x00\x00\x00\x00\x00\x00\x00o\x00\x00\x00\x00\x00\x00\x00\x9a\x00\x00\x00\x00\x00\x00\x00c\x00\x00\x00\x00\x00\x00\x00\x92\x00\x00\x00\x00\x00\x00\x00V\x00\x00\x00\x00\x00\x00\x00\x88\x00\x00\x00\x00\x00\x00\x00\x8e\x00\x00\x00\x00\x00\x00\x00k\x00\x00\x00\x00\x00\x00\x00^\x00\x00\x00\x00\x00\x00\x00J\x00\x00\x00\x00\x00\x00\x00u\x00\x00\x00\x00\x00\x00\x00\x05\x00\x00\x00\x00\x00\x00\x002\x00\x00\x00\x00\x00\x00\x00\x19\x00\x00\x00\x00\x00\x00\x00\x13\x00\x00\x00\x00\x00\x00\x00%\x00\x00\x00\x00\x00\x00\x00b\x00\x00\x00\x00\x00\x00\x00'
p2445
tp2446
bsS'finished'
p2447
I01
sS'nReps'
p2448
I1
sS'nRemaining'
p2449
I-1
sS'trialList'
p2450
(lp2451
ccollections
OrderedDict
p2452
((lp2453
(lp2454
g49
ag665
aa(lp2455
g50
ag659
aa(lp2456
g51
ag73
aa(lp2457
g52
ag132
aa(lp2458
g53
ag81
aa(lp2459
g54
ag87
aa(lp2460
g55
ag81
aa(lp2461
g56
ag78
aa(lp2462
g57
ag88
aa(lp2463
g58
ag82
aa(lp2464
g59
ag136
aatp2465
Rp2466
ag2452
((lp2467
(lp2468
g49
ag1992
aa(lp2469
g50
ag1986
aa(lp2470
g51
ag149
aa(lp2471
g52
ag132
aa(lp2472
g53
ag81
aa(lp2473
g54
ag87
aa(lp2474
g55
ag81
aa(lp2475
g56
ag78
aa(lp2476
g57
ag88
aa(lp2477
g58
ag82
aa(lp2478
g59
ag136
aatp2479
Rp2480
ag2452
((lp2481
(lp2482
g49
ag1745
aa(lp2483
g50
ag1739
aa(lp2484
g51
ag95
aa(lp2485
g52
ag132
aa(lp2486
g53
ag81
aa(lp2487
g54
ag87
aa(lp2488
g55
ag81
aa(lp2489
g56
ag78
aa(lp2490
g57
ag88
aa(lp2491
g58
ag82
aa(lp2492
g59
ag136
aatp2493
Rp2494
ag2452
((lp2495
(lp2496
g49
ag141
aa(lp2497
g50
ag134
aa(lp2498
g51
ag133
aa(lp2499
g52
ag132
aa(lp2500
g53
ag81
aa(lp2501
g54
ag87
aa(lp2502
g55
ag81
aa(lp2503
g56
ag78
aa(lp2504
g57
ag88
aa(lp2505
g58
ag82
aa(lp2506
g59
ag136
aatp2507
Rp2508
ag2452
((lp2509
(lp2510
g49
ag892
aa(lp2511
g50
ag886
aa(lp2512
g51
ag73
aa(lp2513
g52
ag846
aa(lp2514
g53
ag81
aa(lp2515
g54
ag125
aa(lp2516
g55
ag81
aa(lp2517
g56
ag100
aa(lp2518
g57
ag126
aa(lp2519
g58
ag82
aa(lp2520
g59
ag136
aatp2521
Rp2522
ag2452
((lp2523
(lp2524
g49
ag2304
aa(lp2525
g50
ag2298
aa(lp2526
g51
ag149
aa(lp2527
g52
ag846
aa(lp2528
g53
ag81
aa(lp2529
g54
ag125
aa(lp2530
g55
ag81
aa(lp2531
g56
ag100
aa(lp2532
g57
ag126
aa(lp2533
g58
ag82
aa(lp2534
g59
ag136
aatp2535
Rp2536
ag2452
((lp2537
(lp2538
g49
ag1287
aa(lp2539
g50
ag1281
aa(lp2540
g51
ag95
aa(lp2541
g52
ag846
aa(lp2542
g53
ag81
aa(lp2543
g54
ag125
aa(lp2544
g55
ag81
aa(lp2545
g56
ag100
aa(lp2546
g57
ag126
aa(lp2547
g58
ag82
aa(lp2548
g59
ag136
aatp2549
Rp2550
ag2452
((lp2551
(lp2552
g49
ag853
aa(lp2553
g50
ag847
aa(lp2554
g51
ag133
aa(lp2555
g52
ag846
aa(lp2556
g53
ag81
aa(lp2557
g54
ag125
aa(lp2558
g55
ag81
aa(lp2559
g56
ag100
aa(lp2560
g57
ag126
aa(lp2561
g58
ag82
aa(lp2562
g59
ag136
aatp2563
Rp2564
ag2452
((lp2565
(lp2566
g49
ag2096
aa(lp2567
g50
ag2090
aa(lp2568
g51
ag73
aa(lp2569
g52
ag333
aa(lp2570
g53
ag81
aa(lp2571
g54
ag108
aa(lp2572
g55
ag81
aa(lp2573
g56
ag100
aa(lp2574
g57
ag109
aa(lp2575
g58
ag82
aa(lp2576
g59
ag136
aatp2577
Rp2578
ag2452
((lp2579
(lp2580
g49
ag1195
aa(lp2581
g50
ag1189
aa(lp2582
g51
ag149
aa(lp2583
g52
ag333
aa(lp2584
g53
ag81
aa(lp2585
g54
ag108
aa(lp2586
g55
ag81
aa(lp2587
g56
ag100
aa(lp2588
g57
ag109
aa(lp2589
g58
ag82
aa(lp2590
g59
ag136
aatp2591
Rp2592
ag2452
((lp2593
(lp2594
g49
ag340
aa(lp2595
g50
ag334
aa(lp2596
g51
ag95
aa(lp2597
g52
ag333
aa(lp2598
g53
ag81
aa(lp2599
g54
ag108
aa(lp2600
g55
ag81
aa(lp2601
g56
ag100
aa(lp2602
g57
ag109
aa(lp2603
g58
ag82
aa(lp2604
g59
ag136
aatp2605
Rp2606
ag2452
((lp2607
(lp2608
g49
ag652
aa(lp2609
g50
ag646
aa(lp2610
g51
ag133
aa(lp2611
g52
ag333
aa(lp2612
g53
ag81
aa(lp2613
g54
ag108
aa(lp2614
g55
ag81
aa(lp2615
g56
ag100
aa(lp2616
g57
ag109
aa(lp2617
g58
ag82
aa(lp2618
g59
ag136
aatp2619
Rp2620
ag2452
((lp2621
(lp2622
g49
ag1274
aa(lp2623
g50
ag1268
aa(lp2624
g51
ag73
aa(lp2625
g52
ag1004
aa(lp2626
g53
ag81
aa(lp2627
g54
ag242
aa(lp2628
g55
ag81
aa(lp2629
g56
ag179
aa(lp2630
g57
ag243
aa(lp2631
g58
ag82
aa(lp2632
g59
ag136
aatp2633
Rp2634
ag2452
((lp2635
(lp2636
g49
ag2031
aa(lp2637
g50
ag2025
aa(lp2638
g51
ag149
aa(lp2639
g52
ag1004
aa(lp2640
g53
ag81
aa(lp2641
g54
ag242
aa(lp2642
g55
ag81
aa(lp2643
g56
ag179
aa(lp2644
g57
ag243
aa(lp2645
g58
ag82
aa(lp2646
g59
ag136
aatp2647
Rp2648
ag2452
((lp2649
(lp2650
g49
ag1011
aa(lp2651
g50
ag1005
aa(lp2652
g51
ag95
aa(lp2653
g52
ag1004
aa(lp2654
g53
ag81
aa(lp2655
g54
ag242
aa(lp2656
g55
ag81
aa(lp2657
g56
ag179
aa(lp2658
g57
ag243
aa(lp2659
g58
ag82
aa(lp2660
g59
ag136
aatp2661
Rp2662
ag2452
((lp2663
(lp2664
g49
ag1313
aa(lp2665
g50
ag1307
aa(lp2666
g51
ag133
aa(lp2667
g52
ag1004
aa(lp2668
g53
ag81
aa(lp2669
g54
ag242
aa(lp2670
g55
ag81
aa(lp2671
g56
ag179
aa(lp2672
g57
ag243
aa(lp2673
g58
ag82
aa(lp2674
g59
ag136
aatp2675
Rp2676
ag2452
((lp2677
(lp2678
g49
ag1979
aa(lp2679
g50
ag1973
aa(lp2680
g51
ag73
aa(lp2681
g52
ag277
aa(lp2682
g53
ag81
aa(lp2683
g54
ag186
aa(lp2684
g55
ag81
aa(lp2685
g56
ag179
aa(lp2686
g57
ag109
aa(lp2687
g58
ag82
aa(lp2688
g59
ag136
aatp2689
Rp2690
ag2452
((lp2691
(lp2692
g49
ag598
aa(lp2693
g50
ag592
aa(lp2694
g51
ag149
aa(lp2695
g52
ag277
aa(lp2696
g53
ag81
aa(lp2697
g54
ag186
aa(lp2698
g55
ag81
aa(lp2699
g56
ag179
aa(lp2700
g57
ag109
aa(lp2701
g58
ag82
aa(lp2702
g59
ag136
aatp2703
Rp2704
ag2452
((lp2705
(lp2706
g49
ag284
aa(lp2707
g50
ag278
aa(lp2708
g51
ag95
aa(lp2709
g52
ag277
aa(lp2710
g53
ag81
aa(lp2711
g54
ag186
aa(lp2712
g55
ag81
aa(lp2713
g56
ag179
aa(lp2714
g57
ag109
aa(lp2715
g58
ag82
aa(lp2716
g59
ag136
aatp2717
Rp2718
ag2452
((lp2719
(lp2720
g49
ag2343
aa(lp2721
g50
ag2337
aa(lp2722
g51
ag133
aa(lp2723
g52
ag277
aa(lp2724
g53
ag81
aa(lp2725
g54
ag186
aa(lp2726
g55
ag81
aa(lp2727
g56
ag179
aa(lp2728
g57
ag109
aa(lp2729
g58
ag82
aa(lp2730
g59
ag136
aatp2731
Rp2732
ag2452
((lp2733
(lp2734
g49
ag85
aa(lp2735
g50
ag74
aa(lp2736
g51
ag73
aa(lp2737
g52
ag72
aa(lp2738
g53
ag81
aa(lp2739
g54
ag87
aa(lp2740
g55
ag77
aa(lp2741
g56
ag78
aa(lp2742
g57
ag88
aa(lp2743
g58
ag82
aa(lp2744
g59
ag76
aatp2745
Rp2746
ag2452
((lp2747
(lp2748
g49
ag1940
aa(lp2749
g50
ag1934
aa(lp2750
g51
ag149
aa(lp2751
g52
ag72
aa(lp2752
g53
ag81
aa(lp2753
g54
ag87
aa(lp2754
g55
ag77
aa(lp2755
g56
ag78
aa(lp2756
g57
ag88
aa(lp2757
g58
ag82
aa(lp2758
g59
ag76
aatp2759
Rp2760
ag2452
((lp2761
(lp2762
g49
ag353
aa(lp2763
g50
ag347
aa(lp2764
g51
ag95
aa(lp2765
g52
ag72
aa(lp2766
g53
ag81
aa(lp2767
g54
ag87
aa(lp2768
g55
ag77
aa(lp2769
g56
ag78
aa(lp2770
g57
ag88
aa(lp2771
g58
ag82
aa(lp2772
g59
ag76
aatp2773
Rp2774
ag2452
((lp2775
(lp2776
g49
ag918
aa(lp2777
g50
ag912
aa(lp2778
g51
ag133
aa(lp2779
g52
ag72
aa(lp2780
g53
ag81
aa(lp2781
g54
ag87
aa(lp2782
g55
ag77
aa(lp2783
g56
ag78
aa(lp2784
g57
ag88
aa(lp2785
g58
ag82
aa(lp2786
g59
ag76
aatp2787
Rp2788
ag2452
((lp2789
(lp2790
g49
ag2083
aa(lp2791
g50
ag2077
aa(lp2792
g51
ag73
aa(lp2793
g52
ag319
aa(lp2794
g53
ag81
aa(lp2795
g54
ag108
aa(lp2796
g55
ag77
aa(lp2797
g56
ag100
aa(lp2798
g57
ag109
aa(lp2799
g58
ag82
aa(lp2800
g59
ag76
aatp2801
Rp2802
ag2452
((lp2803
(lp2804
g49
ag2330
aa(lp2805
g50
ag2324
aa(lp2806
g51
ag149
aa(lp2807
g52
ag319
aa(lp2808
g53
ag81
aa(lp2809
g54
ag108
aa(lp2810
g55
ag77
aa(lp2811
g56
ag100
aa(lp2812
g57
ag109
aa(lp2813
g58
ag82
aa(lp2814
g59
ag76
aatp2815
Rp2816
ag2452
((lp2817
(lp2818
g49
ag826
aa(lp2819
g50
ag820
aa(lp2820
g51
ag95
aa(lp2821
g52
ag319
aa(lp2822
g53
ag81
aa(lp2823
g54
ag108
aa(lp2824
g55
ag77
aa(lp2825
g56
ag100
aa(lp2826
g57
ag109
aa(lp2827
g58
ag82
aa(lp2828
g59
ag76
aatp2829
Rp2830
ag2452
((lp2831
(lp2832
g49
ag326
aa(lp2833
g50
ag320
aa(lp2834
g51
ag133
aa(lp2835
g52
ag319
aa(lp2836
g53
ag81
aa(lp2837
g54
ag108
aa(lp2838
g55
ag77
aa(lp2839
g56
ag100
aa(lp2840
g57
ag109
aa(lp2841
g58
ag82
aa(lp2842
g59
ag76
aatp2843
Rp2844
ag2452
((lp2845
(lp2846
g49
ag1039
aa(lp2847
g50
ag1033
aa(lp2848
g51
ag73
aa(lp2849
g52
ag1032
aa(lp2850
g53
ag81
aa(lp2851
g54
ag242
aa(lp2852
g55
ag77
aa(lp2853
g56
ag179
aa(lp2854
g57
ag243
aa(lp2855
g58
ag82
aa(lp2856
g59
ag76
aatp2857
Rp2858
ag2452
((lp2859
(lp2860
g49
ag1469
aa(lp2861
g50
ag1463
aa(lp2862
g51
ag149
aa(lp2863
g52
ag1032
aa(lp2864
g53
ag81
aa(lp2865
g54
ag242
aa(lp2866
g55
ag77
aa(lp2867
g56
ag179
aa(lp2868
g57
ag243
aa(lp2869
g58
ag82
aa(lp2870
g59
ag76
aatp2871
Rp2872
ag2452
((lp2873
(lp2874
g49
ag1627
aa(lp2875
g50
ag1621
aa(lp2876
g51
ag95
aa(lp2877
g52
ag1032
aa(lp2878
g53
ag81
aa(lp2879
g54
ag242
aa(lp2880
g55
ag77
aa(lp2881
g56
ag179
aa(lp2882
g57
ag243
aa(lp2883
g58
ag82
aa(lp2884
g59
ag76
aatp2885
Rp2886
ag2452
((lp2887
(lp2888
g49
ag2044
aa(lp2889
g50
ag2038
aa(lp2890
g51
ag133
aa(lp2891
g52
ag1032
aa(lp2892
g53
ag81
aa(lp2893
g54
ag242
aa(lp2894
g55
ag77
aa(lp2895
g56
ag179
aa(lp2896
g57
ag243
aa(lp2897
g58
ag82
aa(lp2898
g59
ag76
aatp2899
Rp2900
ag2452
((lp2901
(lp2902
g49
ag1719
aa(lp2903
g50
ag1713
aa(lp2904
g51
ag73
aa(lp2905
g52
ag1686
aa(lp2906
g53
ag81
aa(lp2907
g54
ag186
aa(lp2908
g55
ag77
aa(lp2909
g56
ag179
aa(lp2910
g57
ag109
aa(lp2911
g58
ag82
aa(lp2912
g59
ag76
aatp2913
Rp2914
ag2452
((lp2915
(lp2916
g49
ag1693
aa(lp2917
g50
ag1687
aa(lp2918
g51
ag149
aa(lp2919
g52
ag1686
aa(lp2920
g53
ag81
aa(lp2921
g54
ag186
aa(lp2922
g55
ag77
aa(lp2923
g56
ag179
aa(lp2924
g57
ag109
aa(lp2925
g58
ag82
aa(lp2926
g59
ag76
aatp2927
Rp2928
ag2452
((lp2929
(lp2930
g49
ag1901
aa(lp2931
g50
ag1895
aa(lp2932
g51
ag95
aa(lp2933
g52
ag1686
aa(lp2934
g53
ag81
aa(lp2935
g54
ag186
aa(lp2936
g55
ag77
aa(lp2937
g56
ag179
aa(lp2938
g57
ag109
aa(lp2939
g58
ag82
aa(lp2940
g59
ag76
aatp2941
Rp2942
ag2452
((lp2943
(lp2944
g49
ag1771
aa(lp2945
g50
ag1765
aa(lp2946
g51
ag133
aa(lp2947
g52
ag1686
aa(lp2948
g53
ag81
aa(lp2949
g54
ag186
aa(lp2950
g55
ag77
aa(lp2951
g56
ag179
aa(lp2952
g57
ag109
aa(lp2953
g58
ag82
aa(lp2954
g59
ag76
aatp2955
Rp2956
ag2452
((lp2957
(lp2958
g49
ag270
aa(lp2959
g50
ag264
aa(lp2960
g51
ag73
aa(lp2961
g52
ag263
aa(lp2962
g53
ag81
aa(lp2963
g54
ag87
aa(lp2964
g55
ag99
aa(lp2965
g56
ag78
aa(lp2966
g57
ag88
aa(lp2967
g58
ag82
aa(lp2968
g59
ag98
aatp2969
Rp2970
ag2452
((lp2971
(lp2972
g49
ag2356
aa(lp2973
g50
ag2350
aa(lp2974
g51
ag149
aa(lp2975
g52
ag263
aa(lp2976
g53
ag81
aa(lp2977
g54
ag87
aa(lp2978
g55
ag99
aa(lp2979
g56
ag78
aa(lp2980
g57
ag88
aa(lp2981
g58
ag82
aa(lp2982
g59
ag98
aatp2983
Rp2984
ag2452
((lp2985
(lp2986
g49
ag1966
aa(lp2987
g50
ag1960
aa(lp2988
g51
ag95
aa(lp2989
g52
ag263
aa(lp2990
g53
ag81
aa(lp2991
g54
ag87
aa(lp2992
g55
ag99
aa(lp2993
g56
ag78
aa(lp2994
g57
ag88
aa(lp2995
g58
ag82
aa(lp2996
g59
ag98
aatp2997
Rp2998
ag2452
((lp2999
(lp3000
g49
ag1574
aa(lp3001
g50
ag1568
aa(lp3002
g51
ag133
aa(lp3003
g52
ag263
aa(lp3004
g53
ag81
aa(lp3005
g54
ag87
aa(lp3006
g55
ag99
aa(lp3007
g56
ag78
aa(lp3008
g57
ag88
aa(lp3009
g58
ag82
aa(lp3010
g59
ag98
aatp3011
Rp3012
ag2452
((lp3013
(lp3014
g49
ag639
aa(lp3015
g50
ag633
aa(lp3016
g51
ag73
aa(lp3017
g52
ag632
aa(lp3018
g53
ag81
aa(lp3019
g54
ag125
aa(lp3020
g55
ag99
aa(lp3021
g56
ag100
aa(lp3022
g57
ag126
aa(lp3023
g58
ag82
aa(lp3024
g59
ag98
aatp3025
Rp3026
ag2452
((lp3027
(lp3028
g49
ag1849
aa(lp3029
g50
ag1843
aa(lp3030
g51
ag149
aa(lp3031
g52
ag632
aa(lp3032
g53
ag81
aa(lp3033
g54
ag125
aa(lp3034
g55
ag99
aa(lp3035
g56
ag100
aa(lp3036
g57
ag126
aa(lp3037
g58
ag82
aa(lp3038
g59
ag98
aatp3039
Rp3040
ag2452
((lp3041
(lp3042
g49
ag1836
aa(lp3043
g50
ag1830
aa(lp3044
g51
ag95
aa(lp3045
g52
ag632
aa(lp3046
g53
ag81
aa(lp3047
g54
ag125
aa(lp3048
g55
ag99
aa(lp3049
g56
ag100
aa(lp3050
g57
ag126
aa(lp3051
g58
ag82
aa(lp3052
g59
ag98
aatp3053
Rp3054
ag2452
((lp3055
(lp3056
g49
ag1797
aa(lp3057
g50
ag1791
aa(lp3058
g51
ag133
aa(lp3059
g52
ag632
aa(lp3060
g53
ag81
aa(lp3061
g54
ag125
aa(lp3062
g55
ag99
aa(lp3063
g56
ag100
aa(lp3064
g57
ag126
aa(lp3065
g58
ag82
aa(lp3066
g59
ag98
aatp3067
Rp3068
ag2452
((lp3069
(lp3070
g49
ag691
aa(lp3071
g50
ag685
aa(lp3072
g51
ag73
aa(lp3073
g52
ag305
aa(lp3074
g53
ag81
aa(lp3075
g54
ag108
aa(lp3076
g55
ag99
aa(lp3077
g56
ag100
aa(lp3078
g57
ag109
aa(lp3079
g58
ag82
aa(lp3080
g59
ag98
aatp3081
Rp3082
ag2452
((lp3083
(lp3084
g49
ag312
aa(lp3085
g50
ag306
aa(lp3086
g51
ag149
aa(lp3087
g52
ag305
aa(lp3088
g53
ag81
aa(lp3089
g54
ag108
aa(lp3090
g55
ag99
aa(lp3091
g56
ag100
aa(lp3092
g57
ag109
aa(lp3093
g58
ag82
aa(lp3094
g59
ag98
aatp3095
Rp3096
ag2452
((lp3097
(lp3098
g49
ag997
aa(lp3099
g50
ag991
aa(lp3100
g51
ag95
aa(lp3101
g52
ag305
aa(lp3102
g53
ag81
aa(lp3103
g54
ag108
aa(lp3104
g55
ag99
aa(lp3105
g56
ag100
aa(lp3106
g57
ag109
aa(lp3107
g58
ag82
aa(lp3108
g59
ag98
aatp3109
Rp3110
ag2452
((lp3111
(lp3112
g49
ag1065
aa(lp3113
g50
ag1059
aa(lp3114
g51
ag133
aa(lp3115
g52
ag305
aa(lp3116
g53
ag81
aa(lp3117
g54
ag108
aa(lp3118
g55
ag99
aa(lp3119
g56
ag100
aa(lp3120
g57
ag109
aa(lp3121
g58
ag82
aa(lp3122
g59
ag98
aatp3123
Rp3124
ag2452
((lp3125
(lp3126
g49
ag760
aa(lp3127
g50
ag754
aa(lp3128
g51
ag73
aa(lp3129
g52
ag753
aa(lp3130
g53
ag81
aa(lp3131
g54
ag242
aa(lp3132
g55
ag99
aa(lp3133
g56
ag179
aa(lp3134
g57
ag243
aa(lp3135
g58
ag82
aa(lp3136
g59
ag98
aatp3137
Rp3138
ag2452
((lp3139
(lp3140
g49
ag1561
aa(lp3141
g50
ag1555
aa(lp3142
g51
ag149
aa(lp3143
g52
ag753
aa(lp3144
g53
ag81
aa(lp3145
g54
ag242
aa(lp3146
g55
ag99
aa(lp3147
g56
ag179
aa(lp3148
g57
ag243
aa(lp3149
g58
ag82
aa(lp3150
g59
ag98
aatp3151
Rp3152
ag2452
((lp3153
(lp3154
g49
ag2317
aa(lp3155
g50
ag2311
aa(lp3156
g51
ag95
aa(lp3157
g52
ag753
aa(lp3158
g53
ag81
aa(lp3159
g54
ag242
aa(lp3160
g55
ag99
aa(lp3161
g56
ag179
aa(lp3162
g57
ag243
aa(lp3163
g58
ag82
aa(lp3164
g59
ag98
aatp3165
Rp3166
ag2452
((lp3167
(lp3168
g49
ag1300
aa(lp3169
g50
ag1294
aa(lp3170
g51
ag133
aa(lp3171
g52
ag753
aa(lp3172
g53
ag81
aa(lp3173
g54
ag242
aa(lp3174
g55
ag99
aa(lp3175
g56
ag179
aa(lp3176
g57
ag243
aa(lp3177
g58
ag82
aa(lp3178
g59
ag98
aatp3179
Rp3180
ag2452
((lp3181
(lp3182
g49
ag1548
aa(lp3183
g50
ag1542
aa(lp3184
g51
ag73
aa(lp3185
g52
ag1541
aa(lp3186
g53
ag81
aa(lp3187
g54
ag186
aa(lp3188
g55
ag99
aa(lp3189
g56
ag179
aa(lp3190
g57
ag109
aa(lp3191
g58
ag82
aa(lp3192
g59
ag98
aatp3193
Rp3194
ag2452
((lp3195
(lp3196
g49
ag2148
aa(lp3197
g50
ag2142
aa(lp3198
g51
ag149
aa(lp3199
g52
ag1541
aa(lp3200
g53
ag81
aa(lp3201
g54
ag186
aa(lp3202
g55
ag99
aa(lp3203
g56
ag179
aa(lp3204
g57
ag109
aa(lp3205
g58
ag82
aa(lp3206
g59
ag98
aatp3207
Rp3208
ag2452
((lp3209
(lp3210
g49
ag1914
aa(lp3211
g50
ag1908
aa(lp3212
g51
ag95
aa(lp3213
g52
ag1541
aa(lp3214
g53
ag81
aa(lp3215
g54
ag186
aa(lp3216
g55
ag99
aa(lp3217
g56
ag179
aa(lp3218
g57
ag109
aa(lp3219
g58
ag82
aa(lp3220
g59
ag98
aatp3221
Rp3222
ag2452
((lp3223
(lp3224
g49
ag1679
aa(lp3225
g50
ag1673
aa(lp3226
g51
ag133
aa(lp3227
g52
ag1541
aa(lp3228
g53
ag81
aa(lp3229
g54
ag186
aa(lp3230
g55
ag99
aa(lp3231
g56
ag179
aa(lp3232
g57
ag109
aa(lp3233
g58
ag82
aa(lp3234
g59
ag98
aatp3235
Rp3236
ag2452
((lp3237
(lp3238
g49
ag1495
aa(lp3239
g50
ag1489
aa(lp3240
g51
ag73
aa(lp3241
g52
ag712
aa(lp3242
g53
ag77
aa(lp3243
g54
ag87
aa(lp3244
g55
ag81
aa(lp3245
g56
ag78
aa(lp3246
g57
ag88
aa(lp3247
g58
ag120
aa(lp3248
g59
ag136
aatp3249
Rp3250
ag2452
((lp3251
(lp3252
g49
ag1156
aa(lp3253
g50
ag1150
aa(lp3254
g51
ag149
aa(lp3255
g52
ag712
aa(lp3256
g53
ag77
aa(lp3257
g54
ag87
aa(lp3258
g55
ag81
aa(lp3259
g56
ag78
aa(lp3260
g57
ag88
aa(lp3261
g58
ag120
aa(lp3262
g59
ag136
aatp3263
Rp3264
ag2452
((lp3265
(lp3266
g49
ag1378
aa(lp3267
g50
ag1372
aa(lp3268
g51
ag95
aa(lp3269
g52
ag712
aa(lp3270
g53
ag77
aa(lp3271
g54
ag87
aa(lp3272
g55
ag81
aa(lp3273
g56
ag78
aa(lp3274
g57
ag88
aa(lp3275
g58
ag120
aa(lp3276
g59
ag136
aatp3277
Rp3278
ag2452
((lp3279
(lp3280
g49
ag719
aa(lp3281
g50
ag713
aa(lp3282
g51
ag133
aa(lp3283
g52
ag712
aa(lp3284
g53
ag77
aa(lp3285
g54
ag87
aa(lp3286
g55
ag81
aa(lp3287
g56
ag78
aa(lp3288
g57
ag88
aa(lp3289
g58
ag120
aa(lp3290
g59
ag136
aatp3291
Rp3292
ag2452
((lp3293
(lp3294
g49
ag1784
aa(lp3295
g50
ag1778
aa(lp3296
g51
ag73
aa(lp3297
g52
ag291
aa(lp3298
g53
ag77
aa(lp3299
g54
ag125
aa(lp3300
g55
ag81
aa(lp3301
g56
ag100
aa(lp3302
g57
ag126
aa(lp3303
g58
ag120
aa(lp3304
g59
ag136
aatp3305
Rp3306
ag2452
((lp3307
(lp3308
g49
ag298
aa(lp3309
g50
ag292
aa(lp3310
g51
ag149
aa(lp3311
g52
ag291
aa(lp3312
g53
ag77
aa(lp3313
g54
ag125
aa(lp3314
g55
ag81
aa(lp3315
g56
ag100
aa(lp3316
g57
ag126
aa(lp3317
g58
ag120
aa(lp3318
g59
ag136
aatp3319
Rp3320
ag2452
((lp3321
(lp3322
g49
ag746
aa(lp3323
g50
ag740
aa(lp3324
g51
ag95
aa(lp3325
g52
ag291
aa(lp3326
g53
ag77
aa(lp3327
g54
ag125
aa(lp3328
g55
ag81
aa(lp3329
g56
ag100
aa(lp3330
g57
ag126
aa(lp3331
g58
ag120
aa(lp3332
g59
ag136
aatp3333
Rp3334
ag2452
((lp3335
(lp3336
g49
ag1052
aa(lp3337
g50
ag1046
aa(lp3338
g51
ag133
aa(lp3339
g52
ag291
aa(lp3340
g53
ag77
aa(lp3341
g54
ag125
aa(lp3342
g55
ag81
aa(lp3343
g56
ag100
aa(lp3344
g57
ag126
aa(lp3345
g58
ag120
aa(lp3346
g59
ag136
aatp3347
Rp3348
ag2452
((lp3349
(lp3350
g49
ag733
aa(lp3351
g50
ag727
aa(lp3352
g51
ag73
aa(lp3353
g52
ag726
aa(lp3354
g53
ag77
aa(lp3355
g54
ag108
aa(lp3356
g55
ag81
aa(lp3357
g56
ag100
aa(lp3358
g57
ag109
aa(lp3359
g58
ag120
aa(lp3360
g59
ag136
aatp3361
Rp3362
ag2452
((lp3363
(lp3364
g49
ag1326
aa(lp3365
g50
ag1320
aa(lp3366
g51
ag149
aa(lp3367
g52
ag726
aa(lp3368
g53
ag77
aa(lp3369
g54
ag108
aa(lp3370
g55
ag81
aa(lp3371
g56
ag100
aa(lp3372
g57
ag109
aa(lp3373
g58
ag120
aa(lp3374
g59
ag136
aatp3375
Rp3376
ag2452
((lp3377
(lp3378
g49
ag905
aa(lp3379
g50
ag899
aa(lp3380
g51
ag95
aa(lp3381
g52
ag726
aa(lp3382
g53
ag77
aa(lp3383
g54
ag108
aa(lp3384
g55
ag81
aa(lp3385
g56
ag100
aa(lp3386
g57
ag109
aa(lp3387
g58
ag120
aa(lp3388
g59
ag136
aatp3389
Rp3390
ag2452
((lp3391
(lp3392
g49
ag1508
aa(lp3393
g50
ag1502
aa(lp3394
g51
ag133
aa(lp3395
g52
ag726
aa(lp3396
g53
ag77
aa(lp3397
g54
ag108
aa(lp3398
g55
ag81
aa(lp3399
g56
ag100
aa(lp3400
g57
ag109
aa(lp3401
g58
ag120
aa(lp3402
g59
ag136
aatp3403
Rp3404
ag2452
((lp3405
(lp3406
g49
ag240
aa(lp3407
g50
ag234
aa(lp3408
g51
ag73
aa(lp3409
g52
ag233
aa(lp3410
g53
ag77
aa(lp3411
g54
ag242
aa(lp3412
g55
ag81
aa(lp3413
g56
ag179
aa(lp3414
g57
ag243
aa(lp3415
g58
ag120
aa(lp3416
g59
ag136
aatp3417
Rp3418
ag2452
((lp3419
(lp3420
g49
ag1104
aa(lp3421
g50
ag1098
aa(lp3422
g51
ag149
aa(lp3423
g52
ag233
aa(lp3424
g53
ag77
aa(lp3425
g54
ag242
aa(lp3426
g55
ag81
aa(lp3427
g56
ag179
aa(lp3428
g57
ag243
aa(lp3429
g58
ag120
aa(lp3430
g59
ag136
aatp3431
Rp3432
ag2452
((lp3433
(lp3434
g49
ag1078
aa(lp3435
g50
ag1072
aa(lp3436
g51
ag95
aa(lp3437
g52
ag233
aa(lp3438
g53
ag77
aa(lp3439
g54
ag242
aa(lp3440
g55
ag81
aa(lp3441
g56
ag179
aa(lp3442
g57
ag243
aa(lp3443
g58
ag120
aa(lp3444
g59
ag136
aatp3445
Rp3446
ag2452
((lp3447
(lp3448
g49
ag1875
aa(lp3449
g50
ag1869
aa(lp3450
g51
ag133
aa(lp3451
g52
ag233
aa(lp3452
g53
ag77
aa(lp3453
g54
ag242
aa(lp3454
g55
ag81
aa(lp3455
g56
ag179
aa(lp3456
g57
ag243
aa(lp3457
g58
ag120
aa(lp3458
g59
ag136
aatp3459
Rp3460
ag2452
((lp3461
(lp3462
g49
ag611
aa(lp3463
g50
ag605
aa(lp3464
g51
ag73
aa(lp3465
g52
ag536
aa(lp3466
g53
ag77
aa(lp3467
g54
ag186
aa(lp3468
g55
ag81
aa(lp3469
g56
ag179
aa(lp3470
g57
ag109
aa(lp3471
g58
ag120
aa(lp3472
g59
ag136
aatp3473
Rp3474
ag2452
((lp3475
(lp3476
g49
ag543
aa(lp3477
g50
ag537
aa(lp3478
g51
ag149
aa(lp3479
g52
ag536
aa(lp3480
g53
ag77
aa(lp3481
g54
ag186
aa(lp3482
g55
ag81
aa(lp3483
g56
ag179
aa(lp3484
g57
ag109
aa(lp3485
g58
ag120
aa(lp3486
g59
ag136
aatp3487
Rp3488
ag2452
((lp3489
(lp3490
g49
ag2278
aa(lp3491
g50
ag2272
aa(lp3492
g51
ag95
aa(lp3493
g52
ag536
aa(lp3494
g53
ag77
aa(lp3495
g54
ag186
aa(lp3496
g55
ag81
aa(lp3497
g56
ag179
aa(lp3498
g57
ag109
aa(lp3499
g58
ag120
aa(lp3500
g59
ag136
aatp3501
Rp3502
ag2452
((lp3503
(lp3504
g49
ag839
aa(lp3505
g50
ag833
aa(lp3506
g51
ag133
aa(lp3507
g52
ag536
aa(lp3508
g53
ag77
aa(lp3509
g54
ag186
aa(lp3510
g55
ag81
aa(lp3511
g56
ag179
aa(lp3512
g57
ag109
aa(lp3513
g58
ag120
aa(lp3514
g59
ag136
aatp3515
Rp3516
ag2452
((lp3517
(lp3518
g49
ag799
aa(lp3519
g50
ag793
aa(lp3520
g51
ag73
aa(lp3521
g52
ag219
aa(lp3522
g53
ag77
aa(lp3523
g54
ag87
aa(lp3524
g55
ag77
aa(lp3525
g56
ag78
aa(lp3526
g57
ag88
aa(lp3527
g58
ag120
aa(lp3528
g59
ag76
aatp3529
Rp3530
ag2452
((lp3531
(lp3532
g49
ag226
aa(lp3533
g50
ag220
aa(lp3534
g51
ag149
aa(lp3535
g52
ag219
aa(lp3536
g53
ag77
aa(lp3537
g54
ag87
aa(lp3538
g55
ag77
aa(lp3539
g56
ag78
aa(lp3540
g57
ag88
aa(lp3541
g58
ag120
aa(lp3542
g59
ag76
aatp3543
Rp3544
ag2452
((lp3545
(lp3546
g49
ag1758
aa(lp3547
g50
ag1752
aa(lp3548
g51
ag95
aa(lp3549
g52
ag219
aa(lp3550
g53
ag77
aa(lp3551
g54
ag87
aa(lp3552
g55
ag77
aa(lp3553
g56
ag78
aa(lp3554
g57
ag88
aa(lp3555
g58
ag120
aa(lp3556
g59
ag76
aatp3557
Rp3558
ag2452
((lp3559
(lp3560
g49
ag434
aa(lp3561
g50
ag428
aa(lp3562
g51
ag133
aa(lp3563
g52
ag219
aa(lp3564
g53
ag77
aa(lp3565
g54
ag87
aa(lp3566
g55
ag77
aa(lp3567
g56
ag78
aa(lp3568
g57
ag88
aa(lp3569
g58
ag120
aa(lp3570
g59
ag76
aatp3571
Rp3572
ag2452
((lp3573
(lp3574
g49
ag123
aa(lp3575
g50
ag116
aa(lp3576
g51
ag73
aa(lp3577
g52
ag115
aa(lp3578
g53
ag77
aa(lp3579
g54
ag125
aa(lp3580
g55
ag77
aa(lp3581
g56
ag100
aa(lp3582
g57
ag126
aa(lp3583
g58
ag120
aa(lp3584
g59
ag76
aatp3585
Rp3586
ag2452
((lp3587
(lp3588
g49
ag2070
aa(lp3589
g50
ag2064
aa(lp3590
g51
ag149
aa(lp3591
g52
ag115
aa(lp3592
g53
ag77
aa(lp3593
g54
ag125
aa(lp3594
g55
ag77
aa(lp3595
g56
ag100
aa(lp3596
g57
ag126
aa(lp3597
g58
ag120
aa(lp3598
g59
ag76
aatp3599
Rp3600
ag2452
((lp3601
(lp3602
g49
ag1953
aa(lp3603
g50
ag1947
aa(lp3604
g51
ag95
aa(lp3605
g52
ag115
aa(lp3606
g53
ag77
aa(lp3607
g54
ag125
aa(lp3608
g55
ag77
aa(lp3609
g56
ag100
aa(lp3610
g57
ag126
aa(lp3611
g58
ag120
aa(lp3612
g59
ag76
aatp3613
Rp3614
ag2452
((lp3615
(lp3616
g49
ag678
aa(lp3617
g50
ag672
aa(lp3618
g51
ag133
aa(lp3619
g52
ag115
aa(lp3620
g53
ag77
aa(lp3621
g54
ag125
aa(lp3622
g55
ag77
aa(lp3623
g56
ag100
aa(lp3624
g57
ag126
aa(lp3625
g58
ag120
aa(lp3626
g59
ag76
aatp3627
Rp3628
ag2452
((lp3629
(lp3630
g49
ag958
aa(lp3631
g50
ag952
aa(lp3632
g51
ag73
aa(lp3633
g52
ag698
aa(lp3634
g53
ag77
aa(lp3635
g54
ag108
aa(lp3636
g55
ag77
aa(lp3637
g56
ag100
aa(lp3638
g57
ag109
aa(lp3639
g58
ag120
aa(lp3640
g59
ag76
aatp3641
Rp3642
ag2452
((lp3643
(lp3644
g49
ag705
aa(lp3645
g50
ag699
aa(lp3646
g51
ag149
aa(lp3647
g52
ag698
aa(lp3648
g53
ag77
aa(lp3649
g54
ag108
aa(lp3650
g55
ag77
aa(lp3651
g56
ag100
aa(lp3652
g57
ag109
aa(lp3653
g58
ag120
aa(lp3654
g59
ag76
aatp3655
Rp3656
ag2452
((lp3657
(lp3658
g49
ag2213
aa(lp3659
g50
ag2207
aa(lp3660
g51
ag95
aa(lp3661
g52
ag698
aa(lp3662
g53
ag77
aa(lp3663
g54
ag108
aa(lp3664
g55
ag77
aa(lp3665
g56
ag100
aa(lp3666
g57
ag109
aa(lp3667
g58
ag120
aa(lp3668
g59
ag76
aatp3669
Rp3670
ag2452
((lp3671
(lp3672
g49
ag1208
aa(lp3673
g50
ag1202
aa(lp3674
g51
ag133
aa(lp3675
g52
ag698
aa(lp3676
g53
ag77
aa(lp3677
g54
ag108
aa(lp3678
g55
ag77
aa(lp3679
g56
ag100
aa(lp3680
g57
ag109
aa(lp3681
g58
ag120
aa(lp3682
g59
ag76
aatp3683
Rp3684
ag2452
((lp3685
(lp3686
g49
ag1391
aa(lp3687
g50
ag1385
aa(lp3688
g51
ag73
aa(lp3689
g52
ag1228
aa(lp3690
g53
ag77
aa(lp3691
g54
ag242
aa(lp3692
g55
ag77
aa(lp3693
g56
ag179
aa(lp3694
g57
ag243
aa(lp3695
g58
ag120
aa(lp3696
g59
ag76
aatp3697
Rp3698
ag2452
((lp3699
(lp3700
g49
ag1235
aa(lp3701
g50
ag1229
aa(lp3702
g51
ag149
aa(lp3703
g52
ag1228
aa(lp3704
g53
ag77
aa(lp3705
g54
ag242
aa(lp3706
g55
ag77
aa(lp3707
g56
ag179
aa(lp3708
g57
ag243
aa(lp3709
g58
ag120
aa(lp3710
g59
ag76
aatp3711
Rp3712
ag2452
((lp3713
(lp3714
g49
ag1534
aa(lp3715
g50
ag1528
aa(lp3716
g51
ag95
aa(lp3717
g52
ag1228
aa(lp3718
g53
ag77
aa(lp3719
g54
ag242
aa(lp3720
g55
ag77
aa(lp3721
g56
ag179
aa(lp3722
g57
ag243
aa(lp3723
g58
ag120
aa(lp3724
g59
ag76
aatp3725
Rp3726
ag2452
((lp3727
(lp3728
g49
ag2005
aa(lp3729
g50
ag1999
aa(lp3730
g51
ag133
aa(lp3731
g52
ag1228
aa(lp3732
g53
ag77
aa(lp3733
g54
ag242
aa(lp3734
g55
ag77
aa(lp3735
g56
ag179
aa(lp3736
g57
ag243
aa(lp3737
g58
ag120
aa(lp3738
g59
ag76
aatp3739
Rp3740
ag2452
((lp3741
(lp3742
g49
ag1456
aa(lp3743
g50
ag1450
aa(lp3744
g51
ag73
aa(lp3745
g52
ag468
aa(lp3746
g53
ag77
aa(lp3747
g54
ag186
aa(lp3748
g55
ag77
aa(lp3749
g56
ag179
aa(lp3750
g57
ag109
aa(lp3751
g58
ag120
aa(lp3752
g59
ag76
aatp3753
Rp3754
ag2452
((lp3755
(lp3756
g49
ag475
aa(lp3757
g50
ag469
aa(lp3758
g51
ag149
aa(lp3759
g52
ag468
aa(lp3760
g53
ag77
aa(lp3761
g54
ag186
aa(lp3762
g55
ag77
aa(lp3763
g56
ag179
aa(lp3764
g57
ag109
aa(lp3765
g58
ag120
aa(lp3766
g59
ag76
aatp3767
Rp3768
ag2452
((lp3769
(lp3770
g49
ag2265
aa(lp3771
g50
ag2259
aa(lp3772
g51
ag95
aa(lp3773
g52
ag468
aa(lp3774
g53
ag77
aa(lp3775
g54
ag186
aa(lp3776
g55
ag77
aa(lp3777
g56
ag179
aa(lp3778
g57
ag109
aa(lp3779
g58
ag120
aa(lp3780
g59
ag76
aatp3781
Rp3782
ag2452
((lp3783
(lp3784
g49
ag1823
aa(lp3785
g50
ag1817
aa(lp3786
g51
ag133
aa(lp3787
g52
ag468
aa(lp3788
g53
ag77
aa(lp3789
g54
ag186
aa(lp3790
g55
ag77
aa(lp3791
g56
ag179
aa(lp3792
g57
ag109
aa(lp3793
g58
ag120
aa(lp3794
g59
ag76
aatp3795
Rp3796
ag2452
((lp3797
(lp3798
g49
ag2109
aa(lp3799
g50
ag2103
aa(lp3800
g51
ag73
aa(lp3801
g52
ag1607
aa(lp3802
g53
ag77
aa(lp3803
g54
ag87
aa(lp3804
g55
ag99
aa(lp3805
g56
ag78
aa(lp3806
g57
ag88
aa(lp3807
g58
ag120
aa(lp3808
g59
ag98
aatp3809
Rp3810
ag2452
((lp3811
(lp3812
g49
ag1614
aa(lp3813
g50
ag1608
aa(lp3814
g51
ag149
aa(lp3815
g52
ag1607
aa(lp3816
g53
ag77
aa(lp3817
g54
ag87
aa(lp3818
g55
ag99
aa(lp3819
g56
ag78
aa(lp3820
g57
ag88
aa(lp3821
g58
ag120
aa(lp3822
g59
ag98
aatp3823
Rp3824
ag2452
((lp3825
(lp3826
g49
ag2369
aa(lp3827
g50
ag2363
aa(lp3828
g51
ag95
aa(lp3829
g52
ag1607
aa(lp3830
g53
ag77
aa(lp3831
g54
ag87
aa(lp3832
g55
ag99
aa(lp3833
g56
ag78
aa(lp3834
g57
ag88
aa(lp3835
g58
ag120
aa(lp3836
g59
ag98
aatp3837
Rp3838
ag2452
((lp3839
(lp3840
g49
ag2187
aa(lp3841
g50
ag2181
aa(lp3842
g51
ag133
aa(lp3843
g52
ag1607
aa(lp3844
g53
ag77
aa(lp3845
g54
ag87
aa(lp3846
g55
ag99
aa(lp3847
g56
ag78
aa(lp3848
g57
ag88
aa(lp3849
g58
ag120
aa(lp3850
g59
ag98
aatp3851
Rp3852
ag2452
((lp3853
(lp3854
g49
ag461
aa(lp3855
g50
ag455
aa(lp3856
g51
ag73
aa(lp3857
g52
ag373
aa(lp3858
g53
ag77
aa(lp3859
g54
ag125
aa(lp3860
g55
ag99
aa(lp3861
g56
ag100
aa(lp3862
g57
ag126
aa(lp3863
g58
ag120
aa(lp3864
g59
ag98
aatp3865
Rp3866
ag2452
((lp3867
(lp3868
g49
ag380
aa(lp3869
g50
ag374
aa(lp3870
g51
ag149
aa(lp3871
g52
ag373
aa(lp3872
g53
ag77
aa(lp3873
g54
ag125
aa(lp3874
g55
ag99
aa(lp3875
g56
ag100
aa(lp3876
g57
ag126
aa(lp3877
g58
ag120
aa(lp3878
g59
ag98
aatp3879
Rp3880
ag2452
((lp3881
(lp3882
g49
ag1248
aa(lp3883
g50
ag1242
aa(lp3884
g51
ag95
aa(lp3885
g52
ag373
aa(lp3886
g53
ag77
aa(lp3887
g54
ag125
aa(lp3888
g55
ag99
aa(lp3889
g56
ag100
aa(lp3890
g57
ag126
aa(lp3891
g58
ag120
aa(lp3892
g59
ag98
aatp3893
Rp3894
ag2452
((lp3895
(lp3896
g49
ag1221
aa(lp3897
g50
ag1215
aa(lp3898
g51
ag133
aa(lp3899
g52
ag373
aa(lp3900
g53
ag77
aa(lp3901
g54
ag125
aa(lp3902
g55
ag99
aa(lp3903
g56
ag100
aa(lp3904
g57
ag126
aa(lp3905
g58
ag120
aa(lp3906
g59
ag98
aatp3907
Rp3908
ag2452
((lp3909
(lp3910
g49
ag515
aa(lp3911
g50
ag509
aa(lp3912
g51
ag73
aa(lp3913
g52
ag441
aa(lp3914
g53
ag77
aa(lp3915
g54
ag108
aa(lp3916
g55
ag99
aa(lp3917
g56
ag100
aa(lp3918
g57
ag109
aa(lp3919
g58
ag120
aa(lp3920
g59
ag98
aatp3921
Rp3922
ag2452
((lp3923
(lp3924
g49
ag1182
aa(lp3925
g50
ag1176
aa(lp3926
g51
ag149
aa(lp3927
g52
ag441
aa(lp3928
g53
ag77
aa(lp3929
g54
ag108
aa(lp3930
g55
ag99
aa(lp3931
g56
ag100
aa(lp3932
g57
ag109
aa(lp3933
g58
ag120
aa(lp3934
g59
ag98
aatp3935
Rp3936
ag2452
((lp3937
(lp3938
g49
ag448
aa(lp3939
g50
ag442
aa(lp3940
g51
ag95
aa(lp3941
g52
ag441
aa(lp3942
g53
ag77
aa(lp3943
g54
ag108
aa(lp3944
g55
ag99
aa(lp3945
g56
ag100
aa(lp3946
g57
ag109
aa(lp3947
g58
ag120
aa(lp3948
g59
ag98
aatp3949
Rp3950
ag2452
((lp3951
(lp3952
g49
ag2252
aa(lp3953
g50
ag2246
aa(lp3954
g51
ag133
aa(lp3955
g52
ag441
aa(lp3956
g53
ag77
aa(lp3957
g54
ag108
aa(lp3958
g55
ag99
aa(lp3959
g56
ag100
aa(lp3960
g57
ag109
aa(lp3961
g58
ag120
aa(lp3962
g59
ag98
aatp3963
Rp3964
ag2452
((lp3965
(lp3966
g49
ag1600
aa(lp3967
g50
ag1594
aa(lp3968
g51
ag73
aa(lp3969
g52
ag482
aa(lp3970
g53
ag77
aa(lp3971
g54
ag242
aa(lp3972
g55
ag99
aa(lp3973
g56
ag179
aa(lp3974
g57
ag243
aa(lp3975
g58
ag120
aa(lp3976
g59
ag98
aatp3977
Rp3978
ag2452
((lp3979
(lp3980
g49
ag1143
aa(lp3981
g50
ag1137
aa(lp3982
g51
ag149
aa(lp3983
g52
ag482
aa(lp3984
g53
ag77
aa(lp3985
g54
ag242
aa(lp3986
g55
ag99
aa(lp3987
g56
ag179
aa(lp3988
g57
ag243
aa(lp3989
g58
ag120
aa(lp3990
g59
ag98
aatp3991
Rp3992
ag2452
((lp3993
(lp3994
g49
ag489
aa(lp3995
g50
ag483
aa(lp3996
g51
ag95
aa(lp3997
g52
ag482
aa(lp3998
g53
ag77
aa(lp3999
g54
ag242
aa(lp4000
g55
ag99
aa(lp4001
g56
ag179
aa(lp4002
g57
ag243
aa(lp4003
g58
ag120
aa(lp4004
g59
ag98
aatp4005
Rp4006
ag2452
((lp4007
(lp4008
g49
ag2161
aa(lp4009
g50
ag2155
aa(lp4010
g51
ag133
aa(lp4011
g52
ag482
aa(lp4012
g53
ag77
aa(lp4013
g54
ag242
aa(lp4014
g55
ag99
aa(lp4015
g56
ag179
aa(lp4016
g57
ag243
aa(lp4017
g58
ag120
aa(lp4018
g59
ag98
aatp4019
Rp4020
ag2452
((lp4021
(lp4022
g49
ag625
aa(lp4023
g50
ag619
aa(lp4024
g51
ag73
aa(lp4025
g52
ag618
aa(lp4026
g53
ag77
aa(lp4027
g54
ag186
aa(lp4028
g55
ag99
aa(lp4029
g56
ag179
aa(lp4030
g57
ag109
aa(lp4031
g58
ag120
aa(lp4032
g59
ag98
aatp4033
Rp4034
ag2452
((lp4035
(lp4036
g49
ag984
aa(lp4037
g50
ag978
aa(lp4038
g51
ag149
aa(lp4039
g52
ag618
aa(lp4040
g53
ag77
aa(lp4041
g54
ag186
aa(lp4042
g55
ag99
aa(lp4043
g56
ag179
aa(lp4044
g57
ag109
aa(lp4045
g58
ag120
aa(lp4046
g59
ag98
aatp4047
Rp4048
ag2452
((lp4049
(lp4050
g49
ag1443
aa(lp4051
g50
ag1437
aa(lp4052
g51
ag95
aa(lp4053
g52
ag618
aa(lp4054
g53
ag77
aa(lp4055
g54
ag186
aa(lp4056
g55
ag99
aa(lp4057
g56
ag179
aa(lp4058
g57
ag109
aa(lp4059
g58
ag120
aa(lp4060
g59
ag98
aatp4061
Rp4062
ag2452
((lp4063
(lp4064
g49
ag1587
aa(lp4065
g50
ag1581
aa(lp4066
g51
ag133
aa(lp4067
g52
ag618
aa(lp4068
g53
ag77
aa(lp4069
g54
ag186
aa(lp4070
g55
ag99
aa(lp4071
g56
ag179
aa(lp4072
g57
ag109
aa(lp4073
g58
ag120
aa(lp4074
g59
ag98
aatp4075
Rp4076
ag2452
((lp4077
(lp4078
g49
ag1640
aa(lp4079
g50
ag1634
aa(lp4080
g51
ag73
aa(lp4081
g52
ag1018
aa(lp4082
g53
ag99
aa(lp4083
g54
ag87
aa(lp4084
g55
ag81
aa(lp4085
g56
ag78
aa(lp4086
g57
ag88
aa(lp4087
g58
ag103
aa(lp4088
g59
ag136
aatp4089
Rp4090
ag2452
((lp4091
(lp4092
g49
ag2291
aa(lp4093
g50
ag2285
aa(lp4094
g51
ag149
aa(lp4095
g52
ag1018
aa(lp4096
g53
ag99
aa(lp4097
g54
ag87
aa(lp4098
g55
ag81
aa(lp4099
g56
ag78
aa(lp4100
g57
ag88
aa(lp4101
g58
ag103
aa(lp4102
g59
ag136
aatp4103
Rp4104
ag2452
((lp4105
(lp4106
g49
ag1025
aa(lp4107
g50
ag1019
aa(lp4108
g51
ag95
aa(lp4109
g52
ag1018
aa(lp4110
g53
ag99
aa(lp4111
g54
ag87
aa(lp4112
g55
ag81
aa(lp4113
g56
ag78
aa(lp4114
g57
ag88
aa(lp4115
g58
ag103
aa(lp4116
g59
ag136
aatp4117
Rp4118
ag2452
((lp4119
(lp4120
g49
ag1706
aa(lp4121
g50
ag1700
aa(lp4122
g51
ag133
aa(lp4123
g52
ag1018
aa(lp4124
g53
ag99
aa(lp4125
g54
ag87
aa(lp4126
g55
ag81
aa(lp4127
g56
ag78
aa(lp4128
g57
ag88
aa(lp4129
g58
ag103
aa(lp4130
g59
ag136
aatp4131
Rp4132
ag2452
((lp4133
(lp4134
g49
ag1130
aa(lp4135
g50
ag1124
aa(lp4136
g51
ag73
aa(lp4137
g52
ag564
aa(lp4138
g53
ag99
aa(lp4139
g54
ag125
aa(lp4140
g55
ag81
aa(lp4141
g56
ag100
aa(lp4142
g57
ag126
aa(lp4143
g58
ag103
aa(lp4144
g59
ag136
aatp4145
Rp4146
ag2452
((lp4147
(lp4148
g49
ag866
aa(lp4149
g50
ag860
aa(lp4150
g51
ag149
aa(lp4151
g52
ag564
aa(lp4152
g53
ag99
aa(lp4153
g54
ag125
aa(lp4154
g55
ag81
aa(lp4155
g56
ag100
aa(lp4156
g57
ag126
aa(lp4157
g58
ag103
aa(lp4158
g59
ag136
aatp4159
Rp4160
ag2452
((lp4161
(lp4162
g49
ag1169
aa(lp4163
g50
ag1163
aa(lp4164
g51
ag95
aa(lp4165
g52
ag564
aa(lp4166
g53
ag99
aa(lp4167
g54
ag125
aa(lp4168
g55
ag81
aa(lp4169
g56
ag100
aa(lp4170
g57
ag126
aa(lp4171
g58
ag103
aa(lp4172
g59
ag136
aatp4173
Rp4174
ag2452
((lp4175
(lp4176
g49
ag571
aa(lp4177
g50
ag565
aa(lp4178
g51
ag133
aa(lp4179
g52
ag564
aa(lp4180
g53
ag99
aa(lp4181
g54
ag125
aa(lp4182
g55
ag81
aa(lp4183
g56
ag100
aa(lp4184
g57
ag126
aa(lp4185
g58
ag103
aa(lp4186
g59
ag136
aatp4187
Rp4188
ag2452
((lp4189
(lp4190
g49
ag169
aa(lp4191
g50
ag163
aa(lp4192
g51
ag73
aa(lp4193
g52
ag148
aa(lp4194
g53
ag99
aa(lp4195
g54
ag108
aa(lp4196
g55
ag81
aa(lp4197
g56
ag100
aa(lp4198
g57
ag109
aa(lp4199
g58
ag103
aa(lp4200
g59
ag136
aatp4201
Rp4202
ag2452
((lp4203
(lp4204
g49
ag156
aa(lp4205
g50
ag150
aa(lp4206
g51
ag149
aa(lp4207
g52
ag148
aa(lp4208
g53
ag99
aa(lp4209
g54
ag108
aa(lp4210
g55
ag81
aa(lp4211
g56
ag100
aa(lp4212
g57
ag109
aa(lp4213
g58
ag103
aa(lp4214
g59
ag136
aatp4215
Rp4216
ag2452
((lp4217
(lp4218
g49
ag971
aa(lp4219
g50
ag965
aa(lp4220
g51
ag95
aa(lp4221
g52
ag148
aa(lp4222
g53
ag99
aa(lp4223
g54
ag108
aa(lp4224
g55
ag81
aa(lp4225
g56
ag100
aa(lp4226
g57
ag109
aa(lp4227
g58
ag103
aa(lp4228
g59
ag136
aatp4229
Rp4230
ag2452
((lp4231
(lp4232
g49
ag366
aa(lp4233
g50
ag360
aa(lp4234
g51
ag133
aa(lp4235
g52
ag148
aa(lp4236
g53
ag99
aa(lp4237
g54
ag108
aa(lp4238
g55
ag81
aa(lp4239
g56
ag100
aa(lp4240
g57
ag109
aa(lp4241
g58
ag103
aa(lp4242
g59
ag136
aatp4243
Rp4244
ag2452
((lp4245
(lp4246
g49
ag421
aa(lp4247
g50
ag415
aa(lp4248
g51
ag73
aa(lp4249
g52
ag414
aa(lp4250
g53
ag99
aa(lp4251
g54
ag242
aa(lp4252
g55
ag81
aa(lp4253
g56
ag179
aa(lp4254
g57
ag243
aa(lp4255
g58
ag103
aa(lp4256
g59
ag136
aatp4257
Rp4258
ag2452
((lp4259
(lp4260
g49
ag1927
aa(lp4261
g50
ag1921
aa(lp4262
g51
ag149
aa(lp4263
g52
ag414
aa(lp4264
g53
ag99
aa(lp4265
g54
ag242
aa(lp4266
g55
ag81
aa(lp4267
g56
ag179
aa(lp4268
g57
ag243
aa(lp4269
g58
ag103
aa(lp4270
g59
ag136
aatp4271
Rp4272
ag2452
((lp4273
(lp4274
g49
ag2122
aa(lp4275
g50
ag2116
aa(lp4276
g51
ag95
aa(lp4277
g52
ag414
aa(lp4278
g53
ag99
aa(lp4279
g54
ag242
aa(lp4280
g55
ag81
aa(lp4281
g56
ag179
aa(lp4282
g57
ag243
aa(lp4283
g58
ag103
aa(lp4284
g59
ag136
aatp4285
Rp4286
ag2452
((lp4287
(lp4288
g49
ag1888
aa(lp4289
g50
ag1882
aa(lp4290
g51
ag133
aa(lp4291
g52
ag414
aa(lp4292
g53
ag99
aa(lp4293
g54
ag242
aa(lp4294
g55
ag81
aa(lp4295
g56
ag179
aa(lp4296
g57
ag243
aa(lp4297
g58
ag103
aa(lp4298
g59
ag136
aatp4299
Rp4300
ag2452
((lp4301
(lp4302
g49
ag1339
aa(lp4303
g50
ag1333
aa(lp4304
g51
ag73
aa(lp4305
g52
ag578
aa(lp4306
g53
ag99
aa(lp4307
g54
ag186
aa(lp4308
g55
ag81
aa(lp4309
g56
ag179
aa(lp4310
g57
ag109
aa(lp4311
g58
ag103
aa(lp4312
g59
ag136
aatp4313
Rp4314
ag2452
((lp4315
(lp4316
g49
ag585
aa(lp4317
g50
ag579
aa(lp4318
g51
ag149
aa(lp4319
g52
ag578
aa(lp4320
g53
ag99
aa(lp4321
g54
ag186
aa(lp4322
g55
ag81
aa(lp4323
g56
ag179
aa(lp4324
g57
ag109
aa(lp4325
g58
ag103
aa(lp4326
g59
ag136
aatp4327
Rp4328
ag2452
((lp4329
(lp4330
g49
ag2018
aa(lp4331
g50
ag2012
aa(lp4332
g51
ag95
aa(lp4333
g52
ag578
aa(lp4334
g53
ag99
aa(lp4335
g54
ag186
aa(lp4336
g55
ag81
aa(lp4337
g56
ag179
aa(lp4338
g57
ag109
aa(lp4339
g58
ag103
aa(lp4340
g59
ag136
aatp4341
Rp4342
ag2452
((lp4343
(lp4344
g49
ag786
aa(lp4345
g50
ag780
aa(lp4346
g51
ag133
aa(lp4347
g52
ag578
aa(lp4348
g53
ag99
aa(lp4349
g54
ag186
aa(lp4350
g55
ag81
aa(lp4351
g56
ag179
aa(lp4352
g57
ag109
aa(lp4353
g58
ag103
aa(lp4354
g59
ag136
aatp4355
Rp4356
ag2452
((lp4357
(lp4358
g49
ag2226
aa(lp4359
g50
ag2220
aa(lp4360
g51
ag73
aa(lp4361
g52
ag387
aa(lp4362
g53
ag99
aa(lp4363
g54
ag87
aa(lp4364
g55
ag77
aa(lp4365
g56
ag78
aa(lp4366
g57
ag88
aa(lp4367
g58
ag103
aa(lp4368
g59
ag76
aatp4369
Rp4370
ag2452
((lp4371
(lp4372
g49
ag2135
aa(lp4373
g50
ag2129
aa(lp4374
g51
ag149
aa(lp4375
g52
ag387
aa(lp4376
g53
ag99
aa(lp4377
g54
ag87
aa(lp4378
g55
ag77
aa(lp4379
g56
ag78
aa(lp4380
g57
ag88
aa(lp4381
g58
ag103
aa(lp4382
g59
ag76
aatp4383
Rp4384
ag2452
((lp4385
(lp4386
g49
ag1732
aa(lp4387
g50
ag1726
aa(lp4388
g51
ag95
aa(lp4389
g52
ag387
aa(lp4390
g53
ag99
aa(lp4391
g54
ag87
aa(lp4392
g55
ag77
aa(lp4393
g56
ag78
aa(lp4394
g57
ag88
aa(lp4395
g58
ag103
aa(lp4396
g59
ag76
aatp4397
Rp4398
ag2452
((lp4399
(lp4400
g49
ag394
aa(lp4401
g50
ag388
aa(lp4402
g51
ag133
aa(lp4403
g52
ag387
aa(lp4404
g53
ag99
aa(lp4405
g54
ag87
aa(lp4406
g55
ag77
aa(lp4407
g56
ag78
aa(lp4408
g57
ag88
aa(lp4409
g58
ag103
aa(lp4410
g59
ag76
aatp4411
Rp4412
ag2452
((lp4413
(lp4414
g49
ag1810
aa(lp4415
g50
ag1804
aa(lp4416
g51
ag73
aa(lp4417
g52
ag550
aa(lp4418
g53
ag99
aa(lp4419
g54
ag125
aa(lp4420
g55
ag77
aa(lp4421
g56
ag100
aa(lp4422
g57
ag126
aa(lp4423
g58
ag103
aa(lp4424
g59
ag76
aatp4425
Rp4426
ag2452
((lp4427
(lp4428
g49
ag557
aa(lp4429
g50
ag551
aa(lp4430
g51
ag149
aa(lp4431
g52
ag550
aa(lp4432
g53
ag99
aa(lp4433
g54
ag125
aa(lp4434
g55
ag77
aa(lp4435
g56
ag100
aa(lp4436
g57
ag126
aa(lp4437
g58
ag103
aa(lp4438
g59
ag76
aatp4439
Rp4440
ag2452
((lp4441
(lp4442
g49
ag2239
aa(lp4443
g50
ag2233
aa(lp4444
g51
ag95
aa(lp4445
g52
ag550
aa(lp4446
g53
ag99
aa(lp4447
g54
ag125
aa(lp4448
g55
ag77
aa(lp4449
g56
ag100
aa(lp4450
g57
ag126
aa(lp4451
g58
ag103
aa(lp4452
g59
ag76
aatp4453
Rp4454
ag2452
((lp4455
(lp4456
g49
ag1365
aa(lp4457
g50
ag1359
aa(lp4458
g51
ag133
aa(lp4459
g52
ag550
aa(lp4460
g53
ag99
aa(lp4461
g54
ag125
aa(lp4462
g55
ag77
aa(lp4463
g56
ag100
aa(lp4464
g57
ag126
aa(lp4465
g58
ag103
aa(lp4466
g59
ag76
aatp4467
Rp4468
ag2452
((lp4469
(lp4470
g49
ag1482
aa(lp4471
g50
ag1476
aa(lp4472
g51
ag73
aa(lp4473
g52
ag925
aa(lp4474
g53
ag99
aa(lp4475
g54
ag108
aa(lp4476
g55
ag77
aa(lp4477
g56
ag100
aa(lp4478
g57
ag109
aa(lp4479
g58
ag103
aa(lp4480
g59
ag76
aatp4481
Rp4482
ag2452
((lp4483
(lp4484
g49
ag932
aa(lp4485
g50
ag926
aa(lp4486
g51
ag149
aa(lp4487
g52
ag925
aa(lp4488
g53
ag99
aa(lp4489
g54
ag108
aa(lp4490
g55
ag77
aa(lp4491
g56
ag100
aa(lp4492
g57
ag109
aa(lp4493
g58
ag103
aa(lp4494
g59
ag76
aatp4495
Rp4496
ag2452
((lp4497
(lp4498
g49
ag2200
aa(lp4499
g50
ag2194
aa(lp4500
g51
ag95
aa(lp4501
g52
ag925
aa(lp4502
g53
ag99
aa(lp4503
g54
ag108
aa(lp4504
g55
ag77
aa(lp4505
g56
ag100
aa(lp4506
g57
ag109
aa(lp4507
g58
ag103
aa(lp4508
g59
ag76
aatp4509
Rp4510
ag2452
((lp4511
(lp4512
g49
ag1117
aa(lp4513
g50
ag1111
aa(lp4514
g51
ag133
aa(lp4515
g52
ag925
aa(lp4516
g53
ag99
aa(lp4517
g54
ag108
aa(lp4518
g55
ag77
aa(lp4519
g56
ag100
aa(lp4520
g57
ag109
aa(lp4521
g58
ag103
aa(lp4522
g59
ag76
aatp4523
Rp4524
ag2452
((lp4525
(lp4526
g49
ag813
aa(lp4527
g50
ag807
aa(lp4528
g51
ag73
aa(lp4529
g52
ag806
aa(lp4530
g53
ag99
aa(lp4531
g54
ag242
aa(lp4532
g55
ag77
aa(lp4533
g56
ag179
aa(lp4534
g57
ag243
aa(lp4535
g58
ag103
aa(lp4536
g59
ag76
aatp4537
Rp4538
ag2452
((lp4539
(lp4540
g49
ag1862
aa(lp4541
g50
ag1856
aa(lp4542
g51
ag149
aa(lp4543
g52
ag806
aa(lp4544
g53
ag99
aa(lp4545
g54
ag242
aa(lp4546
g55
ag77
aa(lp4547
g56
ag179
aa(lp4548
g57
ag243
aa(lp4549
g58
ag103
aa(lp4550
g59
ag76
aatp4551
Rp4552
ag2452
((lp4553
(lp4554
g49
ag1352
aa(lp4555
g50
ag1346
aa(lp4556
g51
ag95
aa(lp4557
g52
ag806
aa(lp4558
g53
ag99
aa(lp4559
g54
ag242
aa(lp4560
g55
ag77
aa(lp4561
g56
ag179
aa(lp4562
g57
ag243
aa(lp4563
g58
ag103
aa(lp4564
g59
ag76
aatp4565
Rp4566
ag2452
((lp4567
(lp4568
g49
ag1430
aa(lp4569
g50
ag1424
aa(lp4570
g51
ag133
aa(lp4571
g52
ag806
aa(lp4572
g53
ag99
aa(lp4573
g54
ag242
aa(lp4574
g55
ag77
aa(lp4575
g56
ag179
aa(lp4576
g57
ag243
aa(lp4577
g58
ag103
aa(lp4578
g59
ag76
aatp4579
Rp4580
ag2452
((lp4581
(lp4582
g49
ag502
aa(lp4583
g50
ag496
aa(lp4584
g51
ag73
aa(lp4585
g52
ag249
aa(lp4586
g53
ag99
aa(lp4587
g54
ag186
aa(lp4588
g55
ag77
aa(lp4589
g56
ag179
aa(lp4590
g57
ag109
aa(lp4591
g58
ag103
aa(lp4592
g59
ag76
aatp4593
Rp4594
ag2452
((lp4595
(lp4596
g49
ag256
aa(lp4597
g50
ag250
aa(lp4598
g51
ag149
aa(lp4599
g52
ag249
aa(lp4600
g53
ag99
aa(lp4601
g54
ag186
aa(lp4602
g55
ag77
aa(lp4603
g56
ag179
aa(lp4604
g57
ag109
aa(lp4605
g58
ag103
aa(lp4606
g59
ag76
aatp4607
Rp4608
ag2452
((lp4609
(lp4610
g49
ag2174
aa(lp4611
g50
ag2168
aa(lp4612
g51
ag95
aa(lp4613
g52
ag249
aa(lp4614
g53
ag99
aa(lp4615
g54
ag186
aa(lp4616
g55
ag77
aa(lp4617
g56
ag179
aa(lp4618
g57
ag109
aa(lp4619
g58
ag103
aa(lp4620
g59
ag76
aatp4621
Rp4622
ag2452
((lp4623
(lp4624
g49
ag1404
aa(lp4625
g50
ag1398
aa(lp4626
g51
ag133
aa(lp4627
g52
ag249
aa(lp4628
g53
ag99
aa(lp4629
g54
ag186
aa(lp4630
g55
ag77
aa(lp4631
g56
ag179
aa(lp4632
g57
ag109
aa(lp4633
g58
ag103
aa(lp4634
g59
ag76
aatp4635
Rp4636
ag2452
((lp4637
(lp4638
g49
ag212
aa(lp4639
g50
ag206
aa(lp4640
g51
ag73
aa(lp4641
g52
ag205
aa(lp4642
g53
ag99
aa(lp4643
g54
ag125
aa(lp4644
g55
ag99
aa(lp4645
g56
ag100
aa(lp4646
g57
ag126
aa(lp4647
g58
ag103
aa(lp4648
g59
ag98
aatp4649
Rp4650
ag2452
((lp4651
(lp4652
g49
ag945
aa(lp4653
g50
ag939
aa(lp4654
g51
ag149
aa(lp4655
g52
ag205
aa(lp4656
g53
ag99
aa(lp4657
g54
ag125
aa(lp4658
g55
ag99
aa(lp4659
g56
ag100
aa(lp4660
g57
ag126
aa(lp4661
g58
ag103
aa(lp4662
g59
ag98
aatp4663
Rp4664
ag2452
((lp4665
(lp4666
g49
ag1091
aa(lp4667
g50
ag1085
aa(lp4668
g51
ag95
aa(lp4669
g52
ag205
aa(lp4670
g53
ag99
aa(lp4671
g54
ag125
aa(lp4672
g55
ag99
aa(lp4673
g56
ag100
aa(lp4674
g57
ag126
aa(lp4675
g58
ag103
aa(lp4676
g59
ag98
aatp4677
Rp4678
ag2452
((lp4679
(lp4680
g49
ag407
aa(lp4681
g50
ag401
aa(lp4682
g51
ag133
aa(lp4683
g52
ag205
aa(lp4684
g53
ag99
aa(lp4685
g54
ag125
aa(lp4686
g55
ag99
aa(lp4687
g56
ag100
aa(lp4688
g57
ag126
aa(lp4689
g58
ag103
aa(lp4690
g59
ag98
aatp4691
Rp4692
ag2452
((lp4693
(lp4694
g49
ag1521
aa(lp4695
g50
ag1515
aa(lp4696
g51
ag73
aa(lp4697
g52
ag94
aa(lp4698
g53
ag99
aa(lp4699
g54
ag108
aa(lp4700
g55
ag99
aa(lp4701
g56
ag100
aa(lp4702
g57
ag109
aa(lp4703
g58
ag103
aa(lp4704
g59
ag98
aatp4705
Rp4706
ag2452
((lp4707
(lp4708
g49
ag773
aa(lp4709
g50
ag767
aa(lp4710
g51
ag149
aa(lp4711
g52
ag94
aa(lp4712
g53
ag99
aa(lp4713
g54
ag108
aa(lp4714
g55
ag99
aa(lp4715
g56
ag100
aa(lp4716
g57
ag109
aa(lp4717
g58
ag103
aa(lp4718
g59
ag98
aatp4719
Rp4720
ag2452
((lp4721
(lp4722
g49
ag106
aa(lp4723
g50
ag96
aa(lp4724
g51
ag95
aa(lp4725
g52
ag94
aa(lp4726
g53
ag99
aa(lp4727
g54
ag108
aa(lp4728
g55
ag99
aa(lp4729
g56
ag100
aa(lp4730
g57
ag109
aa(lp4731
g58
ag103
aa(lp4732
g59
ag98
aatp4733
Rp4734
ag2452
((lp4735
(lp4736
g49
ag879
aa(lp4737
g50
ag873
aa(lp4738
g51
ag133
aa(lp4739
g52
ag94
aa(lp4740
g53
ag99
aa(lp4741
g54
ag108
aa(lp4742
g55
ag99
aa(lp4743
g56
ag100
aa(lp4744
g57
ag109
aa(lp4745
g58
ag103
aa(lp4746
g59
ag98
aatp4747
Rp4748
ag2452
((lp4749
(lp4750
g49
ag1417
aa(lp4751
g50
ag1411
aa(lp4752
g51
ag73
aa(lp4753
g52
ag522
aa(lp4754
g53
ag99
aa(lp4755
g54
ag242
aa(lp4756
g55
ag99
aa(lp4757
g56
ag179
aa(lp4758
g57
ag243
aa(lp4759
g58
ag103
aa(lp4760
g59
ag98
aatp4761
Rp4762
ag2452
((lp4763
(lp4764
g49
ag529
aa(lp4765
g50
ag523
aa(lp4766
g51
ag149
aa(lp4767
g52
ag522
aa(lp4768
g53
ag99
aa(lp4769
g54
ag242
aa(lp4770
g55
ag99
aa(lp4771
g56
ag179
aa(lp4772
g57
ag243
aa(lp4773
g58
ag103
aa(lp4774
g59
ag98
aatp4775
Rp4776
ag2452
((lp4777
(lp4778
g49
ag1666
aa(lp4779
g50
ag1660
aa(lp4780
g51
ag95
aa(lp4781
g52
ag522
aa(lp4782
g53
ag99
aa(lp4783
g54
ag242
aa(lp4784
g55
ag99
aa(lp4785
g56
ag179
aa(lp4786
g57
ag243
aa(lp4787
g58
ag103
aa(lp4788
g59
ag98
aatp4789
Rp4790
ag2452
((lp4791
(lp4792
g49
ag2057
aa(lp4793
g50
ag2051
aa(lp4794
g51
ag133
aa(lp4795
g52
ag522
aa(lp4796
g53
ag99
aa(lp4797
g54
ag242
aa(lp4798
g55
ag99
aa(lp4799
g56
ag179
aa(lp4800
g57
ag243
aa(lp4801
g58
ag103
aa(lp4802
g59
ag98
aatp4803
Rp4804
ag2452
((lp4805
(lp4806
g49
ag1261
aa(lp4807
g50
ag1255
aa(lp4808
g51
ag73
aa(lp4809
g52
ag176
aa(lp4810
g53
ag99
aa(lp4811
g54
ag186
aa(lp4812
g55
ag99
aa(lp4813
g56
ag179
aa(lp4814
g57
ag109
aa(lp4815
g58
ag103
aa(lp4816
g59
ag98
aatp4817
Rp4818
ag2452
((lp4819
(lp4820
g49
ag198
aa(lp4821
g50
ag192
aa(lp4822
g51
ag149
aa(lp4823
g52
ag176
aa(lp4824
g53
ag99
aa(lp4825
g54
ag186
aa(lp4826
g55
ag99
aa(lp4827
g56
ag179
aa(lp4828
g57
ag109
aa(lp4829
g58
ag103
aa(lp4830
g59
ag98
aatp4831
Rp4832
ag2452
((lp4833
(lp4834
g49
ag1653
aa(lp4835
g50
ag1647
aa(lp4836
g51
ag95
aa(lp4837
g52
ag176
aa(lp4838
g53
ag99
aa(lp4839
g54
ag186
aa(lp4840
g55
ag99
aa(lp4841
g56
ag179
aa(lp4842
g57
ag109
aa(lp4843
g58
ag103
aa(lp4844
g59
ag98
aatp4845
Rp4846
ag2452
((lp4847
(lp4848
g49
ag184
aa(lp4849
g50
ag177
aa(lp4850
g51
ag133
aa(lp4851
g52
ag176
aa(lp4852
g53
ag99
aa(lp4853
g54
ag186
aa(lp4854
g55
ag99
aa(lp4855
g56
ag179
aa(lp4856
g57
ag109
aa(lp4857
g58
ag103
aa(lp4858
g59
ag98
aatp4859
Rp4860
asS'seed'
p4861
NsS'thisIndex'
p4862
g2362
sS'thisN'
p4863
I172
sS'thisTrialN'
p4864
I0
sS'nTotal'
p4865
I172
sbasS'savePickle'
p4866
I00
sb.