ccopy_reg
_reconstructor
p0
(cpsychopy.data.experiment
ExperimentHandler
p1
c__builtin__
object
p2
Ntp3
Rp4
(dp5
S'originPath'
p6
V/Users/stefano/GitHub/phd-project/italian-egg/experiment/italian-egg.psyexp
p7
sS'dataFileName'
p8
V/Users/stefano/GitHub/phd-project/italian-egg/experiment/results/it16_italian-egg_2018_Aug_30_1930
p9
sS'runtimeInfo'
p10
NsS'name'
p11
S'italian-egg'
p12
sS'dataNames'
p13
(lp14
S'key_resp_2.keys'
p15
aS'key_resp_2.rt'
p16
asS'autoLog'
p17
I01
sS'extraInfo'
p18
(dp19
S'date'
p20
V2018_Aug_30_1930
p21
sS'frameRate'
p22
cnumpy.core.multiarray
scalar
p23
(cnumpy
dtype
p24
(S'f8'
p25
I0
I1
tp26
Rp27
(I3
S'<'
p28
NNNI-1
I-1
I0
tp29
bS'i\x18\xfa\xb30$N@'
p30
tp31
Rp32
sS'expName'
p33
g12
sVparticipant
p34
g0
(cfuture.types.newstr
newstr
p35
c__builtin__
unicode
p36
Vit16
p37
tp38
Rp39
ssS'loopsUnfinished'
p40
(lp41
sS'saveWideText'
p42
I00
sS'thisEntry'
p43
(dp44
sS'version'
p45
S''
p46
sS'_paramNamesSoFar'
p47
(lp48
Vstimulus_id
p49
aVstimulus
p50
aVsentence
p51
aVword
p52
aVconsonant_1
p53
aVvowel
p54
aVconsonant_2
p55
aVbackness
p56
aVheight
p57
aVplace_1
p58
aVplace_2
p59
asS'entries'
p60
(lp61
(dp62
S'trials.thisIndex'
p63
g23
(g24
(S'i8'
p64
I0
I1
tp65
Rp66
(I3
S'<'
p67
NNNI-1
I-1
I0
tp68
bS'\x9f\x00\x00\x00\x00\x00\x00\x00'
p69
tp70
Rp71
sg16
F10.422834157943726
sg22
g32
sg52
Vcheco
p72
sg51
VRipete X da sempre
p73
sg50
VRipete "checo" da sempre
p74
sS'trials.thisRepN'
p75
I0
sg59
Vvelar
p76
sg55
Vk
p77
sg56
Vfront
p78
sg15
S'space'
p79
sS'trials.thisN'
p80
I0
sg53
g77
sg58
Vvelar
p81
sg49
g23
(g66
S'\xa0\x00\x00\x00\x00\x00\x00\x00'
p82
tp83
Rp84
sS'trials.thisTrialN'
p85
I0
sg54
Ve
p86
sg20
g21
sg34
g39
sg57
Vmid-high
p87
sg33
g12
sa(dp88
S'trials.thisIndex'
p89
g23
(g66
S'\x0f\x00\x00\x00\x00\x00\x00\x00'
p90
tp91
Rp92
sg16
F1.552901029586792
sg22
g32
sg52
Vpopo
p93
sg51
g73
sg50
VRipete "popo" da sempre
p94
sS'trials.thisRepN'
p95
I0
sg59
Vlabial
p96
sg55
Vp
p97
sg56
Vback
p98
sg15
S'space'
p99
sS'trials.thisN'
p100
I1
sg53
g97
sg58
Vlabial
p101
sg49
g23
(g66
S'\x10\x00\x00\x00\x00\x00\x00\x00'
p102
tp103
Rp104
sS'trials.thisTrialN'
p105
I1
sg54
Vo
p106
sg20
g21
sg34
g39
sg57
Vmid-low
p107
sg33
g12
sa(dp108
S'trials.thisIndex'
p109
g23
(g66
S'I\x00\x00\x00\x00\x00\x00\x00'
p110
tp111
Rp112
sg16
F1.3864059448242188
sg22
g32
sg52
Vtupo
p113
sg51
VHa detto X sei volte
p114
sg50
VHa detto "tupo" sei volte
p115
sS'trials.thisRepN'
p116
I0
sg59
g96
sg55
g97
sg56
g98
sg15
S'space'
p117
sS'trials.thisN'
p118
I2
sg53
Vt
p119
sg58
Vcoronal
p120
sg49
g23
(g66
S'J\x00\x00\x00\x00\x00\x00\x00'
p121
tp122
Rp123
sS'trials.thisTrialN'
p124
I2
sg54
Vu
p125
sg20
g21
sg34
g39
sg57
Vhigh
p126
sg33
g12
sa(dp127
S'trials.thisIndex'
p128
g23
(g66
S'\x02\x00\x00\x00\x00\x00\x00\x00'
p129
tp130
Rp131
sg16
F1.4700100421905518
sg22
g32
sg52
Vpapo
p132
sg51
VSentivo X di nuovo
p133
sg50
VSentivo "papo" di nuovo
p134
sS'trials.thisRepN'
p135
I0
sg59
g96
sg55
g97
sg56
Vcentral
p136
sg15
S'space'
p137
sS'trials.thisN'
p138
I3
sg53
g97
sg58
g101
sg49
g23
(g66
S'\x03\x00\x00\x00\x00\x00\x00\x00'
p139
tp140
Rp141
sS'trials.thisTrialN'
p142
I3
sg54
Va
p143
sg20
g21
sg34
g39
sg57
Vlow
p144
sg33
g12
sa(dp145
S'trials.thisIndex'
p146
g23
(g66
S'\x13\x00\x00\x00\x00\x00\x00\x00'
p147
tp148
Rp149
sg16
F1.4871349334716797
sg22
g32
sg52
Vpupo
p150
sg51
g73
sg50
VRipete "pupo" da sempre
p151
sS'trials.thisRepN'
p152
I0
sg59
g96
sg55
g97
sg56
g98
sg15
S'space'
p153
sS'trials.thisN'
p154
I4
sg53
g97
sg58
g101
sg49
g23
(g66
S'\x14\x00\x00\x00\x00\x00\x00\x00'
p155
tp156
Rp157
sS'trials.thisTrialN'
p158
I4
sg54
g125
sg20
g21
sg34
g39
sg57
g126
sg33
g12
sa(dp159
S'trials.thisIndex'
p160
g23
(g66
S'\r\x00\x00\x00\x00\x00\x00\x00'
p161
tp162
Rp163
sg16
F1.369668960571289
sg22
g32
sg52
g93
sg51
g114
sg50
VHa detto "popo" sei volte
p164
sS'trials.thisRepN'
p165
I0
sg59
g96
sg55
g97
sg56
g98
sg15
S'space'
p166
sS'trials.thisN'
p167
I5
sg53
g97
sg58
g101
sg49
g23
(g66
S'\x0e\x00\x00\x00\x00\x00\x00\x00'
p168
tp169
Rp170
sS'trials.thisTrialN'
p171
I5
sg54
g106
sg20
g21
sg34
g39
sg57
g107
sg33
g12
sa(dp172
S'trials.thisIndex'
p173
g23
(g66
S'Z\x00\x00\x00\x00\x00\x00\x00'
p174
tp175
Rp176
sg16
F1.4188361167907715
sg22
g32
sg52
Vtoto
p177
sg51
g133
sg50
VSentivo "toto" di nuovo
p178
sS'trials.thisRepN'
p179
I0
sg59
Vcoronal
p180
sg55
g119
sg56
g98
sg15
S'space'
p181
sS'trials.thisN'
p182
I6
sg53
g119
sg58
g120
sg49
g23
(g66
S'[\x00\x00\x00\x00\x00\x00\x00'
p183
tp184
Rp185
sS'trials.thisTrialN'
p186
I6
sg54
g106
sg20
g21
sg34
g39
sg57
g107
sg33
g12
sa(dp187
S'trials.thisIndex'
p188
g23
(g66
S'h\x00\x00\x00\x00\x00\x00\x00'
p189
tp190
Rp191
sg16
F1.5518739223480225
sg22
g32
sg52
Vtico
p192
sg51
VScrivete X sul foglio
p193
sg50
VScrivete "tico" sul foglio
p194
sS'trials.thisRepN'
p195
I0
sg59
g76
sg55
g77
sg56
g78
sg15
S'space'
p196
sS'trials.thisN'
p197
I7
sg53
g119
sg58
g120
sg49
g23
(g66
S'i\x00\x00\x00\x00\x00\x00\x00'
p198
tp199
Rp200
sS'trials.thisTrialN'
p201
I7
sg54
Vi
p202
sg20
g21
sg34
g39
sg57
g126
sg33
g12
sa(dp203
S'trials.thisIndex'
p204
g23
(g66
S'&\x00\x00\x00\x00\x00\x00\x00'
p205
tp206
Rp207
sg16
F1.4369738101959229
sg22
g32
sg52
Vpaco
p208
sg51
g133
sg50
VSentivo "paco" di nuovo
p209
sS'trials.thisRepN'
p210
I0
sg59
g76
sg55
g77
sg56
g136
sg15
S'space'
p211
sS'trials.thisN'
p212
I8
sg53
g97
sg58
g101
sg49
g23
(g66
S"'\x00\x00\x00\x00\x00\x00\x00"
p213
tp214
Rp215
sS'trials.thisTrialN'
p216
I8
sg54
g143
sg20
g21
sg34
g39
sg57
g144
sg33
g12
sa(dp217
S'trials.thisIndex'
p218
g23
(g66
S'l\x00\x00\x00\x00\x00\x00\x00'
p219
tp220
Rp221
sg16
F1.3525471687316895
sg22
g32
sg52
Vtoco
p222
sg51
g193
sg50
VScrivete "toco" sul foglio
p223
sS'trials.thisRepN'
p224
I0
sg59
g76
sg55
g77
sg56
g98
sg15
S'space'
p225
sS'trials.thisN'
p226
I9
sg53
g119
sg58
g120
sg49
g23
(g66
S'm\x00\x00\x00\x00\x00\x00\x00'
p227
tp228
Rp229
sS'trials.thisTrialN'
p230
I9
sg54
g106
sg20
g21
sg34
g39
sg57
g107
sg33
g12
sa(dp231
S'trials.thisIndex'
p232
g23
(g66
S'r\x00\x00\x00\x00\x00\x00\x00'
p233
tp234
Rp235
sg16
F1.3029999732971191
sg22
g32
sg52
Vtuco
p236
sg51
g133
sg50
VSentivo "tuco" di nuovo
p237
sS'trials.thisRepN'
p238
I0
sg59
g76
sg55
g77
sg56
g98
sg15
S'space'
p239
sS'trials.thisN'
p240
I10
sg53
g119
sg58
g120
sg49
g23
(g66
S's\x00\x00\x00\x00\x00\x00\x00'
p241
tp242
Rp243
sS'trials.thisTrialN'
p244
I10
sg54
g125
sg20
g21
sg34
g39
sg57
g126
sg33
g12
sa(dp245
S'trials.thisIndex'
p246
g23
(g66
S'z\x00\x00\x00\x00\x00\x00\x00'
p247
tp248
Rp249
sg16
F1.320478916168213
sg22
g32
sg52
Vchepo
p250
sg51
g133
sg50
VSentivo "chepo" di nuovo
p251
sS'trials.thisRepN'
p252
I0
sg59
g96
sg55
g97
sg56
g78
sg15
S'space'
p253
sS'trials.thisN'
p254
I11
sg53
g77
sg58
g81
sg49
g23
(g66
S'{\x00\x00\x00\x00\x00\x00\x00'
p255
tp256
Rp257
sS'trials.thisTrialN'
p258
I11
sg54
g86
sg20
g21
sg34
g39
sg57
g87
sg33
g12
sa(dp259
S'trials.thisIndex'
p260
g23
(g66
S'c\x00\x00\x00\x00\x00\x00\x00'
p261
tp262
Rp263
sg16
F1.520603895187378
sg22
g32
sg52
Vtaco
p264
sg51
g73
sg50
VRipete "taco" da sempre
p265
sS'trials.thisRepN'
p266
I0
sg59
g76
sg55
g77
sg56
g136
sg15
S'space'
p267
sS'trials.thisN'
p268
I12
sg53
g119
sg58
g120
sg49
g23
(g66
S'd\x00\x00\x00\x00\x00\x00\x00'
p269
tp270
Rp271
sS'trials.thisTrialN'
p272
I12
sg54
g143
sg20
g21
sg34
g39
sg57
g144
sg33
g12
sa(dp273
S'trials.thisIndex'
p274
g23
(g66
S'/\x00\x00\x00\x00\x00\x00\x00'
p275
tp276
Rp277
sg16
F1.2876110076904297
sg22
g32
sg52
Vpico
p278
sg51
g73
sg50
VRipete "pico" da sempre
p279
sS'trials.thisRepN'
p280
I0
sg59
g76
sg55
g77
sg56
g78
sg15
S'space'
p281
sS'trials.thisN'
p282
I13
sg53
g97
sg58
g101
sg49
g23
(g66
S'0\x00\x00\x00\x00\x00\x00\x00'
p283
tp284
Rp285
sS'trials.thisTrialN'
p286
I13
sg54
g202
sg20
g21
sg34
g39
sg57
g126
sg33
g12
sa(dp287
S'trials.thisIndex'
p288
g23
(g66
S'\x81\x00\x00\x00\x00\x00\x00\x00'
p289
tp290
Rp291
sg16
F1.4018900394439697
sg22
g32
sg52
Vcopo
p292
sg51
g114
sg50
VHa detto "copo" sei volte
p293
sS'trials.thisRepN'
p294
I0
sg59
g96
sg55
g97
sg56
g98
sg15
S'space'
p295
sS'trials.thisN'
p296
I14
sg53
g77
sg58
g81
sg49
g23
(g66
S'\x82\x00\x00\x00\x00\x00\x00\x00'
p297
tp298
Rp299
sS'trials.thisTrialN'
p300
I14
sg54
g106
sg20
g21
sg34
g39
sg57
g107
sg33
g12
sa(dp301
S'trials.thisIndex'
p302
g23
(g66
S'o\x00\x00\x00\x00\x00\x00\x00'
p303
tp304
Rp305
sg16
F1.3876891136169434
sg22
g32
sg52
g222
sg51
g73
sg50
VRipete "toco" da sempre
p306
sS'trials.thisRepN'
p307
I0
sg59
g76
sg55
g77
sg56
g98
sg15
S'space'
p308
sS'trials.thisN'
p309
I15
sg53
g119
sg58
g120
sg49
g23
(g66
S'p\x00\x00\x00\x00\x00\x00\x00'
p310
tp311
Rp312
sS'trials.thisTrialN'
p313
I15
sg54
g106
sg20
g21
sg34
g39
sg57
g107
sg33
g12
sa(dp314
S'trials.thisIndex'
p315
g23
(g66
S'v\x00\x00\x00\x00\x00\x00\x00'
p316
tp317
Rp318
sg16
F1.2354168891906738
sg22
g32
sg52
Vcapo
p319
sg51
g133
sg50
VSentivo "capo" di nuovo
p320
sS'trials.thisRepN'
p321
I0
sg59
g96
sg55
g97
sg56
g136
sg15
S'space'
p322
sS'trials.thisN'
p323
I16
sg53
g77
sg58
g81
sg49
g23
(g66
S'w\x00\x00\x00\x00\x00\x00\x00'
p324
tp325
Rp326
sS'trials.thisTrialN'
p327
I16
sg54
g143
sg20
g21
sg34
g39
sg57
g144
sg33
g12
sa(dp328
S'trials.thisIndex'
p329
g23
(g66
S'\x8d\x00\x00\x00\x00\x00\x00\x00'
p330
tp331
Rp332
sg16
F1.6530230045318604
sg22
g32
sg52
Vcheto
p333
sg51
g114
sg50
VHa detto "cheto" sei volte
p334
sS'trials.thisRepN'
p335
I0
sg59
g180
sg55
g119
sg56
g78
sg15
S'space'
p336
sS'trials.thisN'
p337
I17
sg53
g77
sg58
g81
sg49
g23
(g66
S'\x8e\x00\x00\x00\x00\x00\x00\x00'
p338
tp339
Rp340
sS'trials.thisTrialN'
p341
I17
sg54
g86
sg20
g21
sg34
g39
sg57
g87
sg33
g12
sa(dp342
S'trials.thisIndex'
p343
g23
(g66
S'1\x00\x00\x00\x00\x00\x00\x00'
p344
tp345
Rp346
sg16
F1.5525250434875488
sg22
g32
sg52
Vpoco
p347
sg51
g114
sg50
VHa detto "poco" sei volte
p348
sS'trials.thisRepN'
p349
I0
sg59
g76
sg55
g77
sg56
g98
sg15
S'space'
p350
sS'trials.thisN'
p351
I18
sg53
g97
sg58
g101
sg49
g23
(g66
S'2\x00\x00\x00\x00\x00\x00\x00'
p352
tp353
Rp354
sS'trials.thisTrialN'
p355
I18
sg54
g106
sg20
g21
sg34
g39
sg57
g107
sg33
g12
sa(dp356
S'trials.thisIndex'
p357
g23
(g66
S'T\x00\x00\x00\x00\x00\x00\x00'
p358
tp359
Rp360
sg16
F1.7029838562011719
sg22
g32
sg52
Vtito
p361
sg51
g193
sg50
VScrivete "tito" sul foglio
p362
sS'trials.thisRepN'
p363
I0
sg59
g180
sg55
g119
sg56
g78
sg15
S'space'
p364
sS'trials.thisN'
p365
I19
sg53
g119
sg58
g120
sg49
g23
(g66
S'U\x00\x00\x00\x00\x00\x00\x00'
p366
tp367
Rp368
sS'trials.thisTrialN'
p369
I19
sg54
g202
sg20
g21
sg34
g39
sg57
g126
sg33
g12
sa(dp370
S'trials.thisIndex'
p371
g23
(g66
S'4\x00\x00\x00\x00\x00\x00\x00'
p372
tp373
Rp374
sg16
F1.519822120666504
sg22
g32
sg52
Vpuco
p375
sg51
g193
sg50
VScrivete "puco" sul foglio
p376
sS'trials.thisRepN'
p377
I0
sg59
g76
sg55
g77
sg56
g98
sg15
S'space'
p378
sS'trials.thisN'
p379
I20
sg53
g97
sg58
g101
sg49
g23
(g66
S'5\x00\x00\x00\x00\x00\x00\x00'
p380
tp381
Rp382
sS'trials.thisTrialN'
p383
I20
sg54
g125
sg20
g21
sg34
g39
sg57
g126
sg33
g12
sa(dp384
S'trials.thisIndex'
p385
g23
(g66
S'<\x00\x00\x00\x00\x00\x00\x00'
p386
tp387
Rp388
sg16
F1.6541211605072021
sg22
g32
sg52
Vtepo
p389
sg51
g193
sg50
VScrivete "tepo" sul foglio
p390
sS'trials.thisRepN'
p391
I0
sg59
g96
sg55
g97
sg56
g78
sg15
S'space'
p392
sS'trials.thisN'
p393
I21
sg53
g119
sg58
g120
sg49
g23
(g66
S'=\x00\x00\x00\x00\x00\x00\x00'
p394
tp395
Rp396
sS'trials.thisTrialN'
p397
I21
sg54
g86
sg20
g21
sg34
g39
sg57
g87
sg33
g12
sa(dp398
S'trials.thisIndex'
p399
g23
(g66
S'\x12\x00\x00\x00\x00\x00\x00\x00'
p400
tp401
Rp402
sg16
F1.4184489250183105
sg22
g32
sg52
g150
sg51
g133
sg50
VSentivo "pupo" di nuovo
p403
sS'trials.thisRepN'
p404
I0
sg59
g96
sg55
g97
sg56
g98
sg15
S'space'
p405
sS'trials.thisN'
p406
I22
sg53
g97
sg58
g101
sg49
g23
(g66
S'\x13\x00\x00\x00\x00\x00\x00\x00'
p407
tp408
Rp409
sS'trials.thisTrialN'
p410
I22
sg54
g125
sg20
g21
sg34
g39
sg57
g126
sg33
g12
sa(dp411
S'trials.thisIndex'
p412
g23
(g66
S'_\x00\x00\x00\x00\x00\x00\x00'
p413
tp414
Rp415
sg16
F1.6195929050445557
sg22
g32
sg52
Vtuto
p416
sg51
g73
sg50
VRipete "tuto" da sempre
p417
sS'trials.thisRepN'
p418
I0
sg59
g180
sg55
g119
sg56
g98
sg15
S'space'
p419
sS'trials.thisN'
p420
I23
sg53
g119
sg58
g120
sg49
g23
(g66
S'`\x00\x00\x00\x00\x00\x00\x00'
p421
tp422
Rp423
sS'trials.thisTrialN'
p424
I23
sg54
g125
sg20
g21
sg34
g39
sg57
g126
sg33
g12
sa(dp425
S'trials.thisIndex'
p426
g23
(g66
S'\xa6\x00\x00\x00\x00\x00\x00\x00'
p427
tp428
Rp429
sg16
F1.4038429260253906
sg22
g32
sg52
Vcoco
p430
sg51
g133
sg50
VSentivo "coco" di nuovo
p431
sS'trials.thisRepN'
p432
I0
sg59
g76
sg55
g77
sg56
g98
sg15
S'space'
p433
sS'trials.thisN'
p434
I24
sg53
g77
sg58
g81
sg49
g23
(g66
S'\xa7\x00\x00\x00\x00\x00\x00\x00'
p435
tp436
Rp437
sS'trials.thisTrialN'
p438
I24
sg54
g106
sg20
g21
sg34
g39
sg57
g107
sg33
g12
sa(dp439
S'trials.thisIndex'
p440
g23
(g66
S'-\x00\x00\x00\x00\x00\x00\x00'
p441
tp442
Rp443
sg16
F1.4858331680297852
sg22
g32
sg52
g278
sg51
g114
sg50
VHa detto "pico" sei volte
p444
sS'trials.thisRepN'
p445
I0
sg59
g76
sg55
g77
sg56
g78
sg15
S'space'
p446
sS'trials.thisN'
p447
I25
sg53
g97
sg58
g101
sg49
g23
(g66
S'.\x00\x00\x00\x00\x00\x00\x00'
p448
tp449
Rp450
sS'trials.thisTrialN'
p451
I25
sg54
g202
sg20
g21
sg34
g39
sg57
g126
sg33
g12
sa(dp452
S'trials.thisIndex'
p453
g23
(g66
S'\xa7\x00\x00\x00\x00\x00\x00\x00'
p454
tp455
Rp456
sg16
F1.5706369876861572
sg22
g32
sg52
g430
sg51
g73
sg50
VRipete "coco" da sempre
p457
sS'trials.thisRepN'
p458
I0
sg59
g76
sg55
g77
sg56
g98
sg15
S'space'
p459
sS'trials.thisN'
p460
I26
sg53
g77
sg58
g81
sg49
g23
(g66
S'\xa8\x00\x00\x00\x00\x00\x00\x00'
p461
tp462
Rp463
sS'trials.thisTrialN'
p464
I26
sg54
g106
sg20
g21
sg34
g39
sg57
g107
sg33
g12
sa(dp465
S'trials.thisIndex'
p466
g23
(g66
S'B\x00\x00\x00\x00\x00\x00\x00'
p467
tp468
Rp469
sg16
F1.5025830268859863
sg22
g32
sg52
Vtipo
p470
sg51
g133
sg50
VSentivo "tipo" di nuovo
p471
sS'trials.thisRepN'
p472
I0
sg59
g96
sg55
g97
sg56
g78
sg15
S'space'
p473
sS'trials.thisN'
p474
I27
sg53
g119
sg58
g120
sg49
g23
(g66
S'C\x00\x00\x00\x00\x00\x00\x00'
p475
tp476
Rp477
sS'trials.thisTrialN'
p478
I27
sg54
g202
sg20
g21
sg34
g39
sg57
g126
sg33
g12
sa(dp479
S'trials.thisIndex'
p480
g23
(g66
S'\x8e\x00\x00\x00\x00\x00\x00\x00'
p481
tp482
Rp483
sg16
F5.0053369998931885
sg22
g32
sg52
g333
sg51
g133
sg50
VSentivo "cheto" di nuovo
p484
sS'trials.thisRepN'
p485
I0
sg59
g180
sg55
g119
sg56
g78
sg15
S'space'
p486
sS'trials.thisN'
p487
I28
sg53
g77
sg58
g81
sg49
g23
(g66
S'\x8f\x00\x00\x00\x00\x00\x00\x00'
p488
tp489
Rp490
sS'trials.thisTrialN'
p491
I28
sg54
g86
sg20
g21
sg34
g39
sg57
g87
sg33
g12
sa(dp492
S'trials.thisIndex'
p493
g23
(g66
S'p\x00\x00\x00\x00\x00\x00\x00'
p494
tp495
Rp496
sg16
F1.7863130569458008
sg22
g32
sg52
g236
sg51
g193
sg50
VScrivete "tuco" sul foglio
p497
sS'trials.thisRepN'
p498
I0
sg59
g76
sg55
g77
sg56
g98
sg15
S'space'
p499
sS'trials.thisN'
p500
I29
sg53
g119
sg58
g120
sg49
g23
(g66
S'q\x00\x00\x00\x00\x00\x00\x00'
p501
tp502
Rp503
sS'trials.thisTrialN'
p504
I29
sg54
g125
sg20
g21
sg34
g39
sg57
g126
sg33
g12
sa(dp505
S'trials.thisIndex'
p506
g23
(g66
S'Q\x00\x00\x00\x00\x00\x00\x00'
p507
tp508
Rp509
sg16
F1.3028090000152588
sg22
g32
sg52
Vteto
p510
sg51
g114
sg50
VHa detto "teto" sei volte
p511
sS'trials.thisRepN'
p512
I0
sg59
g180
sg55
g119
sg56
g78
sg15
S'space'
p513
sS'trials.thisN'
p514
I30
sg53
g119
sg58
g120
sg49
g23
(g66
S'R\x00\x00\x00\x00\x00\x00\x00'
p515
tp516
Rp517
sS'trials.thisTrialN'
p518
I30
sg54
g86
sg20
g21
sg34
g39
sg57
g87
sg33
g12
sa(dp519
S'trials.thisIndex'
p520
g23
(g66
S'`\x00\x00\x00\x00\x00\x00\x00'
p521
tp522
Rp523
sg16
F1.551793098449707
sg22
g32
sg52
g264
sg51
g193
sg50
VScrivete "taco" sul foglio
p524
sS'trials.thisRepN'
p525
I0
sg59
g76
sg55
g77
sg56
g136
sg15
S'space'
p526
sS'trials.thisN'
p527
I31
sg53
g119
sg58
g120
sg49
g23
(g66
S'a\x00\x00\x00\x00\x00\x00\x00'
p528
tp529
Rp530
sS'trials.thisTrialN'
p531
I31
sg54
g143
sg20
g21
sg34
g39
sg57
g144
sg33
g12
sa(dp532
S'trials.thisIndex'
p533
g23
(g66
S'~\x00\x00\x00\x00\x00\x00\x00'
p534
tp535
Rp536
sg16
F1.537280797958374
sg22
g32
sg52
Vchipo
p537
sg51
g133
sg50
VSentivo "chipo" di nuovo
p538
sS'trials.thisRepN'
p539
I0
sg59
g96
sg55
g97
sg56
g78
sg15
S'space'
p540
sS'trials.thisN'
p541
I32
sg53
g77
sg58
g81
sg49
g23
(g66
S'\x7f\x00\x00\x00\x00\x00\x00\x00'
p542
tp543
Rp544
sS'trials.thisTrialN'
p545
I32
sg54
g202
sg20
g21
sg34
g39
sg57
g126
sg33
g12
sa(dp546
S'trials.thisIndex'
p547
g23
(g66
S'\x9a\x00\x00\x00\x00\x00\x00\x00'
p548
tp549
Rp550
sg16
F1.5712499618530273
sg22
g32
sg52
Vcuto
p551
sg51
g133
sg50
VSentivo "cuto" di nuovo
p552
sS'trials.thisRepN'
p553
I0
sg59
g180
sg55
g119
sg56
g98
sg15
S'space'
p554
sS'trials.thisN'
p555
I33
sg53
g77
sg58
g81
sg49
g23
(g66
S'\x9b\x00\x00\x00\x00\x00\x00\x00'
p556
tp557
Rp558
sS'trials.thisTrialN'
p559
I33
sg54
g125
sg20
g21
sg34
g39
sg57
g126
sg33
g12
sa(dp560
S'trials.thisIndex'
p561
g23
(g66
S'}\x00\x00\x00\x00\x00\x00\x00'
p562
tp563
Rp564
sg16
F1.5524518489837646
sg22
g32
sg52
g537
sg51
g114
sg50
VHa detto "chipo" sei volte
p565
sS'trials.thisRepN'
p566
I0
sg59
g96
sg55
g97
sg56
g78
sg15
S'space'
p567
sS'trials.thisN'
p568
I34
sg53
g77
sg58
g81
sg49
g23
(g66
S'~\x00\x00\x00\x00\x00\x00\x00'
p569
tp570
Rp571
sS'trials.thisTrialN'
p572
I34
sg54
g202
sg20
g21
sg34
g39
sg57
g126
sg33
g12
sa(dp573
S'trials.thisIndex'
p574
g23
(g66
S'\x88\x00\x00\x00\x00\x00\x00\x00'
p575
tp576
Rp577
sg16
F1.5198509693145752
sg22
g32
sg52
Vcato
p578
sg51
g193
sg50
VScrivete "cato" sul foglio
p579
sS'trials.thisRepN'
p580
I0
sg59
g180
sg55
g119
sg56
g136
sg15
S'space'
p581
sS'trials.thisN'
p582
I35
sg53
g77
sg58
g81
sg49
g23
(g66
S'\x89\x00\x00\x00\x00\x00\x00\x00'
p583
tp584
Rp585
sS'trials.thisTrialN'
p586
I35
sg54
g143
sg20
g21
sg34
g39
sg57
g144
sg33
g12
sa(dp587
S'trials.thisIndex'
p588
g23
(g66
S'@\x00\x00\x00\x00\x00\x00\x00'
p589
tp590
Rp591
sg16
F1.55352783203125
sg22
g32
sg52
g470
sg51
g193
sg50
VScrivete "tipo" sul foglio
p592
sS'trials.thisRepN'
p593
I0
sg59
g96
sg55
g97
sg56
g78
sg15
S'space'
p594
sS'trials.thisN'
p595
I36
sg53
g119
sg58
g120
sg49
g23
(g66
S'A\x00\x00\x00\x00\x00\x00\x00'
p596
tp597
Rp598
sS'trials.thisTrialN'
p599
I36
sg54
g202
sg20
g21
sg34
g39
sg57
g126
sg33
g12
sa(dp600
S'trials.thisIndex'
p601
g23
(g66
S'\x0c\x00\x00\x00\x00\x00\x00\x00'
p602
tp603
Rp604
sg16
F1.585737943649292
sg22
g32
sg52
g93
sg51
g193
sg50
VScrivete "popo" sul foglio
p605
sS'trials.thisRepN'
p606
I0
sg59
g96
sg55
g97
sg56
g98
sg15
S'space'
p607
sS'trials.thisN'
p608
I37
sg53
g97
sg58
g101
sg49
g23
(g66
S'\r\x00\x00\x00\x00\x00\x00\x00'
p609
tp610
Rp611
sS'trials.thisTrialN'
p612
I37
sg54
g106
sg20
g21
sg34
g39
sg57
g107
sg33
g12
sa(dp613
S'trials.thisIndex'
p614
g23
(g66
S'e\x00\x00\x00\x00\x00\x00\x00'
p615
tp616
Rp617
sg16
F1.6697230339050293
sg22
g32
sg52
Vteco
p618
sg51
g114
sg50
VHa detto "teco" sei volte
p619
sS'trials.thisRepN'
p620
I0
sg59
g76
sg55
g77
sg56
g78
sg15
S'space'
p621
sS'trials.thisN'
p622
I38
sg53
g119
sg58
g120
sg49
g23
(g66
S'f\x00\x00\x00\x00\x00\x00\x00'
p623
tp624
Rp625
sS'trials.thisTrialN'
p626
I38
sg54
g86
sg20
g21
sg34
g39
sg57
g87
sg33
g12
sa(dp627
S'trials.thisIndex'
p628
g23
(g66
S'\x04\x00\x00\x00\x00\x00\x00\x00'
p629
tp630
Rp631
sg16
F1.5028798580169678
sg22
g32
sg52
Vpepo
p632
sg51
g193
sg50
VScrivete "pepo" sul foglio
p633
sS'trials.thisRepN'
p634
I0
sg59
g96
sg55
g97
sg56
g78
sg15
S'space'
p635
sS'trials.thisN'
p636
I39
sg53
g97
sg58
g101
sg49
g23
(g66
S'\x05\x00\x00\x00\x00\x00\x00\x00'
p637
tp638
Rp639
sS'trials.thisTrialN'
p640
I39
sg54
g86
sg20
g21
sg34
g39
sg57
g87
sg33
g12
sa(dp641
S'trials.thisIndex'
p642
g23
(g66
S'\x95\x00\x00\x00\x00\x00\x00\x00'
p643
tp644
Rp645
sg16
F1.3525700569152832
sg22
g32
sg52
Vcoto
p646
sg51
g114
sg50
VHa detto "coto" sei volte
p647
sS'trials.thisRepN'
p648
I0
sg59
g180
sg55
g119
sg56
g98
sg15
S'space'
p649
sS'trials.thisN'
p650
I40
sg53
g77
sg58
g81
sg49
g23
(g66
S'\x96\x00\x00\x00\x00\x00\x00\x00'
p651
tp652
Rp653
sS'trials.thisTrialN'
p654
I40
sg54
g106
sg20
g21
sg34
g39
sg57
g107
sg33
g12
sa(dp655
S'trials.thisIndex'
p656
g23
(g66
S'K\x00\x00\x00\x00\x00\x00\x00'
p657
tp658
Rp659
sg16
F1.486433982849121
sg22
g32
sg52
g113
sg51
g73
sg50
VRipete "tupo" da sempre
p660
sS'trials.thisRepN'
p661
I0
sg59
g96
sg55
g97
sg56
g98
sg15
S'space'
p662
sS'trials.thisN'
p663
I41
sg53
g119
sg58
g120
sg49
g23
(g66
S'L\x00\x00\x00\x00\x00\x00\x00'
p664
tp665
Rp666
sS'trials.thisTrialN'
p667
I41
sg54
g125
sg20
g21
sg34
g39
sg57
g126
sg33
g12
sa(dp668
S'trials.thisIndex'
p669
g23
(g66
S'\x83\x00\x00\x00\x00\x00\x00\x00'
p670
tp671
Rp672
sg16
F1.3348500728607178
sg22
g32
sg52
g292
sg51
g73
sg50
VRipete "copo" da sempre
p673
sS'trials.thisRepN'
p674
I0
sg59
g96
sg55
g97
sg56
g98
sg15
S'space'
p675
sS'trials.thisN'
p676
I42
sg53
g77
sg58
g81
sg49
g23
(g66
S'\x84\x00\x00\x00\x00\x00\x00\x00'
p677
tp678
Rp679
sS'trials.thisTrialN'
p680
I42
sg54
g106
sg20
g21
sg34
g39
sg57
g107
sg33
g12
sa(dp681
S'trials.thisIndex'
p682
g23
(g66
S'\x9c\x00\x00\x00\x00\x00\x00\x00'
p683
tp684
Rp685
sg16
F1.6037659645080566
sg22
g32
sg52
g72
sg51
g193
sg50
VScrivete "checo" sul foglio
p686
sS'trials.thisRepN'
p687
I0
sg59
g76
sg55
g77
sg56
g78
sg15
S'space'
p688
sS'trials.thisN'
p689
I43
sg53
g77
sg58
g81
sg49
g23
(g66
S'\x9d\x00\x00\x00\x00\x00\x00\x00'
p690
tp691
Rp692
sS'trials.thisTrialN'
p693
I43
sg54
g86
sg20
g21
sg34
g39
sg57
g87
sg33
g12
sa(dp694
S'trials.thisIndex'
p695
g23
(g66
S'V\x00\x00\x00\x00\x00\x00\x00'
p696
tp697
Rp698
sg16
F1.3533408641815186
sg22
g32
sg52
g361
sg51
g133
sg50
VSentivo "tito" di nuovo
p699
sS'trials.thisRepN'
p700
I0
sg59
g180
sg55
g119
sg56
g78
sg15
S'space'
p701
sS'trials.thisN'
p702
I44
sg53
g119
sg58
g120
sg49
g23
(g66
S'W\x00\x00\x00\x00\x00\x00\x00'
p703
tp704
Rp705
sS'trials.thisTrialN'
p706
I44
sg54
g202
sg20
g21
sg34
g39
sg57
g126
sg33
g12
sa(dp707
S'trials.thisIndex'
p708
g23
(g66
S'\x84\x00\x00\x00\x00\x00\x00\x00'
p709
tp710
Rp711
sg16
F1.819978952407837
sg22
g32
sg52
Vcupo
p712
sg51
g193
sg50
VScrivete "cupo" sul foglio
p713
sS'trials.thisRepN'
p714
I0
sg59
g96
sg55
g97
sg56
g98
sg15
S'space'
p715
sS'trials.thisN'
p716
I45
sg53
g77
sg58
g81
sg49
g23
(g66
S'\x85\x00\x00\x00\x00\x00\x00\x00'
p717
tp718
Rp719
sS'trials.thisTrialN'
p720
I45
sg54
g125
sg20
g21
sg34
g39
sg57
g126
sg33
g12
sa(dp721
S'trials.thisIndex'
p722
g23
(g66
S'$\x00\x00\x00\x00\x00\x00\x00'
p723
tp724
Rp725
sg16
F1.919064998626709
sg22
g32
sg52
g208
sg51
g193
sg50
VScrivete "paco" sul foglio
p726
sS'trials.thisRepN'
p727
I0
sg59
g76
sg55
g77
sg56
g136
sg15
S'space'
p728
sS'trials.thisN'
p729
I46
sg53
g97
sg58
g101
sg49
g23
(g66
S'%\x00\x00\x00\x00\x00\x00\x00'
p730
tp731
Rp732
sS'trials.thisTrialN'
p733
I46
sg54
g143
sg20
g21
sg34
g39
sg57
g144
sg33
g12
sa(dp734
S'trials.thisIndex'
p735
g23
(g66
S'\x11\x00\x00\x00\x00\x00\x00\x00'
p736
tp737
Rp738
sg16
F1.453277826309204
sg22
g32
sg52
g150
sg51
g114
sg50
VHa detto "pupo" sei volte
p739
sS'trials.thisRepN'
p740
I0
sg59
g96
sg55
g97
sg56
g98
sg15
S'space'
p741
sS'trials.thisN'
p742
I47
sg53
g97
sg58
g101
sg49
g23
(g66
S'\x12\x00\x00\x00\x00\x00\x00\x00'
p743
tp744
Rp745
sS'trials.thisTrialN'
p746
I47
sg54
g125
sg20
g21
sg34
g39
sg57
g126
sg33
g12
sa(dp747
S'trials.thisIndex'
p748
g23
(g66
S'5\x00\x00\x00\x00\x00\x00\x00'
p749
tp750
Rp751
sg16
F1.5363340377807617
sg22
g32
sg52
g375
sg51
g114
sg50
VHa detto "puco" sei volte
p752
sS'trials.thisRepN'
p753
I0
sg59
g76
sg55
g77
sg56
g98
sg15
S'space'
p754
sS'trials.thisN'
p755
I48
sg53
g97
sg58
g101
sg49
g23
(g66
S'6\x00\x00\x00\x00\x00\x00\x00'
p756
tp757
Rp758
sS'trials.thisTrialN'
p759
I48
sg54
g125
sg20
g21
sg34
g39
sg57
g126
sg33
g12
sa(dp760
S'trials.thisIndex'
p761
g23
(g66
S'\x00\x00\x00\x00\x00\x00\x00\x00'
p762
tp763
Rp764
sg16
F1.649892807006836
sg22
g32
sg52
g132
sg51
g193
sg50
VScrivete "papo" sul foglio
p765
sS'trials.thisRepN'
p766
I0
sg59
g96
sg55
g97
sg56
g136
sg15
S'space'
p767
sS'trials.thisN'
p768
I49
sg53
g97
sg58
g101
sg49
g23
(g66
S'\x01\x00\x00\x00\x00\x00\x00\x00'
p769
tp770
Rp771
sS'trials.thisTrialN'
p772
I49
sg54
g143
sg20
g21
sg34
g39
sg57
g144
sg33
g12
sa(dp773
S'trials.thisIndex'
p774
g23
(g66
S'\x1d\x00\x00\x00\x00\x00\x00\x00'
p775
tp776
Rp777
sg16
F1.4365911483764648
sg22
g32
sg52
Vpoto
p778
sg51
g114
sg50
VHa detto "poto" sei volte
p779
sS'trials.thisRepN'
p780
I0
sg59
g180
sg55
g119
sg56
g98
sg15
S'space'
p781
sS'trials.thisN'
p782
I50
sg53
g97
sg58
g101
sg49
g23
(g66
S'\x1e\x00\x00\x00\x00\x00\x00\x00'
p783
tp784
Rp785
sS'trials.thisTrialN'
p786
I50
sg54
g106
sg20
g21
sg34
g39
sg57
g107
sg33
g12
sa(dp787
S'trials.thisIndex'
p788
g23
(g66
S'x\x00\x00\x00\x00\x00\x00\x00'
p789
tp790
Rp791
sg16
F1.7369980812072754
sg22
g32
sg52
g250
sg51
g193
sg50
VScrivete "chepo" sul foglio
p792
sS'trials.thisRepN'
p793
I0
sg59
g96
sg55
g97
sg56
g78
sg15
S'space'
p794
sS'trials.thisN'
p795
I51
sg53
g77
sg58
g81
sg49
g23
(g66
S'y\x00\x00\x00\x00\x00\x00\x00'
p796
tp797
Rp798
sS'trials.thisTrialN'
p799
I51
sg54
g86
sg20
g21
sg34
g39
sg57
g87
sg33
g12
sa(dp800
S'trials.thisIndex'
p801
g23
(g66
S'\n\x00\x00\x00\x00\x00\x00\x00'
p802
tp803
Rp804
sg16
F1.4686939716339111
sg22
g32
sg52
Vpipo
p805
sg51
g133
sg50
VSentivo "pipo" di nuovo
p806
sS'trials.thisRepN'
p807
I0
sg59
g96
sg55
g97
sg56
g78
sg15
S'space'
p808
sS'trials.thisN'
p809
I52
sg53
g97
sg58
g101
sg49
g23
(g66
S'\x0b\x00\x00\x00\x00\x00\x00\x00'
p810
tp811
Rp812
sS'trials.thisTrialN'
p813
I52
sg54
g202
sg20
g21
sg34
g39
sg57
g126
sg33
g12
sa(dp814
S'trials.thisIndex'
p815
g23
(g66
S'J\x00\x00\x00\x00\x00\x00\x00'
p816
tp817
Rp818
sg16
F1.4515559673309326
sg22
g32
sg52
g113
sg51
g133
sg50
VSentivo "tupo" di nuovo
p819
sS'trials.thisRepN'
p820
I0
sg59
g96
sg55
g97
sg56
g98
sg15
S'space'
p821
sS'trials.thisN'
p822
I53
sg53
g119
sg58
g120
sg49
g23
(g66
S'K\x00\x00\x00\x00\x00\x00\x00'
p823
tp824
Rp825
sS'trials.thisTrialN'
p826
I53
sg54
g125
sg20
g21
sg34
g39
sg57
g126
sg33
g12
sa(dp827
S'trials.thisIndex'
p828
g23
(g66
S'q\x00\x00\x00\x00\x00\x00\x00'
p829
tp830
Rp831
sg16
F1.5357398986816406
sg22
g32
sg52
g236
sg51
g114
sg50
VHa detto "tuco" sei volte
p832
sS'trials.thisRepN'
p833
I0
sg59
g76
sg55
g77
sg56
g98
sg15
S'space'
p834
sS'trials.thisN'
p835
I54
sg53
g119
sg58
g120
sg49
g23
(g66
S'r\x00\x00\x00\x00\x00\x00\x00'
p836
tp837
Rp838
sS'trials.thisTrialN'
p839
I54
sg54
g125
sg20
g21
sg34
g39
sg57
g126
sg33
g12
sa(dp840
S'trials.thisIndex'
p841
g23
(g66
S'M\x00\x00\x00\x00\x00\x00\x00'
p842
tp843
Rp844
sg16
F1.3857951164245605
sg22
g32
sg52
Vtato
p845
sg51
g114
sg50
VHa detto "tato" sei volte
p846
sS'trials.thisRepN'
p847
I0
sg59
g180
sg55
g119
sg56
g136
sg15
S'space'
p848
sS'trials.thisN'
p849
I55
sg53
g119
sg58
g120
sg49
g23
(g66
S'N\x00\x00\x00\x00\x00\x00\x00'
p850
tp851
Rp852
sS'trials.thisTrialN'
p853
I55
sg54
g143
sg20
g21
sg34
g39
sg57
g144
sg33
g12
sa(dp854
S'trials.thisIndex'
p855
g23
(g66
S'\x05\x00\x00\x00\x00\x00\x00\x00'
p856
tp857
Rp858
sg16
F1.6197340488433838
sg22
g32
sg52
g632
sg51
g114
sg50
VHa detto "pepo" sei volte
p859
sS'trials.thisRepN'
p860
I0
sg59
g96
sg55
g97
sg56
g78
sg15
S'space'
p861
sS'trials.thisN'
p862
I56
sg53
g97
sg58
g101
sg49
g23
(g66
S'\x06\x00\x00\x00\x00\x00\x00\x00'
p863
tp864
Rp865
sS'trials.thisTrialN'
p866
I56
sg54
g86
sg20
g21
sg34
g39
sg57
g87
sg33
g12
sa(dp867
S'trials.thisIndex'
p868
g23
(g66
S'\x03\x00\x00\x00\x00\x00\x00\x00'
p869
tp870
Rp871
sg16
F1.6465909481048584
sg22
g32
sg52
g132
sg51
g73
sg50
VRipete "papo" da sempre
p872
sS'trials.thisRepN'
p873
I0
sg59
g96
sg55
g97
sg56
g136
sg15
S'space'
p874
sS'trials.thisN'
p875
I57
sg53
g97
sg58
g101
sg49
g23
(g66
S'\x04\x00\x00\x00\x00\x00\x00\x00'
p876
tp877
Rp878
sS'trials.thisTrialN'
p879
I57
sg54
g143
sg20
g21
sg34
g39
sg57
g144
sg33
g12
sa(dp880
S'trials.thisIndex'
p881
g23
(g66
S'\x14\x00\x00\x00\x00\x00\x00\x00'
p882
tp883
Rp884
sg16
F1.3689231872558594
sg22
g32
sg52
Vpato
p885
sg51
g193
sg50
VScrivete "pato" sul foglio
p886
sS'trials.thisRepN'
p887
I0
sg59
g180
sg55
g119
sg56
g136
sg15
S'space'
p888
sS'trials.thisN'
p889
I58
sg53
g97
sg58
g101
sg49
g23
(g66
S'\x15\x00\x00\x00\x00\x00\x00\x00'
p890
tp891
Rp892
sS'trials.thisTrialN'
p893
I58
sg54
g143
sg20
g21
sg34
g39
sg57
g144
sg33
g12
sa(dp894
S'trials.thisIndex'
p895
g23
(g66
S'\x82\x00\x00\x00\x00\x00\x00\x00'
p896
tp897
Rp898
sg16
F1.5371620655059814
sg22
g32
sg52
g292
sg51
g133
sg50
VSentivo "copo" di nuovo
p899
sS'trials.thisRepN'
p900
I0
sg59
g96
sg55
g97
sg56
g98
sg15
S'space'
p901
sS'trials.thisN'
p902
I59
sg53
g77
sg58
g81
sg49
g23
(g66
S'\x83\x00\x00\x00\x00\x00\x00\x00'
p903
tp904
Rp905
sS'trials.thisTrialN'
p906
I59
sg54
g106
sg20
g21
sg34
g39
sg57
g107
sg33
g12
sa(dp907
S'trials.thisIndex'
p908
g23
(g66
S'\x8f\x00\x00\x00\x00\x00\x00\x00'
p909
tp910
Rp911
sg16
F1.60400390625
sg22
g32
sg52
g333
sg51
g73
sg50
VRipete "cheto" da sempre
p912
sS'trials.thisRepN'
p913
I0
sg59
g180
sg55
g119
sg56
g78
sg15
S'space'
p914
sS'trials.thisN'
p915
I60
sg53
g77
sg58
g81
sg49
g23
(g66
S'\x90\x00\x00\x00\x00\x00\x00\x00'
p916
tp917
Rp918
sS'trials.thisTrialN'
p919
I60
sg54
g86
sg20
g21
sg34
g39
sg57
g87
sg33
g12
sa(dp920
S'trials.thisIndex'
p921
g23
(g66
S'*\x00\x00\x00\x00\x00\x00\x00'
p922
tp923
Rp924
sg16
F1.4535419940948486
sg22
g32
sg52
Vpeco
p925
sg51
g133
sg50
VSentivo "peco" di nuovo
p926
sS'trials.thisRepN'
p927
I0
sg59
g76
sg55
g77
sg56
g78
sg15
S'space'
p928
sS'trials.thisN'
p929
I61
sg53
g97
sg58
g101
sg49
g23
(g66
S'+\x00\x00\x00\x00\x00\x00\x00'
p930
tp931
Rp932
sS'trials.thisTrialN'
p933
I61
sg54
g86
sg20
g21
sg34
g39
sg57
g87
sg33
g12
sa(dp934
S'trials.thisIndex'
p935
g23
(g66
S'F\x00\x00\x00\x00\x00\x00\x00'
p936
tp937
Rp938
sg16
F1.3060760498046875
sg22
g32
sg52
Vtopo
p939
sg51
g133
sg50
VSentivo "topo" di nuovo
p940
sS'trials.thisRepN'
p941
I0
sg59
g96
sg55
g97
sg56
g98
sg15
S'space'
p942
sS'trials.thisN'
p943
I62
sg53
g119
sg58
g120
sg49
g23
(g66
S'G\x00\x00\x00\x00\x00\x00\x00'
p944
tp945
Rp946
sS'trials.thisTrialN'
p947
I62
sg54
g106
sg20
g21
sg34
g39
sg57
g107
sg33
g12
sa(dp948
S'trials.thisIndex'
p949
g23
(g66
S',\x00\x00\x00\x00\x00\x00\x00'
p950
tp951
Rp952
sg16
F1.7561779022216797
sg22
g32
sg52
g278
sg51
g193
sg50
VScrivete "pico" sul foglio
p953
sS'trials.thisRepN'
p954
I0
sg59
g76
sg55
g77
sg56
g78
sg15
S'space'
p955
sS'trials.thisN'
p956
I63
sg53
g97
sg58
g101
sg49
g23
(g66
S'-\x00\x00\x00\x00\x00\x00\x00'
p957
tp958
Rp959
sS'trials.thisTrialN'
p960
I63
sg54
g202
sg20
g21
sg34
g39
sg57
g126
sg33
g12
sa(dp961
S'trials.thisIndex'
p962
g23
(g66
S'?\x00\x00\x00\x00\x00\x00\x00'
p963
tp964
Rp965
sg16
F1.5858349800109863
sg22
g32
sg52
g389
sg51
g73
sg50
VRipete "tepo" da sempre
p966
sS'trials.thisRepN'
p967
I0
sg59
g96
sg55
g97
sg56
g78
sg15
S'space'
p968
sS'trials.thisN'
p969
I64
sg53
g119
sg58
g120
sg49
g23
(g66
S'@\x00\x00\x00\x00\x00\x00\x00'
p970
tp971
Rp972
sS'trials.thisTrialN'
p973
I64
sg54
g86
sg20
g21
sg34
g39
sg57
g87
sg33
g12
sa(dp974
S'trials.thisIndex'
p975
g23
(g66
S';\x00\x00\x00\x00\x00\x00\x00'
p976
tp977
Rp978
sg16
F1.6180381774902344
sg22
g32
sg52
Vtapo
p979
sg51
g73
sg50
VRipete "tapo" da sempre
p980
sS'trials.thisRepN'
p981
I0
sg59
g96
sg55
g97
sg56
g136
sg15
S'space'
p982
sS'trials.thisN'
p983
I65
sg53
g119
sg58
g120
sg49
g23
(g66
S'<\x00\x00\x00\x00\x00\x00\x00'
p984
tp985
Rp986
sS'trials.thisTrialN'
p987
I65
sg54
g143
sg20
g21
sg34
g39
sg57
g144
sg33
g12
sa(dp988
S'trials.thisIndex'
p989
g23
(g66
S'\x9d\x00\x00\x00\x00\x00\x00\x00'
p990
tp991
Rp992
sg16
F1.5534570217132568
sg22
g32
sg52
g72
sg51
g114
sg50
VHa detto "checo" sei volte
p993
sS'trials.thisRepN'
p994
I0
sg59
g76
sg55
g77
sg56
g78
sg15
S'space'
p995
sS'trials.thisN'
p996
I66
sg53
g77
sg58
g81
sg49
g23
(g66
S'\x9e\x00\x00\x00\x00\x00\x00\x00'
p997
tp998
Rp999
sS'trials.thisTrialN'
p1000
I66
sg54
g86
sg20
g21
sg34
g39
sg57
g87
sg33
g12
sa(dp1001
S'trials.thisIndex'
p1002
g23
(g66
S'\x10\x00\x00\x00\x00\x00\x00\x00'
p1003
tp1004
Rp1005
sg16
F1.7215969562530518
sg22
g32
sg52
g150
sg51
g193
sg50
VScrivete "pupo" sul foglio
p1006
sS'trials.thisRepN'
p1007
I0
sg59
g96
sg55
g97
sg56
g98
sg15
S'space'
p1008
sS'trials.thisN'
p1009
I67
sg53
g97
sg58
g101
sg49
g23
(g66
S'\x11\x00\x00\x00\x00\x00\x00\x00'
p1010
tp1011
Rp1012
sS'trials.thisTrialN'
p1013
I67
sg54
g125
sg20
g21
sg34
g39
sg57
g126
sg33
g12
sa(dp1014
S'trials.thisIndex'
p1015
g23
(g66
S' \x00\x00\x00\x00\x00\x00\x00'
p1016
tp1017
Rp1018
sg16
F1.7757768630981445
sg22
g32
sg52
Vputo
p1019
sg51
g193
sg50
VScrivete "puto" sul foglio
p1020
sS'trials.thisRepN'
p1021
I0
sg59
g180
sg55
g119
sg56
g98
sg15
S'space'
p1022
sS'trials.thisN'
p1023
I68
sg53
g97
sg58
g101
sg49
g23
(g66
S'!\x00\x00\x00\x00\x00\x00\x00'
p1024
tp1025
Rp1026
sS'trials.thisTrialN'
p1027
I68
sg54
g125
sg20
g21
sg34
g39
sg57
g126
sg33
g12
sa(dp1028
S'trials.thisIndex'
p1029
g23
(g66
S'#\x00\x00\x00\x00\x00\x00\x00'
p1030
tp1031
Rp1032
sg16
F1.600728988647461
sg22
g32
sg52
g1019
sg51
g73
sg50
VRipete "puto" da sempre
p1033
sS'trials.thisRepN'
p1034
I0
sg59
g180
sg55
g119
sg56
g98
sg15
S'space'
p1035
sS'trials.thisN'
p1036
I69
sg53
g97
sg58
g101
sg49
g23
(g66
S'$\x00\x00\x00\x00\x00\x00\x00'
p1037
tp1038
Rp1039
sS'trials.thisTrialN'
p1040
I69
sg54
g125
sg20
g21
sg34
g39
sg57
g126
sg33
g12
sa(dp1041
S'trials.thisIndex'
p1042
g23
(g66
S'\x92\x00\x00\x00\x00\x00\x00\x00'
p1043
tp1044
Rp1045
sg16
F1.6875009536743164
sg22
g32
sg52
Vchito
p1046
sg51
g133
sg50
VSentivo "chito" di nuovo
p1047
sS'trials.thisRepN'
p1048
I0
sg59
g180
sg55
g119
sg56
g78
sg15
S'space'
p1049
sS'trials.thisN'
p1050
I70
sg53
g77
sg58
g81
sg49
g23
(g66
S'\x93\x00\x00\x00\x00\x00\x00\x00'
p1051
tp1052
Rp1053
sS'trials.thisTrialN'
p1054
I70
sg54
g202
sg20
g21
sg34
g39
sg57
g126
sg33
g12
sa(dp1055
S'trials.thisIndex'
p1056
g23
(g66
S'j\x00\x00\x00\x00\x00\x00\x00'
p1057
tp1058
Rp1059
sg16
F1.4203801155090332
sg22
g32
sg52
g192
sg51
g133
sg50
VSentivo "tico" di nuovo
p1060
sS'trials.thisRepN'
p1061
I0
sg59
g76
sg55
g77
sg56
g78
sg15
S'space'
p1062
sS'trials.thisN'
p1063
I71
sg53
g119
sg58
g120
sg49
g23
(g66
S'k\x00\x00\x00\x00\x00\x00\x00'
p1064
tp1065
Rp1066
sS'trials.thisTrialN'
p1067
I71
sg54
g202
sg20
g21
sg34
g39
sg57
g126
sg33
g12
sa(dp1068
S'trials.thisIndex'
p1069
g23
(g66
S'R\x00\x00\x00\x00\x00\x00\x00'
p1070
tp1071
Rp1072
sg16
F1.235710859298706
sg22
g32
sg52
g510
sg51
g133
sg50
VSentivo "teto" di nuovo
p1073
sS'trials.thisRepN'
p1074
I0
sg59
g180
sg55
g119
sg56
g78
sg15
S'space'
p1075
sS'trials.thisN'
p1076
I72
sg53
g119
sg58
g120
sg49
g23
(g66
S'S\x00\x00\x00\x00\x00\x00\x00'
p1077
tp1078
Rp1079
sS'trials.thisTrialN'
p1080
I72
sg54
g86
sg20
g21
sg34
g39
sg57
g87
sg33
g12
sa(dp1081
S'trials.thisIndex'
p1082
g23
(g66
S'H\x00\x00\x00\x00\x00\x00\x00'
p1083
tp1084
Rp1085
sg16
F1.3932621479034424
sg22
g32
sg52
g113
sg51
g193
sg50
VScrivete "tupo" sul foglio
p1086
sS'trials.thisRepN'
p1087
I0
sg59
g96
sg55
g97
sg56
g98
sg15
S'space'
p1088
sS'trials.thisN'
p1089
I73
sg53
g119
sg58
g120
sg49
g23
(g66
S'I\x00\x00\x00\x00\x00\x00\x00'
p1090
tp1091
Rp1092
sS'trials.thisTrialN'
p1093
I73
sg54
g125
sg20
g21
sg34
g39
sg57
g126
sg33
g12
sa(dp1094
S'trials.thisIndex'
p1095
g23
(g66
S'G\x00\x00\x00\x00\x00\x00\x00'
p1096
tp1097
Rp1098
sg16
F1.5036389827728271
sg22
g32
sg52
g939
sg51
g73
sg50
VRipete "topo" da sempre
p1099
sS'trials.thisRepN'
p1100
I0
sg59
g96
sg55
g97
sg56
g98
sg15
S'space'
p1101
sS'trials.thisN'
p1102
I74
sg53
g119
sg58
g120
sg49
g23
(g66
S'H\x00\x00\x00\x00\x00\x00\x00'
p1103
tp1104
Rp1105
sS'trials.thisTrialN'
p1106
I74
sg54
g106
sg20
g21
sg34
g39
sg57
g107
sg33
g12
sa(dp1107
S'trials.thisIndex'
p1108
g23
(g66
S'{\x00\x00\x00\x00\x00\x00\x00'
p1109
tp1110
Rp1111
sg16
F1.3373081684112549
sg22
g32
sg52
g250
sg51
g73
sg50
VRipete "chepo" da sempre
p1112
sS'trials.thisRepN'
p1113
I0
sg59
g96
sg55
g97
sg56
g78
sg15
S'space'
p1114
sS'trials.thisN'
p1115
I75
sg53
g77
sg58
g81
sg49
g23
(g66
S'|\x00\x00\x00\x00\x00\x00\x00'
p1116
tp1117
Rp1118
sS'trials.thisTrialN'
p1119
I75
sg54
g86
sg20
g21
sg34
g39
sg57
g87
sg33
g12
sa(dp1120
S'trials.thisIndex'
p1121
g23
(g66
S'\x1e\x00\x00\x00\x00\x00\x00\x00'
p1122
tp1123
Rp1124
sg16
F1.0785319805145264
sg22
g32
sg52
g778
sg51
g133
sg50
VSentivo "poto" di nuovo
p1125
sS'trials.thisRepN'
p1126
I0
sg59
g180
sg55
g119
sg56
g98
sg15
S'space'
p1127
sS'trials.thisN'
p1128
I76
sg53
g97
sg58
g101
sg49
g23
(g66
S'\x1f\x00\x00\x00\x00\x00\x00\x00'
p1129
tp1130
Rp1131
sS'trials.thisTrialN'
p1132
I76
sg54
g106
sg20
g21
sg34
g39
sg57
g107
sg33
g12
sa(dp1133
S'trials.thisIndex'
p1134
g23
(g66
S')\x00\x00\x00\x00\x00\x00\x00'
p1135
tp1136
Rp1137
sg16
F1.5819029808044434
sg22
g32
sg52
g925
sg51
g114
sg50
VHa detto "peco" sei volte
p1138
sS'trials.thisRepN'
p1139
I0
sg59
g76
sg55
g77
sg56
g78
sg15
S'space'
p1140
sS'trials.thisN'
p1141
I77
sg53
g97
sg58
g101
sg49
g23
(g66
S'*\x00\x00\x00\x00\x00\x00\x00'
p1142
tp1143
Rp1144
sS'trials.thisTrialN'
p1145
I77
sg54
g86
sg20
g21
sg34
g39
sg57
g87
sg33
g12
sa(dp1146
S'trials.thisIndex'
p1147
g23
(g66
S'\x8c\x00\x00\x00\x00\x00\x00\x00'
p1148
tp1149
Rp1150
sg16
F7.723999977111816
sg22
g32
sg52
g333
sg51
g193
sg50
VScrivete "cheto" sul foglio
p1151
sS'trials.thisRepN'
p1152
I0
sg59
g180
sg55
g119
sg56
g78
sg15
S'space'
p1153
sS'trials.thisN'
p1154
I78
sg53
g77
sg58
g81
sg49
g23
(g66
S'\x8d\x00\x00\x00\x00\x00\x00\x00'
p1155
tp1156
Rp1157
sS'trials.thisTrialN'
p1158
I78
sg54
g86
sg20
g21
sg34
g39
sg57
g87
sg33
g12
sa(dp1159
S'trials.thisIndex'
p1160
g23
(g66
S'\x18\x00\x00\x00\x00\x00\x00\x00'
p1161
tp1162
Rp1163
sg16
F1.6034338474273682
sg22
g32
sg52
Vpito
p1164
sg51
g193
sg50
VScrivete "pito" sul foglio
p1165
sS'trials.thisRepN'
p1166
I0
sg59
g180
sg55
g119
sg56
g78
sg15
S'space'
p1167
sS'trials.thisN'
p1168
I79
sg53
g97
sg58
g101
sg49
g23
(g66
S'\x19\x00\x00\x00\x00\x00\x00\x00'
p1169
tp1170
Rp1171
sS'trials.thisTrialN'
p1172
I79
sg54
g202
sg20
g21
sg34
g39
sg57
g126
sg33
g12
sa(dp1173
S'trials.thisIndex'
p1174
g23
(g66
S'\x98\x00\x00\x00\x00\x00\x00\x00'
p1175
tp1176
Rp1177
sg16
F1.7383270263671875
sg22
g32
sg52
g551
sg51
g193
sg50
VScrivete "cuto" sul foglio
p1178
sS'trials.thisRepN'
p1179
I0
sg59
g180
sg55
g119
sg56
g98
sg15
S'space'
p1180
sS'trials.thisN'
p1181
I80
sg53
g77
sg58
g81
sg49
g23
(g66
S'\x99\x00\x00\x00\x00\x00\x00\x00'
p1182
tp1183
Rp1184
sS'trials.thisTrialN'
p1185
I80
sg54
g125
sg20
g21
sg34
g39
sg57
g126
sg33
g12
sa(dp1186
S'trials.thisIndex'
p1187
g23
(g66
S'W\x00\x00\x00\x00\x00\x00\x00'
p1188
tp1189
Rp1190
sg16
F1.7369270324707031
sg22
g32
sg52
g361
sg51
g73
sg50
VRipete "tito" da sempre
p1191
sS'trials.thisRepN'
p1192
I0
sg59
g180
sg55
g119
sg56
g78
sg15
S'space'
p1193
sS'trials.thisN'
p1194
I81
sg53
g119
sg58
g120
sg49
g23
(g66
S'X\x00\x00\x00\x00\x00\x00\x00'
p1195
tp1196
Rp1197
sS'trials.thisTrialN'
p1198
I81
sg54
g202
sg20
g21
sg34
g39
sg57
g126
sg33
g12
sa(dp1199
S'trials.thisIndex'
p1200
g23
(g66
S':\x00\x00\x00\x00\x00\x00\x00'
p1201
tp1202
Rp1203
sg16
F1.3408899307250977
sg22
g32
sg52
g979
sg51
g133
sg50
VSentivo "tapo" di nuovo
p1204
sS'trials.thisRepN'
p1205
I0
sg59
g96
sg55
g97
sg56
g136
sg15
S'space'
p1206
sS'trials.thisN'
p1207
I82
sg53
g119
sg58
g120
sg49
g23
(g66
S';\x00\x00\x00\x00\x00\x00\x00'
p1208
tp1209
Rp1210
sS'trials.thisTrialN'
p1211
I82
sg54
g143
sg20
g21
sg34
g39
sg57
g144
sg33
g12
sa(dp1212
S'trials.thisIndex'
p1213
g23
(g66
S'S\x00\x00\x00\x00\x00\x00\x00'
p1214
tp1215
Rp1216
sg16
F1.7562050819396973
sg22
g32
sg52
g510
sg51
g73
sg50
VRipete "teto" da sempre
p1217
sS'trials.thisRepN'
p1218
I0
sg59
g180
sg55
g119
sg56
g78
sg15
S'space'
p1219
sS'trials.thisN'
p1220
I83
sg53
g119
sg58
g120
sg49
g23
(g66
S'T\x00\x00\x00\x00\x00\x00\x00'
p1221
tp1222
Rp1223
sS'trials.thisTrialN'
p1224
I83
sg54
g86
sg20
g21
sg34
g39
sg57
g87
sg33
g12
sa(dp1225
S'trials.thisIndex'
p1226
g23
(g66
S'\x19\x00\x00\x00\x00\x00\x00\x00'
p1227
tp1228
Rp1229
sg16
F1.4550199508666992
sg22
g32
sg52
g1164
sg51
g114
sg50
VHa detto "pito" sei volte
p1230
sS'trials.thisRepN'
p1231
I0
sg59
g180
sg55
g119
sg56
g78
sg15
S'space'
p1232
sS'trials.thisN'
p1233
I84
sg53
g97
sg58
g101
sg49
g23
(g66
S'\x1a\x00\x00\x00\x00\x00\x00\x00'
p1234
tp1235
Rp1236
sS'trials.thisTrialN'
p1237
I84
sg54
g202
sg20
g21
sg34
g39
sg57
g126
sg33
g12
sa(dp1238
S'trials.thisIndex'
p1239
g23
(g66
S'P\x00\x00\x00\x00\x00\x00\x00'
p1240
tp1241
Rp1242
sg16
F1.6560499668121338
sg22
g32
sg52
g510
sg51
g193
sg50
VScrivete "teto" sul foglio
p1243
sS'trials.thisRepN'
p1244
I0
sg59
g180
sg55
g119
sg56
g78
sg15
S'space'
p1245
sS'trials.thisN'
p1246
I85
sg53
g119
sg58
g120
sg49
g23
(g66
S'Q\x00\x00\x00\x00\x00\x00\x00'
p1247
tp1248
Rp1249
sS'trials.thisTrialN'
p1250
I85
sg54
g86
sg20
g21
sg34
g39
sg57
g87
sg33
g12
sa(dp1251
S'trials.thisIndex'
p1252
g23
(g66
S'\xa2\x00\x00\x00\x00\x00\x00\x00'
p1253
tp1254
Rp1255
sg16
F1.5050969123840332
sg22
g32
sg52
Vchico
p1256
sg51
g133
sg50
VSentivo "chico" di nuovo
p1257
sS'trials.thisRepN'
p1258
I0
sg59
g76
sg55
g77
sg56
g78
sg15
S'space'
p1259
sS'trials.thisN'
p1260
I86
sg53
g77
sg58
g81
sg49
g23
(g66
S'\xa3\x00\x00\x00\x00\x00\x00\x00'
p1261
tp1262
Rp1263
sS'trials.thisTrialN'
p1264
I86
sg54
g202
sg20
g21
sg34
g39
sg57
g126
sg33
g12
sa(dp1265
S'trials.thisIndex'
p1266
g23
(g66
S'\x93\x00\x00\x00\x00\x00\x00\x00'
p1267
tp1268
Rp1269
sg16
F3.870542049407959
sg22
g32
sg52
g1046
sg51
g73
sg50
VRipete "chito" da sempre
p1270
sS'trials.thisRepN'
p1271
I0
sg59
g180
sg55
g119
sg56
g78
sg15
S'space'
p1272
sS'trials.thisN'
p1273
I87
sg53
g77
sg58
g81
sg49
g23
(g66
S'\x94\x00\x00\x00\x00\x00\x00\x00'
p1274
tp1275
Rp1276
sS'trials.thisTrialN'
p1277
I87
sg54
g202
sg20
g21
sg34
g39
sg57
g126
sg33
g12
sa(dp1278
S'trials.thisIndex'
p1279
g23
(g66
S'\t\x00\x00\x00\x00\x00\x00\x00'
p1280
tp1281
Rp1282
sg16
F1.7043609619140625
sg22
g32
sg52
g805
sg51
g114
sg50
VHa detto "pipo" sei volte
p1283
sS'trials.thisRepN'
p1284
I0
sg59
g96
sg55
g97
sg56
g78
sg15
S'space'
p1285
sS'trials.thisN'
p1286
I88
sg53
g97
sg58
g101
sg49
g23
(g66
S'\n\x00\x00\x00\x00\x00\x00\x00'
p1287
tp1288
Rp1289
sS'trials.thisTrialN'
p1290
I88
sg54
g202
sg20
g21
sg34
g39
sg57
g126
sg33
g12
sa(dp1291
S'trials.thisIndex'
p1292
g23
(g66
S'^\x00\x00\x00\x00\x00\x00\x00'
p1293
tp1294
Rp1295
sg16
F4.201808929443359
sg22
g32
sg52
g416
sg51
g133
sg50
VSentivo "tuto" di nuovo
p1296
sS'trials.thisRepN'
p1297
I0
sg59
g180
sg55
g119
sg56
g98
sg15
S'space'
p1298
sS'trials.thisN'
p1299
I89
sg53
g119
sg58
g120
sg49
g23
(g66
S'_\x00\x00\x00\x00\x00\x00\x00'
p1300
tp1301
Rp1302
sS'trials.thisTrialN'
p1303
I89
sg54
g125
sg20
g21
sg34
g39
sg57
g126
sg33
g12
sa(dp1304
S'trials.thisIndex'
p1305
g23
(g66
S'\x17\x00\x00\x00\x00\x00\x00\x00'
p1306
tp1307
Rp1308
sg16
F1.703524112701416
sg22
g32
sg52
g885
sg51
g73
sg50
VRipete "pato" da sempre
p1309
sS'trials.thisRepN'
p1310
I0
sg59
g180
sg55
g119
sg56
g136
sg15
S'space'
p1311
sS'trials.thisN'
p1312
I90
sg53
g97
sg58
g101
sg49
g23
(g66
S'\x18\x00\x00\x00\x00\x00\x00\x00'
p1313
tp1314
Rp1315
sS'trials.thisTrialN'
p1316
I90
sg54
g143
sg20
g21
sg34
g39
sg57
g144
sg33
g12
sa(dp1317
S'trials.thisIndex'
p1318
g23
(g66
S'=\x00\x00\x00\x00\x00\x00\x00'
p1319
tp1320
Rp1321
sg16
F1.5528228282928467
sg22
g32
sg52
g389
sg51
g114
sg50
VHa detto "tepo" sei volte
p1322
sS'trials.thisRepN'
p1323
I0
sg59
g96
sg55
g97
sg56
g78
sg15
S'space'
p1324
sS'trials.thisN'
p1325
I91
sg53
g119
sg58
g120
sg49
g23
(g66
S'>\x00\x00\x00\x00\x00\x00\x00'
p1326
tp1327
Rp1328
sS'trials.thisTrialN'
p1329
I91
sg54
g86
sg20
g21
sg34
g39
sg57
g87
sg33
g12
sa(dp1330
S'trials.thisIndex'
p1331
g23
(g66
S'a\x00\x00\x00\x00\x00\x00\x00'
p1332
tp1333
Rp1334
sg16
F1.4687268733978271
sg22
g32
sg52
g264
sg51
g114
sg50
VHa detto "taco" sei volte
p1335
sS'trials.thisRepN'
p1336
I0
sg59
g76
sg55
g77
sg56
g136
sg15
S'space'
p1337
sS'trials.thisN'
p1338
I92
sg53
g119
sg58
g120
sg49
g23
(g66
S'b\x00\x00\x00\x00\x00\x00\x00'
p1339
tp1340
Rp1341
sS'trials.thisTrialN'
p1342
I92
sg54
g143
sg20
g21
sg34
g39
sg57
g144
sg33
g12
sa(dp1343
S'trials.thisIndex'
p1344
g23
(g66
S'\x8b\x00\x00\x00\x00\x00\x00\x00'
p1345
tp1346
Rp1347
sg16
F1.8522629737854004
sg22
g32
sg52
g578
sg51
g73
sg50
VRipete "cato" da sempre
p1348
sS'trials.thisRepN'
p1349
I0
sg59
g180
sg55
g119
sg56
g136
sg15
S'space'
p1350
sS'trials.thisN'
p1351
I93
sg53
g77
sg58
g81
sg49
g23
(g66
S'\x8c\x00\x00\x00\x00\x00\x00\x00'
p1352
tp1353
Rp1354
sS'trials.thisTrialN'
p1355
I93
sg54
g143
sg20
g21
sg34
g39
sg57
g144
sg33
g12
sa(dp1356
S'trials.thisIndex'
p1357
g23
(g66
S'8\x00\x00\x00\x00\x00\x00\x00'
p1358
tp1359
Rp1360
sg16
F1.6367340087890625
sg22
g32
sg52
g979
sg51
g193
sg50
VScrivete "tapo" sul foglio
p1361
sS'trials.thisRepN'
p1362
I0
sg59
g96
sg55
g97
sg56
g136
sg15
S'space'
p1363
sS'trials.thisN'
p1364
I94
sg53
g119
sg58
g120
sg49
g23
(g66
S'9\x00\x00\x00\x00\x00\x00\x00'
p1365
tp1366
Rp1367
sS'trials.thisTrialN'
p1368
I94
sg54
g143
sg20
g21
sg34
g39
sg57
g144
sg33
g12
sa(dp1369
S'trials.thisIndex'
p1370
g23
(g66
S'U\x00\x00\x00\x00\x00\x00\x00'
p1371
tp1372
Rp1373
sg16
F1.5024678707122803
sg22
g32
sg52
g361
sg51
g114
sg50
VHa detto "tito" sei volte
p1374
sS'trials.thisRepN'
p1375
I0
sg59
g180
sg55
g119
sg56
g78
sg15
S'space'
p1376
sS'trials.thisN'
p1377
I95
sg53
g119
sg58
g120
sg49
g23
(g66
S'V\x00\x00\x00\x00\x00\x00\x00'
p1378
tp1379
Rp1380
sS'trials.thisTrialN'
p1381
I95
sg54
g202
sg20
g21
sg34
g39
sg57
g126
sg33
g12
sa(dp1382
S'trials.thisIndex'
p1383
g23
(g66
S'\xa8\x00\x00\x00\x00\x00\x00\x00'
p1384
tp1385
Rp1386
sg16
F1.719871997833252
sg22
g32
sg52
Vcuco
p1387
sg51
g193
sg50
VScrivete "cuco" sul foglio
p1388
sS'trials.thisRepN'
p1389
I0
sg59
g76
sg55
g77
sg56
g98
sg15
S'space'
p1390
sS'trials.thisN'
p1391
I96
sg53
g77
sg58
g81
sg49
g23
(g66
S'\xa9\x00\x00\x00\x00\x00\x00\x00'
p1392
tp1393
Rp1394
sS'trials.thisTrialN'
p1395
I96
sg54
g125
sg20
g21
sg34
g39
sg57
g126
sg33
g12
sa(dp1396
S'trials.thisIndex'
p1397
g23
(g66
S'\xa0\x00\x00\x00\x00\x00\x00\x00'
p1398
tp1399
Rp1400
sg16
F1.5199000835418701
sg22
g32
sg52
g1256
sg51
g193
sg50
VScrivete "chico" sul foglio
p1401
sS'trials.thisRepN'
p1402
I0
sg59
g76
sg55
g77
sg56
g78
sg15
S'space'
p1403
sS'trials.thisN'
p1404
I97
sg53
g77
sg58
g81
sg49
g23
(g66
S'\xa1\x00\x00\x00\x00\x00\x00\x00'
p1405
tp1406
Rp1407
sS'trials.thisTrialN'
p1408
I97
sg54
g202
sg20
g21
sg34
g39
sg57
g126
sg33
g12
sa(dp1409
S'trials.thisIndex'
p1410
g23
(g66
S'\x85\x00\x00\x00\x00\x00\x00\x00'
p1411
tp1412
Rp1413
sg16
F4.154303073883057
sg22
g32
sg52
g712
sg51
g114
sg50
VHa detto "cupo" sei volte
p1414
sS'trials.thisRepN'
p1415
I0
sg59
g96
sg55
g97
sg56
g98
sg15
S'space'
p1416
sS'trials.thisN'
p1417
I98
sg53
g77
sg58
g81
sg49
g23
(g66
S'\x86\x00\x00\x00\x00\x00\x00\x00'
p1418
tp1419
Rp1420
sS'trials.thisTrialN'
p1421
I98
sg54
g125
sg20
g21
sg34
g39
sg57
g126
sg33
g12
sa(dp1422
S'trials.thisIndex'
p1423
g23
(g66
S'Y\x00\x00\x00\x00\x00\x00\x00'
p1424
tp1425
Rp1426
sg16
F1.4344830513000488
sg22
g32
sg52
g177
sg51
g114
sg50
VHa detto "toto" sei volte
p1427
sS'trials.thisRepN'
p1428
I0
sg59
g180
sg55
g119
sg56
g98
sg15
S'space'
p1429
sS'trials.thisN'
p1430
I99
sg53
g119
sg58
g120
sg49
g23
(g66
S'Z\x00\x00\x00\x00\x00\x00\x00'
p1431
tp1432
Rp1433
sS'trials.thisTrialN'
p1434
I99
sg54
g106
sg20
g21
sg34
g39
sg57
g107
sg33
g12
sa(dp1435
S'trials.thisIndex'
p1436
g23
(g66
S'[\x00\x00\x00\x00\x00\x00\x00'
p1437
tp1438
Rp1439
sg16
F1.4689550399780273
sg22
g32
sg52
g177
sg51
g73
sg50
VRipete "toto" da sempre
p1440
sS'trials.thisRepN'
p1441
I0
sg59
g180
sg55
g119
sg56
g98
sg15
S'space'
p1442
sS'trials.thisN'
p1443
I100
sg53
g119
sg58
g120
sg49
g23
(g66
S'\\\x00\x00\x00\x00\x00\x00\x00'
p1444
tp1445
Rp1446
sS'trials.thisTrialN'
p1447
I100
sg54
g106
sg20
g21
sg34
g39
sg57
g107
sg33
g12
sa(dp1448
S'trials.thisIndex'
p1449
g23
(g66
S'%\x00\x00\x00\x00\x00\x00\x00'
p1450
tp1451
Rp1452
sg16
F5.369800806045532
sg22
g32
sg52
g208
sg51
g114
sg50
VHa detto "paco" sei volte
p1453
sS'trials.thisRepN'
p1454
I0
sg59
g76
sg55
g77
sg56
g136
sg15
S'space'
p1455
sS'trials.thisN'
p1456
I101
sg53
g97
sg58
g101
sg49
g23
(g66
S'&\x00\x00\x00\x00\x00\x00\x00'
p1457
tp1458
Rp1459
sS'trials.thisTrialN'
p1460
I101
sg54
g143
sg20
g21
sg34
g39
sg57
g144
sg33
g12
sa(dp1461
S'trials.thisIndex'
p1462
g23
(g66
S']\x00\x00\x00\x00\x00\x00\x00'
p1463
tp1464
Rp1465
sg16
F1.502821922302246
sg22
g32
sg52
g416
sg51
g114
sg50
VHa detto "tuto" sei volte
p1466
sS'trials.thisRepN'
p1467
I0
sg59
g180
sg55
g119
sg56
g98
sg15
S'space'
p1468
sS'trials.thisN'
p1469
I102
sg53
g119
sg58
g120
sg49
g23
(g66
S'^\x00\x00\x00\x00\x00\x00\x00'
p1470
tp1471
Rp1472
sS'trials.thisTrialN'
p1473
I102
sg54
g125
sg20
g21
sg34
g39
sg57
g126
sg33
g12
sa(dp1474
S'trials.thisIndex'
p1475
g23
(g66
S'0\x00\x00\x00\x00\x00\x00\x00'
p1476
tp1477
Rp1478
sg16
F1.6376910209655762
sg22
g32
sg52
g347
sg51
g193
sg50
VScrivete "poco" sul foglio
p1479
sS'trials.thisRepN'
p1480
I0
sg59
g76
sg55
g77
sg56
g98
sg15
S'space'
p1481
sS'trials.thisN'
p1482
I103
sg53
g97
sg58
g101
sg49
g23
(g66
S'1\x00\x00\x00\x00\x00\x00\x00'
p1483
tp1484
Rp1485
sS'trials.thisTrialN'
p1486
I103
sg54
g106
sg20
g21
sg34
g39
sg57
g107
sg33
g12
sa(dp1487
S'trials.thisIndex'
p1488
g23
(g66
S'N\x00\x00\x00\x00\x00\x00\x00'
p1489
tp1490
Rp1491
sg16
F1.287325143814087
sg22
g32
sg52
g845
sg51
g133
sg50
VSentivo "tato" di nuovo
p1492
sS'trials.thisRepN'
p1493
I0
sg59
g180
sg55
g119
sg56
g136
sg15
S'space'
p1494
sS'trials.thisN'
p1495
I104
sg53
g119
sg58
g120
sg49
g23
(g66
S'O\x00\x00\x00\x00\x00\x00\x00'
p1496
tp1497
Rp1498
sS'trials.thisTrialN'
p1499
I104
sg54
g143
sg20
g21
sg34
g39
sg57
g144
sg33
g12
sa(dp1500
S'trials.thisIndex'
p1501
g23
(g66
S'E\x00\x00\x00\x00\x00\x00\x00'
p1502
tp1503
Rp1504
sg16
F1.3533179759979248
sg22
g32
sg52
g939
sg51
g114
sg50
VHa detto "topo" sei volte
p1505
sS'trials.thisRepN'
p1506
I0
sg59
g96
sg55
g97
sg56
g98
sg15
S'space'
p1507
sS'trials.thisN'
p1508
I105
sg53
g119
sg58
g120
sg49
g23
(g66
S'F\x00\x00\x00\x00\x00\x00\x00'
p1509
tp1510
Rp1511
sS'trials.thisTrialN'
p1512
I105
sg54
g106
sg20
g21
sg34
g39
sg57
g107
sg33
g12
sa(dp1513
S'trials.thisIndex'
p1514
g23
(g66
S'3\x00\x00\x00\x00\x00\x00\x00'
p1515
tp1516
Rp1517
sg16
F1.4383339881896973
sg22
g32
sg52
g347
sg51
g73
sg50
VRipete "poco" da sempre
p1518
sS'trials.thisRepN'
p1519
I0
sg59
g76
sg55
g77
sg56
g98
sg15
S'space'
p1520
sS'trials.thisN'
p1521
I106
sg53
g97
sg58
g101
sg49
g23
(g66
S'4\x00\x00\x00\x00\x00\x00\x00'
p1522
tp1523
Rp1524
sS'trials.thisTrialN'
p1525
I106
sg54
g106
sg20
g21
sg34
g39
sg57
g107
sg33
g12
sa(dp1526
S'trials.thisIndex'
p1527
g23
(g66
S'A\x00\x00\x00\x00\x00\x00\x00'
p1528
tp1529
Rp1530
sg16
F1.336169958114624
sg22
g32
sg52
g470
sg51
g114
sg50
VHa detto "tipo" sei volte
p1531
sS'trials.thisRepN'
p1532
I0
sg59
g96
sg55
g97
sg56
g78
sg15
S'space'
p1533
sS'trials.thisN'
p1534
I107
sg53
g119
sg58
g120
sg49
g23
(g66
S'B\x00\x00\x00\x00\x00\x00\x00'
p1535
tp1536
Rp1537
sS'trials.thisTrialN'
p1538
I107
sg54
g202
sg20
g21
sg34
g39
sg57
g126
sg33
g12
sa(dp1539
S'trials.thisIndex'
p1540
g23
(g66
S'L\x00\x00\x00\x00\x00\x00\x00'
p1541
tp1542
Rp1543
sg16
F1.4697439670562744
sg22
g32
sg52
g845
sg51
g193
sg50
VScrivete "tato" sul foglio
p1544
sS'trials.thisRepN'
p1545
I0
sg59
g180
sg55
g119
sg56
g136
sg15
S'space'
p1546
sS'trials.thisN'
p1547
I108
sg53
g119
sg58
g120
sg49
g23
(g66
S'M\x00\x00\x00\x00\x00\x00\x00'
p1548
tp1549
Rp1550
sS'trials.thisTrialN'
p1551
I108
sg54
g143
sg20
g21
sg34
g39
sg57
g144
sg33
g12
sa(dp1552
S'trials.thisIndex'
p1553
g23
(g66
S'f\x00\x00\x00\x00\x00\x00\x00'
p1554
tp1555
Rp1556
sg16
F1.7021241188049316
sg22
g32
sg52
g618
sg51
g133
sg50
VSentivo "teco" di nuovo
p1557
sS'trials.thisRepN'
p1558
I0
sg59
g76
sg55
g77
sg56
g78
sg15
S'space'
p1559
sS'trials.thisN'
p1560
I109
sg53
g119
sg58
g120
sg49
g23
(g66
S'g\x00\x00\x00\x00\x00\x00\x00'
p1561
tp1562
Rp1563
sS'trials.thisTrialN'
p1564
I109
sg54
g86
sg20
g21
sg34
g39
sg57
g87
sg33
g12
sa(dp1565
S'trials.thisIndex'
p1566
g23
(g66
S'\x9e\x00\x00\x00\x00\x00\x00\x00'
p1567
tp1568
Rp1569
sg16
F1.3045389652252197
sg22
g32
sg52
g72
sg51
g133
sg50
VSentivo "checo" di nuovo
p1570
sS'trials.thisRepN'
p1571
I0
sg59
g76
sg55
g77
sg56
g78
sg15
S'space'
p1572
sS'trials.thisN'
p1573
I110
sg53
g77
sg58
g81
sg49
g23
(g66
S'\x9f\x00\x00\x00\x00\x00\x00\x00'
p1574
tp1575
Rp1576
sS'trials.thisTrialN'
p1577
I110
sg54
g86
sg20
g21
sg34
g39
sg57
g87
sg33
g12
sa(dp1578
S'trials.thisIndex'
p1579
g23
(g66
S'\x0e\x00\x00\x00\x00\x00\x00\x00'
p1580
tp1581
Rp1582
sg16
F1.4377250671386719
sg22
g32
sg52
g93
sg51
g133
sg50
VSentivo "popo" di nuovo
p1583
sS'trials.thisRepN'
p1584
I0
sg59
g96
sg55
g97
sg56
g98
sg15
S'space'
p1585
sS'trials.thisN'
p1586
I111
sg53
g97
sg58
g101
sg49
g23
(g66
S'\x0f\x00\x00\x00\x00\x00\x00\x00'
p1587
tp1588
Rp1589
sS'trials.thisTrialN'
p1590
I111
sg54
g106
sg20
g21
sg34
g39
sg57
g107
sg33
g12
sa(dp1591
S'trials.thisIndex'
p1592
g23
(g66
S'\x07\x00\x00\x00\x00\x00\x00\x00'
p1593
tp1594
Rp1595
sg16
F1.7359118461608887
sg22
g32
sg52
g632
sg51
g73
sg50
VRipete "pepo" da sempre
p1596
sS'trials.thisRepN'
p1597
I0
sg59
g96
sg55
g97
sg56
g78
sg15
S'space'
p1598
sS'trials.thisN'
p1599
I112
sg53
g97
sg58
g101
sg49
g23
(g66
S'\x08\x00\x00\x00\x00\x00\x00\x00'
p1600
tp1601
Rp1602
sS'trials.thisTrialN'
p1603
I112
sg54
g86
sg20
g21
sg34
g39
sg57
g87
sg33
g12
sa(dp1604
S'trials.thisIndex'
p1605
g23
(g66
S'|\x00\x00\x00\x00\x00\x00\x00'
p1606
tp1607
Rp1608
sg16
F4.836963176727295
sg22
g32
sg52
g537
sg51
g193
sg50
VScrivete "chipo" sul foglio
p1609
sS'trials.thisRepN'
p1610
I0
sg59
g96
sg55
g97
sg56
g78
sg15
S'space'
p1611
sS'trials.thisN'
p1612
I113
sg53
g77
sg58
g81
sg49
g23
(g66
S'}\x00\x00\x00\x00\x00\x00\x00'
p1613
tp1614
Rp1615
sS'trials.thisTrialN'
p1616
I113
sg54
g202
sg20
g21
sg34
g39
sg57
g126
sg33
g12
sa(dp1617
S'trials.thisIndex'
p1618
g23
(g66
S'w\x00\x00\x00\x00\x00\x00\x00'
p1619
tp1620
Rp1621
sg16
F1.3197758197784424
sg22
g32
sg52
g319
sg51
g73
sg50
VRipete "capo" da sempre
p1622
sS'trials.thisRepN'
p1623
I0
sg59
g96
sg55
g97
sg56
g136
sg15
S'space'
p1624
sS'trials.thisN'
p1625
I114
sg53
g77
sg58
g81
sg49
g23
(g66
S'x\x00\x00\x00\x00\x00\x00\x00'
p1626
tp1627
Rp1628
sS'trials.thisTrialN'
p1629
I114
sg54
g143
sg20
g21
sg34
g39
sg57
g144
sg33
g12
sa(dp1630
S'trials.thisIndex'
p1631
g23
(g66
S'b\x00\x00\x00\x00\x00\x00\x00'
p1632
tp1633
Rp1634
sg16
F1.368474006652832
sg22
g32
sg52
g264
sg51
g133
sg50
VSentivo "taco" di nuovo
p1635
sS'trials.thisRepN'
p1636
I0
sg59
g76
sg55
g77
sg56
g136
sg15
S'space'
p1637
sS'trials.thisN'
p1638
I115
sg53
g119
sg58
g120
sg49
g23
(g66
S'c\x00\x00\x00\x00\x00\x00\x00'
p1639
tp1640
Rp1641
sS'trials.thisTrialN'
p1642
I115
sg54
g143
sg20
g21
sg34
g39
sg57
g144
sg33
g12
sa(dp1643
S'trials.thisIndex'
p1644
g23
(g66
S'(\x00\x00\x00\x00\x00\x00\x00'
p1645
tp1646
Rp1647
sg16
F1.587116003036499
sg22
g32
sg52
g925
sg51
g193
sg50
VScrivete "peco" sul foglio
p1648
sS'trials.thisRepN'
p1649
I0
sg59
g76
sg55
g77
sg56
g78
sg15
S'space'
p1650
sS'trials.thisN'
p1651
I116
sg53
g97
sg58
g101
sg49
g23
(g66
S')\x00\x00\x00\x00\x00\x00\x00'
p1652
tp1653
Rp1654
sS'trials.thisTrialN'
p1655
I116
sg54
g86
sg20
g21
sg34
g39
sg57
g87
sg33
g12
sa(dp1656
S'trials.thisIndex'
p1657
g23
(g66
S'\xa3\x00\x00\x00\x00\x00\x00\x00'
p1658
tp1659
Rp1660
sg16
F1.4374439716339111
sg22
g32
sg52
g1256
sg51
g73
sg50
VRipete "chico" da sempre
p1661
sS'trials.thisRepN'
p1662
I0
sg59
g76
sg55
g77
sg56
g78
sg15
S'space'
p1663
sS'trials.thisN'
p1664
I117
sg53
g77
sg58
g81
sg49
g23
(g66
S'\xa4\x00\x00\x00\x00\x00\x00\x00'
p1665
tp1666
Rp1667
sS'trials.thisTrialN'
p1668
I117
sg54
g202
sg20
g21
sg34
g39
sg57
g126
sg33
g12
sa(dp1669
S'trials.thisIndex'
p1670
g23
(g66
S'g\x00\x00\x00\x00\x00\x00\x00'
p1671
tp1672
Rp1673
sg16
F1.4380059242248535
sg22
g32
sg52
g618
sg51
g73
sg50
VRipete "teco" da sempre
p1674
sS'trials.thisRepN'
p1675
I0
sg59
g76
sg55
g77
sg56
g78
sg15
S'space'
p1676
sS'trials.thisN'
p1677
I118
sg53
g119
sg58
g120
sg49
g23
(g66
S'h\x00\x00\x00\x00\x00\x00\x00'
p1678
tp1679
Rp1680
sS'trials.thisTrialN'
p1681
I118
sg54
g86
sg20
g21
sg34
g39
sg57
g87
sg33
g12
sa(dp1682
S'trials.thisIndex'
p1683
g23
(g66
S'\x91\x00\x00\x00\x00\x00\x00\x00'
p1684
tp1685
Rp1686
sg16
F1.6867401599884033
sg22
g32
sg52
g1046
sg51
g114
sg50
VHa detto "chito" sei volte
p1687
sS'trials.thisRepN'
p1688
I0
sg59
g180
sg55
g119
sg56
g78
sg15
S'space'
p1689
sS'trials.thisN'
p1690
I119
sg53
g77
sg58
g81
sg49
g23
(g66
S'\x92\x00\x00\x00\x00\x00\x00\x00'
p1691
tp1692
Rp1693
sS'trials.thisTrialN'
p1694
I119
sg54
g202
sg20
g21
sg34
g39
sg57
g126
sg33
g12
sa(dp1695
S'trials.thisIndex'
p1696
g23
(g66
S't\x00\x00\x00\x00\x00\x00\x00'
p1697
tp1698
Rp1699
sg16
F1.4706010818481445
sg22
g32
sg52
g319
sg51
g193
sg50
VScrivete "capo" sul foglio
p1700
sS'trials.thisRepN'
p1701
I0
sg59
g96
sg55
g97
sg56
g136
sg15
S'space'
p1702
sS'trials.thisN'
p1703
I120
sg53
g77
sg58
g81
sg49
g23
(g66
S'u\x00\x00\x00\x00\x00\x00\x00'
p1704
tp1705
Rp1706
sS'trials.thisTrialN'
p1707
I120
sg54
g143
sg20
g21
sg34
g39
sg57
g144
sg33
g12
sa(dp1708
S'trials.thisIndex'
p1709
g23
(g66
S'\x06\x00\x00\x00\x00\x00\x00\x00'
p1710
tp1711
Rp1712
sg16
F1.271165132522583
sg22
g32
sg52
g632
sg51
g133
sg50
VSentivo "pepo" di nuovo
p1713
sS'trials.thisRepN'
p1714
I0
sg59
g96
sg55
g97
sg56
g78
sg15
S'space'
p1715
sS'trials.thisN'
p1716
I121
sg53
g97
sg58
g101
sg49
g23
(g66
S'\x07\x00\x00\x00\x00\x00\x00\x00'
p1717
tp1718
Rp1719
sS'trials.thisTrialN'
p1720
I121
sg54
g86
sg20
g21
sg34
g39
sg57
g87
sg33
g12
sa(dp1721
S'trials.thisIndex'
p1722
g23
(g66
S'\xaa\x00\x00\x00\x00\x00\x00\x00'
p1723
tp1724
Rp1725
sg16
F1.1889641284942627
sg22
g32
sg52
g1387
sg51
g133
sg50
VSentivo "cuco" di nuovo
p1726
sS'trials.thisRepN'
p1727
I0
sg59
g76
sg55
g77
sg56
g98
sg15
S'space'
p1728
sS'trials.thisN'
p1729
I122
sg53
g77
sg58
g81
sg49
g23
(g66
S'\xab\x00\x00\x00\x00\x00\x00\x00'
p1730
tp1731
Rp1732
sS'trials.thisTrialN'
p1733
I122
sg54
g125
sg20
g21
sg34
g39
sg57
g126
sg33
g12
sa(dp1734
S'trials.thisIndex'
p1735
g23
(g66
S'\xa5\x00\x00\x00\x00\x00\x00\x00'
p1736
tp1737
Rp1738
sg16
F1.5038318634033203
sg22
g32
sg52
g430
sg51
g114
sg50
VHa detto "coco" sei volte
p1739
sS'trials.thisRepN'
p1740
I0
sg59
g76
sg55
g77
sg56
g98
sg15
S'space'
p1741
sS'trials.thisN'
p1742
I123
sg53
g77
sg58
g81
sg49
g23
(g66
S'\xa6\x00\x00\x00\x00\x00\x00\x00'
p1743
tp1744
Rp1745
sS'trials.thisTrialN'
p1746
I123
sg54
g106
sg20
g21
sg34
g39
sg57
g107
sg33
g12
sa(dp1747
S'trials.thisIndex'
p1748
g23
(g66
S'\x0b\x00\x00\x00\x00\x00\x00\x00'
p1749
tp1750
Rp1751
sg16
F1.2867980003356934
sg22
g32
sg52
g805
sg51
g73
sg50
VRipete "pipo" da sempre
p1752
sS'trials.thisRepN'
p1753
I0
sg59
g96
sg55
g97
sg56
g78
sg15
S'space'
p1754
sS'trials.thisN'
p1755
I124
sg53
g97
sg58
g101
sg49
g23
(g66
S'\x0c\x00\x00\x00\x00\x00\x00\x00'
p1756
tp1757
Rp1758
sS'trials.thisTrialN'
p1759
I124
sg54
g202
sg20
g21
sg34
g39
sg57
g126
sg33
g12
sa(dp1760
S'trials.thisIndex'
p1761
g23
(g66
S'n\x00\x00\x00\x00\x00\x00\x00'
p1762
tp1763
Rp1764
sg16
F1.4554650783538818
sg22
g32
sg52
g222
sg51
g133
sg50
VSentivo "toco" di nuovo
p1765
sS'trials.thisRepN'
p1766
I0
sg59
g76
sg55
g77
sg56
g98
sg15
S'space'
p1767
sS'trials.thisN'
p1768
I125
sg53
g119
sg58
g120
sg49
g23
(g66
S'o\x00\x00\x00\x00\x00\x00\x00'
p1769
tp1770
Rp1771
sS'trials.thisTrialN'
p1772
I125
sg54
g106
sg20
g21
sg34
g39
sg57
g107
sg33
g12
sa(dp1773
S'trials.thisIndex'
p1774
g23
(g66
S'\x89\x00\x00\x00\x00\x00\x00\x00'
p1775
tp1776
Rp1777
sg16
F1.4374709129333496
sg22
g32
sg52
g578
sg51
g114
sg50
VHa detto "cato" sei volte
p1778
sS'trials.thisRepN'
p1779
I0
sg59
g180
sg55
g119
sg56
g136
sg15
S'space'
p1780
sS'trials.thisN'
p1781
I126
sg53
g77
sg58
g81
sg49
g23
(g66
S'\x8a\x00\x00\x00\x00\x00\x00\x00'
p1782
tp1783
Rp1784
sS'trials.thisTrialN'
p1785
I126
sg54
g143
sg20
g21
sg34
g39
sg57
g144
sg33
g12
sa(dp1786
S'trials.thisIndex'
p1787
g23
(g66
S'\x87\x00\x00\x00\x00\x00\x00\x00'
p1788
tp1789
Rp1790
sg16
F1.372323989868164
sg22
g32
sg52
g712
sg51
g73
sg50
VRipete "cupo" da sempre
p1791
sS'trials.thisRepN'
p1792
I0
sg59
g96
sg55
g97
sg56
g98
sg15
S'space'
p1793
sS'trials.thisN'
p1794
I127
sg53
g77
sg58
g81
sg49
g23
(g66
S'\x88\x00\x00\x00\x00\x00\x00\x00'
p1795
tp1796
Rp1797
sS'trials.thisTrialN'
p1798
I127
sg54
g125
sg20
g21
sg34
g39
sg57
g126
sg33
g12
sa(dp1799
S'trials.thisIndex'
p1800
g23
(g66
S'.\x00\x00\x00\x00\x00\x00\x00'
p1801
tp1802
Rp1803
sg16
F1.404599905014038
sg22
g32
sg52
g278
sg51
g133
sg50
VSentivo "pico" di nuovo
p1804
sS'trials.thisRepN'
p1805
I0
sg59
g76
sg55
g77
sg56
g78
sg15
S'space'
p1806
sS'trials.thisN'
p1807
I128
sg53
g97
sg58
g101
sg49
g23
(g66
S'/\x00\x00\x00\x00\x00\x00\x00'
p1808
tp1809
Rp1810
sS'trials.thisTrialN'
p1811
I128
sg54
g202
sg20
g21
sg34
g39
sg57
g126
sg33
g12
sa(dp1812
S'trials.thisIndex'
p1813
g23
(g66
S'\x99\x00\x00\x00\x00\x00\x00\x00'
p1814
tp1815
Rp1816
sg16
F1.3711798191070557
sg22
g32
sg52
g551
sg51
g114
sg50
VHa detto "cuto" sei volte
p1817
sS'trials.thisRepN'
p1818
I0
sg59
g180
sg55
g119
sg56
g98
sg15
S'space'
p1819
sS'trials.thisN'
p1820
I129
sg53
g77
sg58
g81
sg49
g23
(g66
S'\x9a\x00\x00\x00\x00\x00\x00\x00'
p1821
tp1822
Rp1823
sS'trials.thisTrialN'
p1824
I129
sg54
g125
sg20
g21
sg34
g39
sg57
g126
sg33
g12
sa(dp1825
S'trials.thisIndex'
p1826
g23
(g66
S'\x96\x00\x00\x00\x00\x00\x00\x00'
p1827
tp1828
Rp1829
sg16
F1.3208739757537842
sg22
g32
sg52
g646
sg51
g133
sg50
VSentivo "coto" di nuovo
p1830
sS'trials.thisRepN'
p1831
I0
sg59
g180
sg55
g119
sg56
g98
sg15
S'space'
p1832
sS'trials.thisN'
p1833
I130
sg53
g77
sg58
g81
sg49
g23
(g66
S'\x97\x00\x00\x00\x00\x00\x00\x00'
p1834
tp1835
Rp1836
sS'trials.thisTrialN'
p1837
I130
sg54
g106
sg20
g21
sg34
g39
sg57
g107
sg33
g12
sa(dp1838
S'trials.thisIndex'
p1839
g23
(g66
S'\xa9\x00\x00\x00\x00\x00\x00\x00'
p1840
tp1841
Rp1842
sg16
F1.154378890991211
sg22
g32
sg52
g1387
sg51
g114
sg50
VHa detto "cuco" sei volte
p1843
sS'trials.thisRepN'
p1844
I0
sg59
g76
sg55
g77
sg56
g98
sg15
S'space'
p1845
sS'trials.thisN'
p1846
I131
sg53
g77
sg58
g81
sg49
g23
(g66
S'\xaa\x00\x00\x00\x00\x00\x00\x00'
p1847
tp1848
Rp1849
sS'trials.thisTrialN'
p1850
I131
sg54
g125
sg20
g21
sg34
g39
sg57
g126
sg33
g12
sa(dp1851
S'trials.thisIndex'
p1852
g23
(g66
S'\x15\x00\x00\x00\x00\x00\x00\x00'
p1853
tp1854
Rp1855
sg16
F1.4714128971099854
sg22
g32
sg52
g885
sg51
g114
sg50
VHa detto "pato" sei volte
p1856
sS'trials.thisRepN'
p1857
I0
sg59
g180
sg55
g119
sg56
g136
sg15
S'space'
p1858
sS'trials.thisN'
p1859
I132
sg53
g97
sg58
g101
sg49
g23
(g66
S'\x16\x00\x00\x00\x00\x00\x00\x00'
p1860
tp1861
Rp1862
sS'trials.thisTrialN'
p1863
I132
sg54
g143
sg20
g21
sg34
g39
sg57
g144
sg33
g12
sa(dp1864
S'trials.thisIndex'
p1865
g23
(g66
S'\x01\x00\x00\x00\x00\x00\x00\x00'
p1866
tp1867
Rp1868
sg16
F1.538088083267212
sg22
g32
sg52
g132
sg51
g114
sg50
VHa detto "papo" sei volte
p1869
sS'trials.thisRepN'
p1870
I0
sg59
g96
sg55
g97
sg56
g136
sg15
S'space'
p1871
sS'trials.thisN'
p1872
I133
sg53
g97
sg58
g101
sg49
g23
(g66
S'\x02\x00\x00\x00\x00\x00\x00\x00'
p1873
tp1874
Rp1875
sS'trials.thisTrialN'
p1876
I133
sg54
g143
sg20
g21
sg34
g39
sg57
g144
sg33
g12
sa(dp1877
S'trials.thisIndex'
p1878
g23
(g66
S'C\x00\x00\x00\x00\x00\x00\x00'
p1879
tp1880
Rp1881
sg16
F1.5896949768066406
sg22
g32
sg52
g470
sg51
g73
sg50
VRipete "tipo" da sempre
p1882
sS'trials.thisRepN'
p1883
I0
sg59
g96
sg55
g97
sg56
g78
sg15
S'space'
p1884
sS'trials.thisN'
p1885
I134
sg53
g119
sg58
g120
sg49
g23
(g66
S'D\x00\x00\x00\x00\x00\x00\x00'
p1886
tp1887
Rp1888
sS'trials.thisTrialN'
p1889
I134
sg54
g202
sg20
g21
sg34
g39
sg57
g126
sg33
g12
sa(dp1890
S'trials.thisIndex'
p1891
g23
(g66
S'\x1c\x00\x00\x00\x00\x00\x00\x00'
p1892
tp1893
Rp1894
sg16
F1.6722240447998047
sg22
g32
sg52
g778
sg51
g193
sg50
VScrivete "poto" sul foglio
p1895
sS'trials.thisRepN'
p1896
I0
sg59
g180
sg55
g119
sg56
g98
sg15
S'space'
p1897
sS'trials.thisN'
p1898
I135
sg53
g97
sg58
g101
sg49
g23
(g66
S'\x1d\x00\x00\x00\x00\x00\x00\x00'
p1899
tp1900
Rp1901
sS'trials.thisTrialN'
p1902
I135
sg54
g106
sg20
g21
sg34
g39
sg57
g107
sg33
g12
sa(dp1903
S'trials.thisIndex'
p1904
g23
(g66
S'+\x00\x00\x00\x00\x00\x00\x00'
p1905
tp1906
Rp1907
sg16
F1.4542739391326904
sg22
g32
sg52
g925
sg51
g73
sg50
VRipete "peco" da sempre
p1908
sS'trials.thisRepN'
p1909
I0
sg59
g76
sg55
g77
sg56
g78
sg15
S'space'
p1910
sS'trials.thisN'
p1911
I136
sg53
g97
sg58
g101
sg49
g23
(g66
S',\x00\x00\x00\x00\x00\x00\x00'
p1912
tp1913
Rp1914
sS'trials.thisTrialN'
p1915
I136
sg54
g86
sg20
g21
sg34
g39
sg57
g87
sg33
g12
sa(dp1916
S'trials.thisIndex'
p1917
g23
(g66
S'd\x00\x00\x00\x00\x00\x00\x00'
p1918
tp1919
Rp1920
sg16
F1.5230491161346436
sg22
g32
sg52
g618
sg51
g193
sg50
VScrivete "teco" sul foglio
p1921
sS'trials.thisRepN'
p1922
I0
sg59
g76
sg55
g77
sg56
g78
sg15
S'space'
p1923
sS'trials.thisN'
p1924
I137
sg53
g119
sg58
g120
sg49
g23
(g66
S'e\x00\x00\x00\x00\x00\x00\x00'
p1925
tp1926
Rp1927
sS'trials.thisTrialN'
p1928
I137
sg54
g86
sg20
g21
sg34
g39
sg57
g87
sg33
g12
sa(dp1929
S'trials.thisIndex'
p1930
g23
(g66
S'O\x00\x00\x00\x00\x00\x00\x00'
p1931
tp1932
Rp1933
sg16
F1.5699269771575928
sg22
g32
sg52
g845
sg51
g73
sg50
VRipete "tato" da sempre
p1934
sS'trials.thisRepN'
p1935
I0
sg59
g180
sg55
g119
sg56
g136
sg15
S'space'
p1936
sS'trials.thisN'
p1937
I138
sg53
g119
sg58
g120
sg49
g23
(g66
S'P\x00\x00\x00\x00\x00\x00\x00'
p1938
tp1939
Rp1940
sS'trials.thisTrialN'
p1941
I138
sg54
g143
sg20
g21
sg34
g39
sg57
g144
sg33
g12
sa(dp1942
S'trials.thisIndex'
p1943
g23
(g66
S'\x94\x00\x00\x00\x00\x00\x00\x00'
p1944
tp1945
Rp1946
sg16
F1.8214590549468994
sg22
g32
sg52
g646
sg51
g193
sg50
VScrivete "coto" sul foglio
p1947
sS'trials.thisRepN'
p1948
I0
sg59
g180
sg55
g119
sg56
g98
sg15
S'space'
p1949
sS'trials.thisN'
p1950
I139
sg53
g77
sg58
g81
sg49
g23
(g66
S'\x95\x00\x00\x00\x00\x00\x00\x00'
p1951
tp1952
Rp1953
sS'trials.thisTrialN'
p1954
I139
sg54
g106
sg20
g21
sg34
g39
sg57
g107
sg33
g12
sa(dp1955
S'trials.thisIndex'
p1956
g23
(g66
S'\xa4\x00\x00\x00\x00\x00\x00\x00'
p1957
tp1958
Rp1959
sg16
F1.537410020828247
sg22
g32
sg52
g430
sg51
g193
sg50
VScrivete "coco" sul foglio
p1960
sS'trials.thisRepN'
p1961
I0
sg59
g76
sg55
g77
sg56
g98
sg15
S'space'
p1962
sS'trials.thisN'
p1963
I140
sg53
g77
sg58
g81
sg49
g23
(g66
S'\xa5\x00\x00\x00\x00\x00\x00\x00'
p1964
tp1965
Rp1966
sS'trials.thisTrialN'
p1967
I140
sg54
g106
sg20
g21
sg34
g39
sg57
g107
sg33
g12
sa(dp1968
S'trials.thisIndex'
p1969
g23
(g66
S'\\\x00\x00\x00\x00\x00\x00\x00'
p1970
tp1971
Rp1972
sg16
F1.7707300186157227
sg22
g32
sg52
g416
sg51
g193
sg50
VScrivete "tuto" sul foglio
p1973
sS'trials.thisRepN'
p1974
I0
sg59
g180
sg55
g119
sg56
g98
sg15
S'space'
p1975
sS'trials.thisN'
p1976
I141
sg53
g119
sg58
g120
sg49
g23
(g66
S']\x00\x00\x00\x00\x00\x00\x00'
p1977
tp1978
Rp1979
sS'trials.thisTrialN'
p1980
I141
sg54
g125
sg20
g21
sg34
g39
sg57
g126
sg33
g12
sa(dp1981
S'trials.thisIndex'
p1982
g23
(g66
S'\x97\x00\x00\x00\x00\x00\x00\x00'
p1983
tp1984
Rp1985
sg16
F1.8017899990081787
sg22
g32
sg52
g646
sg51
g73
sg50
VRipete "coto" da sempre
p1986
sS'trials.thisRepN'
p1987
I0
sg59
g180
sg55
g119
sg56
g98
sg15
S'space'
p1988
sS'trials.thisN'
p1989
I142
sg53
g77
sg58
g81
sg49
g23
(g66
S'\x98\x00\x00\x00\x00\x00\x00\x00'
p1990
tp1991
Rp1992
sS'trials.thisTrialN'
p1993
I142
sg54
g106
sg20
g21
sg34
g39
sg57
g107
sg33
g12
sa(dp1994
S'trials.thisIndex'
p1995
g23
(g66
S'\x08\x00\x00\x00\x00\x00\x00\x00'
p1996
tp1997
Rp1998
sg16
F1.784214973449707
sg22
g32
sg52
g805
sg51
g193
sg50
VScrivete "pipo" sul foglio
p1999
sS'trials.thisRepN'
p2000
I0
sg59
g96
sg55
g97
sg56
g78
sg15
S'space'
p2001
sS'trials.thisN'
p2002
I143
sg53
g97
sg58
g101
sg49
g23
(g66
S'\t\x00\x00\x00\x00\x00\x00\x00'
p2003
tp2004
Rp2005
sS'trials.thisTrialN'
p2006
I143
sg54
g202
sg20
g21
sg34
g39
sg57
g126
sg33
g12
sa(dp2007
S'trials.thisIndex'
p2008
g23
(g66
S'"\x00\x00\x00\x00\x00\x00\x00'
p2009
tp2010
Rp2011
sg16
F1.6880929470062256
sg22
g32
sg52
g1019
sg51
g133
sg50
VSentivo "puto" di nuovo
p2012
sS'trials.thisRepN'
p2013
I0
sg59
g180
sg55
g119
sg56
g98
sg15
S'space'
p2014
sS'trials.thisN'
p2015
I144
sg53
g97
sg58
g101
sg49
g23
(g66
S'#\x00\x00\x00\x00\x00\x00\x00'
p2016
tp2017
Rp2018
sS'trials.thisTrialN'
p2019
I144
sg54
g125
sg20
g21
sg34
g39
sg57
g126
sg33
g12
sa(dp2020
S'trials.thisIndex'
p2021
g23
(g66
S'k\x00\x00\x00\x00\x00\x00\x00'
p2022
tp2023
Rp2024
sg16
F1.6177968978881836
sg22
g32
sg52
g192
sg51
g73
sg50
VRipete "tico" da sempre
p2025
sS'trials.thisRepN'
p2026
I0
sg59
g76
sg55
g77
sg56
g78
sg15
S'space'
p2027
sS'trials.thisN'
p2028
I145
sg53
g119
sg58
g120
sg49
g23
(g66
S'l\x00\x00\x00\x00\x00\x00\x00'
p2029
tp2030
Rp2031
sS'trials.thisTrialN'
p2032
I145
sg54
g202
sg20
g21
sg34
g39
sg57
g126
sg33
g12
sa(dp2033
S'trials.thisIndex'
p2034
g23
(g66
S'\xab\x00\x00\x00\x00\x00\x00\x00'
p2035
tp2036
Rp2037
sg16
F1.4881880283355713
sg22
g32
sg52
g1387
sg51
g73
sg50
VRipete "cuco" da sempre
p2038
sS'trials.thisRepN'
p2039
I0
sg59
g76
sg55
g77
sg56
g98
sg15
S'space'
p2040
sS'trials.thisN'
p2041
I146
sg53
g77
sg58
g81
sg49
g23
(g66
S'\xac\x00\x00\x00\x00\x00\x00\x00'
p2042
tp2043
Rp2044
sS'trials.thisTrialN'
p2045
I146
sg54
g125
sg20
g21
sg34
g39
sg57
g126
sg33
g12
sa(dp2046
S'trials.thisIndex'
p2047
g23
(g66
S"'\x00\x00\x00\x00\x00\x00\x00"
p2048
tp2049
Rp2050
sg16
F1.4364640712738037
sg22
g32
sg52
g208
sg51
g73
sg50
VRipete "paco" da sempre
p2051
sS'trials.thisRepN'
p2052
I0
sg59
g76
sg55
g77
sg56
g136
sg15
S'space'
p2053
sS'trials.thisN'
p2054
I147
sg53
g97
sg58
g101
sg49
g23
(g66
S'(\x00\x00\x00\x00\x00\x00\x00'
p2055
tp2056
Rp2057
sS'trials.thisTrialN'
p2058
I147
sg54
g143
sg20
g21
sg34
g39
sg57
g144
sg33
g12
sa(dp2059
S'trials.thisIndex'
p2060
g23
(g66
S'\x7f\x00\x00\x00\x00\x00\x00\x00'
p2061
tp2062
Rp2063
sg16
F10.209327936172485
sg22
g32
sg52
g537
sg51
g73
sg50
VRipete "chipo" da sempre
p2064
sS'trials.thisRepN'
p2065
I0
sg59
g96
sg55
g97
sg56
g78
sg15
S'space'
p2066
sS'trials.thisN'
p2067
I148
sg53
g77
sg58
g81
sg49
g23
(g66
S'\x80\x00\x00\x00\x00\x00\x00\x00'
p2068
tp2069
Rp2070
sS'trials.thisTrialN'
p2071
I148
sg54
g202
sg20
g21
sg34
g39
sg57
g126
sg33
g12
sa(dp2072
S'trials.thisIndex'
p2073
g23
(g66
S'!\x00\x00\x00\x00\x00\x00\x00'
p2074
tp2075
Rp2076
sg16
F1.536466121673584
sg22
g32
sg52
g1019
sg51
g114
sg50
VHa detto "puto" sei volte
p2077
sS'trials.thisRepN'
p2078
I0
sg59
g180
sg55
g119
sg56
g98
sg15
S'space'
p2079
sS'trials.thisN'
p2080
I149
sg53
g97
sg58
g101
sg49
g23
(g66
S'"\x00\x00\x00\x00\x00\x00\x00'
p2081
tp2082
Rp2083
sS'trials.thisTrialN'
p2084
I149
sg54
g125
sg20
g21
sg34
g39
sg57
g126
sg33
g12
sa(dp2085
S'trials.thisIndex'
p2086
g23
(g66
S'\x80\x00\x00\x00\x00\x00\x00\x00'
p2087
tp2088
Rp2089
sg16
F1.6036498546600342
sg22
g32
sg52
g292
sg51
g193
sg50
VScrivete "copo" sul foglio
p2090
sS'trials.thisRepN'
p2091
I0
sg59
g96
sg55
g97
sg56
g98
sg15
S'space'
p2092
sS'trials.thisN'
p2093
I150
sg53
g77
sg58
g81
sg49
g23
(g66
S'\x81\x00\x00\x00\x00\x00\x00\x00'
p2094
tp2095
Rp2096
sS'trials.thisTrialN'
p2097
I150
sg54
g106
sg20
g21
sg34
g39
sg57
g107
sg33
g12
sa(dp2098
S'trials.thisIndex'
p2099
g23
(g66
S'u\x00\x00\x00\x00\x00\x00\x00'
p2100
tp2101
Rp2102
sg16
F1.4365019798278809
sg22
g32
sg52
g319
sg51
g114
sg50
VHa detto "capo" sei volte
p2103
sS'trials.thisRepN'
p2104
I0
sg59
g96
sg55
g97
sg56
g136
sg15
S'space'
p2105
sS'trials.thisN'
p2106
I151
sg53
g77
sg58
g81
sg49
g23
(g66
S'v\x00\x00\x00\x00\x00\x00\x00'
p2107
tp2108
Rp2109
sS'trials.thisTrialN'
p2110
I151
sg54
g143
sg20
g21
sg34
g39
sg57
g144
sg33
g12
sa(dp2111
S'trials.thisIndex'
p2112
g23
(g66
S'\x1f\x00\x00\x00\x00\x00\x00\x00'
p2113
tp2114
Rp2115
sg16
F1.5509979724884033
sg22
g32
sg52
g778
sg51
g73
sg50
VRipete "poto" da sempre
p2116
sS'trials.thisRepN'
p2117
I0
sg59
g180
sg55
g119
sg56
g98
sg15
S'space'
p2118
sS'trials.thisN'
p2119
I152
sg53
g97
sg58
g101
sg49
g23
(g66
S' \x00\x00\x00\x00\x00\x00\x00'
p2120
tp2121
Rp2122
sS'trials.thisTrialN'
p2123
I152
sg54
g106
sg20
g21
sg34
g39
sg57
g107
sg33
g12
sa(dp2124
S'trials.thisIndex'
p2125
g23
(g66
S'>\x00\x00\x00\x00\x00\x00\x00'
p2126
tp2127
Rp2128
sg16
F1.3024749755859375
sg22
g32
sg52
g389
sg51
g133
sg50
VSentivo "tepo" di nuovo
p2129
sS'trials.thisRepN'
p2130
I0
sg59
g96
sg55
g97
sg56
g78
sg15
S'space'
p2131
sS'trials.thisN'
p2132
I153
sg53
g119
sg58
g120
sg49
g23
(g66
S'?\x00\x00\x00\x00\x00\x00\x00'
p2133
tp2134
Rp2135
sS'trials.thisTrialN'
p2136
I153
sg54
g86
sg20
g21
sg34
g39
sg57
g87
sg33
g12
sa(dp2137
S'trials.thisIndex'
p2138
g23
(g66
S'i\x00\x00\x00\x00\x00\x00\x00'
p2139
tp2140
Rp2141
sg16
F1.5378539562225342
sg22
g32
sg52
g192
sg51
g114
sg50
VHa detto "tico" sei volte
p2142
sS'trials.thisRepN'
p2143
I0
sg59
g76
sg55
g77
sg56
g78
sg15
S'space'
p2144
sS'trials.thisN'
p2145
I154
sg53
g119
sg58
g120
sg49
g23
(g66
S'j\x00\x00\x00\x00\x00\x00\x00'
p2146
tp2147
Rp2148
sS'trials.thisTrialN'
p2149
I154
sg54
g202
sg20
g21
sg34
g39
sg57
g126
sg33
g12
sa(dp2150
S'trials.thisIndex'
p2151
g23
(g66
S'y\x00\x00\x00\x00\x00\x00\x00'
p2152
tp2153
Rp2154
sg16
F1.4038300514221191
sg22
g32
sg52
g250
sg51
g114
sg50
VHa detto "chepo" sei volte
p2155
sS'trials.thisRepN'
p2156
I0
sg59
g96
sg55
g97
sg56
g78
sg15
S'space'
p2157
sS'trials.thisN'
p2158
I155
sg53
g77
sg58
g81
sg49
g23
(g66
S'z\x00\x00\x00\x00\x00\x00\x00'
p2159
tp2160
Rp2161
sS'trials.thisTrialN'
p2162
I155
sg54
g86
sg20
g21
sg34
g39
sg57
g87
sg33
g12
sa(dp2163
S'trials.thisIndex'
p2164
g23
(g66
S'\x90\x00\x00\x00\x00\x00\x00\x00'
p2165
tp2166
Rp2167
sg16
F1.301797866821289
sg22
g32
sg52
g1046
sg51
g193
sg50
VScrivete "chito" sul foglio
p2168
sS'trials.thisRepN'
p2169
I0
sg59
g180
sg55
g119
sg56
g78
sg15
S'space'
p2170
sS'trials.thisN'
p2171
I156
sg53
g77
sg58
g81
sg49
g23
(g66
S'\x91\x00\x00\x00\x00\x00\x00\x00'
p2172
tp2173
Rp2174
sS'trials.thisTrialN'
p2175
I156
sg54
g202
sg20
g21
sg34
g39
sg57
g126
sg33
g12
sa(dp2176
S'trials.thisIndex'
p2177
g23
(g66
S'7\x00\x00\x00\x00\x00\x00\x00'
p2178
tp2179
Rp2180
sg16
F1.4707748889923096
sg22
g32
sg52
g375
sg51
g73
sg50
VRipete "puco" da sempre
p2181
sS'trials.thisRepN'
p2182
I0
sg59
g76
sg55
g77
sg56
g98
sg15
S'space'
p2183
sS'trials.thisN'
p2184
I157
sg53
g97
sg58
g101
sg49
g23
(g66
S'8\x00\x00\x00\x00\x00\x00\x00'
p2185
tp2186
Rp2187
sS'trials.thisTrialN'
p2188
I157
sg54
g125
sg20
g21
sg34
g39
sg57
g126
sg33
g12
sa(dp2189
S'trials.thisIndex'
p2190
g23
(g66
S'6\x00\x00\x00\x00\x00\x00\x00'
p2191
tp2192
Rp2193
sg16
F1.3877010345458984
sg22
g32
sg52
g375
sg51
g133
sg50
VSentivo "puco" di nuovo
p2194
sS'trials.thisRepN'
p2195
I0
sg59
g76
sg55
g77
sg56
g98
sg15
S'space'
p2196
sS'trials.thisN'
p2197
I158
sg53
g97
sg58
g101
sg49
g23
(g66
S'7\x00\x00\x00\x00\x00\x00\x00'
p2198
tp2199
Rp2200
sS'trials.thisTrialN'
p2201
I158
sg54
g125
sg20
g21
sg34
g39
sg57
g126
sg33
g12
sa(dp2202
S'trials.thisIndex'
p2203
g23
(g66
S'\x1b\x00\x00\x00\x00\x00\x00\x00'
p2204
tp2205
Rp2206
sg16
F1.4870409965515137
sg22
g32
sg52
g1164
sg51
g73
sg50
VRipete "pito" da sempre
p2207
sS'trials.thisRepN'
p2208
I0
sg59
g180
sg55
g119
sg56
g78
sg15
S'space'
p2209
sS'trials.thisN'
p2210
I159
sg53
g97
sg58
g101
sg49
g23
(g66
S'\x1c\x00\x00\x00\x00\x00\x00\x00'
p2211
tp2212
Rp2213
sS'trials.thisTrialN'
p2214
I159
sg54
g202
sg20
g21
sg34
g39
sg57
g126
sg33
g12
sa(dp2215
S'trials.thisIndex'
p2216
g23
(g66
S'X\x00\x00\x00\x00\x00\x00\x00'
p2217
tp2218
Rp2219
sg16
F1.5878350734710693
sg22
g32
sg52
g177
sg51
g193
sg50
VScrivete "toto" sul foglio
p2220
sS'trials.thisRepN'
p2221
I0
sg59
g180
sg55
g119
sg56
g98
sg15
S'space'
p2222
sS'trials.thisN'
p2223
I160
sg53
g119
sg58
g120
sg49
g23
(g66
S'Y\x00\x00\x00\x00\x00\x00\x00'
p2224
tp2225
Rp2226
sS'trials.thisTrialN'
p2227
I160
sg54
g106
sg20
g21
sg34
g39
sg57
g107
sg33
g12
sa(dp2228
S'trials.thisIndex'
p2229
g23
(g66
S'2\x00\x00\x00\x00\x00\x00\x00'
p2230
tp2231
Rp2232
sg16
F1.303968906402588
sg22
g32
sg52
g347
sg51
g133
sg50
VSentivo "poco" di nuovo
p2233
sS'trials.thisRepN'
p2234
I0
sg59
g76
sg55
g77
sg56
g98
sg15
S'space'
p2235
sS'trials.thisN'
p2236
I161
sg53
g97
sg58
g101
sg49
g23
(g66
S'3\x00\x00\x00\x00\x00\x00\x00'
p2237
tp2238
Rp2239
sS'trials.thisTrialN'
p2240
I161
sg54
g106
sg20
g21
sg34
g39
sg57
g107
sg33
g12
sa(dp2241
S'trials.thisIndex'
p2242
g23
(g66
S'm\x00\x00\x00\x00\x00\x00\x00'
p2243
tp2244
Rp2245
sg16
F1.5214080810546875
sg22
g32
sg52
g222
sg51
g114
sg50
VHa detto "toco" sei volte
p2246
sS'trials.thisRepN'
p2247
I0
sg59
g76
sg55
g77
sg56
g98
sg15
S'space'
p2248
sS'trials.thisN'
p2249
I162
sg53
g119
sg58
g120
sg49
g23
(g66
S'n\x00\x00\x00\x00\x00\x00\x00'
p2250
tp2251
Rp2252
sS'trials.thisTrialN'
p2253
I162
sg54
g106
sg20
g21
sg34
g39
sg57
g107
sg33
g12
sa(dp2254
S'trials.thisIndex'
p2255
g23
(g66
S'\x9b\x00\x00\x00\x00\x00\x00\x00'
p2256
tp2257
Rp2258
sg16
F1.5212078094482422
sg22
g32
sg52
g551
sg51
g73
sg50
VRipete "cuto" da sempre
p2259
sS'trials.thisRepN'
p2260
I0
sg59
g180
sg55
g119
sg56
g98
sg15
S'space'
p2261
sS'trials.thisN'
p2262
I163
sg53
g77
sg58
g81
sg49
g23
(g66
S'\x9c\x00\x00\x00\x00\x00\x00\x00'
p2263
tp2264
Rp2265
sS'trials.thisTrialN'
p2266
I163
sg54
g125
sg20
g21
sg34
g39
sg57
g126
sg33
g12
sa(dp2267
S'trials.thisIndex'
p2268
g23
(g66
S'\x86\x00\x00\x00\x00\x00\x00\x00'
p2269
tp2270
Rp2271
sg16
F1.3549718856811523
sg22
g32
sg52
g712
sg51
g133
sg50
VSentivo "cupo" di nuovo
p2272
sS'trials.thisRepN'
p2273
I0
sg59
g96
sg55
g97
sg56
g98
sg15
S'space'
p2274
sS'trials.thisN'
p2275
I164
sg53
g77
sg58
g81
sg49
g23
(g66
S'\x87\x00\x00\x00\x00\x00\x00\x00'
p2276
tp2277
Rp2278
sS'trials.thisTrialN'
p2279
I164
sg54
g125
sg20
g21
sg34
g39
sg57
g126
sg33
g12
sa(dp2280
S'trials.thisIndex'
p2281
g23
(g66
S'\x1a\x00\x00\x00\x00\x00\x00\x00'
p2282
tp2283
Rp2284
sg16
F1.2708759307861328
sg22
g32
sg52
g1164
sg51
g133
sg50
VSentivo "pito" di nuovo
p2285
sS'trials.thisRepN'
p2286
I0
sg59
g180
sg55
g119
sg56
g78
sg15
S'space'
p2287
sS'trials.thisN'
p2288
I165
sg53
g97
sg58
g101
sg49
g23
(g66
S'\x1b\x00\x00\x00\x00\x00\x00\x00'
p2289
tp2290
Rp2291
sS'trials.thisTrialN'
p2292
I165
sg54
g202
sg20
g21
sg34
g39
sg57
g126
sg33
g12
sa(dp2293
S'trials.thisIndex'
p2294
g23
(g66
S'D\x00\x00\x00\x00\x00\x00\x00'
p2295
tp2296
Rp2297
sg16
F1.2861130237579346
sg22
g32
sg52
g939
sg51
g193
sg50
VScrivete "topo" sul foglio
p2298
sS'trials.thisRepN'
p2299
I0
sg59
g96
sg55
g97
sg56
g98
sg15
S'space'
p2300
sS'trials.thisN'
p2301
I166
sg53
g119
sg58
g120
sg49
g23
(g66
S'E\x00\x00\x00\x00\x00\x00\x00'
p2302
tp2303
Rp2304
sS'trials.thisTrialN'
p2305
I166
sg54
g106
sg20
g21
sg34
g39
sg57
g107
sg33
g12
sa(dp2306
S'trials.thisIndex'
p2307
g23
(g66
S's\x00\x00\x00\x00\x00\x00\x00'
p2308
tp2309
Rp2310
sg16
F3.639241933822632
sg22
g32
sg52
g236
sg51
g73
sg50
VRipete "tuco" da sempre
p2311
sS'trials.thisRepN'
p2312
I0
sg59
g76
sg55
g77
sg56
g98
sg15
S'space'
p2313
sS'trials.thisN'
p2314
I167
sg53
g119
sg58
g120
sg49
g23
(g66
S't\x00\x00\x00\x00\x00\x00\x00'
p2315
tp2316
Rp2317
sS'trials.thisTrialN'
p2318
I167
sg54
g125
sg20
g21
sg34
g39
sg57
g126
sg33
g12
sa(dp2319
S'trials.thisIndex'
p2320
g23
(g66
S'\x16\x00\x00\x00\x00\x00\x00\x00'
p2321
tp2322
Rp2323
sg16
F1.3232159614562988
sg22
g32
sg52
g885
sg51
g133
sg50
VSentivo "pato" di nuovo
p2324
sS'trials.thisRepN'
p2325
I0
sg59
g180
sg55
g119
sg56
g136
sg15
S'space'
p2326
sS'trials.thisN'
p2327
I168
sg53
g97
sg58
g101
sg49
g23
(g66
S'\x17\x00\x00\x00\x00\x00\x00\x00'
p2328
tp2329
Rp2330
sS'trials.thisTrialN'
p2331
I168
sg54
g143
sg20
g21
sg34
g39
sg57
g144
sg33
g12
sa(dp2332
S'trials.thisIndex'
p2333
g23
(g66
S'\xa1\x00\x00\x00\x00\x00\x00\x00'
p2334
tp2335
Rp2336
sg16
F1.3221721649169922
sg22
g32
sg52
g1256
sg51
g114
sg50
VHa detto "chico" sei volte
p2337
sS'trials.thisRepN'
p2338
I0
sg59
g76
sg55
g77
sg56
g78
sg15
S'space'
p2339
sS'trials.thisN'
p2340
I169
sg53
g77
sg58
g81
sg49
g23
(g66
S'\xa2\x00\x00\x00\x00\x00\x00\x00'
p2341
tp2342
Rp2343
sS'trials.thisTrialN'
p2344
I169
sg54
g202
sg20
g21
sg34
g39
sg57
g126
sg33
g12
sa(dp2345
S'trials.thisIndex'
p2346
g23
(g66
S'9\x00\x00\x00\x00\x00\x00\x00'
p2347
tp2348
Rp2349
sg16
F1.2869858741760254
sg22
g32
sg52
g979
sg51
g114
sg50
VHa detto "tapo" sei volte
p2350
sS'trials.thisRepN'
p2351
I0
sg59
g96
sg55
g97
sg56
g136
sg15
S'space'
p2352
sS'trials.thisN'
p2353
I170
sg53
g119
sg58
g120
sg49
g23
(g66
S':\x00\x00\x00\x00\x00\x00\x00'
p2354
tp2355
Rp2356
sS'trials.thisTrialN'
p2357
I170
sg54
g143
sg20
g21
sg34
g39
sg57
g144
sg33
g12
sa(dp2358
S'trials.thisIndex'
p2359
g23
(g66
S'\x8a\x00\x00\x00\x00\x00\x00\x00'
p2360
tp2361
Rp2362
sg16
F1.2879619598388672
sg22
g32
sg52
g578
sg51
g133
sg50
VSentivo "cato" di nuovo
p2363
sS'trials.thisRepN'
p2364
I0
sg59
g180
sg55
g119
sg56
g136
sg15
S'space'
p2365
sS'trials.thisN'
p2366
I171
sg53
g77
sg58
g81
sg49
g23
(g66
S'\x8b\x00\x00\x00\x00\x00\x00\x00'
p2367
tp2368
Rp2369
sS'trials.thisTrialN'
p2370
I171
sg54
g143
sg20
g21
sg34
g39
sg57
g144
sg33
g12
sasS'loops'
p2371
(lp2372
g0
(cpsychopy.data.trial
TrialHandler
p2373
g2
Ntp2374
Rp2375
(dp2376
S'origin'
p2377
NsS'thisTrial'
p2378
(lp2379
sS'_exp'
p2380
I4642975568
sg11
S'trials'
p2381
sg6
I-1
sS'thisRepN'
p2382
I1
sg17
I01
sg18
g19
sS'data'
p2383
g0
(cpsychopy.data.base
DataHandler
p2384
c__builtin__
dict
p2385
(dp2386
S'ran'
p2387
cnumpy.ma.core
_mareconstruct
p2388
(cnumpy.ma.core
MaskedArray
p2389
cnumpy
ndarray
p2390
(I0
tp2391
S'b'
p2392
tp2393
Rp2394
(I1
(I172
I1
tp2395
g24
(S'f4'
p2396
I0
I1
tp2397
Rp2398
(I3
S'<'
p2399
NNNI-1
I-1
I0
tp2400
bI00
S'\x00\x00\x80?\x00\x00\x80?\x00\x00\x80?\x00\x00\x80?\x00\x00\x80?\x00\x00\x80?\x00\x00\x80?\x00\x00\x80?\x00\x00\x80?\x00\x00\x80?\x00\x00\x80?\x00\x00\x80?\x00\x00\x80?\x00\x00\x80?\x00\x00\x80?\x00\x00\x80?\x00\x00\x80?\x00\x00\x80?\x00\x00\x80?\x00\x00\x80?\x00\x00\x80?\x00\x00\x80?\x00\x00\x80?\x00\x00\x80?\x00\x00\x80?\x00\x00\x80?\x00\x00\x80?\x00\x00\x80?\x00\x00\x80?\x00\x00\x80?\x00\x00\x80?\x00\x00\x80?\x00\x00\x80?\x00\x00\x80?\x00\x00\x80?\x00\x00\x80?\x00\x00\x80?\x00\x00\x80?\x00\x00\x80?\x00\x00\x80?\x00\x00\x80?\x00\x00\x80?\x00\x00\x80?\x00\x00\x80?\x00\x00\x80?\x00\x00\x80?\x00\x00\x80?\x00\x00\x80?\x00\x00\x80?\x00\x00\x80?\x00\x00\x80?\x00\x00\x80?\x00\x00\x80?\x00\x00\x80?\x00\x00\x80?\x00\x00\x80?\x00\x00\x80?\x00\x00\x80?\x00\x00\x80?\x00\x00\x80?\x00\x00\x80?\x00\x00\x80?\x00\x00\x80?\x00\x00\x80?\x00\x00\x80?\x00\x00\x80?\x00\x00\x80?\x00\x00\x80?\x00\x00\x80?\x00\x00\x80?\x00\x00\x80?\x00\x00\x80?\x00\x00\x80?\x00\x00\x80?\x00\x00\x80?\x00\x00\x80?\x00\x00\x80?\x00\x00\x80?\x00\x00\x80?\x00\x00\x80?\x00\x00\x80?\x00\x00\x80?\x00\x00\x80?\x00\x00\x80?\x00\x00\x80?\x00\x00\x80?\x00\x00\x80?\x00\x00\x80?\x00\x00\x80?\x00\x00\x80?\x00\x00\x80?\x00\x00\x80?\x00\x00\x80?\x00\x00\x80?\x00\x00\x80?\x00\x00\x80?\x00\x00\x80?\x00\x00\x80?\x00\x00\x80?\x00\x00\x80?\x00\x00\x80?\x00\x00\x80?\x00\x00\x80?\x00\x00\x80?\x00\x00\x80?\x00\x00\x80?\x00\x00\x80?\x00\x00\x80?\x00\x00\x80?\x00\x00\x80?\x00\x00\x80?\x00\x00\x80?\x00\x00\x80?\x00\x00\x80?\x00\x00\x80?\x00\x00\x80?\x00\x00\x80?\x00\x00\x80?\x00\x00\x80?\x00\x00\x80?\x00\x00\x80?\x00\x00\x80?\x00\x00\x80?\x00\x00\x80?\x00\x00\x80?\x00\x00\x80?\x00\x00\x80?\x00\x00\x80?\x00\x00\x80?\x00\x00\x80?\x00\x00\x80?\x00\x00\x80?\x00\x00\x80?\x00\x00\x80?\x00\x00\x80?\x00\x00\x80?\x00\x00\x80?\x00\x00\x80?\x00\x00\x80?\x00\x00\x80?\x00\x00\x80?\x00\x00\x80?\x00\x00\x80?\x00\x00\x80?\x00\x00\x80?\x00\x00\x80?\x00\x00\x80?\x00\x00\x80?\x00\x00\x80?\x00\x00\x80?\x00\x00\x80?\x00\x00\x80?\x00\x00\x80?\x00\x00\x80?\x00\x00\x80?\x00\x00\x80?\x00\x00\x80?\x00\x00\x80?\x00\x00\x80?\x00\x00\x80?\x00\x00\x80?\x00\x00\x80?\x00\x00\x80?\x00\x00\x80?\x00\x00\x80?\x00\x00\x80?\x00\x00\x80?\x00\x00\x80?\x00\x00\x80?\x00\x00\x80?\x00\x00\x80?\x00\x00\x80?'
p2401
S'\x00\x00\x00\x00\x00\x00\x00\x00\x00\x00\x00\x00\x00\x00\x00\x00\x00\x00\x00\x00\x00\x00\x00\x00\x00\x00\x00\x00\x00\x00\x00\x00\x00\x00\x00\x00\x00\x00\x00\x00\x00\x00\x00\x00\x00\x00\x00\x00\x00\x00\x00\x00\x00\x00\x00\x00\x00\x00\x00\x00\x00\x00\x00\x00\x00\x00\x00\x00\x00\x00\x00\x00\x00\x00\x00\x00\x00\x00\x00\x00\x00\x00\x00\x00\x00\x00\x00\x00\x00\x00\x00\x00\x00\x00\x00\x00\x00\x00\x00\x00\x00\x00\x00\x00\x00\x00\x00\x00\x00\x00\x00\x00\x00\x00\x00\x00\x00\x00\x00\x00\x00\x00\x00\x00\x00\x00\x00\x00\x00\x00\x00\x00\x00\x00\x00\x00\x00\x00\x00\x00\x00\x00\x00\x00\x00\x00\x00\x00\x00\x00\x00\x00\x00\x00\x00\x00\x00\x00\x00\x00\x00\x00\x00\x00\x00\x00\x00\x00\x00\x00\x00\x00'
p2402
Ntp2403
bsg16
g2388
(g2389
g2390
g2391
g2392
tp2404
Rp2405
(I1
(I172
I1
tp2406
g2398
I00
S'\xb0/\xd3?\x12\xe0\xc4?J)\xbc?~\xc3\xd2?^^\xc0?rS\xcf?\x8a\xb5\xa2?\\2\xde?(a\xe4?\x80(\xda?*\xfe\xbb?\xcc\xb5\xa4?v\xf9\xca?PQ\xaf?`\x07\xb8?v\xc5\xc6?J]\xdc?\x02\x05\xba?\xbc\x8f\xb5?pZ\xbe?\xe08\xaf?BW\xbc?$_\xa9?\x14\r\xda?R=\xcd?\x18>\xba?\x10\xac\xa2?\\W\xbe?p\x0b\xd6?8\xe2\xb7?V\r\x8a?\x1a\x87\xc6?\xa8L\xe3?\xec\xaa\xc4?n\x13\xd8?\xb0\xe4\xcc?\xec\xa3\xf5?h\xd5\xab@\xc2\xee\xb7?\x0e\xde\xb7?\x9e&\xcb?\xcc{\xca?\xaa\r\xba?\xa6%\xba?p\xca\xe0?\xc8/\xbe?\xee\xc9\xb3?p\xd0\xa4?\xdc\x9f\xd1?$\xb9\xc6?t\xe8\xa6?T\x1b\xb8?\x88\x89\xc2?\x98\xa6\xc4?0\xa0\xb1?ZB\xbc?\x80\x80\xd1?\xf4\xbb\xa4?H\xa2\xab?\xe0\x1b\xcf?>\xba\xd3?\xe6\xc2\xc6?\x80\xb7\xa6?\xa4\xfc\xca?\x00\xda\xc6?\x9e\x07\xab?\xa4T\xc0? {\xcb?Z\x9f\xa4?\x869\xad?\x80-\xa7?>w\xc0?jV\xb2?\xc0u\xb1?\x96\xcc\xb9?xC\xbe?\x92 \xbc?\xbca\xb1?\x12\xc7\xa4?^\xf3\xc8?r\xf9\xd3?r\xc2\xa6?\xc6+\x9e?T\xcb\xe0?`\xfb\xd9?\xdeP\xc0?F:\xad?\xa0S\xde?.>\xcb?$\x9d\xb7?l\x9c\xb5?\xb8\x06\xbc?H\xa7\xe2?x\\\xc0?8u\x86@\xd2N\xcf?(\xa1\xc6?>\xff\xbb?(*\xaf?&\xa3\xc2?F\xf3\xc2?|\xb9\xd5?4\xdf\xd9?\x94\x10\xb8?\xce\xa3\xc6?f\xd8\xc4?\x04\xcf\xb5?\xf8\x13\xcf?D \xad?\x80\xbd\xc2?\xaeL\xba?\xcc\x9f\xb1?\xe8\xa5\xe4? \x93\xc4?\xb4\xc8\xa6?W\xe9h@\xa8<\xbc?L\xdf\xb7?$"\x9e?j\xee\xa8?\xf4U\xde?\xb4\xb0\xb3?t\x05\xa9?\xea,\xab?g\xc8\x9a@\xbe\xb6\xc6?\x9e\xc5\xc4?hY#AfD\xcd?"q\xb3?\xba\xc1\xc4?^\xdc\xaa?\x12\xf5\xe8?\r\xf0\x84@\xb8o\xad?P\xa8\xaf?z\x8a\xc2?\x0c\xff\xb7?\xf0\xdb\xa4?\xf4\x16\xed?\x02+\xf7@B\x96\xd3?\xb8+\xa0@\x00P\xcd?P\xa1\xa6?\x1a\xe7\xd7?\x08\x00\xd8?\xf6\xb6w@\x92%\xe9?\x04!\xad?f\x12\xa9?\x0e\xa1\xe6?\x80\x81\xde?\xd2\x82\xaf?\xb8\x1e\xc9?\xf0\xb6\xc2?4H\xcd?\xae\xd7\xc6?"\xfb\xa6?\xee\xc3&A\x16\x8c\xc2?\xf0<\xa9?\x04\xa7\xc0?*\xfe\xb7?\xda\xc9\xc4?\x90}\xc0? \xb1\xb3?\xa2\n\xc9?\xc4$\xdc?\xb0\xc2\x93?\xfa/\x98?\xf2|\xbe?'
p2407
S'\x00\x00\x00\x00\x00\x00\x00\x00\x00\x00\x00\x00\x00\x00\x00\x00\x00\x00\x00\x00\x00\x00\x00\x00\x00\x00\x00\x00\x00\x00\x00\x00\x00\x00\x00\x00\x00\x00\x00\x00\x00\x00\x00\x00\x00\x00\x00\x00\x00\x00\x00\x00\x00\x00\x00\x00\x00\x00\x00\x00\x00\x00\x00\x00\x00\x00\x00\x00\x00\x00\x00\x00\x00\x00\x00\x00\x00\x00\x00\x00\x00\x00\x00\x00\x00\x00\x00\x00\x00\x00\x00\x00\x00\x00\x00\x00\x00\x00\x00\x00\x00\x00\x00\x00\x00\x00\x00\x00\x00\x00\x00\x00\x00\x00\x00\x00\x00\x00\x00\x00\x00\x00\x00\x00\x00\x00\x00\x00\x00\x00\x00\x00\x00\x00\x00\x00\x00\x00\x00\x00\x00\x00\x00\x00\x00\x00\x00\x00\x00\x00\x00\x00\x00\x00\x00\x00\x00\x00\x00\x00\x00\x00\x00\x00\x00\x00\x00\x00\x00\x00\x00\x00'
p2408
Ntp2409
bsS'order'
p2410
g2388
(g2389
g2390
g2391
g2392
tp2411
Rp2412
(I1
(I172
I1
tp2413
g2398
I00
S'\x00\x00DB\x00\x00\x05C\x00\x00@@\x00\x00dB\x00\x00\x1cB\x00\x00`B\x00\x00\xf2B\x00\x00\xe0B\x00\x00\x0fC\x00\x00\xb0B\x00\x00PB\x00\x00\xf8B\x00\x00\x14B\x00\x00\xa0@\x00\x00\xdeB\x00\x00\x80?\x00\x00\x86B\x00\x00<B\x00\x00\xb0A\x00\x00\x80@\x00\x00hB\x00\x00\x04C\x00\x00(C\x00\x00\xb4B\x00\x00\x9eB\x00\x00\xa8B\x00\x00%C\x00\x00\x1fC\x00\x00\x07C\x00\x00HB\x00\x00\x98B\x00\x00\x18C\x00\x00\x88B\x00\x00\x15C\x00\x00\x10C\x00\x00\x8aB\x00\x008B\x00\x00\xcaB\x00\x00\x00A\x00\x00\x13C\x00\x00\xe8B\x00\x00\x9aB\x00\x00tB\x00\x00\x08C\x00\x00|B\x00\x00\xc8A\x00\x00\x00C\x00\x00PA\x00\x00\xceB\x00\x00\x90A\x00\x00!C\x00\x00\xd4B\x00\x00\xa0A\x00\x00@B\x00\x00\x1eC\x00\x00\x1dC\x00\x00\xbcB\x00\x00*C\x00\x00\xa4B\x00\x00\x82B\x00\x00\xa8A\x00\x00\xb6B\x00\x00\x19C\x00\x00\x80B\x00\x00\x10B\x00\x00\xd6B\x00\x00\xd8A\x00\x00\x06C\x00\x00&C\x00\x00\xd2B\x00\x00xB\x00\x00\x94B\x00\x00\x92B\x00\x00\x00@\x00\x00TB\x00\x00$B\x00\x00\xd8B\x00\x00\\B\x00\x00\xd0B\x00\x00\nC\x00\x00\xaaB\x00\x00\xf0A\x00\x00\x90B\x00\x00\xa6B\x00\x00\x98A\x00\x00\xbeB\x00\x000B\x00\x00\xa2B\x00\x00 C\x00\x00\xc6B\x00\x00\xc0@\x00\x00\xc8B\x00\x00\rC\x00\x00\xccB\x00\x00\xb2B\x00\x00\xb8A\x00\x00\xf8A\x00\x00\xb8B\x00\x00\xe6B\x00\x00@A\x00\x00\tC\x00\x00\x18B\x00\x00\xdaB\x00\x00\xecB\x00\x00\xe0@\x00\x00\x1aC\x00\x00\x8eB\x00\x00\x11C\x00\x00\x10A\x00\x00"C\x00\x00\xfaB\x00\x00pA\x00\x00\xe8A\x00\x00XB\x00\x00 A\x00\x00\'C\x00\x00\xf0B\x00\x00\x17C\x00\x00\x80A\x00\x00\xe4B\x00\x00LB\x00\x00\x1bC\x00\x000A\x00\x00\x96B\x00\x00\xe2B\x00\x00\x08B\x00\x00\x00B\x00\x00\x14C\x00\x00\x16C\x00\x00`A\x00\x00lB\x00\x00(B\x00\x004B\x00\x00\xc4B\x00\x00$C\x00\x00\xfeB\x00\x00\x0cB\x00\x00\xfcB\x00\x00+C\x00\x00\xbaB\x00\x00\x9cB\x00\x00\x88A\x00\x00\xe0A\x00\x00pB\x00\x00\x1cC\x00\x00\xeeB\x00\x00\x8cB\x00\x00\xaeB\x00\x00\x0bC\x00\x00 B\x00\x00\x02C\x00\x00\x0eC\x00\x00\xa0B\x00\x00\x01C\x00\x00\x04B\x00\x00#C\x00\x00,B\x00\x00\x84B\x00\x00\xdcB\x00\x00\x00\x00\x00\x00\xc2B\x00\x00)C\x00\x00\xacB\x00\x00\xeaB\x00\x00\x0cC\x00\x00\xf6B\x00\x00\xc0A\x00\x00\xd0A\x00\x00\xc0B\x00\x00\x03C\x00\x00\xf4B\x00\x00\x12C'
p2414
S'\x00\x00\x00\x00\x00\x00\x00\x00\x00\x00\x00\x00\x00\x00\x00\x00\x00\x00\x00\x00\x00\x00\x00\x00\x00\x00\x00\x00\x00\x00\x00\x00\x00\x00\x00\x00\x00\x00\x00\x00\x00\x00\x00\x00\x00\x00\x00\x00\x00\x00\x00\x00\x00\x00\x00\x00\x00\x00\x00\x00\x00\x00\x00\x00\x00\x00\x00\x00\x00\x00\x00\x00\x00\x00\x00\x00\x00\x00\x00\x00\x00\x00\x00\x00\x00\x00\x00\x00\x00\x00\x00\x00\x00\x00\x00\x00\x00\x00\x00\x00\x00\x00\x00\x00\x00\x00\x00\x00\x00\x00\x00\x00\x00\x00\x00\x00\x00\x00\x00\x00\x00\x00\x00\x00\x00\x00\x00\x00\x00\x00\x00\x00\x00\x00\x00\x00\x00\x00\x00\x00\x00\x00\x00\x00\x00\x00\x00\x00\x00\x00\x00\x00\x00\x00\x00\x00\x00\x00\x00\x00\x00\x00\x00\x00\x00\x00\x00\x00\x00\x00\x00\x00'
p2415
Ntp2416
bsg15
cnumpy.core.multiarray
_reconstruct
p2417
(g2390
(I0
tp2418
g2392
tp2419
Rp2420
(I1
(I172
I1
tp2421
g24
(S'O8'
p2422
I0
I1
tp2423
Rp2424
(I3
S'|'
p2425
NNNI-1
I-1
I63
tp2426
bI00
(lp2427
g767
ag1871
ag137
ag874
ag635
ag861
ag1715
ag1598
ag2001
ag1285
ag808
ag1754
ag607
ag166
ag1585
ag99
ag1008
ag741
ag405
ag153
ag888
ag1858
ag2326
ag1311
ag1167
ag1232
ag2287
ag2209
ag1897
ag781
ag1127
ag2118
ag1022
ag2079
ag2014
ag1035
ag728
ag1455
ag211
ag2053
ag1650
ag1140
ag928
ag1910
ag955
ag446
ag1806
ag281
ag1481
ag350
ag2235
ag1520
ag378
ag754
ag2196
ag2183
ag1363
ag2352
ag1206
ag982
ag392
ag1324
ag2131
ag968
ag594
ag1533
ag473
ag1884
ag2300
ag1507
ag942
ag1101
ag1088
ag117
ag821
ag662
ag1546
ag848
ag1494
ag1936
ag1245
ag513
ag1075
ag1219
ag364
ag1376
ag701
ag1193
ag2222
ag1429
ag181
ag1442
ag1975
ag1468
ag1298
ag419
ag526
ag1337
ag1637
ag267
ag1923
ag621
ag1559
ag1676
ag196
ag2144
ag1062
ag2027
ag225
ag2248
ag1767
ag308
ag499
ag834
ag239
ag2313
ag1702
ag2105
ag322
ag1624
ag794
ag2157
ag253
ag1114
ag1611
ag567
ag540
ag2066
ag2092
ag295
ag901
ag675
ag715
ag1416
ag2274
ag1793
ag581
ag1780
ag2365
ag1350
ag1153
ag336
ag486
ag914
ag2170
ag1689
ag1049
ag1272
ag1949
ag649
ag1832
ag1988
ag1180
ag1819
ag554
ag2261
ag688
ag995
ag1572
ag79
ag1403
ag2339
ag1259
ag1663
ag1962
ag1741
ag433
ag459
ag1390
ag1845
ag1728
ag2040
atp2428
bstp2429
Rp2430
(dp2431
S'isNumeric'
p2432
(dp2433
g2387
I01
sg16
I01
sg2410
I01
sg15
I00
ssg2381
g2375
sS'dataTypes'
p2434
(lp2435
g2387
ag2410
ag15
ag16
asS'dataShape'
p2436
(lp2437
I172
aI1
asbsS'method'
p2438
S'random'
p2439
sS'sequenceIndices'
p2440
g2417
(g2390
(I0
tp2441
g2392
tp2442
Rp2443
(I1
(I172
I1
tp2444
g66
I00
S'\x9f\x00\x00\x00\x00\x00\x00\x00\x0f\x00\x00\x00\x00\x00\x00\x00I\x00\x00\x00\x00\x00\x00\x00\x02\x00\x00\x00\x00\x00\x00\x00\x13\x00\x00\x00\x00\x00\x00\x00\r\x00\x00\x00\x00\x00\x00\x00Z\x00\x00\x00\x00\x00\x00\x00h\x00\x00\x00\x00\x00\x00\x00&\x00\x00\x00\x00\x00\x00\x00l\x00\x00\x00\x00\x00\x00\x00r\x00\x00\x00\x00\x00\x00\x00z\x00\x00\x00\x00\x00\x00\x00c\x00\x00\x00\x00\x00\x00\x00/\x00\x00\x00\x00\x00\x00\x00\x81\x00\x00\x00\x00\x00\x00\x00o\x00\x00\x00\x00\x00\x00\x00v\x00\x00\x00\x00\x00\x00\x00\x8d\x00\x00\x00\x00\x00\x00\x001\x00\x00\x00\x00\x00\x00\x00T\x00\x00\x00\x00\x00\x00\x004\x00\x00\x00\x00\x00\x00\x00<\x00\x00\x00\x00\x00\x00\x00\x12\x00\x00\x00\x00\x00\x00\x00_\x00\x00\x00\x00\x00\x00\x00\xa6\x00\x00\x00\x00\x00\x00\x00-\x00\x00\x00\x00\x00\x00\x00\xa7\x00\x00\x00\x00\x00\x00\x00B\x00\x00\x00\x00\x00\x00\x00\x8e\x00\x00\x00\x00\x00\x00\x00p\x00\x00\x00\x00\x00\x00\x00Q\x00\x00\x00\x00\x00\x00\x00`\x00\x00\x00\x00\x00\x00\x00~\x00\x00\x00\x00\x00\x00\x00\x9a\x00\x00\x00\x00\x00\x00\x00}\x00\x00\x00\x00\x00\x00\x00\x88\x00\x00\x00\x00\x00\x00\x00@\x00\x00\x00\x00\x00\x00\x00\x0c\x00\x00\x00\x00\x00\x00\x00e\x00\x00\x00\x00\x00\x00\x00\x04\x00\x00\x00\x00\x00\x00\x00\x95\x00\x00\x00\x00\x00\x00\x00K\x00\x00\x00\x00\x00\x00\x00\x83\x00\x00\x00\x00\x00\x00\x00\x9c\x00\x00\x00\x00\x00\x00\x00V\x00\x00\x00\x00\x00\x00\x00\x84\x00\x00\x00\x00\x00\x00\x00$\x00\x00\x00\x00\x00\x00\x00\x11\x00\x00\x00\x00\x00\x00\x005\x00\x00\x00\x00\x00\x00\x00\x00\x00\x00\x00\x00\x00\x00\x00\x1d\x00\x00\x00\x00\x00\x00\x00x\x00\x00\x00\x00\x00\x00\x00\n\x00\x00\x00\x00\x00\x00\x00J\x00\x00\x00\x00\x00\x00\x00q\x00\x00\x00\x00\x00\x00\x00M\x00\x00\x00\x00\x00\x00\x00\x05\x00\x00\x00\x00\x00\x00\x00\x03\x00\x00\x00\x00\x00\x00\x00\x14\x00\x00\x00\x00\x00\x00\x00\x82\x00\x00\x00\x00\x00\x00\x00\x8f\x00\x00\x00\x00\x00\x00\x00*\x00\x00\x00\x00\x00\x00\x00F\x00\x00\x00\x00\x00\x00\x00,\x00\x00\x00\x00\x00\x00\x00?\x00\x00\x00\x00\x00\x00\x00;\x00\x00\x00\x00\x00\x00\x00\x9d\x00\x00\x00\x00\x00\x00\x00\x10\x00\x00\x00\x00\x00\x00\x00 \x00\x00\x00\x00\x00\x00\x00#\x00\x00\x00\x00\x00\x00\x00\x92\x00\x00\x00\x00\x00\x00\x00j\x00\x00\x00\x00\x00\x00\x00R\x00\x00\x00\x00\x00\x00\x00H\x00\x00\x00\x00\x00\x00\x00G\x00\x00\x00\x00\x00\x00\x00{\x00\x00\x00\x00\x00\x00\x00\x1e\x00\x00\x00\x00\x00\x00\x00)\x00\x00\x00\x00\x00\x00\x00\x8c\x00\x00\x00\x00\x00\x00\x00\x18\x00\x00\x00\x00\x00\x00\x00\x98\x00\x00\x00\x00\x00\x00\x00W\x00\x00\x00\x00\x00\x00\x00:\x00\x00\x00\x00\x00\x00\x00S\x00\x00\x00\x00\x00\x00\x00\x19\x00\x00\x00\x00\x00\x00\x00P\x00\x00\x00\x00\x00\x00\x00\xa2\x00\x00\x00\x00\x00\x00\x00\x93\x00\x00\x00\x00\x00\x00\x00\t\x00\x00\x00\x00\x00\x00\x00^\x00\x00\x00\x00\x00\x00\x00\x17\x00\x00\x00\x00\x00\x00\x00=\x00\x00\x00\x00\x00\x00\x00a\x00\x00\x00\x00\x00\x00\x00\x8b\x00\x00\x00\x00\x00\x00\x008\x00\x00\x00\x00\x00\x00\x00U\x00\x00\x00\x00\x00\x00\x00\xa8\x00\x00\x00\x00\x00\x00\x00\xa0\x00\x00\x00\x00\x00\x00\x00\x85\x00\x00\x00\x00\x00\x00\x00Y\x00\x00\x00\x00\x00\x00\x00[\x00\x00\x00\x00\x00\x00\x00%\x00\x00\x00\x00\x00\x00\x00]\x00\x00\x00\x00\x00\x00\x000\x00\x00\x00\x00\x00\x00\x00N\x00\x00\x00\x00\x00\x00\x00E\x00\x00\x00\x00\x00\x00\x003\x00\x00\x00\x00\x00\x00\x00A\x00\x00\x00\x00\x00\x00\x00L\x00\x00\x00\x00\x00\x00\x00f\x00\x00\x00\x00\x00\x00\x00\x9e\x00\x00\x00\x00\x00\x00\x00\x0e\x00\x00\x00\x00\x00\x00\x00\x07\x00\x00\x00\x00\x00\x00\x00|\x00\x00\x00\x00\x00\x00\x00w\x00\x00\x00\x00\x00\x00\x00b\x00\x00\x00\x00\x00\x00\x00(\x00\x00\x00\x00\x00\x00\x00\xa3\x00\x00\x00\x00\x00\x00\x00g\x00\x00\x00\x00\x00\x00\x00\x91\x00\x00\x00\x00\x00\x00\x00t\x00\x00\x00\x00\x00\x00\x00\x06\x00\x00\x00\x00\x00\x00\x00\xaa\x00\x00\x00\x00\x00\x00\x00\xa5\x00\x00\x00\x00\x00\x00\x00\x0b\x00\x00\x00\x00\x00\x00\x00n\x00\x00\x00\x00\x00\x00\x00\x89\x00\x00\x00\x00\x00\x00\x00\x87\x00\x00\x00\x00\x00\x00\x00.\x00\x00\x00\x00\x00\x00\x00\x99\x00\x00\x00\x00\x00\x00\x00\x96\x00\x00\x00\x00\x00\x00\x00\xa9\x00\x00\x00\x00\x00\x00\x00\x15\x00\x00\x00\x00\x00\x00\x00\x01\x00\x00\x00\x00\x00\x00\x00C\x00\x00\x00\x00\x00\x00\x00\x1c\x00\x00\x00\x00\x00\x00\x00+\x00\x00\x00\x00\x00\x00\x00d\x00\x00\x00\x00\x00\x00\x00O\x00\x00\x00\x00\x00\x00\x00\x94\x00\x00\x00\x00\x00\x00\x00\xa4\x00\x00\x00\x00\x00\x00\x00\\\x00\x00\x00\x00\x00\x00\x00\x97\x00\x00\x00\x00\x00\x00\x00\x08\x00\x00\x00\x00\x00\x00\x00"\x00\x00\x00\x00\x00\x00\x00k\x00\x00\x00\x00\x00\x00\x00\xab\x00\x00\x00\x00\x00\x00\x00\'\x00\x00\x00\x00\x00\x00\x00\x7f\x00\x00\x00\x00\x00\x00\x00!\x00\x00\x00\x00\x00\x00\x00\x80\x00\x00\x00\x00\x00\x00\x00u\x00\x00\x00\x00\x00\x00\x00\x1f\x00\x00\x00\x00\x00\x00\x00>\x00\x00\x00\x00\x00\x00\x00i\x00\x00\x00\x00\x00\x00\x00y\x00\x00\x00\x00\x00\x00\x00\x90\x00\x00\x00\x00\x00\x00\x007\x00\x00\x00\x00\x00\x00\x006\x00\x00\x00\x00\x00\x00\x00\x1b\x00\x00\x00\x00\x00\x00\x00X\x00\x00\x00\x00\x00\x00\x002\x00\x00\x00\x00\x00\x00\x00m\x00\x00\x00\x00\x00\x00\x00\x9b\x00\x00\x00\x00\x00\x00\x00\x86\x00\x00\x00\x00\x00\x00\x00\x1a\x00\x00\x00\x00\x00\x00\x00D\x00\x00\x00\x00\x00\x00\x00s\x00\x00\x00\x00\x00\x00\x00\x16\x00\x00\x00\x00\x00\x00\x00\xa1\x00\x00\x00\x00\x00\x00\x009\x00\x00\x00\x00\x00\x00\x00\x8a\x00\x00\x00\x00\x00\x00\x00'
p2445
tp2446
bsS'finished'
p2447
I01
sS'nReps'
p2448
I1
sS'nRemaining'
p2449
I-1
sS'trialList'
p2450
(lp2451
ccollections
OrderedDict
p2452
((lp2453
(lp2454
g49
ag771
aa(lp2455
g50
ag765
aa(lp2456
g51
ag193
aa(lp2457
g52
ag132
aa(lp2458
g53
ag97
aa(lp2459
g54
ag143
aa(lp2460
g55
ag97
aa(lp2461
g56
ag136
aa(lp2462
g57
ag144
aa(lp2463
g58
ag101
aa(lp2464
g59
ag96
aatp2465
Rp2466
ag2452
((lp2467
(lp2468
g49
ag1875
aa(lp2469
g50
ag1869
aa(lp2470
g51
ag114
aa(lp2471
g52
ag132
aa(lp2472
g53
ag97
aa(lp2473
g54
ag143
aa(lp2474
g55
ag97
aa(lp2475
g56
ag136
aa(lp2476
g57
ag144
aa(lp2477
g58
ag101
aa(lp2478
g59
ag96
aatp2479
Rp2480
ag2452
((lp2481
(lp2482
g49
ag141
aa(lp2483
g50
ag134
aa(lp2484
g51
ag133
aa(lp2485
g52
ag132
aa(lp2486
g53
ag97
aa(lp2487
g54
ag143
aa(lp2488
g55
ag97
aa(lp2489
g56
ag136
aa(lp2490
g57
ag144
aa(lp2491
g58
ag101
aa(lp2492
g59
ag96
aatp2493
Rp2494
ag2452
((lp2495
(lp2496
g49
ag878
aa(lp2497
g50
ag872
aa(lp2498
g51
ag73
aa(lp2499
g52
ag132
aa(lp2500
g53
ag97
aa(lp2501
g54
ag143
aa(lp2502
g55
ag97
aa(lp2503
g56
ag136
aa(lp2504
g57
ag144
aa(lp2505
g58
ag101
aa(lp2506
g59
ag96
aatp2507
Rp2508
ag2452
((lp2509
(lp2510
g49
ag639
aa(lp2511
g50
ag633
aa(lp2512
g51
ag193
aa(lp2513
g52
ag632
aa(lp2514
g53
ag97
aa(lp2515
g54
ag86
aa(lp2516
g55
ag97
aa(lp2517
g56
ag78
aa(lp2518
g57
ag87
aa(lp2519
g58
ag101
aa(lp2520
g59
ag96
aatp2521
Rp2522
ag2452
((lp2523
(lp2524
g49
ag865
aa(lp2525
g50
ag859
aa(lp2526
g51
ag114
aa(lp2527
g52
ag632
aa(lp2528
g53
ag97
aa(lp2529
g54
ag86
aa(lp2530
g55
ag97
aa(lp2531
g56
ag78
aa(lp2532
g57
ag87
aa(lp2533
g58
ag101
aa(lp2534
g59
ag96
aatp2535
Rp2536
ag2452
((lp2537
(lp2538
g49
ag1719
aa(lp2539
g50
ag1713
aa(lp2540
g51
ag133
aa(lp2541
g52
ag632
aa(lp2542
g53
ag97
aa(lp2543
g54
ag86
aa(lp2544
g55
ag97
aa(lp2545
g56
ag78
aa(lp2546
g57
ag87
aa(lp2547
g58
ag101
aa(lp2548
g59
ag96
aatp2549
Rp2550
ag2452
((lp2551
(lp2552
g49
ag1602
aa(lp2553
g50
ag1596
aa(lp2554
g51
ag73
aa(lp2555
g52
ag632
aa(lp2556
g53
ag97
aa(lp2557
g54
ag86
aa(lp2558
g55
ag97
aa(lp2559
g56
ag78
aa(lp2560
g57
ag87
aa(lp2561
g58
ag101
aa(lp2562
g59
ag96
aatp2563
Rp2564
ag2452
((lp2565
(lp2566
g49
ag2005
aa(lp2567
g50
ag1999
aa(lp2568
g51
ag193
aa(lp2569
g52
ag805
aa(lp2570
g53
ag97
aa(lp2571
g54
ag202
aa(lp2572
g55
ag97
aa(lp2573
g56
ag78
aa(lp2574
g57
ag126
aa(lp2575
g58
ag101
aa(lp2576
g59
ag96
aatp2577
Rp2578
ag2452
((lp2579
(lp2580
g49
ag1289
aa(lp2581
g50
ag1283
aa(lp2582
g51
ag114
aa(lp2583
g52
ag805
aa(lp2584
g53
ag97
aa(lp2585
g54
ag202
aa(lp2586
g55
ag97
aa(lp2587
g56
ag78
aa(lp2588
g57
ag126
aa(lp2589
g58
ag101
aa(lp2590
g59
ag96
aatp2591
Rp2592
ag2452
((lp2593
(lp2594
g49
ag812
aa(lp2595
g50
ag806
aa(lp2596
g51
ag133
aa(lp2597
g52
ag805
aa(lp2598
g53
ag97
aa(lp2599
g54
ag202
aa(lp2600
g55
ag97
aa(lp2601
g56
ag78
aa(lp2602
g57
ag126
aa(lp2603
g58
ag101
aa(lp2604
g59
ag96
aatp2605
Rp2606
ag2452
((lp2607
(lp2608
g49
ag1758
aa(lp2609
g50
ag1752
aa(lp2610
g51
ag73
aa(lp2611
g52
ag805
aa(lp2612
g53
ag97
aa(lp2613
g54
ag202
aa(lp2614
g55
ag97
aa(lp2615
g56
ag78
aa(lp2616
g57
ag126
aa(lp2617
g58
ag101
aa(lp2618
g59
ag96
aatp2619
Rp2620
ag2452
((lp2621
(lp2622
g49
ag611
aa(lp2623
g50
ag605
aa(lp2624
g51
ag193
aa(lp2625
g52
ag93
aa(lp2626
g53
ag97
aa(lp2627
g54
ag106
aa(lp2628
g55
ag97
aa(lp2629
g56
ag98
aa(lp2630
g57
ag107
aa(lp2631
g58
ag101
aa(lp2632
g59
ag96
aatp2633
Rp2634
ag2452
((lp2635
(lp2636
g49
ag170
aa(lp2637
g50
ag164
aa(lp2638
g51
ag114
aa(lp2639
g52
ag93
aa(lp2640
g53
ag97
aa(lp2641
g54
ag106
aa(lp2642
g55
ag97
aa(lp2643
g56
ag98
aa(lp2644
g57
ag107
aa(lp2645
g58
ag101
aa(lp2646
g59
ag96
aatp2647
Rp2648
ag2452
((lp2649
(lp2650
g49
ag1589
aa(lp2651
g50
ag1583
aa(lp2652
g51
ag133
aa(lp2653
g52
ag93
aa(lp2654
g53
ag97
aa(lp2655
g54
ag106
aa(lp2656
g55
ag97
aa(lp2657
g56
ag98
aa(lp2658
g57
ag107
aa(lp2659
g58
ag101
aa(lp2660
g59
ag96
aatp2661
Rp2662
ag2452
((lp2663
(lp2664
g49
ag104
aa(lp2665
g50
ag94
aa(lp2666
g51
ag73
aa(lp2667
g52
ag93
aa(lp2668
g53
ag97
aa(lp2669
g54
ag106
aa(lp2670
g55
ag97
aa(lp2671
g56
ag98
aa(lp2672
g57
ag107
aa(lp2673
g58
ag101
aa(lp2674
g59
ag96
aatp2675
Rp2676
ag2452
((lp2677
(lp2678
g49
ag1012
aa(lp2679
g50
ag1006
aa(lp2680
g51
ag193
aa(lp2681
g52
ag150
aa(lp2682
g53
ag97
aa(lp2683
g54
ag125
aa(lp2684
g55
ag97
aa(lp2685
g56
ag98
aa(lp2686
g57
ag126
aa(lp2687
g58
ag101
aa(lp2688
g59
ag96
aatp2689
Rp2690
ag2452
((lp2691
(lp2692
g49
ag745
aa(lp2693
g50
ag739
aa(lp2694
g51
ag114
aa(lp2695
g52
ag150
aa(lp2696
g53
ag97
aa(lp2697
g54
ag125
aa(lp2698
g55
ag97
aa(lp2699
g56
ag98
aa(lp2700
g57
ag126
aa(lp2701
g58
ag101
aa(lp2702
g59
ag96
aatp2703
Rp2704
ag2452
((lp2705
(lp2706
g49
ag409
aa(lp2707
g50
ag403
aa(lp2708
g51
ag133
aa(lp2709
g52
ag150
aa(lp2710
g53
ag97
aa(lp2711
g54
ag125
aa(lp2712
g55
ag97
aa(lp2713
g56
ag98
aa(lp2714
g57
ag126
aa(lp2715
g58
ag101
aa(lp2716
g59
ag96
aatp2717
Rp2718
ag2452
((lp2719
(lp2720
g49
ag157
aa(lp2721
g50
ag151
aa(lp2722
g51
ag73
aa(lp2723
g52
ag150
aa(lp2724
g53
ag97
aa(lp2725
g54
ag125
aa(lp2726
g55
ag97
aa(lp2727
g56
ag98
aa(lp2728
g57
ag126
aa(lp2729
g58
ag101
aa(lp2730
g59
ag96
aatp2731
Rp2732
ag2452
((lp2733
(lp2734
g49
ag892
aa(lp2735
g50
ag886
aa(lp2736
g51
ag193
aa(lp2737
g52
ag885
aa(lp2738
g53
ag97
aa(lp2739
g54
ag143
aa(lp2740
g55
ag119
aa(lp2741
g56
ag136
aa(lp2742
g57
ag144
aa(lp2743
g58
ag101
aa(lp2744
g59
ag180
aatp2745
Rp2746
ag2452
((lp2747
(lp2748
g49
ag1862
aa(lp2749
g50
ag1856
aa(lp2750
g51
ag114
aa(lp2751
g52
ag885
aa(lp2752
g53
ag97
aa(lp2753
g54
ag143
aa(lp2754
g55
ag119
aa(lp2755
g56
ag136
aa(lp2756
g57
ag144
aa(lp2757
g58
ag101
aa(lp2758
g59
ag180
aatp2759
Rp2760
ag2452
((lp2761
(lp2762
g49
ag2330
aa(lp2763
g50
ag2324
aa(lp2764
g51
ag133
aa(lp2765
g52
ag885
aa(lp2766
g53
ag97
aa(lp2767
g54
ag143
aa(lp2768
g55
ag119
aa(lp2769
g56
ag136
aa(lp2770
g57
ag144
aa(lp2771
g58
ag101
aa(lp2772
g59
ag180
aatp2773
Rp2774
ag2452
((lp2775
(lp2776
g49
ag1315
aa(lp2777
g50
ag1309
aa(lp2778
g51
ag73
aa(lp2779
g52
ag885
aa(lp2780
g53
ag97
aa(lp2781
g54
ag143
aa(lp2782
g55
ag119
aa(lp2783
g56
ag136
aa(lp2784
g57
ag144
aa(lp2785
g58
ag101
aa(lp2786
g59
ag180
aatp2787
Rp2788
ag2452
((lp2789
(lp2790
g49
ag1171
aa(lp2791
g50
ag1165
aa(lp2792
g51
ag193
aa(lp2793
g52
ag1164
aa(lp2794
g53
ag97
aa(lp2795
g54
ag202
aa(lp2796
g55
ag119
aa(lp2797
g56
ag78
aa(lp2798
g57
ag126
aa(lp2799
g58
ag101
aa(lp2800
g59
ag180
aatp2801
Rp2802
ag2452
((lp2803
(lp2804
g49
ag1236
aa(lp2805
g50
ag1230
aa(lp2806
g51
ag114
aa(lp2807
g52
ag1164
aa(lp2808
g53
ag97
aa(lp2809
g54
ag202
aa(lp2810
g55
ag119
aa(lp2811
g56
ag78
aa(lp2812
g57
ag126
aa(lp2813
g58
ag101
aa(lp2814
g59
ag180
aatp2815
Rp2816
ag2452
((lp2817
(lp2818
g49
ag2291
aa(lp2819
g50
ag2285
aa(lp2820
g51
ag133
aa(lp2821
g52
ag1164
aa(lp2822
g53
ag97
aa(lp2823
g54
ag202
aa(lp2824
g55
ag119
aa(lp2825
g56
ag78
aa(lp2826
g57
ag126
aa(lp2827
g58
ag101
aa(lp2828
g59
ag180
aatp2829
Rp2830
ag2452
((lp2831
(lp2832
g49
ag2213
aa(lp2833
g50
ag2207
aa(lp2834
g51
ag73
aa(lp2835
g52
ag1164
aa(lp2836
g53
ag97
aa(lp2837
g54
ag202
aa(lp2838
g55
ag119
aa(lp2839
g56
ag78
aa(lp2840
g57
ag126
aa(lp2841
g58
ag101
aa(lp2842
g59
ag180
aatp2843
Rp2844
ag2452
((lp2845
(lp2846
g49
ag1901
aa(lp2847
g50
ag1895
aa(lp2848
g51
ag193
aa(lp2849
g52
ag778
aa(lp2850
g53
ag97
aa(lp2851
g54
ag106
aa(lp2852
g55
ag119
aa(lp2853
g56
ag98
aa(lp2854
g57
ag107
aa(lp2855
g58
ag101
aa(lp2856
g59
ag180
aatp2857
Rp2858
ag2452
((lp2859
(lp2860
g49
ag785
aa(lp2861
g50
ag779
aa(lp2862
g51
ag114
aa(lp2863
g52
ag778
aa(lp2864
g53
ag97
aa(lp2865
g54
ag106
aa(lp2866
g55
ag119
aa(lp2867
g56
ag98
aa(lp2868
g57
ag107
aa(lp2869
g58
ag101
aa(lp2870
g59
ag180
aatp2871
Rp2872
ag2452
((lp2873
(lp2874
g49
ag1131
aa(lp2875
g50
ag1125
aa(lp2876
g51
ag133
aa(lp2877
g52
ag778
aa(lp2878
g53
ag97
aa(lp2879
g54
ag106
aa(lp2880
g55
ag119
aa(lp2881
g56
ag98
aa(lp2882
g57
ag107
aa(lp2883
g58
ag101
aa(lp2884
g59
ag180
aatp2885
Rp2886
ag2452
((lp2887
(lp2888
g49
ag2122
aa(lp2889
g50
ag2116
aa(lp2890
g51
ag73
aa(lp2891
g52
ag778
aa(lp2892
g53
ag97
aa(lp2893
g54
ag106
aa(lp2894
g55
ag119
aa(lp2895
g56
ag98
aa(lp2896
g57
ag107
aa(lp2897
g58
ag101
aa(lp2898
g59
ag180
aatp2899
Rp2900
ag2452
((lp2901
(lp2902
g49
ag1026
aa(lp2903
g50
ag1020
aa(lp2904
g51
ag193
aa(lp2905
g52
ag1019
aa(lp2906
g53
ag97
aa(lp2907
g54
ag125
aa(lp2908
g55
ag119
aa(lp2909
g56
ag98
aa(lp2910
g57
ag126
aa(lp2911
g58
ag101
aa(lp2912
g59
ag180
aatp2913
Rp2914
ag2452
((lp2915
(lp2916
g49
ag2083
aa(lp2917
g50
ag2077
aa(lp2918
g51
ag114
aa(lp2919
g52
ag1019
aa(lp2920
g53
ag97
aa(lp2921
g54
ag125
aa(lp2922
g55
ag119
aa(lp2923
g56
ag98
aa(lp2924
g57
ag126
aa(lp2925
g58
ag101
aa(lp2926
g59
ag180
aatp2927
Rp2928
ag2452
((lp2929
(lp2930
g49
ag2018
aa(lp2931
g50
ag2012
aa(lp2932
g51
ag133
aa(lp2933
g52
ag1019
aa(lp2934
g53
ag97
aa(lp2935
g54
ag125
aa(lp2936
g55
ag119
aa(lp2937
g56
ag98
aa(lp2938
g57
ag126
aa(lp2939
g58
ag101
aa(lp2940
g59
ag180
aatp2941
Rp2942
ag2452
((lp2943
(lp2944
g49
ag1039
aa(lp2945
g50
ag1033
aa(lp2946
g51
ag73
aa(lp2947
g52
ag1019
aa(lp2948
g53
ag97
aa(lp2949
g54
ag125
aa(lp2950
g55
ag119
aa(lp2951
g56
ag98
aa(lp2952
g57
ag126
aa(lp2953
g58
ag101
aa(lp2954
g59
ag180
aatp2955
Rp2956
ag2452
((lp2957
(lp2958
g49
ag732
aa(lp2959
g50
ag726
aa(lp2960
g51
ag193
aa(lp2961
g52
ag208
aa(lp2962
g53
ag97
aa(lp2963
g54
ag143
aa(lp2964
g55
ag77
aa(lp2965
g56
ag136
aa(lp2966
g57
ag144
aa(lp2967
g58
ag101
aa(lp2968
g59
ag76
aatp2969
Rp2970
ag2452
((lp2971
(lp2972
g49
ag1459
aa(lp2973
g50
ag1453
aa(lp2974
g51
ag114
aa(lp2975
g52
ag208
aa(lp2976
g53
ag97
aa(lp2977
g54
ag143
aa(lp2978
g55
ag77
aa(lp2979
g56
ag136
aa(lp2980
g57
ag144
aa(lp2981
g58
ag101
aa(lp2982
g59
ag76
aatp2983
Rp2984
ag2452
((lp2985
(lp2986
g49
ag215
aa(lp2987
g50
ag209
aa(lp2988
g51
ag133
aa(lp2989
g52
ag208
aa(lp2990
g53
ag97
aa(lp2991
g54
ag143
aa(lp2992
g55
ag77
aa(lp2993
g56
ag136
aa(lp2994
g57
ag144
aa(lp2995
g58
ag101
aa(lp2996
g59
ag76
aatp2997
Rp2998
ag2452
((lp2999
(lp3000
g49
ag2057
aa(lp3001
g50
ag2051
aa(lp3002
g51
ag73
aa(lp3003
g52
ag208
aa(lp3004
g53
ag97
aa(lp3005
g54
ag143
aa(lp3006
g55
ag77
aa(lp3007
g56
ag136
aa(lp3008
g57
ag144
aa(lp3009
g58
ag101
aa(lp3010
g59
ag76
aatp3011
Rp3012
ag2452
((lp3013
(lp3014
g49
ag1654
aa(lp3015
g50
ag1648
aa(lp3016
g51
ag193
aa(lp3017
g52
ag925
aa(lp3018
g53
ag97
aa(lp3019
g54
ag86
aa(lp3020
g55
ag77
aa(lp3021
g56
ag78
aa(lp3022
g57
ag87
aa(lp3023
g58
ag101
aa(lp3024
g59
ag76
aatp3025
Rp3026
ag2452
((lp3027
(lp3028
g49
ag1144
aa(lp3029
g50
ag1138
aa(lp3030
g51
ag114
aa(lp3031
g52
ag925
aa(lp3032
g53
ag97
aa(lp3033
g54
ag86
aa(lp3034
g55
ag77
aa(lp3035
g56
ag78
aa(lp3036
g57
ag87
aa(lp3037
g58
ag101
aa(lp3038
g59
ag76
aatp3039
Rp3040
ag2452
((lp3041
(lp3042
g49
ag932
aa(lp3043
g50
ag926
aa(lp3044
g51
ag133
aa(lp3045
g52
ag925
aa(lp3046
g53
ag97
aa(lp3047
g54
ag86
aa(lp3048
g55
ag77
aa(lp3049
g56
ag78
aa(lp3050
g57
ag87
aa(lp3051
g58
ag101
aa(lp3052
g59
ag76
aatp3053
Rp3054
ag2452
((lp3055
(lp3056
g49
ag1914
aa(lp3057
g50
ag1908
aa(lp3058
g51
ag73
aa(lp3059
g52
ag925
aa(lp3060
g53
ag97
aa(lp3061
g54
ag86
aa(lp3062
g55
ag77
aa(lp3063
g56
ag78
aa(lp3064
g57
ag87
aa(lp3065
g58
ag101
aa(lp3066
g59
ag76
aatp3067
Rp3068
ag2452
((lp3069
(lp3070
g49
ag959
aa(lp3071
g50
ag953
aa(lp3072
g51
ag193
aa(lp3073
g52
ag278
aa(lp3074
g53
ag97
aa(lp3075
g54
ag202
aa(lp3076
g55
ag77
aa(lp3077
g56
ag78
aa(lp3078
g57
ag126
aa(lp3079
g58
ag101
aa(lp3080
g59
ag76
aatp3081
Rp3082
ag2452
((lp3083
(lp3084
g49
ag450
aa(lp3085
g50
ag444
aa(lp3086
g51
ag114
aa(lp3087
g52
ag278
aa(lp3088
g53
ag97
aa(lp3089
g54
ag202
aa(lp3090
g55
ag77
aa(lp3091
g56
ag78
aa(lp3092
g57
ag126
aa(lp3093
g58
ag101
aa(lp3094
g59
ag76
aatp3095
Rp3096
ag2452
((lp3097
(lp3098
g49
ag1810
aa(lp3099
g50
ag1804
aa(lp3100
g51
ag133
aa(lp3101
g52
ag278
aa(lp3102
g53
ag97
aa(lp3103
g54
ag202
aa(lp3104
g55
ag77
aa(lp3105
g56
ag78
aa(lp3106
g57
ag126
aa(lp3107
g58
ag101
aa(lp3108
g59
ag76
aatp3109
Rp3110
ag2452
((lp3111
(lp3112
g49
ag285
aa(lp3113
g50
ag279
aa(lp3114
g51
ag73
aa(lp3115
g52
ag278
aa(lp3116
g53
ag97
aa(lp3117
g54
ag202
aa(lp3118
g55
ag77
aa(lp3119
g56
ag78
aa(lp3120
g57
ag126
aa(lp3121
g58
ag101
aa(lp3122
g59
ag76
aatp3123
Rp3124
ag2452
((lp3125
(lp3126
g49
ag1485
aa(lp3127
g50
ag1479
aa(lp3128
g51
ag193
aa(lp3129
g52
ag347
aa(lp3130
g53
ag97
aa(lp3131
g54
ag106
aa(lp3132
g55
ag77
aa(lp3133
g56
ag98
aa(lp3134
g57
ag107
aa(lp3135
g58
ag101
aa(lp3136
g59
ag76
aatp3137
Rp3138
ag2452
((lp3139
(lp3140
g49
ag354
aa(lp3141
g50
ag348
aa(lp3142
g51
ag114
aa(lp3143
g52
ag347
aa(lp3144
g53
ag97
aa(lp3145
g54
ag106
aa(lp3146
g55
ag77
aa(lp3147
g56
ag98
aa(lp3148
g57
ag107
aa(lp3149
g58
ag101
aa(lp3150
g59
ag76
aatp3151
Rp3152
ag2452
((lp3153
(lp3154
g49
ag2239
aa(lp3155
g50
ag2233
aa(lp3156
g51
ag133
aa(lp3157
g52
ag347
aa(lp3158
g53
ag97
aa(lp3159
g54
ag106
aa(lp3160
g55
ag77
aa(lp3161
g56
ag98
aa(lp3162
g57
ag107
aa(lp3163
g58
ag101
aa(lp3164
g59
ag76
aatp3165
Rp3166
ag2452
((lp3167
(lp3168
g49
ag1524
aa(lp3169
g50
ag1518
aa(lp3170
g51
ag73
aa(lp3171
g52
ag347
aa(lp3172
g53
ag97
aa(lp3173
g54
ag106
aa(lp3174
g55
ag77
aa(lp3175
g56
ag98
aa(lp3176
g57
ag107
aa(lp3177
g58
ag101
aa(lp3178
g59
ag76
aatp3179
Rp3180
ag2452
((lp3181
(lp3182
g49
ag382
aa(lp3183
g50
ag376
aa(lp3184
g51
ag193
aa(lp3185
g52
ag375
aa(lp3186
g53
ag97
aa(lp3187
g54
ag125
aa(lp3188
g55
ag77
aa(lp3189
g56
ag98
aa(lp3190
g57
ag126
aa(lp3191
g58
ag101
aa(lp3192
g59
ag76
aatp3193
Rp3194
ag2452
((lp3195
(lp3196
g49
ag758
aa(lp3197
g50
ag752
aa(lp3198
g51
ag114
aa(lp3199
g52
ag375
aa(lp3200
g53
ag97
aa(lp3201
g54
ag125
aa(lp3202
g55
ag77
aa(lp3203
g56
ag98
aa(lp3204
g57
ag126
aa(lp3205
g58
ag101
aa(lp3206
g59
ag76
aatp3207
Rp3208
ag2452
((lp3209
(lp3210
g49
ag2200
aa(lp3211
g50
ag2194
aa(lp3212
g51
ag133
aa(lp3213
g52
ag375
aa(lp3214
g53
ag97
aa(lp3215
g54
ag125
aa(lp3216
g55
ag77
aa(lp3217
g56
ag98
aa(lp3218
g57
ag126
aa(lp3219
g58
ag101
aa(lp3220
g59
ag76
aatp3221
Rp3222
ag2452
((lp3223
(lp3224
g49
ag2187
aa(lp3225
g50
ag2181
aa(lp3226
g51
ag73
aa(lp3227
g52
ag375
aa(lp3228
g53
ag97
aa(lp3229
g54
ag125
aa(lp3230
g55
ag77
aa(lp3231
g56
ag98
aa(lp3232
g57
ag126
aa(lp3233
g58
ag101
aa(lp3234
g59
ag76
aatp3235
Rp3236
ag2452
((lp3237
(lp3238
g49
ag1367
aa(lp3239
g50
ag1361
aa(lp3240
g51
ag193
aa(lp3241
g52
ag979
aa(lp3242
g53
ag119
aa(lp3243
g54
ag143
aa(lp3244
g55
ag97
aa(lp3245
g56
ag136
aa(lp3246
g57
ag144
aa(lp3247
g58
ag120
aa(lp3248
g59
ag96
aatp3249
Rp3250
ag2452
((lp3251
(lp3252
g49
ag2356
aa(lp3253
g50
ag2350
aa(lp3254
g51
ag114
aa(lp3255
g52
ag979
aa(lp3256
g53
ag119
aa(lp3257
g54
ag143
aa(lp3258
g55
ag97
aa(lp3259
g56
ag136
aa(lp3260
g57
ag144
aa(lp3261
g58
ag120
aa(lp3262
g59
ag96
aatp3263
Rp3264
ag2452
((lp3265
(lp3266
g49
ag1210
aa(lp3267
g50
ag1204
aa(lp3268
g51
ag133
aa(lp3269
g52
ag979
aa(lp3270
g53
ag119
aa(lp3271
g54
ag143
aa(lp3272
g55
ag97
aa(lp3273
g56
ag136
aa(lp3274
g57
ag144
aa(lp3275
g58
ag120
aa(lp3276
g59
ag96
aatp3277
Rp3278
ag2452
((lp3279
(lp3280
g49
ag986
aa(lp3281
g50
ag980
aa(lp3282
g51
ag73
aa(lp3283
g52
ag979
aa(lp3284
g53
ag119
aa(lp3285
g54
ag143
aa(lp3286
g55
ag97
aa(lp3287
g56
ag136
aa(lp3288
g57
ag144
aa(lp3289
g58
ag120
aa(lp3290
g59
ag96
aatp3291
Rp3292
ag2452
((lp3293
(lp3294
g49
ag396
aa(lp3295
g50
ag390
aa(lp3296
g51
ag193
aa(lp3297
g52
ag389
aa(lp3298
g53
ag119
aa(lp3299
g54
ag86
aa(lp3300
g55
ag97
aa(lp3301
g56
ag78
aa(lp3302
g57
ag87
aa(lp3303
g58
ag120
aa(lp3304
g59
ag96
aatp3305
Rp3306
ag2452
((lp3307
(lp3308
g49
ag1328
aa(lp3309
g50
ag1322
aa(lp3310
g51
ag114
aa(lp3311
g52
ag389
aa(lp3312
g53
ag119
aa(lp3313
g54
ag86
aa(lp3314
g55
ag97
aa(lp3315
g56
ag78
aa(lp3316
g57
ag87
aa(lp3317
g58
ag120
aa(lp3318
g59
ag96
aatp3319
Rp3320
ag2452
((lp3321
(lp3322
g49
ag2135
aa(lp3323
g50
ag2129
aa(lp3324
g51
ag133
aa(lp3325
g52
ag389
aa(lp3326
g53
ag119
aa(lp3327
g54
ag86
aa(lp3328
g55
ag97
aa(lp3329
g56
ag78
aa(lp3330
g57
ag87
aa(lp3331
g58
ag120
aa(lp3332
g59
ag96
aatp3333
Rp3334
ag2452
((lp3335
(lp3336
g49
ag972
aa(lp3337
g50
ag966
aa(lp3338
g51
ag73
aa(lp3339
g52
ag389
aa(lp3340
g53
ag119
aa(lp3341
g54
ag86
aa(lp3342
g55
ag97
aa(lp3343
g56
ag78
aa(lp3344
g57
ag87
aa(lp3345
g58
ag120
aa(lp3346
g59
ag96
aatp3347
Rp3348
ag2452
((lp3349
(lp3350
g49
ag598
aa(lp3351
g50
ag592
aa(lp3352
g51
ag193
aa(lp3353
g52
ag470
aa(lp3354
g53
ag119
aa(lp3355
g54
ag202
aa(lp3356
g55
ag97
aa(lp3357
g56
ag78
aa(lp3358
g57
ag126
aa(lp3359
g58
ag120
aa(lp3360
g59
ag96
aatp3361
Rp3362
ag2452
((lp3363
(lp3364
g49
ag1537
aa(lp3365
g50
ag1531
aa(lp3366
g51
ag114
aa(lp3367
g52
ag470
aa(lp3368
g53
ag119
aa(lp3369
g54
ag202
aa(lp3370
g55
ag97
aa(lp3371
g56
ag78
aa(lp3372
g57
ag126
aa(lp3373
g58
ag120
aa(lp3374
g59
ag96
aatp3375
Rp3376
ag2452
((lp3377
(lp3378
g49
ag477
aa(lp3379
g50
ag471
aa(lp3380
g51
ag133
aa(lp3381
g52
ag470
aa(lp3382
g53
ag119
aa(lp3383
g54
ag202
aa(lp3384
g55
ag97
aa(lp3385
g56
ag78
aa(lp3386
g57
ag126
aa(lp3387
g58
ag120
aa(lp3388
g59
ag96
aatp3389
Rp3390
ag2452
((lp3391
(lp3392
g49
ag1888
aa(lp3393
g50
ag1882
aa(lp3394
g51
ag73
aa(lp3395
g52
ag470
aa(lp3396
g53
ag119
aa(lp3397
g54
ag202
aa(lp3398
g55
ag97
aa(lp3399
g56
ag78
aa(lp3400
g57
ag126
aa(lp3401
g58
ag120
aa(lp3402
g59
ag96
aatp3403
Rp3404
ag2452
((lp3405
(lp3406
g49
ag2304
aa(lp3407
g50
ag2298
aa(lp3408
g51
ag193
aa(lp3409
g52
ag939
aa(lp3410
g53
ag119
aa(lp3411
g54
ag106
aa(lp3412
g55
ag97
aa(lp3413
g56
ag98
aa(lp3414
g57
ag107
aa(lp3415
g58
ag120
aa(lp3416
g59
ag96
aatp3417
Rp3418
ag2452
((lp3419
(lp3420
g49
ag1511
aa(lp3421
g50
ag1505
aa(lp3422
g51
ag114
aa(lp3423
g52
ag939
aa(lp3424
g53
ag119
aa(lp3425
g54
ag106
aa(lp3426
g55
ag97
aa(lp3427
g56
ag98
aa(lp3428
g57
ag107
aa(lp3429
g58
ag120
aa(lp3430
g59
ag96
aatp3431
Rp3432
ag2452
((lp3433
(lp3434
g49
ag946
aa(lp3435
g50
ag940
aa(lp3436
g51
ag133
aa(lp3437
g52
ag939
aa(lp3438
g53
ag119
aa(lp3439
g54
ag106
aa(lp3440
g55
ag97
aa(lp3441
g56
ag98
aa(lp3442
g57
ag107
aa(lp3443
g58
ag120
aa(lp3444
g59
ag96
aatp3445
Rp3446
ag2452
((lp3447
(lp3448
g49
ag1105
aa(lp3449
g50
ag1099
aa(lp3450
g51
ag73
aa(lp3451
g52
ag939
aa(lp3452
g53
ag119
aa(lp3453
g54
ag106
aa(lp3454
g55
ag97
aa(lp3455
g56
ag98
aa(lp3456
g57
ag107
aa(lp3457
g58
ag120
aa(lp3458
g59
ag96
aatp3459
Rp3460
ag2452
((lp3461
(lp3462
g49
ag1092
aa(lp3463
g50
ag1086
aa(lp3464
g51
ag193
aa(lp3465
g52
ag113
aa(lp3466
g53
ag119
aa(lp3467
g54
ag125
aa(lp3468
g55
ag97
aa(lp3469
g56
ag98
aa(lp3470
g57
ag126
aa(lp3471
g58
ag120
aa(lp3472
g59
ag96
aatp3473
Rp3474
ag2452
((lp3475
(lp3476
g49
ag123
aa(lp3477
g50
ag115
aa(lp3478
g51
ag114
aa(lp3479
g52
ag113
aa(lp3480
g53
ag119
aa(lp3481
g54
ag125
aa(lp3482
g55
ag97
aa(lp3483
g56
ag98
aa(lp3484
g57
ag126
aa(lp3485
g58
ag120
aa(lp3486
g59
ag96
aatp3487
Rp3488
ag2452
((lp3489
(lp3490
g49
ag825
aa(lp3491
g50
ag819
aa(lp3492
g51
ag133
aa(lp3493
g52
ag113
aa(lp3494
g53
ag119
aa(lp3495
g54
ag125
aa(lp3496
g55
ag97
aa(lp3497
g56
ag98
aa(lp3498
g57
ag126
aa(lp3499
g58
ag120
aa(lp3500
g59
ag96
aatp3501
Rp3502
ag2452
((lp3503
(lp3504
g49
ag666
aa(lp3505
g50
ag660
aa(lp3506
g51
ag73
aa(lp3507
g52
ag113
aa(lp3508
g53
ag119
aa(lp3509
g54
ag125
aa(lp3510
g55
ag97
aa(lp3511
g56
ag98
aa(lp3512
g57
ag126
aa(lp3513
g58
ag120
aa(lp3514
g59
ag96
aatp3515
Rp3516
ag2452
((lp3517
(lp3518
g49
ag1550
aa(lp3519
g50
ag1544
aa(lp3520
g51
ag193
aa(lp3521
g52
ag845
aa(lp3522
g53
ag119
aa(lp3523
g54
ag143
aa(lp3524
g55
ag119
aa(lp3525
g56
ag136
aa(lp3526
g57
ag144
aa(lp3527
g58
ag120
aa(lp3528
g59
ag180
aatp3529
Rp3530
ag2452
((lp3531
(lp3532
g49
ag852
aa(lp3533
g50
ag846
aa(lp3534
g51
ag114
aa(lp3535
g52
ag845
aa(lp3536
g53
ag119
aa(lp3537
g54
ag143
aa(lp3538
g55
ag119
aa(lp3539
g56
ag136
aa(lp3540
g57
ag144
aa(lp3541
g58
ag120
aa(lp3542
g59
ag180
aatp3543
Rp3544
ag2452
((lp3545
(lp3546
g49
ag1498
aa(lp3547
g50
ag1492
aa(lp3548
g51
ag133
aa(lp3549
g52
ag845
aa(lp3550
g53
ag119
aa(lp3551
g54
ag143
aa(lp3552
g55
ag119
aa(lp3553
g56
ag136
aa(lp3554
g57
ag144
aa(lp3555
g58
ag120
aa(lp3556
g59
ag180
aatp3557
Rp3558
ag2452
((lp3559
(lp3560
g49
ag1940
aa(lp3561
g50
ag1934
aa(lp3562
g51
ag73
aa(lp3563
g52
ag845
aa(lp3564
g53
ag119
aa(lp3565
g54
ag143
aa(lp3566
g55
ag119
aa(lp3567
g56
ag136
aa(lp3568
g57
ag144
aa(lp3569
g58
ag120
aa(lp3570
g59
ag180
aatp3571
Rp3572
ag2452
((lp3573
(lp3574
g49
ag1249
aa(lp3575
g50
ag1243
aa(lp3576
g51
ag193
aa(lp3577
g52
ag510
aa(lp3578
g53
ag119
aa(lp3579
g54
ag86
aa(lp3580
g55
ag119
aa(lp3581
g56
ag78
aa(lp3582
g57
ag87
aa(lp3583
g58
ag120
aa(lp3584
g59
ag180
aatp3585
Rp3586
ag2452
((lp3587
(lp3588
g49
ag517
aa(lp3589
g50
ag511
aa(lp3590
g51
ag114
aa(lp3591
g52
ag510
aa(lp3592
g53
ag119
aa(lp3593
g54
ag86
aa(lp3594
g55
ag119
aa(lp3595
g56
ag78
aa(lp3596
g57
ag87
aa(lp3597
g58
ag120
aa(lp3598
g59
ag180
aatp3599
Rp3600
ag2452
((lp3601
(lp3602
g49
ag1079
aa(lp3603
g50
ag1073
aa(lp3604
g51
ag133
aa(lp3605
g52
ag510
aa(lp3606
g53
ag119
aa(lp3607
g54
ag86
aa(lp3608
g55
ag119
aa(lp3609
g56
ag78
aa(lp3610
g57
ag87
aa(lp3611
g58
ag120
aa(lp3612
g59
ag180
aatp3613
Rp3614
ag2452
((lp3615
(lp3616
g49
ag1223
aa(lp3617
g50
ag1217
aa(lp3618
g51
ag73
aa(lp3619
g52
ag510
aa(lp3620
g53
ag119
aa(lp3621
g54
ag86
aa(lp3622
g55
ag119
aa(lp3623
g56
ag78
aa(lp3624
g57
ag87
aa(lp3625
g58
ag120
aa(lp3626
g59
ag180
aatp3627
Rp3628
ag2452
((lp3629
(lp3630
g49
ag368
aa(lp3631
g50
ag362
aa(lp3632
g51
ag193
aa(lp3633
g52
ag361
aa(lp3634
g53
ag119
aa(lp3635
g54
ag202
aa(lp3636
g55
ag119
aa(lp3637
g56
ag78
aa(lp3638
g57
ag126
aa(lp3639
g58
ag120
aa(lp3640
g59
ag180
aatp3641
Rp3642
ag2452
((lp3643
(lp3644
g49
ag1380
aa(lp3645
g50
ag1374
aa(lp3646
g51
ag114
aa(lp3647
g52
ag361
aa(lp3648
g53
ag119
aa(lp3649
g54
ag202
aa(lp3650
g55
ag119
aa(lp3651
g56
ag78
aa(lp3652
g57
ag126
aa(lp3653
g58
ag120
aa(lp3654
g59
ag180
aatp3655
Rp3656
ag2452
((lp3657
(lp3658
g49
ag705
aa(lp3659
g50
ag699
aa(lp3660
g51
ag133
aa(lp3661
g52
ag361
aa(lp3662
g53
ag119
aa(lp3663
g54
ag202
aa(lp3664
g55
ag119
aa(lp3665
g56
ag78
aa(lp3666
g57
ag126
aa(lp3667
g58
ag120
aa(lp3668
g59
ag180
aatp3669
Rp3670
ag2452
((lp3671
(lp3672
g49
ag1197
aa(lp3673
g50
ag1191
aa(lp3674
g51
ag73
aa(lp3675
g52
ag361
aa(lp3676
g53
ag119
aa(lp3677
g54
ag202
aa(lp3678
g55
ag119
aa(lp3679
g56
ag78
aa(lp3680
g57
ag126
aa(lp3681
g58
ag120
aa(lp3682
g59
ag180
aatp3683
Rp3684
ag2452
((lp3685
(lp3686
g49
ag2226
aa(lp3687
g50
ag2220
aa(lp3688
g51
ag193
aa(lp3689
g52
ag177
aa(lp3690
g53
ag119
aa(lp3691
g54
ag106
aa(lp3692
g55
ag119
aa(lp3693
g56
ag98
aa(lp3694
g57
ag107
aa(lp3695
g58
ag120
aa(lp3696
g59
ag180
aatp3697
Rp3698
ag2452
((lp3699
(lp3700
g49
ag1433
aa(lp3701
g50
ag1427
aa(lp3702
g51
ag114
aa(lp3703
g52
ag177
aa(lp3704
g53
ag119
aa(lp3705
g54
ag106
aa(lp3706
g55
ag119
aa(lp3707
g56
ag98
aa(lp3708
g57
ag107
aa(lp3709
g58
ag120
aa(lp3710
g59
ag180
aatp3711
Rp3712
ag2452
((lp3713
(lp3714
g49
ag185
aa(lp3715
g50
ag178
aa(lp3716
g51
ag133
aa(lp3717
g52
ag177
aa(lp3718
g53
ag119
aa(lp3719
g54
ag106
aa(lp3720
g55
ag119
aa(lp3721
g56
ag98
aa(lp3722
g57
ag107
aa(lp3723
g58
ag120
aa(lp3724
g59
ag180
aatp3725
Rp3726
ag2452
((lp3727
(lp3728
g49
ag1446
aa(lp3729
g50
ag1440
aa(lp3730
g51
ag73
aa(lp3731
g52
ag177
aa(lp3732
g53
ag119
aa(lp3733
g54
ag106
aa(lp3734
g55
ag119
aa(lp3735
g56
ag98
aa(lp3736
g57
ag107
aa(lp3737
g58
ag120
aa(lp3738
g59
ag180
aatp3739
Rp3740
ag2452
((lp3741
(lp3742
g49
ag1979
aa(lp3743
g50
ag1973
aa(lp3744
g51
ag193
aa(lp3745
g52
ag416
aa(lp3746
g53
ag119
aa(lp3747
g54
ag125
aa(lp3748
g55
ag119
aa(lp3749
g56
ag98
aa(lp3750
g57
ag126
aa(lp3751
g58
ag120
aa(lp3752
g59
ag180
aatp3753
Rp3754
ag2452
((lp3755
(lp3756
g49
ag1472
aa(lp3757
g50
ag1466
aa(lp3758
g51
ag114
aa(lp3759
g52
ag416
aa(lp3760
g53
ag119
aa(lp3761
g54
ag125
aa(lp3762
g55
ag119
aa(lp3763
g56
ag98
aa(lp3764
g57
ag126
aa(lp3765
g58
ag120
aa(lp3766
g59
ag180
aatp3767
Rp3768
ag2452
((lp3769
(lp3770
g49
ag1302
aa(lp3771
g50
ag1296
aa(lp3772
g51
ag133
aa(lp3773
g52
ag416
aa(lp3774
g53
ag119
aa(lp3775
g54
ag125
aa(lp3776
g55
ag119
aa(lp3777
g56
ag98
aa(lp3778
g57
ag126
aa(lp3779
g58
ag120
aa(lp3780
g59
ag180
aatp3781
Rp3782
ag2452
((lp3783
(lp3784
g49
ag423
aa(lp3785
g50
ag417
aa(lp3786
g51
ag73
aa(lp3787
g52
ag416
aa(lp3788
g53
ag119
aa(lp3789
g54
ag125
aa(lp3790
g55
ag119
aa(lp3791
g56
ag98
aa(lp3792
g57
ag126
aa(lp3793
g58
ag120
aa(lp3794
g59
ag180
aatp3795
Rp3796
ag2452
((lp3797
(lp3798
g49
ag530
aa(lp3799
g50
ag524
aa(lp3800
g51
ag193
aa(lp3801
g52
ag264
aa(lp3802
g53
ag119
aa(lp3803
g54
ag143
aa(lp3804
g55
ag77
aa(lp3805
g56
ag136
aa(lp3806
g57
ag144
aa(lp3807
g58
ag120
aa(lp3808
g59
ag76
aatp3809
Rp3810
ag2452
((lp3811
(lp3812
g49
ag1341
aa(lp3813
g50
ag1335
aa(lp3814
g51
ag114
aa(lp3815
g52
ag264
aa(lp3816
g53
ag119
aa(lp3817
g54
ag143
aa(lp3818
g55
ag77
aa(lp3819
g56
ag136
aa(lp3820
g57
ag144
aa(lp3821
g58
ag120
aa(lp3822
g59
ag76
aatp3823
Rp3824
ag2452
((lp3825
(lp3826
g49
ag1641
aa(lp3827
g50
ag1635
aa(lp3828
g51
ag133
aa(lp3829
g52
ag264
aa(lp3830
g53
ag119
aa(lp3831
g54
ag143
aa(lp3832
g55
ag77
aa(lp3833
g56
ag136
aa(lp3834
g57
ag144
aa(lp3835
g58
ag120
aa(lp3836
g59
ag76
aatp3837
Rp3838
ag2452
((lp3839
(lp3840
g49
ag271
aa(lp3841
g50
ag265
aa(lp3842
g51
ag73
aa(lp3843
g52
ag264
aa(lp3844
g53
ag119
aa(lp3845
g54
ag143
aa(lp3846
g55
ag77
aa(lp3847
g56
ag136
aa(lp3848
g57
ag144
aa(lp3849
g58
ag120
aa(lp3850
g59
ag76
aatp3851
Rp3852
ag2452
((lp3853
(lp3854
g49
ag1927
aa(lp3855
g50
ag1921
aa(lp3856
g51
ag193
aa(lp3857
g52
ag618
aa(lp3858
g53
ag119
aa(lp3859
g54
ag86
aa(lp3860
g55
ag77
aa(lp3861
g56
ag78
aa(lp3862
g57
ag87
aa(lp3863
g58
ag120
aa(lp3864
g59
ag76
aatp3865
Rp3866
ag2452
((lp3867
(lp3868
g49
ag625
aa(lp3869
g50
ag619
aa(lp3870
g51
ag114
aa(lp3871
g52
ag618
aa(lp3872
g53
ag119
aa(lp3873
g54
ag86
aa(lp3874
g55
ag77
aa(lp3875
g56
ag78
aa(lp3876
g57
ag87
aa(lp3877
g58
ag120
aa(lp3878
g59
ag76
aatp3879
Rp3880
ag2452
((lp3881
(lp3882
g49
ag1563
aa(lp3883
g50
ag1557
aa(lp3884
g51
ag133
aa(lp3885
g52
ag618
aa(lp3886
g53
ag119
aa(lp3887
g54
ag86
aa(lp3888
g55
ag77
aa(lp3889
g56
ag78
aa(lp3890
g57
ag87
aa(lp3891
g58
ag120
aa(lp3892
g59
ag76
aatp3893
Rp3894
ag2452
((lp3895
(lp3896
g49
ag1680
aa(lp3897
g50
ag1674
aa(lp3898
g51
ag73
aa(lp3899
g52
ag618
aa(lp3900
g53
ag119
aa(lp3901
g54
ag86
aa(lp3902
g55
ag77
aa(lp3903
g56
ag78
aa(lp3904
g57
ag87
aa(lp3905
g58
ag120
aa(lp3906
g59
ag76
aatp3907
Rp3908
ag2452
((lp3909
(lp3910
g49
ag200
aa(lp3911
g50
ag194
aa(lp3912
g51
ag193
aa(lp3913
g52
ag192
aa(lp3914
g53
ag119
aa(lp3915
g54
ag202
aa(lp3916
g55
ag77
aa(lp3917
g56
ag78
aa(lp3918
g57
ag126
aa(lp3919
g58
ag120
aa(lp3920
g59
ag76
aatp3921
Rp3922
ag2452
((lp3923
(lp3924
g49
ag2148
aa(lp3925
g50
ag2142
aa(lp3926
g51
ag114
aa(lp3927
g52
ag192
aa(lp3928
g53
ag119
aa(lp3929
g54
ag202
aa(lp3930
g55
ag77
aa(lp3931
g56
ag78
aa(lp3932
g57
ag126
aa(lp3933
g58
ag120
aa(lp3934
g59
ag76
aatp3935
Rp3936
ag2452
((lp3937
(lp3938
g49
ag1066
aa(lp3939
g50
ag1060
aa(lp3940
g51
ag133
aa(lp3941
g52
ag192
aa(lp3942
g53
ag119
aa(lp3943
g54
ag202
aa(lp3944
g55
ag77
aa(lp3945
g56
ag78
aa(lp3946
g57
ag126
aa(lp3947
g58
ag120
aa(lp3948
g59
ag76
aatp3949
Rp3950
ag2452
((lp3951
(lp3952
g49
ag2031
aa(lp3953
g50
ag2025
aa(lp3954
g51
ag73
aa(lp3955
g52
ag192
aa(lp3956
g53
ag119
aa(lp3957
g54
ag202
aa(lp3958
g55
ag77
aa(lp3959
g56
ag78
aa(lp3960
g57
ag126
aa(lp3961
g58
ag120
aa(lp3962
g59
ag76
aatp3963
Rp3964
ag2452
((lp3965
(lp3966
g49
ag229
aa(lp3967
g50
ag223
aa(lp3968
g51
ag193
aa(lp3969
g52
ag222
aa(lp3970
g53
ag119
aa(lp3971
g54
ag106
aa(lp3972
g55
ag77
aa(lp3973
g56
ag98
aa(lp3974
g57
ag107
aa(lp3975
g58
ag120
aa(lp3976
g59
ag76
aatp3977
Rp3978
ag2452
((lp3979
(lp3980
g49
ag2252
aa(lp3981
g50
ag2246
aa(lp3982
g51
ag114
aa(lp3983
g52
ag222
aa(lp3984
g53
ag119
aa(lp3985
g54
ag106
aa(lp3986
g55
ag77
aa(lp3987
g56
ag98
aa(lp3988
g57
ag107
aa(lp3989
g58
ag120
aa(lp3990
g59
ag76
aatp3991
Rp3992
ag2452
((lp3993
(lp3994
g49
ag1771
aa(lp3995
g50
ag1765
aa(lp3996
g51
ag133
aa(lp3997
g52
ag222
aa(lp3998
g53
ag119
aa(lp3999
g54
ag106
aa(lp4000
g55
ag77
aa(lp4001
g56
ag98
aa(lp4002
g57
ag107
aa(lp4003
g58
ag120
aa(lp4004
g59
ag76
aatp4005
Rp4006
ag2452
((lp4007
(lp4008
g49
ag312
aa(lp4009
g50
ag306
aa(lp4010
g51
ag73
aa(lp4011
g52
ag222
aa(lp4012
g53
ag119
aa(lp4013
g54
ag106
aa(lp4014
g55
ag77
aa(lp4015
g56
ag98
aa(lp4016
g57
ag107
aa(lp4017
g58
ag120
aa(lp4018
g59
ag76
aatp4019
Rp4020
ag2452
((lp4021
(lp4022
g49
ag503
aa(lp4023
g50
ag497
aa(lp4024
g51
ag193
aa(lp4025
g52
ag236
aa(lp4026
g53
ag119
aa(lp4027
g54
ag125
aa(lp4028
g55
ag77
aa(lp4029
g56
ag98
aa(lp4030
g57
ag126
aa(lp4031
g58
ag120
aa(lp4032
g59
ag76
aatp4033
Rp4034
ag2452
((lp4035
(lp4036
g49
ag838
aa(lp4037
g50
ag832
aa(lp4038
g51
ag114
aa(lp4039
g52
ag236
aa(lp4040
g53
ag119
aa(lp4041
g54
ag125
aa(lp4042
g55
ag77
aa(lp4043
g56
ag98
aa(lp4044
g57
ag126
aa(lp4045
g58
ag120
aa(lp4046
g59
ag76
aatp4047
Rp4048
ag2452
((lp4049
(lp4050
g49
ag243
aa(lp4051
g50
ag237
aa(lp4052
g51
ag133
aa(lp4053
g52
ag236
aa(lp4054
g53
ag119
aa(lp4055
g54
ag125
aa(lp4056
g55
ag77
aa(lp4057
g56
ag98
aa(lp4058
g57
ag126
aa(lp4059
g58
ag120
aa(lp4060
g59
ag76
aatp4061
Rp4062
ag2452
((lp4063
(lp4064
g49
ag2317
aa(lp4065
g50
ag2311
aa(lp4066
g51
ag73
aa(lp4067
g52
ag236
aa(lp4068
g53
ag119
aa(lp4069
g54
ag125
aa(lp4070
g55
ag77
aa(lp4071
g56
ag98
aa(lp4072
g57
ag126
aa(lp4073
g58
ag120
aa(lp4074
g59
ag76
aatp4075
Rp4076
ag2452
((lp4077
(lp4078
g49
ag1706
aa(lp4079
g50
ag1700
aa(lp4080
g51
ag193
aa(lp4081
g52
ag319
aa(lp4082
g53
ag77
aa(lp4083
g54
ag143
aa(lp4084
g55
ag97
aa(lp4085
g56
ag136
aa(lp4086
g57
ag144
aa(lp4087
g58
ag81
aa(lp4088
g59
ag96
aatp4089
Rp4090
ag2452
((lp4091
(lp4092
g49
ag2109
aa(lp4093
g50
ag2103
aa(lp4094
g51
ag114
aa(lp4095
g52
ag319
aa(lp4096
g53
ag77
aa(lp4097
g54
ag143
aa(lp4098
g55
ag97
aa(lp4099
g56
ag136
aa(lp4100
g57
ag144
aa(lp4101
g58
ag81
aa(lp4102
g59
ag96
aatp4103
Rp4104
ag2452
((lp4105
(lp4106
g49
ag326
aa(lp4107
g50
ag320
aa(lp4108
g51
ag133
aa(lp4109
g52
ag319
aa(lp4110
g53
ag77
aa(lp4111
g54
ag143
aa(lp4112
g55
ag97
aa(lp4113
g56
ag136
aa(lp4114
g57
ag144
aa(lp4115
g58
ag81
aa(lp4116
g59
ag96
aatp4117
Rp4118
ag2452
((lp4119
(lp4120
g49
ag1628
aa(lp4121
g50
ag1622
aa(lp4122
g51
ag73
aa(lp4123
g52
ag319
aa(lp4124
g53
ag77
aa(lp4125
g54
ag143
aa(lp4126
g55
ag97
aa(lp4127
g56
ag136
aa(lp4128
g57
ag144
aa(lp4129
g58
ag81
aa(lp4130
g59
ag96
aatp4131
Rp4132
ag2452
((lp4133
(lp4134
g49
ag798
aa(lp4135
g50
ag792
aa(lp4136
g51
ag193
aa(lp4137
g52
ag250
aa(lp4138
g53
ag77
aa(lp4139
g54
ag86
aa(lp4140
g55
ag97
aa(lp4141
g56
ag78
aa(lp4142
g57
ag87
aa(lp4143
g58
ag81
aa(lp4144
g59
ag96
aatp4145
Rp4146
ag2452
((lp4147
(lp4148
g49
ag2161
aa(lp4149
g50
ag2155
aa(lp4150
g51
ag114
aa(lp4151
g52
ag250
aa(lp4152
g53
ag77
aa(lp4153
g54
ag86
aa(lp4154
g55
ag97
aa(lp4155
g56
ag78
aa(lp4156
g57
ag87
aa(lp4157
g58
ag81
aa(lp4158
g59
ag96
aatp4159
Rp4160
ag2452
((lp4161
(lp4162
g49
ag257
aa(lp4163
g50
ag251
aa(lp4164
g51
ag133
aa(lp4165
g52
ag250
aa(lp4166
g53
ag77
aa(lp4167
g54
ag86
aa(lp4168
g55
ag97
aa(lp4169
g56
ag78
aa(lp4170
g57
ag87
aa(lp4171
g58
ag81
aa(lp4172
g59
ag96
aatp4173
Rp4174
ag2452
((lp4175
(lp4176
g49
ag1118
aa(lp4177
g50
ag1112
aa(lp4178
g51
ag73
aa(lp4179
g52
ag250
aa(lp4180
g53
ag77
aa(lp4181
g54
ag86
aa(lp4182
g55
ag97
aa(lp4183
g56
ag78
aa(lp4184
g57
ag87
aa(lp4185
g58
ag81
aa(lp4186
g59
ag96
aatp4187
Rp4188
ag2452
((lp4189
(lp4190
g49
ag1615
aa(lp4191
g50
ag1609
aa(lp4192
g51
ag193
aa(lp4193
g52
ag537
aa(lp4194
g53
ag77
aa(lp4195
g54
ag202
aa(lp4196
g55
ag97
aa(lp4197
g56
ag78
aa(lp4198
g57
ag126
aa(lp4199
g58
ag81
aa(lp4200
g59
ag96
aatp4201
Rp4202
ag2452
((lp4203
(lp4204
g49
ag571
aa(lp4205
g50
ag565
aa(lp4206
g51
ag114
aa(lp4207
g52
ag537
aa(lp4208
g53
ag77
aa(lp4209
g54
ag202
aa(lp4210
g55
ag97
aa(lp4211
g56
ag78
aa(lp4212
g57
ag126
aa(lp4213
g58
ag81
aa(lp4214
g59
ag96
aatp4215
Rp4216
ag2452
((lp4217
(lp4218
g49
ag544
aa(lp4219
g50
ag538
aa(lp4220
g51
ag133
aa(lp4221
g52
ag537
aa(lp4222
g53
ag77
aa(lp4223
g54
ag202
aa(lp4224
g55
ag97
aa(lp4225
g56
ag78
aa(lp4226
g57
ag126
aa(lp4227
g58
ag81
aa(lp4228
g59
ag96
aatp4229
Rp4230
ag2452
((lp4231
(lp4232
g49
ag2070
aa(lp4233
g50
ag2064
aa(lp4234
g51
ag73
aa(lp4235
g52
ag537
aa(lp4236
g53
ag77
aa(lp4237
g54
ag202
aa(lp4238
g55
ag97
aa(lp4239
g56
ag78
aa(lp4240
g57
ag126
aa(lp4241
g58
ag81
aa(lp4242
g59
ag96
aatp4243
Rp4244
ag2452
((lp4245
(lp4246
g49
ag2096
aa(lp4247
g50
ag2090
aa(lp4248
g51
ag193
aa(lp4249
g52
ag292
aa(lp4250
g53
ag77
aa(lp4251
g54
ag106
aa(lp4252
g55
ag97
aa(lp4253
g56
ag98
aa(lp4254
g57
ag107
aa(lp4255
g58
ag81
aa(lp4256
g59
ag96
aatp4257
Rp4258
ag2452
((lp4259
(lp4260
g49
ag299
aa(lp4261
g50
ag293
aa(lp4262
g51
ag114
aa(lp4263
g52
ag292
aa(lp4264
g53
ag77
aa(lp4265
g54
ag106
aa(lp4266
g55
ag97
aa(lp4267
g56
ag98
aa(lp4268
g57
ag107
aa(lp4269
g58
ag81
aa(lp4270
g59
ag96
aatp4271
Rp4272
ag2452
((lp4273
(lp4274
g49
ag905
aa(lp4275
g50
ag899
aa(lp4276
g51
ag133
aa(lp4277
g52
ag292
aa(lp4278
g53
ag77
aa(lp4279
g54
ag106
aa(lp4280
g55
ag97
aa(lp4281
g56
ag98
aa(lp4282
g57
ag107
aa(lp4283
g58
ag81
aa(lp4284
g59
ag96
aatp4285
Rp4286
ag2452
((lp4287
(lp4288
g49
ag679
aa(lp4289
g50
ag673
aa(lp4290
g51
ag73
aa(lp4291
g52
ag292
aa(lp4292
g53
ag77
aa(lp4293
g54
ag106
aa(lp4294
g55
ag97
aa(lp4295
g56
ag98
aa(lp4296
g57
ag107
aa(lp4297
g58
ag81
aa(lp4298
g59
ag96
aatp4299
Rp4300
ag2452
((lp4301
(lp4302
g49
ag719
aa(lp4303
g50
ag713
aa(lp4304
g51
ag193
aa(lp4305
g52
ag712
aa(lp4306
g53
ag77
aa(lp4307
g54
ag125
aa(lp4308
g55
ag97
aa(lp4309
g56
ag98
aa(lp4310
g57
ag126
aa(lp4311
g58
ag81
aa(lp4312
g59
ag96
aatp4313
Rp4314
ag2452
((lp4315
(lp4316
g49
ag1420
aa(lp4317
g50
ag1414
aa(lp4318
g51
ag114
aa(lp4319
g52
ag712
aa(lp4320
g53
ag77
aa(lp4321
g54
ag125
aa(lp4322
g55
ag97
aa(lp4323
g56
ag98
aa(lp4324
g57
ag126
aa(lp4325
g58
ag81
aa(lp4326
g59
ag96
aatp4327
Rp4328
ag2452
((lp4329
(lp4330
g49
ag2278
aa(lp4331
g50
ag2272
aa(lp4332
g51
ag133
aa(lp4333
g52
ag712
aa(lp4334
g53
ag77
aa(lp4335
g54
ag125
aa(lp4336
g55
ag97
aa(lp4337
g56
ag98
aa(lp4338
g57
ag126
aa(lp4339
g58
ag81
aa(lp4340
g59
ag96
aatp4341
Rp4342
ag2452
((lp4343
(lp4344
g49
ag1797
aa(lp4345
g50
ag1791
aa(lp4346
g51
ag73
aa(lp4347
g52
ag712
aa(lp4348
g53
ag77
aa(lp4349
g54
ag125
aa(lp4350
g55
ag97
aa(lp4351
g56
ag98
aa(lp4352
g57
ag126
aa(lp4353
g58
ag81
aa(lp4354
g59
ag96
aatp4355
Rp4356
ag2452
((lp4357
(lp4358
g49
ag585
aa(lp4359
g50
ag579
aa(lp4360
g51
ag193
aa(lp4361
g52
ag578
aa(lp4362
g53
ag77
aa(lp4363
g54
ag143
aa(lp4364
g55
ag119
aa(lp4365
g56
ag136
aa(lp4366
g57
ag144
aa(lp4367
g58
ag81
aa(lp4368
g59
ag180
aatp4369
Rp4370
ag2452
((lp4371
(lp4372
g49
ag1784
aa(lp4373
g50
ag1778
aa(lp4374
g51
ag114
aa(lp4375
g52
ag578
aa(lp4376
g53
ag77
aa(lp4377
g54
ag143
aa(lp4378
g55
ag119
aa(lp4379
g56
ag136
aa(lp4380
g57
ag144
aa(lp4381
g58
ag81
aa(lp4382
g59
ag180
aatp4383
Rp4384
ag2452
((lp4385
(lp4386
g49
ag2369
aa(lp4387
g50
ag2363
aa(lp4388
g51
ag133
aa(lp4389
g52
ag578
aa(lp4390
g53
ag77
aa(lp4391
g54
ag143
aa(lp4392
g55
ag119
aa(lp4393
g56
ag136
aa(lp4394
g57
ag144
aa(lp4395
g58
ag81
aa(lp4396
g59
ag180
aatp4397
Rp4398
ag2452
((lp4399
(lp4400
g49
ag1354
aa(lp4401
g50
ag1348
aa(lp4402
g51
ag73
aa(lp4403
g52
ag578
aa(lp4404
g53
ag77
aa(lp4405
g54
ag143
aa(lp4406
g55
ag119
aa(lp4407
g56
ag136
aa(lp4408
g57
ag144
aa(lp4409
g58
ag81
aa(lp4410
g59
ag180
aatp4411
Rp4412
ag2452
((lp4413
(lp4414
g49
ag1157
aa(lp4415
g50
ag1151
aa(lp4416
g51
ag193
aa(lp4417
g52
ag333
aa(lp4418
g53
ag77
aa(lp4419
g54
ag86
aa(lp4420
g55
ag119
aa(lp4421
g56
ag78
aa(lp4422
g57
ag87
aa(lp4423
g58
ag81
aa(lp4424
g59
ag180
aatp4425
Rp4426
ag2452
((lp4427
(lp4428
g49
ag340
aa(lp4429
g50
ag334
aa(lp4430
g51
ag114
aa(lp4431
g52
ag333
aa(lp4432
g53
ag77
aa(lp4433
g54
ag86
aa(lp4434
g55
ag119
aa(lp4435
g56
ag78
aa(lp4436
g57
ag87
aa(lp4437
g58
ag81
aa(lp4438
g59
ag180
aatp4439
Rp4440
ag2452
((lp4441
(lp4442
g49
ag490
aa(lp4443
g50
ag484
aa(lp4444
g51
ag133
aa(lp4445
g52
ag333
aa(lp4446
g53
ag77
aa(lp4447
g54
ag86
aa(lp4448
g55
ag119
aa(lp4449
g56
ag78
aa(lp4450
g57
ag87
aa(lp4451
g58
ag81
aa(lp4452
g59
ag180
aatp4453
Rp4454
ag2452
((lp4455
(lp4456
g49
ag918
aa(lp4457
g50
ag912
aa(lp4458
g51
ag73
aa(lp4459
g52
ag333
aa(lp4460
g53
ag77
aa(lp4461
g54
ag86
aa(lp4462
g55
ag119
aa(lp4463
g56
ag78
aa(lp4464
g57
ag87
aa(lp4465
g58
ag81
aa(lp4466
g59
ag180
aatp4467
Rp4468
ag2452
((lp4469
(lp4470
g49
ag2174
aa(lp4471
g50
ag2168
aa(lp4472
g51
ag193
aa(lp4473
g52
ag1046
aa(lp4474
g53
ag77
aa(lp4475
g54
ag202
aa(lp4476
g55
ag119
aa(lp4477
g56
ag78
aa(lp4478
g57
ag126
aa(lp4479
g58
ag81
aa(lp4480
g59
ag180
aatp4481
Rp4482
ag2452
((lp4483
(lp4484
g49
ag1693
aa(lp4485
g50
ag1687
aa(lp4486
g51
ag114
aa(lp4487
g52
ag1046
aa(lp4488
g53
ag77
aa(lp4489
g54
ag202
aa(lp4490
g55
ag119
aa(lp4491
g56
ag78
aa(lp4492
g57
ag126
aa(lp4493
g58
ag81
aa(lp4494
g59
ag180
aatp4495
Rp4496
ag2452
((lp4497
(lp4498
g49
ag1053
aa(lp4499
g50
ag1047
aa(lp4500
g51
ag133
aa(lp4501
g52
ag1046
aa(lp4502
g53
ag77
aa(lp4503
g54
ag202
aa(lp4504
g55
ag119
aa(lp4505
g56
ag78
aa(lp4506
g57
ag126
aa(lp4507
g58
ag81
aa(lp4508
g59
ag180
aatp4509
Rp4510
ag2452
((lp4511
(lp4512
g49
ag1276
aa(lp4513
g50
ag1270
aa(lp4514
g51
ag73
aa(lp4515
g52
ag1046
aa(lp4516
g53
ag77
aa(lp4517
g54
ag202
aa(lp4518
g55
ag119
aa(lp4519
g56
ag78
aa(lp4520
g57
ag126
aa(lp4521
g58
ag81
aa(lp4522
g59
ag180
aatp4523
Rp4524
ag2452
((lp4525
(lp4526
g49
ag1953
aa(lp4527
g50
ag1947
aa(lp4528
g51
ag193
aa(lp4529
g52
ag646
aa(lp4530
g53
ag77
aa(lp4531
g54
ag106
aa(lp4532
g55
ag119
aa(lp4533
g56
ag98
aa(lp4534
g57
ag107
aa(lp4535
g58
ag81
aa(lp4536
g59
ag180
aatp4537
Rp4538
ag2452
((lp4539
(lp4540
g49
ag653
aa(lp4541
g50
ag647
aa(lp4542
g51
ag114
aa(lp4543
g52
ag646
aa(lp4544
g53
ag77
aa(lp4545
g54
ag106
aa(lp4546
g55
ag119
aa(lp4547
g56
ag98
aa(lp4548
g57
ag107
aa(lp4549
g58
ag81
aa(lp4550
g59
ag180
aatp4551
Rp4552
ag2452
((lp4553
(lp4554
g49
ag1836
aa(lp4555
g50
ag1830
aa(lp4556
g51
ag133
aa(lp4557
g52
ag646
aa(lp4558
g53
ag77
aa(lp4559
g54
ag106
aa(lp4560
g55
ag119
aa(lp4561
g56
ag98
aa(lp4562
g57
ag107
aa(lp4563
g58
ag81
aa(lp4564
g59
ag180
aatp4565
Rp4566
ag2452
((lp4567
(lp4568
g49
ag1992
aa(lp4569
g50
ag1986
aa(lp4570
g51
ag73
aa(lp4571
g52
ag646
aa(lp4572
g53
ag77
aa(lp4573
g54
ag106
aa(lp4574
g55
ag119
aa(lp4575
g56
ag98
aa(lp4576
g57
ag107
aa(lp4577
g58
ag81
aa(lp4578
g59
ag180
aatp4579
Rp4580
ag2452
((lp4581
(lp4582
g49
ag1184
aa(lp4583
g50
ag1178
aa(lp4584
g51
ag193
aa(lp4585
g52
ag551
aa(lp4586
g53
ag77
aa(lp4587
g54
ag125
aa(lp4588
g55
ag119
aa(lp4589
g56
ag98
aa(lp4590
g57
ag126
aa(lp4591
g58
ag81
aa(lp4592
g59
ag180
aatp4593
Rp4594
ag2452
((lp4595
(lp4596
g49
ag1823
aa(lp4597
g50
ag1817
aa(lp4598
g51
ag114
aa(lp4599
g52
ag551
aa(lp4600
g53
ag77
aa(lp4601
g54
ag125
aa(lp4602
g55
ag119
aa(lp4603
g56
ag98
aa(lp4604
g57
ag126
aa(lp4605
g58
ag81
aa(lp4606
g59
ag180
aatp4607
Rp4608
ag2452
((lp4609
(lp4610
g49
ag558
aa(lp4611
g50
ag552
aa(lp4612
g51
ag133
aa(lp4613
g52
ag551
aa(lp4614
g53
ag77
aa(lp4615
g54
ag125
aa(lp4616
g55
ag119
aa(lp4617
g56
ag98
aa(lp4618
g57
ag126
aa(lp4619
g58
ag81
aa(lp4620
g59
ag180
aatp4621
Rp4622
ag2452
((lp4623
(lp4624
g49
ag2265
aa(lp4625
g50
ag2259
aa(lp4626
g51
ag73
aa(lp4627
g52
ag551
aa(lp4628
g53
ag77
aa(lp4629
g54
ag125
aa(lp4630
g55
ag119
aa(lp4631
g56
ag98
aa(lp4632
g57
ag126
aa(lp4633
g58
ag81
aa(lp4634
g59
ag180
aatp4635
Rp4636
ag2452
((lp4637
(lp4638
g49
ag692
aa(lp4639
g50
ag686
aa(lp4640
g51
ag193
aa(lp4641
g52
ag72
aa(lp4642
g53
ag77
aa(lp4643
g54
ag86
aa(lp4644
g55
ag77
aa(lp4645
g56
ag78
aa(lp4646
g57
ag87
aa(lp4647
g58
ag81
aa(lp4648
g59
ag76
aatp4649
Rp4650
ag2452
((lp4651
(lp4652
g49
ag999
aa(lp4653
g50
ag993
aa(lp4654
g51
ag114
aa(lp4655
g52
ag72
aa(lp4656
g53
ag77
aa(lp4657
g54
ag86
aa(lp4658
g55
ag77
aa(lp4659
g56
ag78
aa(lp4660
g57
ag87
aa(lp4661
g58
ag81
aa(lp4662
g59
ag76
aatp4663
Rp4664
ag2452
((lp4665
(lp4666
g49
ag1576
aa(lp4667
g50
ag1570
aa(lp4668
g51
ag133
aa(lp4669
g52
ag72
aa(lp4670
g53
ag77
aa(lp4671
g54
ag86
aa(lp4672
g55
ag77
aa(lp4673
g56
ag78
aa(lp4674
g57
ag87
aa(lp4675
g58
ag81
aa(lp4676
g59
ag76
aatp4677
Rp4678
ag2452
((lp4679
(lp4680
g49
ag84
aa(lp4681
g50
ag74
aa(lp4682
g51
ag73
aa(lp4683
g52
ag72
aa(lp4684
g53
ag77
aa(lp4685
g54
ag86
aa(lp4686
g55
ag77
aa(lp4687
g56
ag78
aa(lp4688
g57
ag87
aa(lp4689
g58
ag81
aa(lp4690
g59
ag76
aatp4691
Rp4692
ag2452
((lp4693
(lp4694
g49
ag1407
aa(lp4695
g50
ag1401
aa(lp4696
g51
ag193
aa(lp4697
g52
ag1256
aa(lp4698
g53
ag77
aa(lp4699
g54
ag202
aa(lp4700
g55
ag77
aa(lp4701
g56
ag78
aa(lp4702
g57
ag126
aa(lp4703
g58
ag81
aa(lp4704
g59
ag76
aatp4705
Rp4706
ag2452
((lp4707
(lp4708
g49
ag2343
aa(lp4709
g50
ag2337
aa(lp4710
g51
ag114
aa(lp4711
g52
ag1256
aa(lp4712
g53
ag77
aa(lp4713
g54
ag202
aa(lp4714
g55
ag77
aa(lp4715
g56
ag78
aa(lp4716
g57
ag126
aa(lp4717
g58
ag81
aa(lp4718
g59
ag76
aatp4719
Rp4720
ag2452
((lp4721
(lp4722
g49
ag1263
aa(lp4723
g50
ag1257
aa(lp4724
g51
ag133
aa(lp4725
g52
ag1256
aa(lp4726
g53
ag77
aa(lp4727
g54
ag202
aa(lp4728
g55
ag77
aa(lp4729
g56
ag78
aa(lp4730
g57
ag126
aa(lp4731
g58
ag81
aa(lp4732
g59
ag76
aatp4733
Rp4734
ag2452
((lp4735
(lp4736
g49
ag1667
aa(lp4737
g50
ag1661
aa(lp4738
g51
ag73
aa(lp4739
g52
ag1256
aa(lp4740
g53
ag77
aa(lp4741
g54
ag202
aa(lp4742
g55
ag77
aa(lp4743
g56
ag78
aa(lp4744
g57
ag126
aa(lp4745
g58
ag81
aa(lp4746
g59
ag76
aatp4747
Rp4748
ag2452
((lp4749
(lp4750
g49
ag1966
aa(lp4751
g50
ag1960
aa(lp4752
g51
ag193
aa(lp4753
g52
ag430
aa(lp4754
g53
ag77
aa(lp4755
g54
ag106
aa(lp4756
g55
ag77
aa(lp4757
g56
ag98
aa(lp4758
g57
ag107
aa(lp4759
g58
ag81
aa(lp4760
g59
ag76
aatp4761
Rp4762
ag2452
((lp4763
(lp4764
g49
ag1745
aa(lp4765
g50
ag1739
aa(lp4766
g51
ag114
aa(lp4767
g52
ag430
aa(lp4768
g53
ag77
aa(lp4769
g54
ag106
aa(lp4770
g55
ag77
aa(lp4771
g56
ag98
aa(lp4772
g57
ag107
aa(lp4773
g58
ag81
aa(lp4774
g59
ag76
aatp4775
Rp4776
ag2452
((lp4777
(lp4778
g49
ag437
aa(lp4779
g50
ag431
aa(lp4780
g51
ag133
aa(lp4781
g52
ag430
aa(lp4782
g53
ag77
aa(lp4783
g54
ag106
aa(lp4784
g55
ag77
aa(lp4785
g56
ag98
aa(lp4786
g57
ag107
aa(lp4787
g58
ag81
aa(lp4788
g59
ag76
aatp4789
Rp4790
ag2452
((lp4791
(lp4792
g49
ag463
aa(lp4793
g50
ag457
aa(lp4794
g51
ag73
aa(lp4795
g52
ag430
aa(lp4796
g53
ag77
aa(lp4797
g54
ag106
aa(lp4798
g55
ag77
aa(lp4799
g56
ag98
aa(lp4800
g57
ag107
aa(lp4801
g58
ag81
aa(lp4802
g59
ag76
aatp4803
Rp4804
ag2452
((lp4805
(lp4806
g49
ag1394
aa(lp4807
g50
ag1388
aa(lp4808
g51
ag193
aa(lp4809
g52
ag1387
aa(lp4810
g53
ag77
aa(lp4811
g54
ag125
aa(lp4812
g55
ag77
aa(lp4813
g56
ag98
aa(lp4814
g57
ag126
aa(lp4815
g58
ag81
aa(lp4816
g59
ag76
aatp4817
Rp4818
ag2452
((lp4819
(lp4820
g49
ag1849
aa(lp4821
g50
ag1843
aa(lp4822
g51
ag114
aa(lp4823
g52
ag1387
aa(lp4824
g53
ag77
aa(lp4825
g54
ag125
aa(lp4826
g55
ag77
aa(lp4827
g56
ag98
aa(lp4828
g57
ag126
aa(lp4829
g58
ag81
aa(lp4830
g59
ag76
aatp4831
Rp4832
ag2452
((lp4833
(lp4834
g49
ag1732
aa(lp4835
g50
ag1726
aa(lp4836
g51
ag133
aa(lp4837
g52
ag1387
aa(lp4838
g53
ag77
aa(lp4839
g54
ag125
aa(lp4840
g55
ag77
aa(lp4841
g56
ag98
aa(lp4842
g57
ag126
aa(lp4843
g58
ag81
aa(lp4844
g59
ag76
aatp4845
Rp4846
ag2452
((lp4847
(lp4848
g49
ag2044
aa(lp4849
g50
ag2038
aa(lp4850
g51
ag73
aa(lp4851
g52
ag1387
aa(lp4852
g53
ag77
aa(lp4853
g54
ag125
aa(lp4854
g55
ag77
aa(lp4855
g56
ag98
aa(lp4856
g57
ag126
aa(lp4857
g58
ag81
aa(lp4858
g59
ag76
aatp4859
Rp4860
asS'seed'
p4861
NsS'thisIndex'
p4862
g2362
sS'thisN'
p4863
I172
sS'thisTrialN'
p4864
I0
sS'nTotal'
p4865
I172
sbasS'savePickle'
p4866
I00
sb.