ccopy_reg
_reconstructor
p0
(cpsychopy.data.experiment
ExperimentHandler
p1
c__builtin__
object
p2
Ntp3
Rp4
(dp5
S'originPath'
p6
V/Users/stefano/GitHub/phd-project/italian-egg/experiment/italian-egg.psyexp
p7
sS'dataFileName'
p8
V/Users/stefano/GitHub/phd-project/italian-egg/experiment/results/it18_italian-egg_2018_Sep_09_2025
p9
sS'runtimeInfo'
p10
NsS'name'
p11
S'italian-egg'
p12
sS'dataNames'
p13
(lp14
S'key_resp_2.keys'
p15
aS'key_resp_2.rt'
p16
asS'autoLog'
p17
I01
sS'extraInfo'
p18
(dp19
S'date'
p20
V2018_Sep_09_2025
p21
sS'frameRate'
p22
cnumpy.core.multiarray
scalar
p23
(cnumpy
dtype
p24
(S'f8'
p25
I0
I1
tp26
Rp27
(I3
S'<'
p28
NNNI-1
I-1
I0
tp29
bS'lK\x88\x98\xdbMN@'
p30
tp31
Rp32
sS'expName'
p33
g12
sVparticipant
p34
g0
(cfuture.types.newstr
newstr
p35
c__builtin__
unicode
p36
Vit18
p37
tp38
Rp39
ssS'loopsUnfinished'
p40
(lp41
sS'saveWideText'
p42
I00
sS'thisEntry'
p43
(dp44
sS'version'
p45
S''
p46
sS'_paramNamesSoFar'
p47
(lp48
Vstimulus_id
p49
aVstimulus
p50
aVsentence
p51
aVword
p52
aVconsonant_1
p53
aVvowel
p54
aVconsonant_2
p55
aVbackness
p56
aVheight
p57
aVplace_1
p58
aVplace_2
p59
asS'entries'
p60
(lp61
(dp62
S'trials.thisIndex'
p63
g23
(g24
(S'i8'
p64
I0
I1
tp65
Rp66
(I3
S'<'
p67
NNNI-1
I-1
I0
tp68
bS'\t\x00\x00\x00\x00\x00\x00\x00'
p69
tp70
Rp71
sg16
F11.789183139801025
sg22
g32
sg52
Vpipo
p72
sg51
VHa detto X sei volte
p73
sg50
VHa detto "pipo" sei volte
p74
sS'trials.thisRepN'
p75
I0
sg59
Vlabial
p76
sg55
Vp
p77
sg56
Vfront
p78
sg15
S'space'
p79
sS'trials.thisN'
p80
I0
sg53
g77
sg58
Vlabial
p81
sg49
g23
(g66
S'\n\x00\x00\x00\x00\x00\x00\x00'
p82
tp83
Rp84
sS'trials.thisTrialN'
p85
I0
sg54
Vi
p86
sg20
g21
sg34
g39
sg57
Vhigh
p87
sg33
g12
sa(dp88
S'trials.thisIndex'
p89
g23
(g66
S'\x04\x00\x00\x00\x00\x00\x00\x00'
p90
tp91
Rp92
sg16
F2.037415027618408
sg22
g32
sg52
Vpepo
p93
sg51
VScrivete X sul foglio
p94
sg50
VScrivete "pepo" sul foglio
p95
sS'trials.thisRepN'
p96
I0
sg59
g76
sg55
g77
sg56
g78
sg15
S'space'
p97
sS'trials.thisN'
p98
I1
sg53
g77
sg58
g81
sg49
g23
(g66
S'\x05\x00\x00\x00\x00\x00\x00\x00'
p99
tp100
Rp101
sS'trials.thisTrialN'
p102
I1
sg54
Ve
p103
sg20
g21
sg34
g39
sg57
Vmid-high
p104
sg33
g12
sa(dp105
S'trials.thisIndex'
p106
g23
(g66
S'j\x00\x00\x00\x00\x00\x00\x00'
p107
tp108
Rp109
sg16
F1.4831829071044922
sg22
g32
sg52
Vtico
p110
sg51
VSentivo X di nuovo
p111
sg50
VSentivo "tico" di nuovo
p112
sS'trials.thisRepN'
p113
I0
sg59
Vvelar
p114
sg55
Vk
p115
sg56
g78
sg15
S'space'
p116
sS'trials.thisN'
p117
I2
sg53
Vt
p118
sg58
Vcoronal
p119
sg49
g23
(g66
S'k\x00\x00\x00\x00\x00\x00\x00'
p120
tp121
Rp122
sS'trials.thisTrialN'
p123
I2
sg54
g86
sg20
g21
sg34
g39
sg57
g87
sg33
g12
sa(dp124
S'trials.thisIndex'
p125
g23
(g66
S'$\x00\x00\x00\x00\x00\x00\x00'
p126
tp127
Rp128
sg16
F1.603166103363037
sg22
g32
sg52
Vpaco
p129
sg51
g94
sg50
VScrivete "paco" sul foglio
p130
sS'trials.thisRepN'
p131
I0
sg59
g114
sg55
g115
sg56
Vcentral
p132
sg15
S'space'
p133
sS'trials.thisN'
p134
I3
sg53
g77
sg58
g81
sg49
g23
(g66
S'%\x00\x00\x00\x00\x00\x00\x00'
p135
tp136
Rp137
sS'trials.thisTrialN'
p138
I3
sg54
Va
p139
sg20
g21
sg34
g39
sg57
Vlow
p140
sg33
g12
sa(dp141
S'trials.thisIndex'
p142
g23
(g66
S'C\x00\x00\x00\x00\x00\x00\x00'
p143
tp144
Rp145
sg16
F1.6543240547180176
sg22
g32
sg52
Vtipo
p146
sg51
VRipete X da sempre
p147
sg50
VRipete "tipo" da sempre
p148
sS'trials.thisRepN'
p149
I0
sg59
g76
sg55
g77
sg56
g78
sg15
S'space'
p150
sS'trials.thisN'
p151
I4
sg53
g118
sg58
g119
sg49
g23
(g66
S'D\x00\x00\x00\x00\x00\x00\x00'
p152
tp153
Rp154
sS'trials.thisTrialN'
p155
I4
sg54
g86
sg20
g21
sg34
g39
sg57
g87
sg33
g12
sa(dp156
S'trials.thisIndex'
p157
g23
(g66
S'\xa6\x00\x00\x00\x00\x00\x00\x00'
p158
tp159
Rp160
sg16
F1.4529109001159668
sg22
g32
sg52
Vcoco
p161
sg51
g111
sg50
VSentivo "coco" di nuovo
p162
sS'trials.thisRepN'
p163
I0
sg59
g114
sg55
g115
sg56
Vback
p164
sg15
S'space'
p165
sS'trials.thisN'
p166
I5
sg53
g115
sg58
Vvelar
p167
sg49
g23
(g66
S'\xa7\x00\x00\x00\x00\x00\x00\x00'
p168
tp169
Rp170
sS'trials.thisTrialN'
p171
I5
sg54
Vo
p172
sg20
g21
sg34
g39
sg57
Vmid-low
p173
sg33
g12
sa(dp174
S'trials.thisIndex'
p175
g23
(g66
S'y\x00\x00\x00\x00\x00\x00\x00'
p176
tp177
Rp178
sg16
F1.7531630992889404
sg22
g32
sg52
Vchepo
p179
sg51
g73
sg50
VHa detto "chepo" sei volte
p180
sS'trials.thisRepN'
p181
I0
sg59
g76
sg55
g77
sg56
g78
sg15
S'space'
p182
sS'trials.thisN'
p183
I6
sg53
g115
sg58
g167
sg49
g23
(g66
S'z\x00\x00\x00\x00\x00\x00\x00'
p184
tp185
Rp186
sS'trials.thisTrialN'
p187
I6
sg54
g103
sg20
g21
sg34
g39
sg57
g104
sg33
g12
sa(dp188
S'trials.thisIndex'
p189
g23
(g66
S'\x01\x00\x00\x00\x00\x00\x00\x00'
p190
tp191
Rp192
sg16
F2.4363842010498047
sg22
g32
sg52
Vpapo
p193
sg51
g73
sg50
VHa detto "papo" sei volte
p194
sS'trials.thisRepN'
p195
I0
sg59
g76
sg55
g77
sg56
g132
sg15
S'space'
p196
sS'trials.thisN'
p197
I7
sg53
g77
sg58
g81
sg49
g23
(g66
S'\x02\x00\x00\x00\x00\x00\x00\x00'
p198
tp199
Rp200
sS'trials.thisTrialN'
p201
I7
sg54
g139
sg20
g21
sg34
g39
sg57
g140
sg33
g12
sa(dp202
S'trials.thisIndex'
p203
g23
(g66
S'e\x00\x00\x00\x00\x00\x00\x00'
p204
tp205
Rp206
sg16
F1.903986930847168
sg22
g32
sg52
Vteco
p207
sg51
g73
sg50
VHa detto "teco" sei volte
p208
sS'trials.thisRepN'
p209
I0
sg59
g114
sg55
g115
sg56
g78
sg15
S'space'
p210
sS'trials.thisN'
p211
I8
sg53
g118
sg58
g119
sg49
g23
(g66
S'f\x00\x00\x00\x00\x00\x00\x00'
p212
tp213
Rp214
sS'trials.thisTrialN'
p215
I8
sg54
g103
sg20
g21
sg34
g39
sg57
g104
sg33
g12
sa(dp216
S'trials.thisIndex'
p217
g23
(g66
S'J\x00\x00\x00\x00\x00\x00\x00'
p218
tp219
Rp220
sg16
F1.7344520092010498
sg22
g32
sg52
Vtupo
p221
sg51
g111
sg50
VSentivo "tupo" di nuovo
p222
sS'trials.thisRepN'
p223
I0
sg59
g76
sg55
g77
sg56
g164
sg15
S'space'
p224
sS'trials.thisN'
p225
I9
sg53
g118
sg58
g119
sg49
g23
(g66
S'K\x00\x00\x00\x00\x00\x00\x00'
p226
tp227
Rp228
sS'trials.thisTrialN'
p229
I9
sg54
Vu
p230
sg20
g21
sg34
g39
sg57
g87
sg33
g12
sa(dp231
S'trials.thisIndex'
p232
g23
(g66
S'\r\x00\x00\x00\x00\x00\x00\x00'
p233
tp234
Rp235
sg16
F1.785891056060791
sg22
g32
sg52
Vpopo
p236
sg51
g73
sg50
VHa detto "popo" sei volte
p237
sS'trials.thisRepN'
p238
I0
sg59
g76
sg55
g77
sg56
g164
sg15
S'space'
p239
sS'trials.thisN'
p240
I10
sg53
g77
sg58
g81
sg49
g23
(g66
S'\x0e\x00\x00\x00\x00\x00\x00\x00'
p241
tp242
Rp243
sS'trials.thisTrialN'
p244
I10
sg54
g172
sg20
g21
sg34
g39
sg57
g173
sg33
g12
sa(dp245
S'trials.thisIndex'
p246
g23
(g66
S'<\x00\x00\x00\x00\x00\x00\x00'
p247
tp248
Rp249
sg16
F1.8855109214782715
sg22
g32
sg52
Vtepo
p250
sg51
g94
sg50
VScrivete "tepo" sul foglio
p251
sS'trials.thisRepN'
p252
I0
sg59
g76
sg55
g77
sg56
g78
sg15
S'space'
p253
sS'trials.thisN'
p254
I11
sg53
g118
sg58
g119
sg49
g23
(g66
S'=\x00\x00\x00\x00\x00\x00\x00'
p255
tp256
Rp257
sS'trials.thisTrialN'
p258
I11
sg54
g103
sg20
g21
sg34
g39
sg57
g104
sg33
g12
sa(dp259
S'trials.thisIndex'
p260
g23
(g66
S'\x15\x00\x00\x00\x00\x00\x00\x00'
p261
tp262
Rp263
sg16
F1.669485092163086
sg22
g32
sg52
Vpato
p264
sg51
g73
sg50
VHa detto "pato" sei volte
p265
sS'trials.thisRepN'
p266
I0
sg59
Vcoronal
p267
sg55
g118
sg56
g132
sg15
S'space'
p268
sS'trials.thisN'
p269
I12
sg53
g77
sg58
g81
sg49
g23
(g66
S'\x16\x00\x00\x00\x00\x00\x00\x00'
p270
tp271
Rp272
sS'trials.thisTrialN'
p273
I12
sg54
g139
sg20
g21
sg34
g39
sg57
g140
sg33
g12
sa(dp274
S'trials.thisIndex'
p275
g23
(g66
S'M\x00\x00\x00\x00\x00\x00\x00'
p276
tp277
Rp278
sg16
F1.8369500637054443
sg22
g32
sg52
Vtato
p279
sg51
g73
sg50
VHa detto "tato" sei volte
p280
sS'trials.thisRepN'
p281
I0
sg59
g267
sg55
g118
sg56
g132
sg15
S'space'
p282
sS'trials.thisN'
p283
I13
sg53
g118
sg58
g119
sg49
g23
(g66
S'N\x00\x00\x00\x00\x00\x00\x00'
p284
tp285
Rp286
sS'trials.thisTrialN'
p287
I13
sg54
g139
sg20
g21
sg34
g39
sg57
g140
sg33
g12
sa(dp288
S'trials.thisIndex'
p289
g23
(g66
S'r\x00\x00\x00\x00\x00\x00\x00'
p290
tp291
Rp292
sg16
F1.6693239212036133
sg22
g32
sg52
Vtuco
p293
sg51
g111
sg50
VSentivo "tuco" di nuovo
p294
sS'trials.thisRepN'
p295
I0
sg59
g114
sg55
g115
sg56
g164
sg15
S'space'
p296
sS'trials.thisN'
p297
I14
sg53
g118
sg58
g119
sg49
g23
(g66
S's\x00\x00\x00\x00\x00\x00\x00'
p298
tp299
Rp300
sS'trials.thisTrialN'
p301
I14
sg54
g230
sg20
g21
sg34
g39
sg57
g87
sg33
g12
sa(dp302
S'trials.thisIndex'
p303
g23
(g66
S'\xa9\x00\x00\x00\x00\x00\x00\x00'
p304
tp305
Rp306
sg16
F1.804197072982788
sg22
g32
sg52
Vcuco
p307
sg51
g73
sg50
VHa detto "cuco" sei volte
p308
sS'trials.thisRepN'
p309
I0
sg59
g114
sg55
g115
sg56
g164
sg15
S'space'
p310
sS'trials.thisN'
p311
I15
sg53
g115
sg58
g167
sg49
g23
(g66
S'\xaa\x00\x00\x00\x00\x00\x00\x00'
p312
tp313
Rp314
sS'trials.thisTrialN'
p315
I15
sg54
g230
sg20
g21
sg34
g39
sg57
g87
sg33
g12
sa(dp316
S'trials.thisIndex'
p317
g23
(g66
S'\x85\x00\x00\x00\x00\x00\x00\x00'
p318
tp319
Rp320
sg16
F1.687647819519043
sg22
g32
sg52
Vcupo
p321
sg51
g73
sg50
VHa detto "cupo" sei volte
p322
sS'trials.thisRepN'
p323
I0
sg59
g76
sg55
g77
sg56
g164
sg15
S'space'
p324
sS'trials.thisN'
p325
I16
sg53
g115
sg58
g167
sg49
g23
(g66
S'\x86\x00\x00\x00\x00\x00\x00\x00'
p326
tp327
Rp328
sS'trials.thisTrialN'
p329
I16
sg54
g230
sg20
g21
sg34
g39
sg57
g87
sg33
g12
sa(dp330
S'trials.thisIndex'
p331
g23
(g66
S'B\x00\x00\x00\x00\x00\x00\x00'
p332
tp333
Rp334
sg16
F1.7032990455627441
sg22
g32
sg52
g146
sg51
g111
sg50
VSentivo "tipo" di nuovo
p335
sS'trials.thisRepN'
p336
I0
sg59
g76
sg55
g77
sg56
g78
sg15
S'space'
p337
sS'trials.thisN'
p338
I17
sg53
g118
sg58
g119
sg49
g23
(g66
S'C\x00\x00\x00\x00\x00\x00\x00'
p339
tp340
Rp341
sS'trials.thisTrialN'
p342
I17
sg54
g86
sg20
g21
sg34
g39
sg57
g87
sg33
g12
sa(dp343
S'trials.thisIndex'
p344
g23
(g66
S'b\x00\x00\x00\x00\x00\x00\x00'
p345
tp346
Rp347
sg16
F1.5686781406402588
sg22
g32
sg52
Vtaco
p348
sg51
g111
sg50
VSentivo "taco" di nuovo
p349
sS'trials.thisRepN'
p350
I0
sg59
g114
sg55
g115
sg56
g132
sg15
S'space'
p351
sS'trials.thisN'
p352
I18
sg53
g118
sg58
g119
sg49
g23
(g66
S'c\x00\x00\x00\x00\x00\x00\x00'
p353
tp354
Rp355
sS'trials.thisTrialN'
p356
I18
sg54
g139
sg20
g21
sg34
g39
sg57
g140
sg33
g12
sa(dp357
S'trials.thisIndex'
p358
g23
(g66
S'8\x00\x00\x00\x00\x00\x00\x00'
p359
tp360
Rp361
sg16
F1.6702098846435547
sg22
g32
sg52
Vtapo
p362
sg51
g94
sg50
VScrivete "tapo" sul foglio
p363
sS'trials.thisRepN'
p364
I0
sg59
g76
sg55
g77
sg56
g132
sg15
S'space'
p365
sS'trials.thisN'
p366
I19
sg53
g118
sg58
g119
sg49
g23
(g66
S'9\x00\x00\x00\x00\x00\x00\x00'
p367
tp368
Rp369
sS'trials.thisTrialN'
p370
I19
sg54
g139
sg20
g21
sg34
g39
sg57
g140
sg33
g12
sa(dp371
S'trials.thisIndex'
p372
g23
(g66
S'\x13\x00\x00\x00\x00\x00\x00\x00'
p373
tp374
Rp375
sg16
F1.487973928451538
sg22
g32
sg52
Vpupo
p376
sg51
g147
sg50
VRipete "pupo" da sempre
p377
sS'trials.thisRepN'
p378
I0
sg59
g76
sg55
g77
sg56
g164
sg15
S'space'
p379
sS'trials.thisN'
p380
I20
sg53
g77
sg58
g81
sg49
g23
(g66
S'\x14\x00\x00\x00\x00\x00\x00\x00'
p381
tp382
Rp383
sS'trials.thisTrialN'
p384
I20
sg54
g230
sg20
g21
sg34
g39
sg57
g87
sg33
g12
sa(dp385
S'trials.thisIndex'
p386
g23
(g66
S'\x8d\x00\x00\x00\x00\x00\x00\x00'
p387
tp388
Rp389
sg16
F1.6354119777679443
sg22
g32
sg52
Vcheto
p390
sg51
g73
sg50
VHa detto "cheto" sei volte
p391
sS'trials.thisRepN'
p392
I0
sg59
g267
sg55
g118
sg56
g78
sg15
S'space'
p393
sS'trials.thisN'
p394
I21
sg53
g115
sg58
g167
sg49
g23
(g66
S'\x8e\x00\x00\x00\x00\x00\x00\x00'
p395
tp396
Rp397
sS'trials.thisTrialN'
p398
I21
sg54
g103
sg20
g21
sg34
g39
sg57
g104
sg33
g12
sa(dp399
S'trials.thisIndex'
p400
g23
(g66
S'\x82\x00\x00\x00\x00\x00\x00\x00'
p401
tp402
Rp403
sg16
F1.5371098518371582
sg22
g32
sg52
Vcopo
p404
sg51
g111
sg50
VSentivo "copo" di nuovo
p405
sS'trials.thisRepN'
p406
I0
sg59
g76
sg55
g77
sg56
g164
sg15
S'space'
p407
sS'trials.thisN'
p408
I22
sg53
g115
sg58
g167
sg49
g23
(g66
S'\x83\x00\x00\x00\x00\x00\x00\x00'
p409
tp410
Rp411
sS'trials.thisTrialN'
p412
I22
sg54
g172
sg20
g21
sg34
g39
sg57
g173
sg33
g12
sa(dp413
S'trials.thisIndex'
p414
g23
(g66
S'S\x00\x00\x00\x00\x00\x00\x00'
p415
tp416
Rp417
sg16
F1.7709009647369385
sg22
g32
sg52
Vteto
p418
sg51
g147
sg50
VRipete "teto" da sempre
p419
sS'trials.thisRepN'
p420
I0
sg59
g267
sg55
g118
sg56
g78
sg15
S'space'
p421
sS'trials.thisN'
p422
I23
sg53
g118
sg58
g119
sg49
g23
(g66
S'T\x00\x00\x00\x00\x00\x00\x00'
p423
tp424
Rp425
sS'trials.thisTrialN'
p426
I23
sg54
g103
sg20
g21
sg34
g39
sg57
g104
sg33
g12
sa(dp427
S'trials.thisIndex'
p428
g23
(g66
S'Q\x00\x00\x00\x00\x00\x00\x00'
p429
tp430
Rp431
sg16
F1.7028110027313232
sg22
g32
sg52
g418
sg51
g73
sg50
VHa detto "teto" sei volte
p432
sS'trials.thisRepN'
p433
I0
sg59
g267
sg55
g118
sg56
g78
sg15
S'space'
p434
sS'trials.thisN'
p435
I24
sg53
g118
sg58
g119
sg49
g23
(g66
S'R\x00\x00\x00\x00\x00\x00\x00'
p436
tp437
Rp438
sS'trials.thisTrialN'
p439
I24
sg54
g103
sg20
g21
sg34
g39
sg57
g104
sg33
g12
sa(dp440
S'trials.thisIndex'
p441
g23
(g66
S'_\x00\x00\x00\x00\x00\x00\x00'
p442
tp443
Rp444
sg16
F1.7026760578155518
sg22
g32
sg52
Vtuto
p445
sg51
g147
sg50
VRipete "tuto" da sempre
p446
sS'trials.thisRepN'
p447
I0
sg59
g267
sg55
g118
sg56
g164
sg15
S'space'
p448
sS'trials.thisN'
p449
I25
sg53
g118
sg58
g119
sg49
g23
(g66
S'`\x00\x00\x00\x00\x00\x00\x00'
p450
tp451
Rp452
sS'trials.thisTrialN'
p453
I25
sg54
g230
sg20
g21
sg34
g39
sg57
g87
sg33
g12
sa(dp454
S'trials.thisIndex'
p455
g23
(g66
S'a\x00\x00\x00\x00\x00\x00\x00'
p456
tp457
Rp458
sg16
F1.7855401039123535
sg22
g32
sg52
g348
sg51
g73
sg50
VHa detto "taco" sei volte
p459
sS'trials.thisRepN'
p460
I0
sg59
g114
sg55
g115
sg56
g132
sg15
S'space'
p461
sS'trials.thisN'
p462
I26
sg53
g118
sg58
g119
sg49
g23
(g66
S'b\x00\x00\x00\x00\x00\x00\x00'
p463
tp464
Rp465
sS'trials.thisTrialN'
p466
I26
sg54
g139
sg20
g21
sg34
g39
sg57
g140
sg33
g12
sa(dp467
S'trials.thisIndex'
p468
g23
(g66
S'h\x00\x00\x00\x00\x00\x00\x00'
p469
tp470
Rp471
sg16
F1.6852309703826904
sg22
g32
sg52
g110
sg51
g94
sg50
VScrivete "tico" sul foglio
p472
sS'trials.thisRepN'
p473
I0
sg59
g114
sg55
g115
sg56
g78
sg15
S'space'
p474
sS'trials.thisN'
p475
I27
sg53
g118
sg58
g119
sg49
g23
(g66
S'i\x00\x00\x00\x00\x00\x00\x00'
p476
tp477
Rp478
sS'trials.thisTrialN'
p479
I27
sg54
g86
sg20
g21
sg34
g39
sg57
g87
sg33
g12
sa(dp480
S'trials.thisIndex'
p481
g23
(g66
S'\x97\x00\x00\x00\x00\x00\x00\x00'
p482
tp483
Rp484
sg16
F1.7205910682678223
sg22
g32
sg52
Vcoto
p485
sg51
g147
sg50
VRipete "coto" da sempre
p486
sS'trials.thisRepN'
p487
I0
sg59
g267
sg55
g118
sg56
g164
sg15
S'space'
p488
sS'trials.thisN'
p489
I28
sg53
g115
sg58
g167
sg49
g23
(g66
S'\x98\x00\x00\x00\x00\x00\x00\x00'
p490
tp491
Rp492
sS'trials.thisTrialN'
p493
I28
sg54
g172
sg20
g21
sg34
g39
sg57
g173
sg33
g12
sa(dp494
S'trials.thisIndex'
p495
g23
(g66
S'A\x00\x00\x00\x00\x00\x00\x00'
p496
tp497
Rp498
sg16
F1.6689128875732422
sg22
g32
sg52
g146
sg51
g73
sg50
VHa detto "tipo" sei volte
p499
sS'trials.thisRepN'
p500
I0
sg59
g76
sg55
g77
sg56
g78
sg15
S'space'
p501
sS'trials.thisN'
p502
I29
sg53
g118
sg58
g119
sg49
g23
(g66
S'B\x00\x00\x00\x00\x00\x00\x00'
p503
tp504
Rp505
sS'trials.thisTrialN'
p506
I29
sg54
g86
sg20
g21
sg34
g39
sg57
g87
sg33
g12
sa(dp507
S'trials.thisIndex'
p508
g23
(g66
S'\x1a\x00\x00\x00\x00\x00\x00\x00'
p509
tp510
Rp511
sg16
F1.452430009841919
sg22
g32
sg52
Vpito
p512
sg51
g111
sg50
VSentivo "pito" di nuovo
p513
sS'trials.thisRepN'
p514
I0
sg59
g267
sg55
g118
sg56
g78
sg15
S'space'
p515
sS'trials.thisN'
p516
I30
sg53
g77
sg58
g81
sg49
g23
(g66
S'\x1b\x00\x00\x00\x00\x00\x00\x00'
p517
tp518
Rp519
sS'trials.thisTrialN'
p520
I30
sg54
g86
sg20
g21
sg34
g39
sg57
g87
sg33
g12
sa(dp521
S'trials.thisIndex'
p522
g23
(g66
S'\x1d\x00\x00\x00\x00\x00\x00\x00'
p523
tp524
Rp525
sg16
F1.6373579502105713
sg22
g32
sg52
Vpoto
p526
sg51
g73
sg50
VHa detto "poto" sei volte
p527
sS'trials.thisRepN'
p528
I0
sg59
g267
sg55
g118
sg56
g164
sg15
S'space'
p529
sS'trials.thisN'
p530
I31
sg53
g77
sg58
g81
sg49
g23
(g66
S'\x1e\x00\x00\x00\x00\x00\x00\x00'
p531
tp532
Rp533
sS'trials.thisTrialN'
p534
I31
sg54
g172
sg20
g21
sg34
g39
sg57
g173
sg33
g12
sa(dp535
S'trials.thisIndex'
p536
g23
(g66
S'p\x00\x00\x00\x00\x00\x00\x00'
p537
tp538
Rp539
sg16
F1.7185239791870117
sg22
g32
sg52
g293
sg51
g94
sg50
VScrivete "tuco" sul foglio
p540
sS'trials.thisRepN'
p541
I0
sg59
g114
sg55
g115
sg56
g164
sg15
S'space'
p542
sS'trials.thisN'
p543
I32
sg53
g118
sg58
g119
sg49
g23
(g66
S'q\x00\x00\x00\x00\x00\x00\x00'
p544
tp545
Rp546
sS'trials.thisTrialN'
p547
I32
sg54
g230
sg20
g21
sg34
g39
sg57
g87
sg33
g12
sa(dp548
S'trials.thisIndex'
p549
g23
(g66
S'\x99\x00\x00\x00\x00\x00\x00\x00'
p550
tp551
Rp552
sg16
F1.6690280437469482
sg22
g32
sg52
Vcuto
p553
sg51
g73
sg50
VHa detto "cuto" sei volte
p554
sS'trials.thisRepN'
p555
I0
sg59
g267
sg55
g118
sg56
g164
sg15
S'space'
p556
sS'trials.thisN'
p557
I33
sg53
g115
sg58
g167
sg49
g23
(g66
S'\x9a\x00\x00\x00\x00\x00\x00\x00'
p558
tp559
Rp560
sS'trials.thisTrialN'
p561
I33
sg54
g230
sg20
g21
sg34
g39
sg57
g87
sg33
g12
sa(dp562
S'trials.thisIndex'
p563
g23
(g66
S'c\x00\x00\x00\x00\x00\x00\x00'
p564
tp565
Rp566
sg16
F1.7195079326629639
sg22
g32
sg52
g348
sg51
g147
sg50
VRipete "taco" da sempre
p567
sS'trials.thisRepN'
p568
I0
sg59
g114
sg55
g115
sg56
g132
sg15
S'space'
p569
sS'trials.thisN'
p570
I34
sg53
g118
sg58
g119
sg49
g23
(g66
S'd\x00\x00\x00\x00\x00\x00\x00'
p571
tp572
Rp573
sS'trials.thisTrialN'
p574
I34
sg54
g139
sg20
g21
sg34
g39
sg57
g140
sg33
g12
sa(dp575
S'trials.thisIndex'
p576
g23
(g66
S'P\x00\x00\x00\x00\x00\x00\x00'
p577
tp578
Rp579
sg16
F1.8012170791625977
sg22
g32
sg52
g418
sg51
g94
sg50
VScrivete "teto" sul foglio
p580
sS'trials.thisRepN'
p581
I0
sg59
g267
sg55
g118
sg56
g78
sg15
S'space'
p582
sS'trials.thisN'
p583
I35
sg53
g118
sg58
g119
sg49
g23
(g66
S'Q\x00\x00\x00\x00\x00\x00\x00'
p584
tp585
Rp586
sS'trials.thisTrialN'
p587
I35
sg54
g103
sg20
g21
sg34
g39
sg57
g104
sg33
g12
sa(dp588
S'trials.thisIndex'
p589
g23
(g66
S'\xab\x00\x00\x00\x00\x00\x00\x00'
p590
tp591
Rp592
sg16
F2.6203980445861816
sg22
g32
sg52
g307
sg51
g147
sg50
VRipete "cuco" da sempre
p593
sS'trials.thisRepN'
p594
I0
sg59
g114
sg55
g115
sg56
g164
sg15
S'space'
p595
sS'trials.thisN'
p596
I36
sg53
g115
sg58
g167
sg49
g23
(g66
S'\xac\x00\x00\x00\x00\x00\x00\x00'
p597
tp598
Rp599
sS'trials.thisTrialN'
p600
I36
sg54
g230
sg20
g21
sg34
g39
sg57
g87
sg33
g12
sa(dp601
S'trials.thisIndex'
p602
g23
(g66
S'U\x00\x00\x00\x00\x00\x00\x00'
p603
tp604
Rp605
sg16
F1.5538549423217773
sg22
g32
sg52
Vtito
p606
sg51
g73
sg50
VHa detto "tito" sei volte
p607
sS'trials.thisRepN'
p608
I0
sg59
g267
sg55
g118
sg56
g78
sg15
S'space'
p609
sS'trials.thisN'
p610
I37
sg53
g118
sg58
g119
sg49
g23
(g66
S'V\x00\x00\x00\x00\x00\x00\x00'
p611
tp612
Rp613
sS'trials.thisTrialN'
p614
I37
sg54
g86
sg20
g21
sg34
g39
sg57
g87
sg33
g12
sa(dp615
S'trials.thisIndex'
p616
g23
(g66
S'E\x00\x00\x00\x00\x00\x00\x00'
p617
tp618
Rp619
sg16
F1.787735939025879
sg22
g32
sg52
Vtopo
p620
sg51
g73
sg50
VHa detto "topo" sei volte
p621
sS'trials.thisRepN'
p622
I0
sg59
g76
sg55
g77
sg56
g164
sg15
S'space'
p623
sS'trials.thisN'
p624
I38
sg53
g118
sg58
g119
sg49
g23
(g66
S'F\x00\x00\x00\x00\x00\x00\x00'
p625
tp626
Rp627
sS'trials.thisTrialN'
p628
I38
sg54
g172
sg20
g21
sg34
g39
sg57
g173
sg33
g12
sa(dp629
S'trials.thisIndex'
p630
g23
(g66
S'K\x00\x00\x00\x00\x00\x00\x00'
p631
tp632
Rp633
sg16
F2.0860249996185303
sg22
g32
sg52
g221
sg51
g147
sg50
VRipete "tupo" da sempre
p634
sS'trials.thisRepN'
p635
I0
sg59
g76
sg55
g77
sg56
g164
sg15
S'space'
p636
sS'trials.thisN'
p637
I39
sg53
g118
sg58
g119
sg49
g23
(g66
S'L\x00\x00\x00\x00\x00\x00\x00'
p638
tp639
Rp640
sS'trials.thisTrialN'
p641
I39
sg54
g230
sg20
g21
sg34
g39
sg57
g87
sg33
g12
sa(dp642
S'trials.thisIndex'
p643
g23
(g66
S'F\x00\x00\x00\x00\x00\x00\x00'
p644
tp645
Rp646
sg16
F1.7040109634399414
sg22
g32
sg52
g620
sg51
g111
sg50
VSentivo "topo" di nuovo
p647
sS'trials.thisRepN'
p648
I0
sg59
g76
sg55
g77
sg56
g164
sg15
S'space'
p649
sS'trials.thisN'
p650
I40
sg53
g118
sg58
g119
sg49
g23
(g66
S'G\x00\x00\x00\x00\x00\x00\x00'
p651
tp652
Rp653
sS'trials.thisTrialN'
p654
I40
sg54
g172
sg20
g21
sg34
g39
sg57
g173
sg33
g12
sa(dp655
S'trials.thisIndex'
p656
g23
(g66
S'9\x00\x00\x00\x00\x00\x00\x00'
p657
tp658
Rp659
sg16
F1.5533349514007568
sg22
g32
sg52
g362
sg51
g73
sg50
VHa detto "tapo" sei volte
p660
sS'trials.thisRepN'
p661
I0
sg59
g76
sg55
g77
sg56
g132
sg15
S'space'
p662
sS'trials.thisN'
p663
I41
sg53
g118
sg58
g119
sg49
g23
(g66
S':\x00\x00\x00\x00\x00\x00\x00'
p664
tp665
Rp666
sS'trials.thisTrialN'
p667
I41
sg54
g139
sg20
g21
sg34
g39
sg57
g140
sg33
g12
sa(dp668
S'trials.thisIndex'
p669
g23
(g66
S'\x81\x00\x00\x00\x00\x00\x00\x00'
p670
tp671
Rp672
sg16
F1.9028990268707275
sg22
g32
sg52
g404
sg51
g73
sg50
VHa detto "copo" sei volte
p673
sS'trials.thisRepN'
p674
I0
sg59
g76
sg55
g77
sg56
g164
sg15
S'space'
p675
sS'trials.thisN'
p676
I42
sg53
g115
sg58
g167
sg49
g23
(g66
S'\x82\x00\x00\x00\x00\x00\x00\x00'
p677
tp678
Rp679
sS'trials.thisTrialN'
p680
I42
sg54
g172
sg20
g21
sg34
g39
sg57
g173
sg33
g12
sa(dp681
S'trials.thisIndex'
p682
g23
(g66
S'\x95\x00\x00\x00\x00\x00\x00\x00'
p683
tp684
Rp685
sg16
F1.7861969470977783
sg22
g32
sg52
g485
sg51
g73
sg50
VHa detto "coto" sei volte
p686
sS'trials.thisRepN'
p687
I0
sg59
g267
sg55
g118
sg56
g164
sg15
S'space'
p688
sS'trials.thisN'
p689
I43
sg53
g115
sg58
g167
sg49
g23
(g66
S'\x96\x00\x00\x00\x00\x00\x00\x00'
p690
tp691
Rp692
sS'trials.thisTrialN'
p693
I43
sg54
g172
sg20
g21
sg34
g39
sg57
g173
sg33
g12
sa(dp694
S'trials.thisIndex'
p695
g23
(g66
S'\x9e\x00\x00\x00\x00\x00\x00\x00'
p696
tp697
Rp698
sg16
F1.7199969291687012
sg22
g32
sg52
Vcheco
p699
sg51
g111
sg50
VSentivo "checo" di nuovo
p700
sS'trials.thisRepN'
p701
I0
sg59
g114
sg55
g115
sg56
g78
sg15
S'space'
p702
sS'trials.thisN'
p703
I44
sg53
g115
sg58
g167
sg49
g23
(g66
S'\x9f\x00\x00\x00\x00\x00\x00\x00'
p704
tp705
Rp706
sS'trials.thisTrialN'
p707
I44
sg54
g103
sg20
g21
sg34
g39
sg57
g104
sg33
g12
sa(dp708
S'trials.thisIndex'
p709
g23
(g66
S'~\x00\x00\x00\x00\x00\x00\x00'
p710
tp711
Rp712
sg16
F1.5031888484954834
sg22
g32
sg52
Vchipo
p713
sg51
g111
sg50
VSentivo "chipo" di nuovo
p714
sS'trials.thisRepN'
p715
I0
sg59
g76
sg55
g77
sg56
g78
sg15
S'space'
p716
sS'trials.thisN'
p717
I45
sg53
g115
sg58
g167
sg49
g23
(g66
S'\x7f\x00\x00\x00\x00\x00\x00\x00'
p718
tp719
Rp720
sS'trials.thisTrialN'
p721
I45
sg54
g86
sg20
g21
sg34
g39
sg57
g87
sg33
g12
sa(dp722
S'trials.thisIndex'
p723
g23
(g66
S'\x00\x00\x00\x00\x00\x00\x00\x00'
p724
tp725
Rp726
sg16
F1.9381248950958252
sg22
g32
sg52
g193
sg51
g94
sg50
VScrivete "papo" sul foglio
p727
sS'trials.thisRepN'
p728
I0
sg59
g76
sg55
g77
sg56
g132
sg15
S'space'
p729
sS'trials.thisN'
p730
I46
sg53
g77
sg58
g81
sg49
g23
(g66
S'\x01\x00\x00\x00\x00\x00\x00\x00'
p731
tp732
Rp733
sS'trials.thisTrialN'
p734
I46
sg54
g139
sg20
g21
sg34
g39
sg57
g140
sg33
g12
sa(dp735
S'trials.thisIndex'
p736
g23
(g66
S'/\x00\x00\x00\x00\x00\x00\x00'
p737
tp738
Rp739
sg16
F1.687587022781372
sg22
g32
sg52
Vpico
p740
sg51
g147
sg50
VRipete "pico" da sempre
p741
sS'trials.thisRepN'
p742
I0
sg59
g114
sg55
g115
sg56
g78
sg15
S'space'
p743
sS'trials.thisN'
p744
I47
sg53
g77
sg58
g81
sg49
g23
(g66
S'0\x00\x00\x00\x00\x00\x00\x00'
p745
tp746
Rp747
sS'trials.thisTrialN'
p748
I47
sg54
g86
sg20
g21
sg34
g39
sg57
g87
sg33
g12
sa(dp749
S'trials.thisIndex'
p750
g23
(g66
S'}\x00\x00\x00\x00\x00\x00\x00'
p751
tp752
Rp753
sg16
F28.89917778968811
sg22
g32
sg52
g713
sg51
g73
sg50
VHa detto "chipo" sei volte
p754
sS'trials.thisRepN'
p755
I0
sg59
g76
sg55
g77
sg56
g78
sg15
S'space'
p756
sS'trials.thisN'
p757
I48
sg53
g115
sg58
g167
sg49
g23
(g66
S'~\x00\x00\x00\x00\x00\x00\x00'
p758
tp759
Rp760
sS'trials.thisTrialN'
p761
I48
sg54
g86
sg20
g21
sg34
g39
sg57
g87
sg33
g12
sa(dp762
S'trials.thisIndex'
p763
g23
(g66
S"'\x00\x00\x00\x00\x00\x00\x00"
p764
tp765
Rp766
sg16
F1.8868498802185059
sg22
g32
sg52
g129
sg51
g147
sg50
VRipete "paco" da sempre
p767
sS'trials.thisRepN'
p768
I0
sg59
g114
sg55
g115
sg56
g132
sg15
S'space'
p769
sS'trials.thisN'
p770
I49
sg53
g77
sg58
g81
sg49
g23
(g66
S'(\x00\x00\x00\x00\x00\x00\x00'
p771
tp772
Rp773
sS'trials.thisTrialN'
p774
I49
sg54
g139
sg20
g21
sg34
g39
sg57
g140
sg33
g12
sa(dp775
S'trials.thisIndex'
p776
g23
(g66
S'\x9a\x00\x00\x00\x00\x00\x00\x00'
p777
tp778
Rp779
sg16
F1.7191100120544434
sg22
g32
sg52
g553
sg51
g111
sg50
VSentivo "cuto" di nuovo
p780
sS'trials.thisRepN'
p781
I0
sg59
g267
sg55
g118
sg56
g164
sg15
S'space'
p782
sS'trials.thisN'
p783
I50
sg53
g115
sg58
g167
sg49
g23
(g66
S'\x9b\x00\x00\x00\x00\x00\x00\x00'
p784
tp785
Rp786
sS'trials.thisTrialN'
p787
I50
sg54
g230
sg20
g21
sg34
g39
sg57
g87
sg33
g12
sa(dp788
S'trials.thisIndex'
p789
g23
(g66
S'\x8e\x00\x00\x00\x00\x00\x00\x00'
p790
tp791
Rp792
sg16
F1.6704649925231934
sg22
g32
sg52
g390
sg51
g111
sg50
VSentivo "cheto" di nuovo
p793
sS'trials.thisRepN'
p794
I0
sg59
g267
sg55
g118
sg56
g78
sg15
S'space'
p795
sS'trials.thisN'
p796
I51
sg53
g115
sg58
g167
sg49
g23
(g66
S'\x8f\x00\x00\x00\x00\x00\x00\x00'
p797
tp798
Rp799
sS'trials.thisTrialN'
p800
I51
sg54
g103
sg20
g21
sg34
g39
sg57
g104
sg33
g12
sa(dp801
S'trials.thisIndex'
p802
g23
(g66
S'\x9f\x00\x00\x00\x00\x00\x00\x00'
p803
tp804
Rp805
sg16
F1.7524731159210205
sg22
g32
sg52
g699
sg51
g147
sg50
VRipete "checo" da sempre
p806
sS'trials.thisRepN'
p807
I0
sg59
g114
sg55
g115
sg56
g78
sg15
S'space'
p808
sS'trials.thisN'
p809
I52
sg53
g115
sg58
g167
sg49
g23
(g66
S'\xa0\x00\x00\x00\x00\x00\x00\x00'
p810
tp811
Rp812
sS'trials.thisTrialN'
p813
I52
sg54
g103
sg20
g21
sg34
g39
sg57
g104
sg33
g12
sa(dp814
S'trials.thisIndex'
p815
g23
(g66
S'`\x00\x00\x00\x00\x00\x00\x00'
p816
tp817
Rp818
sg16
F2.120640993118286
sg22
g32
sg52
g348
sg51
g94
sg50
VScrivete "taco" sul foglio
p819
sS'trials.thisRepN'
p820
I0
sg59
g114
sg55
g115
sg56
g132
sg15
S'space'
p821
sS'trials.thisN'
p822
I53
sg53
g118
sg58
g119
sg49
g23
(g66
S'a\x00\x00\x00\x00\x00\x00\x00'
p823
tp824
Rp825
sS'trials.thisTrialN'
p826
I53
sg54
g139
sg20
g21
sg34
g39
sg57
g140
sg33
g12
sa(dp827
S'trials.thisIndex'
p828
g23
(g66
S'{\x00\x00\x00\x00\x00\x00\x00'
p829
tp830
Rp831
sg16
F1.8526229858398438
sg22
g32
sg52
g179
sg51
g147
sg50
VRipete "chepo" da sempre
p832
sS'trials.thisRepN'
p833
I0
sg59
g76
sg55
g77
sg56
g78
sg15
S'space'
p834
sS'trials.thisN'
p835
I54
sg53
g115
sg58
g167
sg49
g23
(g66
S'|\x00\x00\x00\x00\x00\x00\x00'
p836
tp837
Rp838
sS'trials.thisTrialN'
p839
I54
sg54
g103
sg20
g21
sg34
g39
sg57
g104
sg33
g12
sa(dp840
S'trials.thisIndex'
p841
g23
(g66
S'V\x00\x00\x00\x00\x00\x00\x00'
p842
tp843
Rp844
sg16
F1.5206079483032227
sg22
g32
sg52
g606
sg51
g111
sg50
VSentivo "tito" di nuovo
p845
sS'trials.thisRepN'
p846
I0
sg59
g267
sg55
g118
sg56
g78
sg15
S'space'
p847
sS'trials.thisN'
p848
I55
sg53
g118
sg58
g119
sg49
g23
(g66
S'W\x00\x00\x00\x00\x00\x00\x00'
p849
tp850
Rp851
sS'trials.thisTrialN'
p852
I55
sg54
g86
sg20
g21
sg34
g39
sg57
g87
sg33
g12
sa(dp853
S'trials.thisIndex'
p854
g23
(g66
S'\x1c\x00\x00\x00\x00\x00\x00\x00'
p855
tp856
Rp857
sg16
F2.2578330039978027
sg22
g32
sg52
g526
sg51
g94
sg50
VScrivete "poto" sul foglio
p858
sS'trials.thisRepN'
p859
I0
sg59
g267
sg55
g118
sg56
g164
sg15
S'space'
p860
sS'trials.thisN'
p861
I56
sg53
g77
sg58
g81
sg49
g23
(g66
S'\x1d\x00\x00\x00\x00\x00\x00\x00'
p862
tp863
Rp864
sS'trials.thisTrialN'
p865
I56
sg54
g172
sg20
g21
sg34
g39
sg57
g173
sg33
g12
sa(dp866
S'trials.thisIndex'
p867
g23
(g66
S'-\x00\x00\x00\x00\x00\x00\x00'
p868
tp869
Rp870
sg16
F1.4902851581573486
sg22
g32
sg52
g740
sg51
g73
sg50
VHa detto "pico" sei volte
p871
sS'trials.thisRepN'
p872
I0
sg59
g114
sg55
g115
sg56
g78
sg15
S'space'
p873
sS'trials.thisN'
p874
I57
sg53
g77
sg58
g81
sg49
g23
(g66
S'.\x00\x00\x00\x00\x00\x00\x00'
p875
tp876
Rp877
sS'trials.thisTrialN'
p878
I57
sg54
g86
sg20
g21
sg34
g39
sg57
g87
sg33
g12
sa(dp879
S'trials.thisIndex'
p880
g23
(g66
S'\x0f\x00\x00\x00\x00\x00\x00\x00'
p881
tp882
Rp883
sg16
F1.6543641090393066
sg22
g32
sg52
g236
sg51
g147
sg50
VRipete "popo" da sempre
p884
sS'trials.thisRepN'
p885
I0
sg59
g76
sg55
g77
sg56
g164
sg15
S'space'
p886
sS'trials.thisN'
p887
I58
sg53
g77
sg58
g81
sg49
g23
(g66
S'\x10\x00\x00\x00\x00\x00\x00\x00'
p888
tp889
Rp890
sS'trials.thisTrialN'
p891
I58
sg54
g172
sg20
g21
sg34
g39
sg57
g173
sg33
g12
sa(dp892
S'trials.thisIndex'
p893
g23
(g66
S'\x16\x00\x00\x00\x00\x00\x00\x00'
p894
tp895
Rp896
sg16
F1.8358120918273926
sg22
g32
sg52
g264
sg51
g111
sg50
VSentivo "pato" di nuovo
p897
sS'trials.thisRepN'
p898
I0
sg59
g267
sg55
g118
sg56
g132
sg15
S'space'
p899
sS'trials.thisN'
p900
I59
sg53
g77
sg58
g81
sg49
g23
(g66
S'\x17\x00\x00\x00\x00\x00\x00\x00'
p901
tp902
Rp903
sS'trials.thisTrialN'
p904
I59
sg54
g139
sg20
g21
sg34
g39
sg57
g140
sg33
g12
sa(dp905
S'trials.thisIndex'
p906
g23
(g66
S'Z\x00\x00\x00\x00\x00\x00\x00'
p907
tp908
Rp909
sg16
F1.6011390686035156
sg22
g32
sg52
Vtoto
p910
sg51
g111
sg50
VSentivo "toto" di nuovo
p911
sS'trials.thisRepN'
p912
I0
sg59
g267
sg55
g118
sg56
g164
sg15
S'space'
p913
sS'trials.thisN'
p914
I60
sg53
g118
sg58
g119
sg49
g23
(g66
S'[\x00\x00\x00\x00\x00\x00\x00'
p915
tp916
Rp917
sS'trials.thisTrialN'
p918
I60
sg54
g172
sg20
g21
sg34
g39
sg57
g173
sg33
g12
sa(dp919
S'trials.thisIndex'
p920
g23
(g66
S'u\x00\x00\x00\x00\x00\x00\x00'
p921
tp922
Rp923
sg16
F1.9033222198486328
sg22
g32
sg52
Vcapo
p924
sg51
g73
sg50
VHa detto "capo" sei volte
p925
sS'trials.thisRepN'
p926
I0
sg59
g76
sg55
g77
sg56
g132
sg15
S'space'
p927
sS'trials.thisN'
p928
I61
sg53
g115
sg58
g167
sg49
g23
(g66
S'v\x00\x00\x00\x00\x00\x00\x00'
p929
tp930
Rp931
sS'trials.thisTrialN'
p932
I61
sg54
g139
sg20
g21
sg34
g39
sg57
g140
sg33
g12
sa(dp933
S'trials.thisIndex'
p934
g23
(g66
S'f\x00\x00\x00\x00\x00\x00\x00'
p935
tp936
Rp937
sg16
F1.5208120346069336
sg22
g32
sg52
g207
sg51
g111
sg50
VSentivo "teco" di nuovo
p938
sS'trials.thisRepN'
p939
I0
sg59
g114
sg55
g115
sg56
g78
sg15
S'space'
p940
sS'trials.thisN'
p941
I62
sg53
g118
sg58
g119
sg49
g23
(g66
S'g\x00\x00\x00\x00\x00\x00\x00'
p942
tp943
Rp944
sS'trials.thisTrialN'
p945
I62
sg54
g103
sg20
g21
sg34
g39
sg57
g104
sg33
g12
sa(dp946
S'trials.thisIndex'
p947
g23
(g66
S'!\x00\x00\x00\x00\x00\x00\x00'
p948
tp949
Rp950
sg16
F1.7355270385742188
sg22
g32
sg52
Vputo
p951
sg51
g73
sg50
VHa detto "puto" sei volte
p952
sS'trials.thisRepN'
p953
I0
sg59
g267
sg55
g118
sg56
g164
sg15
S'space'
p954
sS'trials.thisN'
p955
I63
sg53
g77
sg58
g81
sg49
g23
(g66
S'"\x00\x00\x00\x00\x00\x00\x00'
p956
tp957
Rp958
sS'trials.thisTrialN'
p959
I63
sg54
g230
sg20
g21
sg34
g39
sg57
g87
sg33
g12
sa(dp960
S'trials.thisIndex'
p961
g23
(g66
S'o\x00\x00\x00\x00\x00\x00\x00'
p962
tp963
Rp964
sg16
F2.038012981414795
sg22
g32
sg52
Vtoco
p965
sg51
g147
sg50
VRipete "toco" da sempre
p966
sS'trials.thisRepN'
p967
I0
sg59
g114
sg55
g115
sg56
g164
sg15
S'space'
p968
sS'trials.thisN'
p969
I64
sg53
g118
sg58
g119
sg49
g23
(g66
S'p\x00\x00\x00\x00\x00\x00\x00'
p970
tp971
Rp972
sS'trials.thisTrialN'
p973
I64
sg54
g172
sg20
g21
sg34
g39
sg57
g173
sg33
g12
sa(dp974
S'trials.thisIndex'
p975
g23
(g66
S'\x1e\x00\x00\x00\x00\x00\x00\x00'
p976
tp977
Rp978
sg16
F1.7229859828948975
sg22
g32
sg52
g526
sg51
g111
sg50
VSentivo "poto" di nuovo
p979
sS'trials.thisRepN'
p980
I0
sg59
g267
sg55
g118
sg56
g164
sg15
S'space'
p981
sS'trials.thisN'
p982
I65
sg53
g77
sg58
g81
sg49
g23
(g66
S'\x1f\x00\x00\x00\x00\x00\x00\x00'
p983
tp984
Rp985
sS'trials.thisTrialN'
p986
I65
sg54
g172
sg20
g21
sg34
g39
sg57
g173
sg33
g12
sa(dp987
S'trials.thisIndex'
p988
g23
(g66
S'\x9d\x00\x00\x00\x00\x00\x00\x00'
p989
tp990
Rp991
sg16
F1.6026599407196045
sg22
g32
sg52
g699
sg51
g73
sg50
VHa detto "checo" sei volte
p992
sS'trials.thisRepN'
p993
I0
sg59
g114
sg55
g115
sg56
g78
sg15
S'space'
p994
sS'trials.thisN'
p995
I66
sg53
g115
sg58
g167
sg49
g23
(g66
S'\x9e\x00\x00\x00\x00\x00\x00\x00'
p996
tp997
Rp998
sS'trials.thisTrialN'
p999
I66
sg54
g103
sg20
g21
sg34
g39
sg57
g104
sg33
g12
sa(dp1000
S'trials.thisIndex'
p1001
g23
(g66
S'&\x00\x00\x00\x00\x00\x00\x00'
p1002
tp1003
Rp1004
sg16
F2.170910120010376
sg22
g32
sg52
g129
sg51
g111
sg50
VSentivo "paco" di nuovo
p1005
sS'trials.thisRepN'
p1006
I0
sg59
g114
sg55
g115
sg56
g132
sg15
S'space'
p1007
sS'trials.thisN'
p1008
I67
sg53
g77
sg58
g81
sg49
g23
(g66
S"'\x00\x00\x00\x00\x00\x00\x00"
p1009
tp1010
Rp1011
sS'trials.thisTrialN'
p1012
I67
sg54
g139
sg20
g21
sg34
g39
sg57
g140
sg33
g12
sa(dp1013
S'trials.thisIndex'
p1014
g23
(g66
S'\xa7\x00\x00\x00\x00\x00\x00\x00'
p1015
tp1016
Rp1017
sg16
F1.5743131637573242
sg22
g32
sg52
g161
sg51
g147
sg50
VRipete "coco" da sempre
p1018
sS'trials.thisRepN'
p1019
I0
sg59
g114
sg55
g115
sg56
g164
sg15
S'space'
p1020
sS'trials.thisN'
p1021
I68
sg53
g115
sg58
g167
sg49
g23
(g66
S'\xa8\x00\x00\x00\x00\x00\x00\x00'
p1022
tp1023
Rp1024
sS'trials.thisTrialN'
p1025
I68
sg54
g172
sg20
g21
sg34
g39
sg57
g173
sg33
g12
sa(dp1026
S'trials.thisIndex'
p1027
g23
(g66
S'>\x00\x00\x00\x00\x00\x00\x00'
p1028
tp1029
Rp1030
sg16
F1.656209945678711
sg22
g32
sg52
g250
sg51
g111
sg50
VSentivo "tepo" di nuovo
p1031
sS'trials.thisRepN'
p1032
I0
sg59
g76
sg55
g77
sg56
g78
sg15
S'space'
p1033
sS'trials.thisN'
p1034
I69
sg53
g118
sg58
g119
sg49
g23
(g66
S'?\x00\x00\x00\x00\x00\x00\x00'
p1035
tp1036
Rp1037
sS'trials.thisTrialN'
p1038
I69
sg54
g103
sg20
g21
sg34
g39
sg57
g104
sg33
g12
sa(dp1039
S'trials.thisIndex'
p1040
g23
(g66
S'X\x00\x00\x00\x00\x00\x00\x00'
p1041
tp1042
Rp1043
sg16
F2.1292550563812256
sg22
g32
sg52
g910
sg51
g94
sg50
VScrivete "toto" sul foglio
p1044
sS'trials.thisRepN'
p1045
I0
sg59
g267
sg55
g118
sg56
g164
sg15
S'space'
p1046
sS'trials.thisN'
p1047
I70
sg53
g118
sg58
g119
sg49
g23
(g66
S'Y\x00\x00\x00\x00\x00\x00\x00'
p1048
tp1049
Rp1050
sS'trials.thisTrialN'
p1051
I70
sg54
g172
sg20
g21
sg34
g39
sg57
g173
sg33
g12
sa(dp1052
S'trials.thisIndex'
p1053
g23
(g66
S'\x80\x00\x00\x00\x00\x00\x00\x00'
p1054
tp1055
Rp1056
sg16
F3.7568681240081787
sg22
g32
sg52
g404
sg51
g94
sg50
VScrivete "copo" sul foglio
p1057
sS'trials.thisRepN'
p1058
I0
sg59
g76
sg55
g77
sg56
g164
sg15
S'space'
p1059
sS'trials.thisN'
p1060
I71
sg53
g115
sg58
g167
sg49
g23
(g66
S'\x81\x00\x00\x00\x00\x00\x00\x00'
p1061
tp1062
Rp1063
sS'trials.thisTrialN'
p1064
I71
sg54
g172
sg20
g21
sg34
g39
sg57
g173
sg33
g12
sa(dp1065
S'trials.thisIndex'
p1066
g23
(g66
S'N\x00\x00\x00\x00\x00\x00\x00'
p1067
tp1068
Rp1069
sg16
F1.4880669116973877
sg22
g32
sg52
g279
sg51
g111
sg50
VSentivo "tato" di nuovo
p1070
sS'trials.thisRepN'
p1071
I0
sg59
g267
sg55
g118
sg56
g132
sg15
S'space'
p1072
sS'trials.thisN'
p1073
I72
sg53
g118
sg58
g119
sg49
g23
(g66
S'O\x00\x00\x00\x00\x00\x00\x00'
p1074
tp1075
Rp1076
sS'trials.thisTrialN'
p1077
I72
sg54
g139
sg20
g21
sg34
g39
sg57
g140
sg33
g12
sa(dp1078
S'trials.thisIndex'
p1079
g23
(g66
S'i\x00\x00\x00\x00\x00\x00\x00'
p1080
tp1081
Rp1082
sg16
F1.4028677940368652
sg22
g32
sg52
g110
sg51
g73
sg50
VHa detto "tico" sei volte
p1083
sS'trials.thisRepN'
p1084
I0
sg59
g114
sg55
g115
sg56
g78
sg15
S'space'
p1085
sS'trials.thisN'
p1086
I73
sg53
g118
sg58
g119
sg49
g23
(g66
S'j\x00\x00\x00\x00\x00\x00\x00'
p1087
tp1088
Rp1089
sS'trials.thisTrialN'
p1090
I73
sg54
g86
sg20
g21
sg34
g39
sg57
g87
sg33
g12
sa(dp1091
S'trials.thisIndex'
p1092
g23
(g66
S'\x9c\x00\x00\x00\x00\x00\x00\x00'
p1093
tp1094
Rp1095
sg16
F1.8426969051361084
sg22
g32
sg52
g699
sg51
g94
sg50
VScrivete "checo" sul foglio
p1096
sS'trials.thisRepN'
p1097
I0
sg59
g114
sg55
g115
sg56
g78
sg15
S'space'
p1098
sS'trials.thisN'
p1099
I74
sg53
g115
sg58
g167
sg49
g23
(g66
S'\x9d\x00\x00\x00\x00\x00\x00\x00'
p1100
tp1101
Rp1102
sS'trials.thisTrialN'
p1103
I74
sg54
g103
sg20
g21
sg34
g39
sg57
g104
sg33
g12
sa(dp1104
S'trials.thisIndex'
p1105
g23
(g66
S'(\x00\x00\x00\x00\x00\x00\x00'
p1106
tp1107
Rp1108
sg16
F1.8540830612182617
sg22
g32
sg52
Vpeco
p1109
sg51
g94
sg50
VScrivete "peco" sul foglio
p1110
sS'trials.thisRepN'
p1111
I0
sg59
g114
sg55
g115
sg56
g78
sg15
S'space'
p1112
sS'trials.thisN'
p1113
I75
sg53
g77
sg58
g81
sg49
g23
(g66
S')\x00\x00\x00\x00\x00\x00\x00'
p1114
tp1115
Rp1116
sS'trials.thisTrialN'
p1117
I75
sg54
g103
sg20
g21
sg34
g39
sg57
g104
sg33
g12
sa(dp1118
S'trials.thisIndex'
p1119
g23
(g66
S'\x19\x00\x00\x00\x00\x00\x00\x00'
p1120
tp1121
Rp1122
sg16
F1.9228129386901855
sg22
g32
sg52
g512
sg51
g73
sg50
VHa detto "pito" sei volte
p1123
sS'trials.thisRepN'
p1124
I0
sg59
g267
sg55
g118
sg56
g78
sg15
S'space'
p1125
sS'trials.thisN'
p1126
I76
sg53
g77
sg58
g81
sg49
g23
(g66
S'\x1a\x00\x00\x00\x00\x00\x00\x00'
p1127
tp1128
Rp1129
sS'trials.thisTrialN'
p1130
I76
sg54
g86
sg20
g21
sg34
g39
sg57
g87
sg33
g12
sa(dp1131
S'trials.thisIndex'
p1132
g23
(g66
S'O\x00\x00\x00\x00\x00\x00\x00'
p1133
tp1134
Rp1135
sg16
F1.9220740795135498
sg22
g32
sg52
g279
sg51
g147
sg50
VRipete "tato" da sempre
p1136
sS'trials.thisRepN'
p1137
I0
sg59
g267
sg55
g118
sg56
g132
sg15
S'space'
p1138
sS'trials.thisN'
p1139
I77
sg53
g118
sg58
g119
sg49
g23
(g66
S'P\x00\x00\x00\x00\x00\x00\x00'
p1140
tp1141
Rp1142
sS'trials.thisTrialN'
p1143
I77
sg54
g139
sg20
g21
sg34
g39
sg57
g140
sg33
g12
sa(dp1144
S'trials.thisIndex'
p1145
g23
(g66
S'3\x00\x00\x00\x00\x00\x00\x00'
p1146
tp1147
Rp1148
sg16
F1.772662878036499
sg22
g32
sg52
Vpoco
p1149
sg51
g147
sg50
VRipete "poco" da sempre
p1150
sS'trials.thisRepN'
p1151
I0
sg59
g114
sg55
g115
sg56
g164
sg15
S'space'
p1152
sS'trials.thisN'
p1153
I78
sg53
g77
sg58
g81
sg49
g23
(g66
S'4\x00\x00\x00\x00\x00\x00\x00'
p1154
tp1155
Rp1156
sS'trials.thisTrialN'
p1157
I78
sg54
g172
sg20
g21
sg34
g39
sg57
g173
sg33
g12
sa(dp1158
S'trials.thisIndex'
p1159
g23
(g66
S'\x89\x00\x00\x00\x00\x00\x00\x00'
p1160
tp1161
Rp1162
sg16
F4.80634617805481
sg22
g32
sg52
Vcato
p1163
sg51
g73
sg50
VHa detto "cato" sei volte
p1164
sS'trials.thisRepN'
p1165
I0
sg59
g267
sg55
g118
sg56
g132
sg15
S'space'
p1166
sS'trials.thisN'
p1167
I79
sg53
g115
sg58
g167
sg49
g23
(g66
S'\x8a\x00\x00\x00\x00\x00\x00\x00'
p1168
tp1169
Rp1170
sS'trials.thisTrialN'
p1171
I79
sg54
g139
sg20
g21
sg34
g39
sg57
g140
sg33
g12
sa(dp1172
S'trials.thisIndex'
p1173
g23
(g66
S'\xa2\x00\x00\x00\x00\x00\x00\x00'
p1174
tp1175
Rp1176
sg16
F1.921205997467041
sg22
g32
sg52
Vchico
p1177
sg51
g111
sg50
VSentivo "chico" di nuovo
p1178
sS'trials.thisRepN'
p1179
I0
sg59
g114
sg55
g115
sg56
g78
sg15
S'space'
p1180
sS'trials.thisN'
p1181
I80
sg53
g115
sg58
g167
sg49
g23
(g66
S'\xa3\x00\x00\x00\x00\x00\x00\x00'
p1182
tp1183
Rp1184
sS'trials.thisTrialN'
p1185
I80
sg54
g86
sg20
g21
sg34
g39
sg57
g87
sg33
g12
sa(dp1186
S'trials.thisIndex'
p1187
g23
(g66
S'|\x00\x00\x00\x00\x00\x00\x00'
p1188
tp1189
Rp1190
sg16
F2.0036439895629883
sg22
g32
sg52
g713
sg51
g94
sg50
VScrivete "chipo" sul foglio
p1191
sS'trials.thisRepN'
p1192
I0
sg59
g76
sg55
g77
sg56
g78
sg15
S'space'
p1193
sS'trials.thisN'
p1194
I81
sg53
g115
sg58
g167
sg49
g23
(g66
S'}\x00\x00\x00\x00\x00\x00\x00'
p1195
tp1196
Rp1197
sS'trials.thisTrialN'
p1198
I81
sg54
g86
sg20
g21
sg34
g39
sg57
g87
sg33
g12
sa(dp1199
S'trials.thisIndex'
p1200
g23
(g66
S'@\x00\x00\x00\x00\x00\x00\x00'
p1201
tp1202
Rp1203
sg16
F1.7362780570983887
sg22
g32
sg52
g146
sg51
g94
sg50
VScrivete "tipo" sul foglio
p1204
sS'trials.thisRepN'
p1205
I0
sg59
g76
sg55
g77
sg56
g78
sg15
S'space'
p1206
sS'trials.thisN'
p1207
I82
sg53
g118
sg58
g119
sg49
g23
(g66
S'A\x00\x00\x00\x00\x00\x00\x00'
p1208
tp1209
Rp1210
sS'trials.thisTrialN'
p1211
I82
sg54
g86
sg20
g21
sg34
g39
sg57
g87
sg33
g12
sa(dp1212
S'trials.thisIndex'
p1213
g23
(g66
S'\x96\x00\x00\x00\x00\x00\x00\x00'
p1214
tp1215
Rp1216
sg16
F1.4213039875030518
sg22
g32
sg52
g485
sg51
g111
sg50
VSentivo "coto" di nuovo
p1217
sS'trials.thisRepN'
p1218
I0
sg59
g267
sg55
g118
sg56
g164
sg15
S'space'
p1219
sS'trials.thisN'
p1220
I83
sg53
g115
sg58
g167
sg49
g23
(g66
S'\x97\x00\x00\x00\x00\x00\x00\x00'
p1221
tp1222
Rp1223
sS'trials.thisTrialN'
p1224
I83
sg54
g172
sg20
g21
sg34
g39
sg57
g173
sg33
g12
sa(dp1225
S'trials.thisIndex'
p1226
g23
(g66
S'\x12\x00\x00\x00\x00\x00\x00\x00'
p1227
tp1228
Rp1229
sg16
F1.5710389614105225
sg22
g32
sg52
g376
sg51
g111
sg50
VSentivo "pupo" di nuovo
p1230
sS'trials.thisRepN'
p1231
I0
sg59
g76
sg55
g77
sg56
g164
sg15
S'space'
p1232
sS'trials.thisN'
p1233
I84
sg53
g77
sg58
g81
sg49
g23
(g66
S'\x13\x00\x00\x00\x00\x00\x00\x00'
p1234
tp1235
Rp1236
sS'trials.thisTrialN'
p1237
I84
sg54
g230
sg20
g21
sg34
g39
sg57
g87
sg33
g12
sa(dp1238
S'trials.thisIndex'
p1239
g23
(g66
S'I\x00\x00\x00\x00\x00\x00\x00'
p1240
tp1241
Rp1242
sg16
F1.6029949188232422
sg22
g32
sg52
g221
sg51
g73
sg50
VHa detto "tupo" sei volte
p1243
sS'trials.thisRepN'
p1244
I0
sg59
g76
sg55
g77
sg56
g164
sg15
S'space'
p1245
sS'trials.thisN'
p1246
I85
sg53
g118
sg58
g119
sg49
g23
(g66
S'J\x00\x00\x00\x00\x00\x00\x00'
p1247
tp1248
Rp1249
sS'trials.thisTrialN'
p1250
I85
sg54
g230
sg20
g21
sg34
g39
sg57
g87
sg33
g12
sa(dp1251
S'trials.thisIndex'
p1252
g23
(g66
S'\x1f\x00\x00\x00\x00\x00\x00\x00'
p1253
tp1254
Rp1255
sg16
F1.6195080280303955
sg22
g32
sg52
g526
sg51
g147
sg50
VRipete "poto" da sempre
p1256
sS'trials.thisRepN'
p1257
I0
sg59
g267
sg55
g118
sg56
g164
sg15
S'space'
p1258
sS'trials.thisN'
p1259
I86
sg53
g77
sg58
g81
sg49
g23
(g66
S' \x00\x00\x00\x00\x00\x00\x00'
p1260
tp1261
Rp1262
sS'trials.thisTrialN'
p1263
I86
sg54
g172
sg20
g21
sg34
g39
sg57
g173
sg33
g12
sa(dp1264
S'trials.thisIndex'
p1265
g23
(g66
S'v\x00\x00\x00\x00\x00\x00\x00'
p1266
tp1267
Rp1268
sg16
F80.35899996757507
sg22
g32
sg52
g924
sg51
g111
sg50
VSentivo "capo" di nuovo
p1269
sS'trials.thisRepN'
p1270
I0
sg59
g76
sg55
g77
sg56
g132
sg15
S'space'
p1271
sS'trials.thisN'
p1272
I87
sg53
g115
sg58
g167
sg49
g23
(g66
S'w\x00\x00\x00\x00\x00\x00\x00'
p1273
tp1274
Rp1275
sS'trials.thisTrialN'
p1276
I87
sg54
g139
sg20
g21
sg34
g39
sg57
g140
sg33
g12
sa(dp1277
S'trials.thisIndex'
p1278
g23
(g66
S'W\x00\x00\x00\x00\x00\x00\x00'
p1279
tp1280
Rp1281
sg16
F1.8883018493652344
sg22
g32
sg52
g606
sg51
g147
sg50
VRipete "tito" da sempre
p1282
sS'trials.thisRepN'
p1283
I0
sg59
g267
sg55
g118
sg56
g78
sg15
S'space'
p1284
sS'trials.thisN'
p1285
I88
sg53
g118
sg58
g119
sg49
g23
(g66
S'X\x00\x00\x00\x00\x00\x00\x00'
p1286
tp1287
Rp1288
sS'trials.thisTrialN'
p1289
I88
sg54
g86
sg20
g21
sg34
g39
sg57
g87
sg33
g12
sa(dp1290
S'trials.thisIndex'
p1291
g23
(g66
S'\x0e\x00\x00\x00\x00\x00\x00\x00'
p1292
tp1293
Rp1294
sg16
F1.6722278594970703
sg22
g32
sg52
g236
sg51
g111
sg50
VSentivo "popo" di nuovo
p1295
sS'trials.thisRepN'
p1296
I0
sg59
g76
sg55
g77
sg56
g164
sg15
S'space'
p1297
sS'trials.thisN'
p1298
I89
sg53
g77
sg58
g81
sg49
g23
(g66
S'\x0f\x00\x00\x00\x00\x00\x00\x00'
p1299
tp1300
Rp1301
sS'trials.thisTrialN'
p1302
I89
sg54
g172
sg20
g21
sg34
g39
sg57
g173
sg33
g12
sa(dp1303
S'trials.thisIndex'
p1304
g23
(g66
S'\x10\x00\x00\x00\x00\x00\x00\x00'
p1305
tp1306
Rp1307
sg16
F1.7378549575805664
sg22
g32
sg52
g376
sg51
g94
sg50
VScrivete "pupo" sul foglio
p1308
sS'trials.thisRepN'
p1309
I0
sg59
g76
sg55
g77
sg56
g164
sg15
S'space'
p1310
sS'trials.thisN'
p1311
I90
sg53
g77
sg58
g81
sg49
g23
(g66
S'\x11\x00\x00\x00\x00\x00\x00\x00'
p1312
tp1313
Rp1314
sS'trials.thisTrialN'
p1315
I90
sg54
g230
sg20
g21
sg34
g39
sg57
g87
sg33
g12
sa(dp1316
S'trials.thisIndex'
p1317
g23
(g66
S't\x00\x00\x00\x00\x00\x00\x00'
p1318
tp1319
Rp1320
sg16
F1.7882080078125
sg22
g32
sg52
g924
sg51
g94
sg50
VScrivete "capo" sul foglio
p1321
sS'trials.thisRepN'
p1322
I0
sg59
g76
sg55
g77
sg56
g132
sg15
S'space'
p1323
sS'trials.thisN'
p1324
I91
sg53
g115
sg58
g167
sg49
g23
(g66
S'u\x00\x00\x00\x00\x00\x00\x00'
p1325
tp1326
Rp1327
sS'trials.thisTrialN'
p1328
I91
sg54
g139
sg20
g21
sg34
g39
sg57
g140
sg33
g12
sa(dp1329
S'trials.thisIndex'
p1330
g23
(g66
S'\x93\x00\x00\x00\x00\x00\x00\x00'
p1331
tp1332
Rp1333
sg16
F1.7199139595031738
sg22
g32
sg52
Vchito
p1334
sg51
g147
sg50
VRipete "chito" da sempre
p1335
sS'trials.thisRepN'
p1336
I0
sg59
g267
sg55
g118
sg56
g78
sg15
S'space'
p1337
sS'trials.thisN'
p1338
I92
sg53
g115
sg58
g167
sg49
g23
(g66
S'\x94\x00\x00\x00\x00\x00\x00\x00'
p1339
tp1340
Rp1341
sS'trials.thisTrialN'
p1342
I92
sg54
g86
sg20
g21
sg34
g39
sg57
g87
sg33
g12
sa(dp1343
S'trials.thisIndex'
p1344
g23
(g66
S'G\x00\x00\x00\x00\x00\x00\x00'
p1345
tp1346
Rp1347
sg16
F1.7038719654083252
sg22
g32
sg52
g620
sg51
g147
sg50
VRipete "topo" da sempre
p1348
sS'trials.thisRepN'
p1349
I0
sg59
g76
sg55
g77
sg56
g164
sg15
S'space'
p1350
sS'trials.thisN'
p1351
I93
sg53
g118
sg58
g119
sg49
g23
(g66
S'H\x00\x00\x00\x00\x00\x00\x00'
p1352
tp1353
Rp1354
sS'trials.thisTrialN'
p1355
I93
sg54
g172
sg20
g21
sg34
g39
sg57
g173
sg33
g12
sa(dp1356
S'trials.thisIndex'
p1357
g23
(g66
S'R\x00\x00\x00\x00\x00\x00\x00'
p1358
tp1359
Rp1360
sg16
F1.6876637935638428
sg22
g32
sg52
g418
sg51
g111
sg50
VSentivo "teto" di nuovo
p1361
sS'trials.thisRepN'
p1362
I0
sg59
g267
sg55
g118
sg56
g78
sg15
S'space'
p1363
sS'trials.thisN'
p1364
I94
sg53
g118
sg58
g119
sg49
g23
(g66
S'S\x00\x00\x00\x00\x00\x00\x00'
p1365
tp1366
Rp1367
sS'trials.thisTrialN'
p1368
I94
sg54
g103
sg20
g21
sg34
g39
sg57
g104
sg33
g12
sa(dp1369
S'trials.thisIndex'
p1370
g23
(g66
S'\x17\x00\x00\x00\x00\x00\x00\x00'
p1371
tp1372
Rp1373
sg16
F1.9712541103363037
sg22
g32
sg52
g264
sg51
g147
sg50
VRipete "pato" da sempre
p1374
sS'trials.thisRepN'
p1375
I0
sg59
g267
sg55
g118
sg56
g132
sg15
S'space'
p1376
sS'trials.thisN'
p1377
I95
sg53
g77
sg58
g81
sg49
g23
(g66
S'\x18\x00\x00\x00\x00\x00\x00\x00'
p1378
tp1379
Rp1380
sS'trials.thisTrialN'
p1381
I95
sg54
g139
sg20
g21
sg34
g39
sg57
g140
sg33
g12
sa(dp1382
S'trials.thisIndex'
p1383
g23
(g66
S'\xa4\x00\x00\x00\x00\x00\x00\x00'
p1384
tp1385
Rp1386
sg16
F2.1211888790130615
sg22
g32
sg52
g161
sg51
g94
sg50
VScrivete "coco" sul foglio
p1387
sS'trials.thisRepN'
p1388
I0
sg59
g114
sg55
g115
sg56
g164
sg15
S'space'
p1389
sS'trials.thisN'
p1390
I96
sg53
g115
sg58
g167
sg49
g23
(g66
S'\xa5\x00\x00\x00\x00\x00\x00\x00'
p1391
tp1392
Rp1393
sS'trials.thisTrialN'
p1394
I96
sg54
g172
sg20
g21
sg34
g39
sg57
g173
sg33
g12
sa(dp1395
S'trials.thisIndex'
p1396
g23
(g66
S'\x8a\x00\x00\x00\x00\x00\x00\x00'
p1397
tp1398
Rp1399
sg16
F1.3751931190490723
sg22
g32
sg52
g1163
sg51
g111
sg50
VSentivo "cato" di nuovo
p1400
sS'trials.thisRepN'
p1401
I0
sg59
g267
sg55
g118
sg56
g132
sg15
S'space'
p1402
sS'trials.thisN'
p1403
I97
sg53
g115
sg58
g167
sg49
g23
(g66
S'\x8b\x00\x00\x00\x00\x00\x00\x00'
p1404
tp1405
Rp1406
sS'trials.thisTrialN'
p1407
I97
sg54
g139
sg20
g21
sg34
g39
sg57
g140
sg33
g12
sa(dp1408
S'trials.thisIndex'
p1409
g23
(g66
S'H\x00\x00\x00\x00\x00\x00\x00'
p1410
tp1411
Rp1412
sg16
F1.7857060432434082
sg22
g32
sg52
g221
sg51
g94
sg50
VScrivete "tupo" sul foglio
p1413
sS'trials.thisRepN'
p1414
I0
sg59
g76
sg55
g77
sg56
g164
sg15
S'space'
p1415
sS'trials.thisN'
p1416
I98
sg53
g118
sg58
g119
sg49
g23
(g66
S'I\x00\x00\x00\x00\x00\x00\x00'
p1417
tp1418
Rp1419
sS'trials.thisTrialN'
p1420
I98
sg54
g230
sg20
g21
sg34
g39
sg57
g87
sg33
g12
sa(dp1421
S'trials.thisIndex'
p1422
g23
(g66
S'\x8c\x00\x00\x00\x00\x00\x00\x00'
p1423
tp1424
Rp1425
sg16
F1.9184460639953613
sg22
g32
sg52
g390
sg51
g94
sg50
VScrivete "cheto" sul foglio
p1426
sS'trials.thisRepN'
p1427
I0
sg59
g267
sg55
g118
sg56
g78
sg15
S'space'
p1428
sS'trials.thisN'
p1429
I99
sg53
g115
sg58
g167
sg49
g23
(g66
S'\x8d\x00\x00\x00\x00\x00\x00\x00'
p1430
tp1431
Rp1432
sS'trials.thisTrialN'
p1433
I99
sg54
g103
sg20
g21
sg34
g39
sg57
g104
sg33
g12
sa(dp1434
S'trials.thisIndex'
p1435
g23
(g66
S'\x92\x00\x00\x00\x00\x00\x00\x00'
p1436
tp1437
Rp1438
sg16
F1.6862938404083252
sg22
g32
sg52
g1334
sg51
g111
sg50
VSentivo "chito" di nuovo
p1439
sS'trials.thisRepN'
p1440
I0
sg59
g267
sg55
g118
sg56
g78
sg15
S'space'
p1441
sS'trials.thisN'
p1442
I100
sg53
g115
sg58
g167
sg49
g23
(g66
S'\x93\x00\x00\x00\x00\x00\x00\x00'
p1443
tp1444
Rp1445
sS'trials.thisTrialN'
p1446
I100
sg54
g86
sg20
g21
sg34
g39
sg57
g87
sg33
g12
sa(dp1447
S'trials.thisIndex'
p1448
g23
(g66
S'1\x00\x00\x00\x00\x00\x00\x00'
p1449
tp1450
Rp1451
sg16
F1.5372660160064697
sg22
g32
sg52
g1149
sg51
g73
sg50
VHa detto "poco" sei volte
p1452
sS'trials.thisRepN'
p1453
I0
sg59
g114
sg55
g115
sg56
g164
sg15
S'space'
p1454
sS'trials.thisN'
p1455
I101
sg53
g77
sg58
g81
sg49
g23
(g66
S'2\x00\x00\x00\x00\x00\x00\x00'
p1456
tp1457
Rp1458
sS'trials.thisTrialN'
p1459
I101
sg54
g172
sg20
g21
sg34
g39
sg57
g173
sg33
g12
sa(dp1460
S'trials.thisIndex'
p1461
g23
(g66
S'\x83\x00\x00\x00\x00\x00\x00\x00'
p1462
tp1463
Rp1464
sg16
F1.6370041370391846
sg22
g32
sg52
g404
sg51
g147
sg50
VRipete "copo" da sempre
p1465
sS'trials.thisRepN'
p1466
I0
sg59
g76
sg55
g77
sg56
g164
sg15
S'space'
p1467
sS'trials.thisN'
p1468
I102
sg53
g115
sg58
g167
sg49
g23
(g66
S'\x84\x00\x00\x00\x00\x00\x00\x00'
p1469
tp1470
Rp1471
sS'trials.thisTrialN'
p1472
I102
sg54
g172
sg20
g21
sg34
g39
sg57
g173
sg33
g12
sa(dp1473
S'trials.thisIndex'
p1474
g23
(g66
S'[\x00\x00\x00\x00\x00\x00\x00'
p1475
tp1476
Rp1477
sg16
F1.6207280158996582
sg22
g32
sg52
g910
sg51
g147
sg50
VRipete "toto" da sempre
p1478
sS'trials.thisRepN'
p1479
I0
sg59
g267
sg55
g118
sg56
g164
sg15
S'space'
p1480
sS'trials.thisN'
p1481
I103
sg53
g118
sg58
g119
sg49
g23
(g66
S'\\\x00\x00\x00\x00\x00\x00\x00'
p1482
tp1483
Rp1484
sS'trials.thisTrialN'
p1485
I103
sg54
g172
sg20
g21
sg34
g39
sg57
g173
sg33
g12
sa(dp1486
S'trials.thisIndex'
p1487
g23
(g66
S'w\x00\x00\x00\x00\x00\x00\x00'
p1488
tp1489
Rp1490
sg16
F1.6361730098724365
sg22
g32
sg52
g924
sg51
g147
sg50
VRipete "capo" da sempre
p1491
sS'trials.thisRepN'
p1492
I0
sg59
g76
sg55
g77
sg56
g132
sg15
S'space'
p1493
sS'trials.thisN'
p1494
I104
sg53
g115
sg58
g167
sg49
g23
(g66
S'x\x00\x00\x00\x00\x00\x00\x00'
p1495
tp1496
Rp1497
sS'trials.thisTrialN'
p1498
I104
sg54
g139
sg20
g21
sg34
g39
sg57
g140
sg33
g12
sa(dp1499
S'trials.thisIndex'
p1500
g23
(g66
S'\x91\x00\x00\x00\x00\x00\x00\x00'
p1501
tp1502
Rp1503
sg16
F1.5351459980010986
sg22
g32
sg52
g1334
sg51
g73
sg50
VHa detto "chito" sei volte
p1504
sS'trials.thisRepN'
p1505
I0
sg59
g267
sg55
g118
sg56
g78
sg15
S'space'
p1506
sS'trials.thisN'
p1507
I105
sg53
g115
sg58
g167
sg49
g23
(g66
S'\x92\x00\x00\x00\x00\x00\x00\x00'
p1508
tp1509
Rp1510
sS'trials.thisTrialN'
p1511
I105
sg54
g86
sg20
g21
sg34
g39
sg57
g87
sg33
g12
sa(dp1512
S'trials.thisIndex'
p1513
g23
(g66
S'Y\x00\x00\x00\x00\x00\x00\x00'
p1514
tp1515
Rp1516
sg16
F1.6880369186401367
sg22
g32
sg52
g910
sg51
g73
sg50
VHa detto "toto" sei volte
p1517
sS'trials.thisRepN'
p1518
I0
sg59
g267
sg55
g118
sg56
g164
sg15
S'space'
p1519
sS'trials.thisN'
p1520
I106
sg53
g118
sg58
g119
sg49
g23
(g66
S'Z\x00\x00\x00\x00\x00\x00\x00'
p1521
tp1522
Rp1523
sS'trials.thisTrialN'
p1524
I106
sg54
g172
sg20
g21
sg34
g39
sg57
g173
sg33
g12
sa(dp1525
S'trials.thisIndex'
p1526
g23
(g66
S'\x06\x00\x00\x00\x00\x00\x00\x00'
p1527
tp1528
Rp1529
sg16
F1.537721872329712
sg22
g32
sg52
g93
sg51
g111
sg50
VSentivo "pepo" di nuovo
p1530
sS'trials.thisRepN'
p1531
I0
sg59
g76
sg55
g77
sg56
g78
sg15
S'space'
p1532
sS'trials.thisN'
p1533
I107
sg53
g77
sg58
g81
sg49
g23
(g66
S'\x07\x00\x00\x00\x00\x00\x00\x00'
p1534
tp1535
Rp1536
sS'trials.thisTrialN'
p1537
I107
sg54
g103
sg20
g21
sg34
g39
sg57
g104
sg33
g12
sa(dp1538
S'trials.thisIndex'
p1539
g23
(g66
S')\x00\x00\x00\x00\x00\x00\x00'
p1540
tp1541
Rp1542
sg16
F1.620337963104248
sg22
g32
sg52
g1109
sg51
g73
sg50
VHa detto "peco" sei volte
p1543
sS'trials.thisRepN'
p1544
I0
sg59
g114
sg55
g115
sg56
g78
sg15
S'space'
p1545
sS'trials.thisN'
p1546
I108
sg53
g77
sg58
g81
sg49
g23
(g66
S'*\x00\x00\x00\x00\x00\x00\x00'
p1547
tp1548
Rp1549
sS'trials.thisTrialN'
p1550
I108
sg54
g103
sg20
g21
sg34
g39
sg57
g104
sg33
g12
sa(dp1551
S'trials.thisIndex'
p1552
g23
(g66
S'\x94\x00\x00\x00\x00\x00\x00\x00'
p1553
tp1554
Rp1555
sg16
F1.668915033340454
sg22
g32
sg52
g485
sg51
g94
sg50
VScrivete "coto" sul foglio
p1556
sS'trials.thisRepN'
p1557
I0
sg59
g267
sg55
g118
sg56
g164
sg15
S'space'
p1558
sS'trials.thisN'
p1559
I109
sg53
g115
sg58
g167
sg49
g23
(g66
S'\x95\x00\x00\x00\x00\x00\x00\x00'
p1560
tp1561
Rp1562
sS'trials.thisTrialN'
p1563
I109
sg54
g172
sg20
g21
sg34
g39
sg57
g173
sg33
g12
sa(dp1564
S'trials.thisIndex'
p1565
g23
(g66
S'\\\x00\x00\x00\x00\x00\x00\x00'
p1566
tp1567
Rp1568
sg16
F1.802718162536621
sg22
g32
sg52
g445
sg51
g94
sg50
VScrivete "tuto" sul foglio
p1569
sS'trials.thisRepN'
p1570
I0
sg59
g267
sg55
g118
sg56
g164
sg15
S'space'
p1571
sS'trials.thisN'
p1572
I110
sg53
g118
sg58
g119
sg49
g23
(g66
S']\x00\x00\x00\x00\x00\x00\x00'
p1573
tp1574
Rp1575
sS'trials.thisTrialN'
p1576
I110
sg54
g230
sg20
g21
sg34
g39
sg57
g87
sg33
g12
sa(dp1577
S'trials.thisIndex'
p1578
g23
(g66
S'\x86\x00\x00\x00\x00\x00\x00\x00'
p1579
tp1580
Rp1581
sg16
F1.5536479949951172
sg22
g32
sg52
g321
sg51
g111
sg50
VSentivo "cupo" di nuovo
p1582
sS'trials.thisRepN'
p1583
I0
sg59
g76
sg55
g77
sg56
g164
sg15
S'space'
p1584
sS'trials.thisN'
p1585
I111
sg53
g115
sg58
g167
sg49
g23
(g66
S'\x87\x00\x00\x00\x00\x00\x00\x00'
p1586
tp1587
Rp1588
sS'trials.thisTrialN'
p1589
I111
sg54
g230
sg20
g21
sg34
g39
sg57
g87
sg33
g12
sa(dp1590
S'trials.thisIndex'
p1591
g23
(g66
S'^\x00\x00\x00\x00\x00\x00\x00'
p1592
tp1593
Rp1594
sg16
F1.5202438831329346
sg22
g32
sg52
g445
sg51
g111
sg50
VSentivo "tuto" di nuovo
p1595
sS'trials.thisRepN'
p1596
I0
sg59
g267
sg55
g118
sg56
g164
sg15
S'space'
p1597
sS'trials.thisN'
p1598
I112
sg53
g118
sg58
g119
sg49
g23
(g66
S'_\x00\x00\x00\x00\x00\x00\x00'
p1599
tp1600
Rp1601
sS'trials.thisTrialN'
p1602
I112
sg54
g230
sg20
g21
sg34
g39
sg57
g87
sg33
g12
sa(dp1603
S'trials.thisIndex'
p1604
g23
(g66
S'\xa3\x00\x00\x00\x00\x00\x00\x00'
p1605
tp1606
Rp1607
sg16
F1.853882074356079
sg22
g32
sg52
g1177
sg51
g147
sg50
VRipete "chico" da sempre
p1608
sS'trials.thisRepN'
p1609
I0
sg59
g114
sg55
g115
sg56
g78
sg15
S'space'
p1610
sS'trials.thisN'
p1611
I113
sg53
g115
sg58
g167
sg49
g23
(g66
S'\xa4\x00\x00\x00\x00\x00\x00\x00'
p1612
tp1613
Rp1614
sS'trials.thisTrialN'
p1615
I113
sg54
g86
sg20
g21
sg34
g39
sg57
g87
sg33
g12
sa(dp1616
S'trials.thisIndex'
p1617
g23
(g66
S's\x00\x00\x00\x00\x00\x00\x00'
p1618
tp1619
Rp1620
sg16
F5.523119926452637
sg22
g32
sg52
g293
sg51
g147
sg50
VRipete "tuco" da sempre
p1621
sS'trials.thisRepN'
p1622
I0
sg59
g114
sg55
g115
sg56
g164
sg15
S'space'
p1623
sS'trials.thisN'
p1624
I114
sg53
g118
sg58
g119
sg49
g23
(g66
S't\x00\x00\x00\x00\x00\x00\x00'
p1625
tp1626
Rp1627
sS'trials.thisTrialN'
p1628
I114
sg54
g230
sg20
g21
sg34
g39
sg57
g87
sg33
g12
sa(dp1629
S'trials.thisIndex'
p1630
g23
(g66
S'k\x00\x00\x00\x00\x00\x00\x00'
p1631
tp1632
Rp1633
sg16
F1.7369039058685303
sg22
g32
sg52
g110
sg51
g147
sg50
VRipete "tico" da sempre
p1634
sS'trials.thisRepN'
p1635
I0
sg59
g114
sg55
g115
sg56
g78
sg15
S'space'
p1636
sS'trials.thisN'
p1637
I115
sg53
g118
sg58
g119
sg49
g23
(g66
S'l\x00\x00\x00\x00\x00\x00\x00'
p1638
tp1639
Rp1640
sS'trials.thisTrialN'
p1641
I115
sg54
g86
sg20
g21
sg34
g39
sg57
g87
sg33
g12
sa(dp1642
S'trials.thisIndex'
p1643
g23
(g66
S'2\x00\x00\x00\x00\x00\x00\x00'
p1644
tp1645
Rp1646
sg16
F1.5844268798828125
sg22
g32
sg52
g1149
sg51
g111
sg50
VSentivo "poco" di nuovo
p1647
sS'trials.thisRepN'
p1648
I0
sg59
g114
sg55
g115
sg56
g164
sg15
S'space'
p1649
sS'trials.thisN'
p1650
I116
sg53
g77
sg58
g81
sg49
g23
(g66
S'3\x00\x00\x00\x00\x00\x00\x00'
p1651
tp1652
Rp1653
sS'trials.thisTrialN'
p1654
I116
sg54
g172
sg20
g21
sg34
g39
sg57
g173
sg33
g12
sa(dp1655
S'trials.thisIndex'
p1656
g23
(g66
S'z\x00\x00\x00\x00\x00\x00\x00'
p1657
tp1658
Rp1659
sg16
F1.3380439281463623
sg22
g32
sg52
g179
sg51
g111
sg50
VSentivo "chepo" di nuovo
p1660
sS'trials.thisRepN'
p1661
I0
sg59
g76
sg55
g77
sg56
g78
sg15
S'space'
p1662
sS'trials.thisN'
p1663
I117
sg53
g115
sg58
g167
sg49
g23
(g66
S'{\x00\x00\x00\x00\x00\x00\x00'
p1664
tp1665
Rp1666
sS'trials.thisTrialN'
p1667
I117
sg54
g103
sg20
g21
sg34
g39
sg57
g104
sg33
g12
sa(dp1668
S'trials.thisIndex'
p1669
g23
(g66
S'.\x00\x00\x00\x00\x00\x00\x00'
p1670
tp1671
Rp1672
sg16
F1.3197450637817383
sg22
g32
sg52
g740
sg51
g111
sg50
VSentivo "pico" di nuovo
p1673
sS'trials.thisRepN'
p1674
I0
sg59
g114
sg55
g115
sg56
g78
sg15
S'space'
p1675
sS'trials.thisN'
p1676
I118
sg53
g77
sg58
g81
sg49
g23
(g66
S'/\x00\x00\x00\x00\x00\x00\x00'
p1677
tp1678
Rp1679
sS'trials.thisTrialN'
p1680
I118
sg54
g86
sg20
g21
sg34
g39
sg57
g87
sg33
g12
sa(dp1681
S'trials.thisIndex'
p1682
g23
(g66
S';\x00\x00\x00\x00\x00\x00\x00'
p1683
tp1684
Rp1685
sg16
F1.5873768329620361
sg22
g32
sg52
g362
sg51
g147
sg50
VRipete "tapo" da sempre
p1686
sS'trials.thisRepN'
p1687
I0
sg59
g76
sg55
g77
sg56
g132
sg15
S'space'
p1688
sS'trials.thisN'
p1689
I119
sg53
g118
sg58
g119
sg49
g23
(g66
S'<\x00\x00\x00\x00\x00\x00\x00'
p1690
tp1691
Rp1692
sS'trials.thisTrialN'
p1693
I119
sg54
g139
sg20
g21
sg34
g39
sg57
g140
sg33
g12
sa(dp1694
S'trials.thisIndex'
p1695
g23
(g66
S':\x00\x00\x00\x00\x00\x00\x00'
p1696
tp1697
Rp1698
sg16
F1.5039129257202148
sg22
g32
sg52
g362
sg51
g111
sg50
VSentivo "tapo" di nuovo
p1699
sS'trials.thisRepN'
p1700
I0
sg59
g76
sg55
g77
sg56
g132
sg15
S'space'
p1701
sS'trials.thisN'
p1702
I120
sg53
g118
sg58
g119
sg49
g23
(g66
S';\x00\x00\x00\x00\x00\x00\x00'
p1703
tp1704
Rp1705
sS'trials.thisTrialN'
p1706
I120
sg54
g139
sg20
g21
sg34
g39
sg57
g140
sg33
g12
sa(dp1707
S'trials.thisIndex'
p1708
g23
(g66
S'\x14\x00\x00\x00\x00\x00\x00\x00'
p1709
tp1710
Rp1711
sg16
F1.7189810276031494
sg22
g32
sg52
g264
sg51
g94
sg50
VScrivete "pato" sul foglio
p1712
sS'trials.thisRepN'
p1713
I0
sg59
g267
sg55
g118
sg56
g132
sg15
S'space'
p1714
sS'trials.thisN'
p1715
I121
sg53
g77
sg58
g81
sg49
g23
(g66
S'\x15\x00\x00\x00\x00\x00\x00\x00'
p1716
tp1717
Rp1718
sS'trials.thisTrialN'
p1719
I121
sg54
g139
sg20
g21
sg34
g39
sg57
g140
sg33
g12
sa(dp1720
S'trials.thisIndex'
p1721
g23
(g66
S'\x18\x00\x00\x00\x00\x00\x00\x00'
p1722
tp1723
Rp1724
sg16
F1.6696751117706299
sg22
g32
sg52
g512
sg51
g94
sg50
VScrivete "pito" sul foglio
p1725
sS'trials.thisRepN'
p1726
I0
sg59
g267
sg55
g118
sg56
g78
sg15
S'space'
p1727
sS'trials.thisN'
p1728
I122
sg53
g77
sg58
g81
sg49
g23
(g66
S'\x19\x00\x00\x00\x00\x00\x00\x00'
p1729
tp1730
Rp1731
sS'trials.thisTrialN'
p1732
I122
sg54
g86
sg20
g21
sg34
g39
sg57
g87
sg33
g12
sa(dp1733
S'trials.thisIndex'
p1734
g23
(g66
S'n\x00\x00\x00\x00\x00\x00\x00'
p1735
tp1736
Rp1737
sg16
F1.4543800354003906
sg22
g32
sg52
g965
sg51
g111
sg50
VSentivo "toco" di nuovo
p1738
sS'trials.thisRepN'
p1739
I0
sg59
g114
sg55
g115
sg56
g164
sg15
S'space'
p1740
sS'trials.thisN'
p1741
I123
sg53
g118
sg58
g119
sg49
g23
(g66
S'o\x00\x00\x00\x00\x00\x00\x00'
p1742
tp1743
Rp1744
sS'trials.thisTrialN'
p1745
I123
sg54
g172
sg20
g21
sg34
g39
sg57
g173
sg33
g12
sa(dp1746
S'trials.thisIndex'
p1747
g23
(g66
S'#\x00\x00\x00\x00\x00\x00\x00'
p1748
tp1749
Rp1750
sg16
F1.8206379413604736
sg22
g32
sg52
g951
sg51
g147
sg50
VRipete "puto" da sempre
p1751
sS'trials.thisRepN'
p1752
I0
sg59
g267
sg55
g118
sg56
g164
sg15
S'space'
p1753
sS'trials.thisN'
p1754
I124
sg53
g77
sg58
g81
sg49
g23
(g66
S'$\x00\x00\x00\x00\x00\x00\x00'
p1755
tp1756
Rp1757
sS'trials.thisTrialN'
p1758
I124
sg54
g230
sg20
g21
sg34
g39
sg57
g87
sg33
g12
sa(dp1759
S'trials.thisIndex'
p1760
g23
(g66
S'+\x00\x00\x00\x00\x00\x00\x00'
p1761
tp1762
Rp1763
sg16
F3.3549699783325195
sg22
g32
sg52
g1109
sg51
g147
sg50
VRipete "peco" da sempre
p1764
sS'trials.thisRepN'
p1765
I0
sg59
g114
sg55
g115
sg56
g78
sg15
S'space'
p1766
sS'trials.thisN'
p1767
I125
sg53
g77
sg58
g81
sg49
g23
(g66
S',\x00\x00\x00\x00\x00\x00\x00'
p1768
tp1769
Rp1770
sS'trials.thisTrialN'
p1771
I125
sg54
g103
sg20
g21
sg34
g39
sg57
g104
sg33
g12
sa(dp1772
S'trials.thisIndex'
p1773
g23
(g66
S',\x00\x00\x00\x00\x00\x00\x00'
p1774
tp1775
Rp1776
sg16
F1.6179759502410889
sg22
g32
sg52
g740
sg51
g94
sg50
VScrivete "pico" sul foglio
p1777
sS'trials.thisRepN'
p1778
I0
sg59
g114
sg55
g115
sg56
g78
sg15
S'space'
p1779
sS'trials.thisN'
p1780
I126
sg53
g77
sg58
g81
sg49
g23
(g66
S'-\x00\x00\x00\x00\x00\x00\x00'
p1781
tp1782
Rp1783
sS'trials.thisTrialN'
p1784
I126
sg54
g86
sg20
g21
sg34
g39
sg57
g87
sg33
g12
sa(dp1785
S'trials.thisIndex'
p1786
g23
(g66
S'\x8b\x00\x00\x00\x00\x00\x00\x00'
p1787
tp1788
Rp1789
sg16
F1.5383861064910889
sg22
g32
sg52
g1163
sg51
g147
sg50
VRipete "cato" da sempre
p1790
sS'trials.thisRepN'
p1791
I0
sg59
g267
sg55
g118
sg56
g132
sg15
S'space'
p1792
sS'trials.thisN'
p1793
I127
sg53
g115
sg58
g167
sg49
g23
(g66
S'\x8c\x00\x00\x00\x00\x00\x00\x00'
p1794
tp1795
Rp1796
sS'trials.thisTrialN'
p1797
I127
sg54
g139
sg20
g21
sg34
g39
sg57
g140
sg33
g12
sa(dp1798
S'trials.thisIndex'
p1799
g23
(g66
S'\x07\x00\x00\x00\x00\x00\x00\x00'
p1800
tp1801
Rp1802
sg16
F1.701728105545044
sg22
g32
sg52
g93
sg51
g147
sg50
VRipete "pepo" da sempre
p1803
sS'trials.thisRepN'
p1804
I0
sg59
g76
sg55
g77
sg56
g78
sg15
S'space'
p1805
sS'trials.thisN'
p1806
I128
sg53
g77
sg58
g81
sg49
g23
(g66
S'\x08\x00\x00\x00\x00\x00\x00\x00'
p1807
tp1808
Rp1809
sS'trials.thisTrialN'
p1810
I128
sg54
g103
sg20
g21
sg34
g39
sg57
g104
sg33
g12
sa(dp1811
S'trials.thisIndex'
p1812
g23
(g66
S'L\x00\x00\x00\x00\x00\x00\x00'
p1813
tp1814
Rp1815
sg16
F1.52093505859375
sg22
g32
sg52
g279
sg51
g94
sg50
VScrivete "tato" sul foglio
p1816
sS'trials.thisRepN'
p1817
I0
sg59
g267
sg55
g118
sg56
g132
sg15
S'space'
p1818
sS'trials.thisN'
p1819
I129
sg53
g118
sg58
g119
sg49
g23
(g66
S'M\x00\x00\x00\x00\x00\x00\x00'
p1820
tp1821
Rp1822
sS'trials.thisTrialN'
p1823
I129
sg54
g139
sg20
g21
sg34
g39
sg57
g140
sg33
g12
sa(dp1824
S'trials.thisIndex'
p1825
g23
(g66
S'\x8f\x00\x00\x00\x00\x00\x00\x00'
p1826
tp1827
Rp1828
sg16
F2.790710926055908
sg22
g32
sg52
g390
sg51
g147
sg50
VRipete "cheto" da sempre
p1829
sS'trials.thisRepN'
p1830
I0
sg59
g267
sg55
g118
sg56
g78
sg15
S'space'
p1831
sS'trials.thisN'
p1832
I130
sg53
g115
sg58
g167
sg49
g23
(g66
S'\x90\x00\x00\x00\x00\x00\x00\x00'
p1833
tp1834
Rp1835
sS'trials.thisTrialN'
p1836
I130
sg54
g103
sg20
g21
sg34
g39
sg57
g104
sg33
g12
sa(dp1837
S'trials.thisIndex'
p1838
g23
(g66
S'"\x00\x00\x00\x00\x00\x00\x00'
p1839
tp1840
Rp1841
sg16
F1.5028259754180908
sg22
g32
sg52
g951
sg51
g111
sg50
VSentivo "puto" di nuovo
p1842
sS'trials.thisRepN'
p1843
I0
sg59
g267
sg55
g118
sg56
g164
sg15
S'space'
p1844
sS'trials.thisN'
p1845
I131
sg53
g77
sg58
g81
sg49
g23
(g66
S'#\x00\x00\x00\x00\x00\x00\x00'
p1846
tp1847
Rp1848
sS'trials.thisTrialN'
p1849
I131
sg54
g230
sg20
g21
sg34
g39
sg57
g87
sg33
g12
sa(dp1850
S'trials.thisIndex'
p1851
g23
(g66
S'\x90\x00\x00\x00\x00\x00\x00\x00'
p1852
tp1853
Rp1854
sg16
F1.5546281337738037
sg22
g32
sg52
g1334
sg51
g94
sg50
VScrivete "chito" sul foglio
p1855
sS'trials.thisRepN'
p1856
I0
sg59
g267
sg55
g118
sg56
g78
sg15
S'space'
p1857
sS'trials.thisN'
p1858
I132
sg53
g115
sg58
g167
sg49
g23
(g66
S'\x91\x00\x00\x00\x00\x00\x00\x00'
p1859
tp1860
Rp1861
sS'trials.thisTrialN'
p1862
I132
sg54
g86
sg20
g21
sg34
g39
sg57
g87
sg33
g12
sa(dp1863
S'trials.thisIndex'
p1864
g23
(g66
S'x\x00\x00\x00\x00\x00\x00\x00'
p1865
tp1866
Rp1867
sg16
F1.9554259777069092
sg22
g32
sg52
g179
sg51
g94
sg50
VScrivete "chepo" sul foglio
p1868
sS'trials.thisRepN'
p1869
I0
sg59
g76
sg55
g77
sg56
g78
sg15
S'space'
p1870
sS'trials.thisN'
p1871
I133
sg53
g115
sg58
g167
sg49
g23
(g66
S'y\x00\x00\x00\x00\x00\x00\x00'
p1872
tp1873
Rp1874
sS'trials.thisTrialN'
p1875
I133
sg54
g103
sg20
g21
sg34
g39
sg57
g104
sg33
g12
sa(dp1876
S'trials.thisIndex'
p1877
g23
(g66
S'\x05\x00\x00\x00\x00\x00\x00\x00'
p1878
tp1879
Rp1880
sg16
F1.4542279243469238
sg22
g32
sg52
g93
sg51
g73
sg50
VHa detto "pepo" sei volte
p1881
sS'trials.thisRepN'
p1882
I0
sg59
g76
sg55
g77
sg56
g78
sg15
S'space'
p1883
sS'trials.thisN'
p1884
I134
sg53
g77
sg58
g81
sg49
g23
(g66
S'\x06\x00\x00\x00\x00\x00\x00\x00'
p1885
tp1886
Rp1887
sS'trials.thisTrialN'
p1888
I134
sg54
g103
sg20
g21
sg34
g39
sg57
g104
sg33
g12
sa(dp1889
S'trials.thisIndex'
p1890
g23
(g66
S'*\x00\x00\x00\x00\x00\x00\x00'
p1891
tp1892
Rp1893
sg16
F1.2387990951538086
sg22
g32
sg52
g1109
sg51
g111
sg50
VSentivo "peco" di nuovo
p1894
sS'trials.thisRepN'
p1895
I0
sg59
g114
sg55
g115
sg56
g78
sg15
S'space'
p1896
sS'trials.thisN'
p1897
I135
sg53
g77
sg58
g81
sg49
g23
(g66
S'+\x00\x00\x00\x00\x00\x00\x00'
p1898
tp1899
Rp1900
sS'trials.thisTrialN'
p1901
I135
sg54
g103
sg20
g21
sg34
g39
sg57
g104
sg33
g12
sa(dp1902
S'trials.thisIndex'
p1903
g23
(g66
S'6\x00\x00\x00\x00\x00\x00\x00'
p1904
tp1905
Rp1906
sg16
F1.588974952697754
sg22
g32
sg52
Vpuco
p1907
sg51
g111
sg50
VSentivo "puco" di nuovo
p1908
sS'trials.thisRepN'
p1909
I0
sg59
g114
sg55
g115
sg56
g164
sg15
S'space'
p1910
sS'trials.thisN'
p1911
I136
sg53
g77
sg58
g81
sg49
g23
(g66
S'7\x00\x00\x00\x00\x00\x00\x00'
p1912
tp1913
Rp1914
sS'trials.thisTrialN'
p1915
I136
sg54
g230
sg20
g21
sg34
g39
sg57
g87
sg33
g12
sa(dp1916
S'trials.thisIndex'
p1917
g23
(g66
S'\x7f\x00\x00\x00\x00\x00\x00\x00'
p1918
tp1919
Rp1920
sg16
F1.7048108577728271
sg22
g32
sg52
g713
sg51
g147
sg50
VRipete "chipo" da sempre
p1921
sS'trials.thisRepN'
p1922
I0
sg59
g76
sg55
g77
sg56
g78
sg15
S'space'
p1923
sS'trials.thisN'
p1924
I137
sg53
g115
sg58
g167
sg49
g23
(g66
S'\x80\x00\x00\x00\x00\x00\x00\x00'
p1925
tp1926
Rp1927
sS'trials.thisTrialN'
p1928
I137
sg54
g86
sg20
g21
sg34
g39
sg57
g87
sg33
g12
sa(dp1929
S'trials.thisIndex'
p1930
g23
(g66
S']\x00\x00\x00\x00\x00\x00\x00'
p1931
tp1932
Rp1933
sg16
F1.4706151485443115
sg22
g32
sg52
g445
sg51
g73
sg50
VHa detto "tuto" sei volte
p1934
sS'trials.thisRepN'
p1935
I0
sg59
g267
sg55
g118
sg56
g164
sg15
S'space'
p1936
sS'trials.thisN'
p1937
I138
sg53
g118
sg58
g119
sg49
g23
(g66
S'^\x00\x00\x00\x00\x00\x00\x00'
p1938
tp1939
Rp1940
sS'trials.thisTrialN'
p1941
I138
sg54
g230
sg20
g21
sg34
g39
sg57
g87
sg33
g12
sa(dp1942
S'trials.thisIndex'
p1943
g23
(g66
S'\xa8\x00\x00\x00\x00\x00\x00\x00'
p1944
tp1945
Rp1946
sg16
F4.92297101020813
sg22
g32
sg52
g307
sg51
g94
sg50
VScrivete "cuco" sul foglio
p1947
sS'trials.thisRepN'
p1948
I0
sg59
g114
sg55
g115
sg56
g164
sg15
S'space'
p1949
sS'trials.thisN'
p1950
I139
sg53
g115
sg58
g167
sg49
g23
(g66
S'\xa9\x00\x00\x00\x00\x00\x00\x00'
p1951
tp1952
Rp1953
sS'trials.thisTrialN'
p1954
I139
sg54
g230
sg20
g21
sg34
g39
sg57
g87
sg33
g12
sa(dp1955
S'trials.thisIndex'
p1956
g23
(g66
S'=\x00\x00\x00\x00\x00\x00\x00'
p1957
tp1958
Rp1959
sg16
F1.6222639083862305
sg22
g32
sg52
g250
sg51
g73
sg50
VHa detto "tepo" sei volte
p1960
sS'trials.thisRepN'
p1961
I0
sg59
g76
sg55
g77
sg56
g78
sg15
S'space'
p1962
sS'trials.thisN'
p1963
I140
sg53
g118
sg58
g119
sg49
g23
(g66
S'>\x00\x00\x00\x00\x00\x00\x00'
p1964
tp1965
Rp1966
sS'trials.thisTrialN'
p1967
I140
sg54
g103
sg20
g21
sg34
g39
sg57
g104
sg33
g12
sa(dp1968
S'trials.thisIndex'
p1969
g23
(g66
S'\x98\x00\x00\x00\x00\x00\x00\x00'
p1970
tp1971
Rp1972
sg16
F1.6044180393218994
sg22
g32
sg52
g553
sg51
g94
sg50
VScrivete "cuto" sul foglio
p1973
sS'trials.thisRepN'
p1974
I0
sg59
g267
sg55
g118
sg56
g164
sg15
S'space'
p1975
sS'trials.thisN'
p1976
I141
sg53
g115
sg58
g167
sg49
g23
(g66
S'\x99\x00\x00\x00\x00\x00\x00\x00'
p1977
tp1978
Rp1979
sS'trials.thisTrialN'
p1980
I141
sg54
g230
sg20
g21
sg34
g39
sg57
g87
sg33
g12
sa(dp1981
S'trials.thisIndex'
p1982
g23
(g66
S'q\x00\x00\x00\x00\x00\x00\x00'
p1983
tp1984
Rp1985
sg16
F1.4880399703979492
sg22
g32
sg52
g293
sg51
g73
sg50
VHa detto "tuco" sei volte
p1986
sS'trials.thisRepN'
p1987
I0
sg59
g114
sg55
g115
sg56
g164
sg15
S'space'
p1988
sS'trials.thisN'
p1989
I142
sg53
g118
sg58
g119
sg49
g23
(g66
S'r\x00\x00\x00\x00\x00\x00\x00'
p1990
tp1991
Rp1992
sS'trials.thisTrialN'
p1993
I142
sg54
g230
sg20
g21
sg34
g39
sg57
g87
sg33
g12
sa(dp1994
S'trials.thisIndex'
p1995
g23
(g66
S' \x00\x00\x00\x00\x00\x00\x00'
p1996
tp1997
Rp1998
sg16
F1.9553821086883545
sg22
g32
sg52
g951
sg51
g94
sg50
VScrivete "puto" sul foglio
p1999
sS'trials.thisRepN'
p2000
I0
sg59
g267
sg55
g118
sg56
g164
sg15
S'space'
p2001
sS'trials.thisN'
p2002
I143
sg53
g77
sg58
g81
sg49
g23
(g66
S'!\x00\x00\x00\x00\x00\x00\x00'
p2003
tp2004
Rp2005
sS'trials.thisTrialN'
p2006
I143
sg54
g230
sg20
g21
sg34
g39
sg57
g87
sg33
g12
sa(dp2007
S'trials.thisIndex'
p2008
g23
(g66
S'0\x00\x00\x00\x00\x00\x00\x00'
p2009
tp2010
Rp2011
sg16
F1.7215440273284912
sg22
g32
sg52
g1149
sg51
g94
sg50
VScrivete "poco" sul foglio
p2012
sS'trials.thisRepN'
p2013
I0
sg59
g114
sg55
g115
sg56
g164
sg15
S'space'
p2014
sS'trials.thisN'
p2015
I144
sg53
g77
sg58
g81
sg49
g23
(g66
S'1\x00\x00\x00\x00\x00\x00\x00'
p2016
tp2017
Rp2018
sS'trials.thisTrialN'
p2019
I144
sg54
g172
sg20
g21
sg34
g39
sg57
g173
sg33
g12
sa(dp2020
S'trials.thisIndex'
p2021
g23
(g66
S'%\x00\x00\x00\x00\x00\x00\x00'
p2022
tp2023
Rp2024
sg16
F1.5863471031188965
sg22
g32
sg52
g129
sg51
g73
sg50
VHa detto "paco" sei volte
p2025
sS'trials.thisRepN'
p2026
I0
sg59
g114
sg55
g115
sg56
g132
sg15
S'space'
p2027
sS'trials.thisN'
p2028
I145
sg53
g77
sg58
g81
sg49
g23
(g66
S'&\x00\x00\x00\x00\x00\x00\x00'
p2029
tp2030
Rp2031
sS'trials.thisTrialN'
p2032
I145
sg54
g139
sg20
g21
sg34
g39
sg57
g140
sg33
g12
sa(dp2033
S'trials.thisIndex'
p2034
g23
(g66
S'\x88\x00\x00\x00\x00\x00\x00\x00'
p2035
tp2036
Rp2037
sg16
F1.6711831092834473
sg22
g32
sg52
g1163
sg51
g94
sg50
VScrivete "cato" sul foglio
p2038
sS'trials.thisRepN'
p2039
I0
sg59
g267
sg55
g118
sg56
g132
sg15
S'space'
p2040
sS'trials.thisN'
p2041
I146
sg53
g115
sg58
g167
sg49
g23
(g66
S'\x89\x00\x00\x00\x00\x00\x00\x00'
p2042
tp2043
Rp2044
sS'trials.thisTrialN'
p2045
I146
sg54
g139
sg20
g21
sg34
g39
sg57
g140
sg33
g12
sa(dp2046
S'trials.thisIndex'
p2047
g23
(g66
S'\x84\x00\x00\x00\x00\x00\x00\x00'
p2048
tp2049
Rp2050
sg16
F1.5695641040802002
sg22
g32
sg52
g321
sg51
g94
sg50
VScrivete "cupo" sul foglio
p2051
sS'trials.thisRepN'
p2052
I0
sg59
g76
sg55
g77
sg56
g164
sg15
S'space'
p2053
sS'trials.thisN'
p2054
I147
sg53
g115
sg58
g167
sg49
g23
(g66
S'\x85\x00\x00\x00\x00\x00\x00\x00'
p2055
tp2056
Rp2057
sS'trials.thisTrialN'
p2058
I147
sg54
g230
sg20
g21
sg34
g39
sg57
g87
sg33
g12
sa(dp2059
S'trials.thisIndex'
p2060
g23
(g66
S'l\x00\x00\x00\x00\x00\x00\x00'
p2061
tp2062
Rp2063
sg16
F2.071445941925049
sg22
g32
sg52
g965
sg51
g94
sg50
VScrivete "toco" sul foglio
p2064
sS'trials.thisRepN'
p2065
I0
sg59
g114
sg55
g115
sg56
g164
sg15
S'space'
p2066
sS'trials.thisN'
p2067
I148
sg53
g118
sg58
g119
sg49
g23
(g66
S'm\x00\x00\x00\x00\x00\x00\x00'
p2068
tp2069
Rp2070
sS'trials.thisTrialN'
p2071
I148
sg54
g172
sg20
g21
sg34
g39
sg57
g173
sg33
g12
sa(dp2072
S'trials.thisIndex'
p2073
g23
(g66
S'm\x00\x00\x00\x00\x00\x00\x00'
p2074
tp2075
Rp2076
sg16
F1.6212258338928223
sg22
g32
sg52
g965
sg51
g73
sg50
VHa detto "toco" sei volte
p2077
sS'trials.thisRepN'
p2078
I0
sg59
g114
sg55
g115
sg56
g164
sg15
S'space'
p2079
sS'trials.thisN'
p2080
I149
sg53
g118
sg58
g119
sg49
g23
(g66
S'n\x00\x00\x00\x00\x00\x00\x00'
p2081
tp2082
Rp2083
sS'trials.thisTrialN'
p2084
I149
sg54
g172
sg20
g21
sg34
g39
sg57
g173
sg33
g12
sa(dp2085
S'trials.thisIndex'
p2086
g23
(g66
S'\x02\x00\x00\x00\x00\x00\x00\x00'
p2087
tp2088
Rp2089
sg16
F4.455554008483887
sg22
g32
sg52
g193
sg51
g111
sg50
VSentivo "papo" di nuovo
p2090
sS'trials.thisRepN'
p2091
I0
sg59
g76
sg55
g77
sg56
g132
sg15
S'space'
p2092
sS'trials.thisN'
p2093
I150
sg53
g77
sg58
g81
sg49
g23
(g66
S'\x03\x00\x00\x00\x00\x00\x00\x00'
p2094
tp2095
Rp2096
sS'trials.thisTrialN'
p2097
I150
sg54
g139
sg20
g21
sg34
g39
sg57
g140
sg33
g12
sa(dp2098
S'trials.thisIndex'
p2099
g23
(g66
S'D\x00\x00\x00\x00\x00\x00\x00'
p2100
tp2101
Rp2102
sg16
F1.437175989151001
sg22
g32
sg52
g620
sg51
g94
sg50
VScrivete "topo" sul foglio
p2103
sS'trials.thisRepN'
p2104
I0
sg59
g76
sg55
g77
sg56
g164
sg15
S'space'
p2105
sS'trials.thisN'
p2106
I151
sg53
g118
sg58
g119
sg49
g23
(g66
S'E\x00\x00\x00\x00\x00\x00\x00'
p2107
tp2108
Rp2109
sS'trials.thisTrialN'
p2110
I151
sg54
g172
sg20
g21
sg34
g39
sg57
g173
sg33
g12
sa(dp2111
S'trials.thisIndex'
p2112
g23
(g66
S'7\x00\x00\x00\x00\x00\x00\x00'
p2113
tp2114
Rp2115
sg16
F1.5366971492767334
sg22
g32
sg52
g1907
sg51
g147
sg50
VRipete "puco" da sempre
p2116
sS'trials.thisRepN'
p2117
I0
sg59
g114
sg55
g115
sg56
g164
sg15
S'space'
p2118
sS'trials.thisN'
p2119
I152
sg53
g77
sg58
g81
sg49
g23
(g66
S'8\x00\x00\x00\x00\x00\x00\x00'
p2120
tp2121
Rp2122
sS'trials.thisTrialN'
p2123
I152
sg54
g230
sg20
g21
sg34
g39
sg57
g87
sg33
g12
sa(dp2124
S'trials.thisIndex'
p2125
g23
(g66
S'\xaa\x00\x00\x00\x00\x00\x00\x00'
p2126
tp2127
Rp2128
sg16
F1.5707600116729736
sg22
g32
sg52
g307
sg51
g111
sg50
VSentivo "cuco" di nuovo
p2129
sS'trials.thisRepN'
p2130
I0
sg59
g114
sg55
g115
sg56
g164
sg15
S'space'
p2131
sS'trials.thisN'
p2132
I153
sg53
g115
sg58
g167
sg49
g23
(g66
S'\xab\x00\x00\x00\x00\x00\x00\x00'
p2133
tp2134
Rp2135
sS'trials.thisTrialN'
p2136
I153
sg54
g230
sg20
g21
sg34
g39
sg57
g87
sg33
g12
sa(dp2137
S'trials.thisIndex'
p2138
g23
(g66
S'\x0b\x00\x00\x00\x00\x00\x00\x00'
p2139
tp2140
Rp2141
sg16
F1.7879669666290283
sg22
g32
sg52
g72
sg51
g147
sg50
VRipete "pipo" da sempre
p2142
sS'trials.thisRepN'
p2143
I0
sg59
g76
sg55
g77
sg56
g78
sg15
S'space'
p2144
sS'trials.thisN'
p2145
I154
sg53
g77
sg58
g81
sg49
g23
(g66
S'\x0c\x00\x00\x00\x00\x00\x00\x00'
p2146
tp2147
Rp2148
sS'trials.thisTrialN'
p2149
I154
sg54
g86
sg20
g21
sg34
g39
sg57
g87
sg33
g12
sa(dp2150
S'trials.thisIndex'
p2151
g23
(g66
S'd\x00\x00\x00\x00\x00\x00\x00'
p2152
tp2153
Rp2154
sg16
F1.9040000438690186
sg22
g32
sg52
g207
sg51
g94
sg50
VScrivete "teco" sul foglio
p2155
sS'trials.thisRepN'
p2156
I0
sg59
g114
sg55
g115
sg56
g78
sg15
S'space'
p2157
sS'trials.thisN'
p2158
I155
sg53
g118
sg58
g119
sg49
g23
(g66
S'e\x00\x00\x00\x00\x00\x00\x00'
p2159
tp2160
Rp2161
sS'trials.thisTrialN'
p2162
I155
sg54
g103
sg20
g21
sg34
g39
sg57
g104
sg33
g12
sa(dp2163
S'trials.thisIndex'
p2164
g23
(g66
S'\n\x00\x00\x00\x00\x00\x00\x00'
p2165
tp2166
Rp2167
sg16
F1.4719128608703613
sg22
g32
sg52
g72
sg51
g111
sg50
VSentivo "pipo" di nuovo
p2168
sS'trials.thisRepN'
p2169
I0
sg59
g76
sg55
g77
sg56
g78
sg15
S'space'
p2170
sS'trials.thisN'
p2171
I156
sg53
g77
sg58
g81
sg49
g23
(g66
S'\x0b\x00\x00\x00\x00\x00\x00\x00'
p2172
tp2173
Rp2174
sS'trials.thisTrialN'
p2175
I156
sg54
g86
sg20
g21
sg34
g39
sg57
g87
sg33
g12
sa(dp2176
S'trials.thisIndex'
p2177
g23
(g66
S'g\x00\x00\x00\x00\x00\x00\x00'
p2178
tp2179
Rp2180
sg16
F1.6042380332946777
sg22
g32
sg52
g207
sg51
g147
sg50
VRipete "teco" da sempre
p2181
sS'trials.thisRepN'
p2182
I0
sg59
g114
sg55
g115
sg56
g78
sg15
S'space'
p2183
sS'trials.thisN'
p2184
I157
sg53
g118
sg58
g119
sg49
g23
(g66
S'h\x00\x00\x00\x00\x00\x00\x00'
p2185
tp2186
Rp2187
sS'trials.thisTrialN'
p2188
I157
sg54
g103
sg20
g21
sg34
g39
sg57
g104
sg33
g12
sa(dp2189
S'trials.thisIndex'
p2190
g23
(g66
S'\xa0\x00\x00\x00\x00\x00\x00\x00'
p2191
tp2192
Rp2193
sg16
F1.9039099216461182
sg22
g32
sg52
g1177
sg51
g94
sg50
VScrivete "chico" sul foglio
p2194
sS'trials.thisRepN'
p2195
I0
sg59
g114
sg55
g115
sg56
g78
sg15
S'space'
p2196
sS'trials.thisN'
p2197
I158
sg53
g115
sg58
g167
sg49
g23
(g66
S'\xa1\x00\x00\x00\x00\x00\x00\x00'
p2198
tp2199
Rp2200
sS'trials.thisTrialN'
p2201
I158
sg54
g86
sg20
g21
sg34
g39
sg57
g87
sg33
g12
sa(dp2202
S'trials.thisIndex'
p2203
g23
(g66
S'?\x00\x00\x00\x00\x00\x00\x00'
p2204
tp2205
Rp2206
sg16
F1.66975998878479
sg22
g32
sg52
g250
sg51
g147
sg50
VRipete "tepo" da sempre
p2207
sS'trials.thisRepN'
p2208
I0
sg59
g76
sg55
g77
sg56
g78
sg15
S'space'
p2209
sS'trials.thisN'
p2210
I159
sg53
g118
sg58
g119
sg49
g23
(g66
S'@\x00\x00\x00\x00\x00\x00\x00'
p2211
tp2212
Rp2213
sS'trials.thisTrialN'
p2214
I159
sg54
g103
sg20
g21
sg34
g39
sg57
g104
sg33
g12
sa(dp2215
S'trials.thisIndex'
p2216
g23
(g66
S'\x87\x00\x00\x00\x00\x00\x00\x00'
p2217
tp2218
Rp2219
sg16
F1.871155023574829
sg22
g32
sg52
g321
sg51
g147
sg50
VRipete "cupo" da sempre
p2220
sS'trials.thisRepN'
p2221
I0
sg59
g76
sg55
g77
sg56
g164
sg15
S'space'
p2222
sS'trials.thisN'
p2223
I160
sg53
g115
sg58
g167
sg49
g23
(g66
S'\x88\x00\x00\x00\x00\x00\x00\x00'
p2224
tp2225
Rp2226
sS'trials.thisTrialN'
p2227
I160
sg54
g230
sg20
g21
sg34
g39
sg57
g87
sg33
g12
sa(dp2228
S'trials.thisIndex'
p2229
g23
(g66
S'\x0c\x00\x00\x00\x00\x00\x00\x00'
p2230
tp2231
Rp2232
sg16
F1.6047790050506592
sg22
g32
sg52
g236
sg51
g94
sg50
VScrivete "popo" sul foglio
p2233
sS'trials.thisRepN'
p2234
I0
sg59
g76
sg55
g77
sg56
g164
sg15
S'space'
p2235
sS'trials.thisN'
p2236
I161
sg53
g77
sg58
g81
sg49
g23
(g66
S'\r\x00\x00\x00\x00\x00\x00\x00'
p2237
tp2238
Rp2239
sS'trials.thisTrialN'
p2240
I161
sg54
g172
sg20
g21
sg34
g39
sg57
g173
sg33
g12
sa(dp2241
S'trials.thisIndex'
p2242
g23
(g66
S'\x08\x00\x00\x00\x00\x00\x00\x00'
p2243
tp2244
Rp2245
sg16
F1.6878321170806885
sg22
g32
sg52
g72
sg51
g94
sg50
VScrivete "pipo" sul foglio
p2246
sS'trials.thisRepN'
p2247
I0
sg59
g76
sg55
g77
sg56
g78
sg15
S'space'
p2248
sS'trials.thisN'
p2249
I162
sg53
g77
sg58
g81
sg49
g23
(g66
S'\t\x00\x00\x00\x00\x00\x00\x00'
p2250
tp2251
Rp2252
sS'trials.thisTrialN'
p2253
I162
sg54
g86
sg20
g21
sg34
g39
sg57
g87
sg33
g12
sa(dp2254
S'trials.thisIndex'
p2255
g23
(g66
S'\x03\x00\x00\x00\x00\x00\x00\x00'
p2256
tp2257
Rp2258
sg16
F1.787755012512207
sg22
g32
sg52
g193
sg51
g147
sg50
VRipete "papo" da sempre
p2259
sS'trials.thisRepN'
p2260
I0
sg59
g76
sg55
g77
sg56
g132
sg15
S'space'
p2261
sS'trials.thisN'
p2262
I163
sg53
g77
sg58
g81
sg49
g23
(g66
S'\x04\x00\x00\x00\x00\x00\x00\x00'
p2263
tp2264
Rp2265
sS'trials.thisTrialN'
p2266
I163
sg54
g139
sg20
g21
sg34
g39
sg57
g140
sg33
g12
sa(dp2267
S'trials.thisIndex'
p2268
g23
(g66
S'\x9b\x00\x00\x00\x00\x00\x00\x00'
p2269
tp2270
Rp2271
sg16
F1.5206091403961182
sg22
g32
sg52
g553
sg51
g147
sg50
VRipete "cuto" da sempre
p2272
sS'trials.thisRepN'
p2273
I0
sg59
g267
sg55
g118
sg56
g164
sg15
S'space'
p2274
sS'trials.thisN'
p2275
I164
sg53
g115
sg58
g167
sg49
g23
(g66
S'\x9c\x00\x00\x00\x00\x00\x00\x00'
p2276
tp2277
Rp2278
sS'trials.thisTrialN'
p2279
I164
sg54
g230
sg20
g21
sg34
g39
sg57
g87
sg33
g12
sa(dp2280
S'trials.thisIndex'
p2281
g23
(g66
S'T\x00\x00\x00\x00\x00\x00\x00'
p2282
tp2283
Rp2284
sg16
F1.6046350002288818
sg22
g32
sg52
g606
sg51
g94
sg50
VScrivete "tito" sul foglio
p2285
sS'trials.thisRepN'
p2286
I0
sg59
g267
sg55
g118
sg56
g78
sg15
S'space'
p2287
sS'trials.thisN'
p2288
I165
sg53
g118
sg58
g119
sg49
g23
(g66
S'U\x00\x00\x00\x00\x00\x00\x00'
p2289
tp2290
Rp2291
sS'trials.thisTrialN'
p2292
I165
sg54
g86
sg20
g21
sg34
g39
sg57
g87
sg33
g12
sa(dp2293
S'trials.thisIndex'
p2294
g23
(g66
S'\xa1\x00\x00\x00\x00\x00\x00\x00'
p2295
tp2296
Rp2297
sg16
F1.3202171325683594
sg22
g32
sg52
g1177
sg51
g73
sg50
VHa detto "chico" sei volte
p2298
sS'trials.thisRepN'
p2299
I0
sg59
g114
sg55
g115
sg56
g78
sg15
S'space'
p2300
sS'trials.thisN'
p2301
I166
sg53
g115
sg58
g167
sg49
g23
(g66
S'\xa2\x00\x00\x00\x00\x00\x00\x00'
p2302
tp2303
Rp2304
sS'trials.thisTrialN'
p2305
I166
sg54
g86
sg20
g21
sg34
g39
sg57
g87
sg33
g12
sa(dp2306
S'trials.thisIndex'
p2307
g23
(g66
S'\x11\x00\x00\x00\x00\x00\x00\x00'
p2308
tp2309
Rp2310
sg16
F1.4378089904785156
sg22
g32
sg52
g376
sg51
g73
sg50
VHa detto "pupo" sei volte
p2311
sS'trials.thisRepN'
p2312
I0
sg59
g76
sg55
g77
sg56
g164
sg15
S'space'
p2313
sS'trials.thisN'
p2314
I167
sg53
g77
sg58
g81
sg49
g23
(g66
S'\x12\x00\x00\x00\x00\x00\x00\x00'
p2315
tp2316
Rp2317
sS'trials.thisTrialN'
p2318
I167
sg54
g230
sg20
g21
sg34
g39
sg57
g87
sg33
g12
sa(dp2319
S'trials.thisIndex'
p2320
g23
(g66
S'5\x00\x00\x00\x00\x00\x00\x00'
p2321
tp2322
Rp2323
sg16
F1.5879950523376465
sg22
g32
sg52
g1907
sg51
g73
sg50
VHa detto "puco" sei volte
p2324
sS'trials.thisRepN'
p2325
I0
sg59
g114
sg55
g115
sg56
g164
sg15
S'space'
p2326
sS'trials.thisN'
p2327
I168
sg53
g77
sg58
g81
sg49
g23
(g66
S'6\x00\x00\x00\x00\x00\x00\x00'
p2328
tp2329
Rp2330
sS'trials.thisTrialN'
p2331
I168
sg54
g230
sg20
g21
sg34
g39
sg57
g87
sg33
g12
sa(dp2332
S'trials.thisIndex'
p2333
g23
(g66
S'\xa5\x00\x00\x00\x00\x00\x00\x00'
p2334
tp2335
Rp2336
sg16
F1.372041940689087
sg22
g32
sg52
g161
sg51
g73
sg50
VHa detto "coco" sei volte
p2337
sS'trials.thisRepN'
p2338
I0
sg59
g114
sg55
g115
sg56
g164
sg15
S'space'
p2339
sS'trials.thisN'
p2340
I169
sg53
g115
sg58
g167
sg49
g23
(g66
S'\xa6\x00\x00\x00\x00\x00\x00\x00'
p2341
tp2342
Rp2343
sS'trials.thisTrialN'
p2344
I169
sg54
g172
sg20
g21
sg34
g39
sg57
g173
sg33
g12
sa(dp2345
S'trials.thisIndex'
p2346
g23
(g66
S'\x1b\x00\x00\x00\x00\x00\x00\x00'
p2347
tp2348
Rp2349
sg16
F1.9197309017181396
sg22
g32
sg52
g512
sg51
g147
sg50
VRipete "pito" da sempre
p2350
sS'trials.thisRepN'
p2351
I0
sg59
g267
sg55
g118
sg56
g78
sg15
S'space'
p2352
sS'trials.thisN'
p2353
I170
sg53
g77
sg58
g81
sg49
g23
(g66
S'\x1c\x00\x00\x00\x00\x00\x00\x00'
p2354
tp2355
Rp2356
sS'trials.thisTrialN'
p2357
I170
sg54
g86
sg20
g21
sg34
g39
sg57
g87
sg33
g12
sa(dp2358
S'trials.thisIndex'
p2359
g23
(g66
S'4\x00\x00\x00\x00\x00\x00\x00'
p2360
tp2361
Rp2362
sg16
F2.3042409420013428
sg22
g32
sg52
g1907
sg51
g94
sg50
VScrivete "puco" sul foglio
p2363
sS'trials.thisRepN'
p2364
I0
sg59
g114
sg55
g115
sg56
g164
sg15
S'space'
p2365
sS'trials.thisN'
p2366
I171
sg53
g77
sg58
g81
sg49
g23
(g66
S'5\x00\x00\x00\x00\x00\x00\x00'
p2367
tp2368
Rp2369
sS'trials.thisTrialN'
p2370
I171
sg54
g230
sg20
g21
sg34
g39
sg57
g87
sg33
g12
sasS'loops'
p2371
(lp2372
g0
(cpsychopy.data.trial
TrialHandler
p2373
g2
Ntp2374
Rp2375
(dp2376
S'origin'
p2377
NsS'thisTrial'
p2378
(lp2379
sS'_exp'
p2380
I4633526096
sg11
S'trials'
p2381
sg6
I-1
sS'thisRepN'
p2382
I1
sg17
I01
sg18
g19
sS'data'
p2383
g0
(cpsychopy.data.base
DataHandler
p2384
c__builtin__
dict
p2385
(dp2386
S'ran'
p2387
cnumpy.ma.core
_mareconstruct
p2388
(cnumpy.ma.core
MaskedArray
p2389
cnumpy
ndarray
p2390
(I0
tp2391
S'b'
p2392
tp2393
Rp2394
(I1
(I172
I1
tp2395
g24
(S'f4'
p2396
I0
I1
tp2397
Rp2398
(I3
S'<'
p2399
NNNI-1
I-1
I0
tp2400
bI00
S'\x00\x00\x80?\x00\x00\x80?\x00\x00\x80?\x00\x00\x80?\x00\x00\x80?\x00\x00\x80?\x00\x00\x80?\x00\x00\x80?\x00\x00\x80?\x00\x00\x80?\x00\x00\x80?\x00\x00\x80?\x00\x00\x80?\x00\x00\x80?\x00\x00\x80?\x00\x00\x80?\x00\x00\x80?\x00\x00\x80?\x00\x00\x80?\x00\x00\x80?\x00\x00\x80?\x00\x00\x80?\x00\x00\x80?\x00\x00\x80?\x00\x00\x80?\x00\x00\x80?\x00\x00\x80?\x00\x00\x80?\x00\x00\x80?\x00\x00\x80?\x00\x00\x80?\x00\x00\x80?\x00\x00\x80?\x00\x00\x80?\x00\x00\x80?\x00\x00\x80?\x00\x00\x80?\x00\x00\x80?\x00\x00\x80?\x00\x00\x80?\x00\x00\x80?\x00\x00\x80?\x00\x00\x80?\x00\x00\x80?\x00\x00\x80?\x00\x00\x80?\x00\x00\x80?\x00\x00\x80?\x00\x00\x80?\x00\x00\x80?\x00\x00\x80?\x00\x00\x80?\x00\x00\x80?\x00\x00\x80?\x00\x00\x80?\x00\x00\x80?\x00\x00\x80?\x00\x00\x80?\x00\x00\x80?\x00\x00\x80?\x00\x00\x80?\x00\x00\x80?\x00\x00\x80?\x00\x00\x80?\x00\x00\x80?\x00\x00\x80?\x00\x00\x80?\x00\x00\x80?\x00\x00\x80?\x00\x00\x80?\x00\x00\x80?\x00\x00\x80?\x00\x00\x80?\x00\x00\x80?\x00\x00\x80?\x00\x00\x80?\x00\x00\x80?\x00\x00\x80?\x00\x00\x80?\x00\x00\x80?\x00\x00\x80?\x00\x00\x80?\x00\x00\x80?\x00\x00\x80?\x00\x00\x80?\x00\x00\x80?\x00\x00\x80?\x00\x00\x80?\x00\x00\x80?\x00\x00\x80?\x00\x00\x80?\x00\x00\x80?\x00\x00\x80?\x00\x00\x80?\x00\x00\x80?\x00\x00\x80?\x00\x00\x80?\x00\x00\x80?\x00\x00\x80?\x00\x00\x80?\x00\x00\x80?\x00\x00\x80?\x00\x00\x80?\x00\x00\x80?\x00\x00\x80?\x00\x00\x80?\x00\x00\x80?\x00\x00\x80?\x00\x00\x80?\x00\x00\x80?\x00\x00\x80?\x00\x00\x80?\x00\x00\x80?\x00\x00\x80?\x00\x00\x80?\x00\x00\x80?\x00\x00\x80?\x00\x00\x80?\x00\x00\x80?\x00\x00\x80?\x00\x00\x80?\x00\x00\x80?\x00\x00\x80?\x00\x00\x80?\x00\x00\x80?\x00\x00\x80?\x00\x00\x80?\x00\x00\x80?\x00\x00\x80?\x00\x00\x80?\x00\x00\x80?\x00\x00\x80?\x00\x00\x80?\x00\x00\x80?\x00\x00\x80?\x00\x00\x80?\x00\x00\x80?\x00\x00\x80?\x00\x00\x80?\x00\x00\x80?\x00\x00\x80?\x00\x00\x80?\x00\x00\x80?\x00\x00\x80?\x00\x00\x80?\x00\x00\x80?\x00\x00\x80?\x00\x00\x80?\x00\x00\x80?\x00\x00\x80?\x00\x00\x80?\x00\x00\x80?\x00\x00\x80?\x00\x00\x80?\x00\x00\x80?\x00\x00\x80?\x00\x00\x80?\x00\x00\x80?\x00\x00\x80?\x00\x00\x80?\x00\x00\x80?\x00\x00\x80?\x00\x00\x80?\x00\x00\x80?\x00\x00\x80?\x00\x00\x80?\x00\x00\x80?\x00\x00\x80?\x00\x00\x80?\x00\x00\x80?\x00\x00\x80?\x00\x00\x80?'
p2401
S'\x00\x00\x00\x00\x00\x00\x00\x00\x00\x00\x00\x00\x00\x00\x00\x00\x00\x00\x00\x00\x00\x00\x00\x00\x00\x00\x00\x00\x00\x00\x00\x00\x00\x00\x00\x00\x00\x00\x00\x00\x00\x00\x00\x00\x00\x00\x00\x00\x00\x00\x00\x00\x00\x00\x00\x00\x00\x00\x00\x00\x00\x00\x00\x00\x00\x00\x00\x00\x00\x00\x00\x00\x00\x00\x00\x00\x00\x00\x00\x00\x00\x00\x00\x00\x00\x00\x00\x00\x00\x00\x00\x00\x00\x00\x00\x00\x00\x00\x00\x00\x00\x00\x00\x00\x00\x00\x00\x00\x00\x00\x00\x00\x00\x00\x00\x00\x00\x00\x00\x00\x00\x00\x00\x00\x00\x00\x00\x00\x00\x00\x00\x00\x00\x00\x00\x00\x00\x00\x00\x00\x00\x00\x00\x00\x00\x00\x00\x00\x00\x00\x00\x00\x00\x00\x00\x00\x00\x00\x00\x00\x00\x00\x00\x00\x00\x00\x00\x00\x00\x00\x00\x00'
p2402
Ntp2403
bsg16
g2388
(g2389
g2390
g2391
g2392
tp2404
Rp2405
(I1
(I172
I1
tp2406
g2398
I00
S'z\x14\xf8?\xb8\xed\x1b@\xe6\x93\x8e@(\xd5\xe4?\x02e\x02@$$\xba?\x12\xd4\xc4?:\xd2\xd9?\xe2\n\xd8?~\xa0<A\xa4g\xbc?\x1a\xdc\xe4?fi\xcd?\x14\x98\xe4?\x90\x0b\xd6?4\xc2\xd3?\x08r\xde? \n\xb8?\xce\x17\xc9?\xeeu\xbe?\x92\x07\xdc?\xb0\xb1\xd5?\xe4\xfb\xea?\x0eR\xfc?\xea\xb7\xd5?\xbc\x1e\xf6?:\xe9\xb9?\xbe\xb9\xf5?V\x80\x10@\xf2\x94\xd1?\xce\x8a\xdc?\nL\xcf?\xf6I\xfa?\xc0%\xde?\x9a\\\xc0?\xaa\n\xe9?\x8c4\xcd?l\r\xcb?1\xf0\n@L\x84\xf1?\x98R\xed?<g\xcf?\xf8\x90\x9e?\xd4\xb7V@\xd6\x19\xcf?\xaa\xc1\xbe?h\xed\xa8?\xda\x02\xd8?\x8e[\xdc?"\xc5\xc4?\x80\xce\xca?\x9e\xe6\xe2?\xafx\x13@lC\xcb?\x88c\xcb?~\xb2\xc4?p\xc9\xd5?\xae\xd3\xc6?8\x80\xc0?*/\xcb?lX\xf1?X\xa6\xcf?\xb0\xfe\xd3?\xb2\xba\xd5?\\>\xde?\xf0\x9e\xd5?\xb4\x05\xda?\xe4\xc0\xd3?b\xf5\xb7?\x88\xd4\xe4?\x08\x1d\xda?z\x18\xda?\x04\x92\xe4?\xf0.\xcd?\x86\x02\xde?o\x81\x05@\x00\xae\xc2?.!\xeb?\xfax\xbe?\x86\x06\xf6?H\x8e\xe6?\xb6\xf5\xd9?^\x05\xd8?\xe2\xac\xe2?\xaed\xcd?\xb8\xe4\xc6?H\xa3\xc2?\xe0\xb3\xf1?\xb7E\x08@\x98\x11\xd8? \xf2\xcc?\x04t\xcf?x\xbf\xe6?\x1e=\xbc?Z\x97\xc2?J\xf1\xd9?\x95\xb8\x07@\x94\x8c\xe4?r\xca\xc8?\xd6\x18\xdc?F\xb6\xf3?\xd8\xb5\xf3?\xf8\xa9\xc2?\xacW\xcd?\xa6\xb5\xd7?,\x91\xb3?\xf0\xd8\xbd?\xdeR\xde?\x92\x92\x04@T\x84\xcf? )\xba?\xcen\x02@\x98\xf8\xdb?\x18x\xbe?h\xac\xd5?f\xbd\xb0@\x00\xe4\xe4?\x10\xa0\xf3?\xcf\xb7\xa0B\x1en\xd1?fK\xfa?\xa6g\xe0?\x06E\xab?\xc0"\xed?\xb4;\x00@\x841\xe7A~h\xc0?>7\xda?\x87pp@2\x92\xf3?\x04\xc0\xc4?Z\x89\xd1?z\xe7\xc8?\xd8\x04\xd8?\xf0\xdd\xc6?\x02\x82\xef?T\xe9\xd5?\x96\xcd\x99@T\x06\xb0?\xd6\xe9\xc4?\xa4\x8f\xf5?.U\xd1?\xcc\xd1\xd5?\x02\x9b2@\x0e\xfe\xc6?\xaa\x7f\xc4?z\xd8\xd7?$&\xdc?\x02\x9f\xd5?\x1a\xa2\xe4?J\xed\xb5?T<\xdc?\x92]\xcd?\xb6\xa2\xd5?\xcc\x0b\xdc?R\xa3\xc2?~\xdd\xeb?\xf6#\xcd?\xdc(\xdc?\nQ\xe0?R\xb3\xf3?\xe0\xfc\xa8?\x14\xea\xf5?\x02L\xed?\x8f\xc1\x07@\x12\x9f\xaf?\xfc\xf8\xb9?\x18\x83\xc9?\xfa\x88\x9d@\xee\xef\xe6?\xaa\x0e\xc9?\x9a\xb4\'@'
p2407
S'\x00\x00\x00\x00\x00\x00\x00\x00\x00\x00\x00\x00\x00\x00\x00\x00\x00\x00\x00\x00\x00\x00\x00\x00\x00\x00\x00\x00\x00\x00\x00\x00\x00\x00\x00\x00\x00\x00\x00\x00\x00\x00\x00\x00\x00\x00\x00\x00\x00\x00\x00\x00\x00\x00\x00\x00\x00\x00\x00\x00\x00\x00\x00\x00\x00\x00\x00\x00\x00\x00\x00\x00\x00\x00\x00\x00\x00\x00\x00\x00\x00\x00\x00\x00\x00\x00\x00\x00\x00\x00\x00\x00\x00\x00\x00\x00\x00\x00\x00\x00\x00\x00\x00\x00\x00\x00\x00\x00\x00\x00\x00\x00\x00\x00\x00\x00\x00\x00\x00\x00\x00\x00\x00\x00\x00\x00\x00\x00\x00\x00\x00\x00\x00\x00\x00\x00\x00\x00\x00\x00\x00\x00\x00\x00\x00\x00\x00\x00\x00\x00\x00\x00\x00\x00\x00\x00\x00\x00\x00\x00\x00\x00\x00\x00\x00\x00\x00\x00\x00\x00\x00\x00'
p2408
Ntp2409
bsS'order'
p2410
g2388
(g2389
g2390
g2391
g2392
tp2411
Rp2412
(I1
(I172
I1
tp2413
g2398
I00
S'\x00\x008B\x00\x00\xe0@\x00\x00\x16C\x00\x00#C\x00\x00\x80?\x00\x00\x06C\x00\x00\xd6B\x00\x00\x00C\x00\x00"C\x00\x00\x00\x00\x00\x00\x1cC\x00\x00\x1aC\x00\x00!C\x00\x00 A\x00\x00\xb2B\x00\x00hB\x00\x00\xb4B\x00\x00\'C\x00\x00\xa8B\x00\x00\xa0A\x00\x00\xf2B\x00\x00@A\x00\x00lB\x00\x00\xbeB\x00\x00\xf4B\x00\x00\x98B\x00\x00\xf0A\x00\x00*C\x00\x00`B\x00\x00\xf8A\x00\x00\x82B\x00\x00\xacB\x00\x00\x0fC\x00\x00|B\x00\x00\x03C\x00\x00\xf8B\x00\x00@@\x00\x00\x11C\x00\x00\x86B\x00\x00DB\x00\x00\x96B\x00\x00\xd8B\x00\x00\x07C\x00\x00\xfaB\x00\x00\xfcB\x00\x00dB\x00\x00\xecB\x00\x00<B\x00\x00\x10C\x00\x00\xcaB\x00\x00\xe8B\x00\x00\x9cB\x00\x00+C\x00\x00(C\x00\x00\x08C\x00\x00\x18C\x00\x00\x98A\x00\x00$B\x00\x00\xf0B\x00\x00\xeeB\x00\x000A\x00\x00\x0cC\x00\x00\x8aB\x00\x00\x1fC\x00\x00\xa4B\x00\x00\xe8A\x00\x00\x88A\x00\x00\x80@\x00\x00\x17C\x00\x00\x18B\x00\x00 B\x00\x00\xbaB\x00\x00\xc4B\x00\x00\xaaB\x00\x00\x10A\x00\x00\x1cB\x00\x00\x01C\x00\x00PA\x00\x00\x90B\x00\x00\x9aB\x00\x00\x0cB\x00\x00\xc0A\x00\x00\xbcB\x00\x00\xb8A\x00\x00%C\x00\x00\x14B\x00\x00\\B\x00\x00\xb0B\x00\x00\x8cB\x00\x00\xd4B\x00\x00pB\x00\x00\xceB\x00\x00\xdcB\x00\x00\nC\x00\x00\xe0B\x00\x00\xc8A\x00\x00TB\x00\x00\xd0A\x00\x00\x90A\x00\x00\x08B\x00\x00\x1bC\x00\x00\x00A\x00\x00xB\x00\x00\x1dC\x00\x00\xd8A\x00\x00\x92B\x00\x00\x00@\x00\x00\xe6B\x00\x00\x14C\x00\x00\x15C\x00\x00\xf6B\x00\x00\x80B\x00\x00\x00B\x00\x00\x0eC\x00\x00`A\x00\x00\xe4B\x00\x00\xb6B\x00\x00tB\x00\x00\xaeB\x00\x00\xd0B\x00\x00\x05C\x00\x00\xc0@\x00\x00\xeaB\x00\x00XB\x00\x00\xa2B\x00\x00@B\x00\x004B\x00\x00\tC\x00\x00\x8eB\x00\x00(B\x00\x00\xb0A\x00\x00\xccB\x00\x00\x13C\x00\x00\x80A\x00\x00\xdeB\x00\x00 C\x00\x00\x12C\x00\x00\x9eB\x00\x00\xc2B\x00\x00\xfeB\x00\x00\xc6B\x00\x00\xa8A\x00\x00LB\x00\x00\x02C\x00\x00\x04C\x00\x00\xd2B\x00\x00\xc8B\x00\x00\xb8B\x00\x00\xdaB\x00\x00,B\x00\x00\xa6B\x00\x00\xe0A\x00\x00\rC\x00\x00\x04B\x00\x00HB\x00\x00$C\x00\x00\x94B\x00\x00\x84B\x00\x000B\x00\x00PB\x00\x00\x1eC\x00\x00&C\x00\x00\xa0B\x00\x00\xe2B\x00\x00\xc0B\x00\x00)C\x00\x00\xa0@\x00\x00\x88B\x00\x00\x0bC\x00\x00pA\x00\x00\x19C\x00\x00\x10B'
p2414
S'\x00\x00\x00\x00\x00\x00\x00\x00\x00\x00\x00\x00\x00\x00\x00\x00\x00\x00\x00\x00\x00\x00\x00\x00\x00\x00\x00\x00\x00\x00\x00\x00\x00\x00\x00\x00\x00\x00\x00\x00\x00\x00\x00\x00\x00\x00\x00\x00\x00\x00\x00\x00\x00\x00\x00\x00\x00\x00\x00\x00\x00\x00\x00\x00\x00\x00\x00\x00\x00\x00\x00\x00\x00\x00\x00\x00\x00\x00\x00\x00\x00\x00\x00\x00\x00\x00\x00\x00\x00\x00\x00\x00\x00\x00\x00\x00\x00\x00\x00\x00\x00\x00\x00\x00\x00\x00\x00\x00\x00\x00\x00\x00\x00\x00\x00\x00\x00\x00\x00\x00\x00\x00\x00\x00\x00\x00\x00\x00\x00\x00\x00\x00\x00\x00\x00\x00\x00\x00\x00\x00\x00\x00\x00\x00\x00\x00\x00\x00\x00\x00\x00\x00\x00\x00\x00\x00\x00\x00\x00\x00\x00\x00\x00\x00\x00\x00\x00\x00\x00\x00\x00\x00'
p2415
Ntp2416
bsg15
cnumpy.core.multiarray
_reconstruct
p2417
(g2390
(I0
tp2418
g2392
tp2419
Rp2420
(I1
(I172
I1
tp2421
g24
(S'O8'
p2422
I0
I1
tp2423
Rp2424
(I3
S'|'
p2425
NNNI-1
I-1
I63
tp2426
bI00
(lp2427
g729
ag196
ag2092
ag2261
ag97
ag1883
ag1532
ag1805
ag2248
ag79
ag2170
ag2144
ag2235
ag239
ag1297
ag886
ag1310
ag2313
ag1232
ag379
ag1714
ag268
ag899
ag1376
ag1727
ag1125
ag515
ag2352
ag860
ag529
ag981
ag1258
ag2001
ag954
ag1844
ag1753
ag133
ag2027
ag1007
ag769
ag1112
ag1545
ag1896
ag1766
ag1779
ag873
ag1675
ag743
ag2014
ag1454
ag1649
ag1152
ag2365
ag2326
ag1910
ag2118
ag365
ag662
ag1701
ag1688
ag253
ag1962
ag1033
ag2209
ag1206
ag501
ag337
ag150
ag2105
ag623
ag649
ag1350
ag1415
ag1245
ag224
ag636
ag1818
ag282
ag1072
ag1138
ag582
ag434
ag1363
ag421
ag2287
ag609
ag847
ag1284
ag1046
ag1519
ag913
ag1480
ag1571
ag1936
ag1597
ag448
ag821
ag461
ag351
ag569
ag2157
ag210
ag940
ag2183
ag474
ag1085
ag116
ag1636
ag2066
ag2079
ag1740
ag968
ag542
ag1988
ag296
ag1623
ag1323
ag927
ag1271
ag1493
ag1870
ag182
ag1662
ag834
ag1193
ag756
ag716
ag1923
ag1059
ag675
ag407
ag1467
ag2053
ag324
ag1584
ag2222
ag2040
ag1166
ag1402
ag1792
ag1428
ag393
ag795
ag1831
ag1857
ag1506
ag1441
ag1337
ag1558
ag688
ag1219
ag488
ag1975
ag556
ag782
ag2274
ag1098
ag994
ag702
ag808
ag2196
ag2300
ag1180
ag1610
ag1389
ag2339
ag165
ag1020
ag1949
ag310
ag2131
ag595
atp2428
bstp2429
Rp2430
(dp2431
S'isNumeric'
p2432
(dp2433
g2387
I01
sg16
I01
sg2410
I01
sg15
I00
ssg2381
g2375
sS'dataTypes'
p2434
(lp2435
g2387
ag2410
ag15
ag16
asS'dataShape'
p2436
(lp2437
I172
aI1
asbsS'method'
p2438
S'random'
p2439
sS'sequenceIndices'
p2440
g2417
(g2390
(I0
tp2441
g2392
tp2442
Rp2443
(I1
(I172
I1
tp2444
g66
I00
S'\t\x00\x00\x00\x00\x00\x00\x00\x04\x00\x00\x00\x00\x00\x00\x00j\x00\x00\x00\x00\x00\x00\x00$\x00\x00\x00\x00\x00\x00\x00C\x00\x00\x00\x00\x00\x00\x00\xa6\x00\x00\x00\x00\x00\x00\x00y\x00\x00\x00\x00\x00\x00\x00\x01\x00\x00\x00\x00\x00\x00\x00e\x00\x00\x00\x00\x00\x00\x00J\x00\x00\x00\x00\x00\x00\x00\r\x00\x00\x00\x00\x00\x00\x00<\x00\x00\x00\x00\x00\x00\x00\x15\x00\x00\x00\x00\x00\x00\x00M\x00\x00\x00\x00\x00\x00\x00r\x00\x00\x00\x00\x00\x00\x00\xa9\x00\x00\x00\x00\x00\x00\x00\x85\x00\x00\x00\x00\x00\x00\x00B\x00\x00\x00\x00\x00\x00\x00b\x00\x00\x00\x00\x00\x00\x008\x00\x00\x00\x00\x00\x00\x00\x13\x00\x00\x00\x00\x00\x00\x00\x8d\x00\x00\x00\x00\x00\x00\x00\x82\x00\x00\x00\x00\x00\x00\x00S\x00\x00\x00\x00\x00\x00\x00Q\x00\x00\x00\x00\x00\x00\x00_\x00\x00\x00\x00\x00\x00\x00a\x00\x00\x00\x00\x00\x00\x00h\x00\x00\x00\x00\x00\x00\x00\x97\x00\x00\x00\x00\x00\x00\x00A\x00\x00\x00\x00\x00\x00\x00\x1a\x00\x00\x00\x00\x00\x00\x00\x1d\x00\x00\x00\x00\x00\x00\x00p\x00\x00\x00\x00\x00\x00\x00\x99\x00\x00\x00\x00\x00\x00\x00c\x00\x00\x00\x00\x00\x00\x00P\x00\x00\x00\x00\x00\x00\x00\xab\x00\x00\x00\x00\x00\x00\x00U\x00\x00\x00\x00\x00\x00\x00E\x00\x00\x00\x00\x00\x00\x00K\x00\x00\x00\x00\x00\x00\x00F\x00\x00\x00\x00\x00\x00\x009\x00\x00\x00\x00\x00\x00\x00\x81\x00\x00\x00\x00\x00\x00\x00\x95\x00\x00\x00\x00\x00\x00\x00\x9e\x00\x00\x00\x00\x00\x00\x00~\x00\x00\x00\x00\x00\x00\x00\x00\x00\x00\x00\x00\x00\x00\x00/\x00\x00\x00\x00\x00\x00\x00}\x00\x00\x00\x00\x00\x00\x00\'\x00\x00\x00\x00\x00\x00\x00\x9a\x00\x00\x00\x00\x00\x00\x00\x8e\x00\x00\x00\x00\x00\x00\x00\x9f\x00\x00\x00\x00\x00\x00\x00`\x00\x00\x00\x00\x00\x00\x00{\x00\x00\x00\x00\x00\x00\x00V\x00\x00\x00\x00\x00\x00\x00\x1c\x00\x00\x00\x00\x00\x00\x00-\x00\x00\x00\x00\x00\x00\x00\x0f\x00\x00\x00\x00\x00\x00\x00\x16\x00\x00\x00\x00\x00\x00\x00Z\x00\x00\x00\x00\x00\x00\x00u\x00\x00\x00\x00\x00\x00\x00f\x00\x00\x00\x00\x00\x00\x00!\x00\x00\x00\x00\x00\x00\x00o\x00\x00\x00\x00\x00\x00\x00\x1e\x00\x00\x00\x00\x00\x00\x00\x9d\x00\x00\x00\x00\x00\x00\x00&\x00\x00\x00\x00\x00\x00\x00\xa7\x00\x00\x00\x00\x00\x00\x00>\x00\x00\x00\x00\x00\x00\x00X\x00\x00\x00\x00\x00\x00\x00\x80\x00\x00\x00\x00\x00\x00\x00N\x00\x00\x00\x00\x00\x00\x00i\x00\x00\x00\x00\x00\x00\x00\x9c\x00\x00\x00\x00\x00\x00\x00(\x00\x00\x00\x00\x00\x00\x00\x19\x00\x00\x00\x00\x00\x00\x00O\x00\x00\x00\x00\x00\x00\x003\x00\x00\x00\x00\x00\x00\x00\x89\x00\x00\x00\x00\x00\x00\x00\xa2\x00\x00\x00\x00\x00\x00\x00|\x00\x00\x00\x00\x00\x00\x00@\x00\x00\x00\x00\x00\x00\x00\x96\x00\x00\x00\x00\x00\x00\x00\x12\x00\x00\x00\x00\x00\x00\x00I\x00\x00\x00\x00\x00\x00\x00\x1f\x00\x00\x00\x00\x00\x00\x00v\x00\x00\x00\x00\x00\x00\x00W\x00\x00\x00\x00\x00\x00\x00\x0e\x00\x00\x00\x00\x00\x00\x00\x10\x00\x00\x00\x00\x00\x00\x00t\x00\x00\x00\x00\x00\x00\x00\x93\x00\x00\x00\x00\x00\x00\x00G\x00\x00\x00\x00\x00\x00\x00R\x00\x00\x00\x00\x00\x00\x00\x17\x00\x00\x00\x00\x00\x00\x00\xa4\x00\x00\x00\x00\x00\x00\x00\x8a\x00\x00\x00\x00\x00\x00\x00H\x00\x00\x00\x00\x00\x00\x00\x8c\x00\x00\x00\x00\x00\x00\x00\x92\x00\x00\x00\x00\x00\x00\x001\x00\x00\x00\x00\x00\x00\x00\x83\x00\x00\x00\x00\x00\x00\x00[\x00\x00\x00\x00\x00\x00\x00w\x00\x00\x00\x00\x00\x00\x00\x91\x00\x00\x00\x00\x00\x00\x00Y\x00\x00\x00\x00\x00\x00\x00\x06\x00\x00\x00\x00\x00\x00\x00)\x00\x00\x00\x00\x00\x00\x00\x94\x00\x00\x00\x00\x00\x00\x00\\\x00\x00\x00\x00\x00\x00\x00\x86\x00\x00\x00\x00\x00\x00\x00^\x00\x00\x00\x00\x00\x00\x00\xa3\x00\x00\x00\x00\x00\x00\x00s\x00\x00\x00\x00\x00\x00\x00k\x00\x00\x00\x00\x00\x00\x002\x00\x00\x00\x00\x00\x00\x00z\x00\x00\x00\x00\x00\x00\x00.\x00\x00\x00\x00\x00\x00\x00;\x00\x00\x00\x00\x00\x00\x00:\x00\x00\x00\x00\x00\x00\x00\x14\x00\x00\x00\x00\x00\x00\x00\x18\x00\x00\x00\x00\x00\x00\x00n\x00\x00\x00\x00\x00\x00\x00#\x00\x00\x00\x00\x00\x00\x00+\x00\x00\x00\x00\x00\x00\x00,\x00\x00\x00\x00\x00\x00\x00\x8b\x00\x00\x00\x00\x00\x00\x00\x07\x00\x00\x00\x00\x00\x00\x00L\x00\x00\x00\x00\x00\x00\x00\x8f\x00\x00\x00\x00\x00\x00\x00"\x00\x00\x00\x00\x00\x00\x00\x90\x00\x00\x00\x00\x00\x00\x00x\x00\x00\x00\x00\x00\x00\x00\x05\x00\x00\x00\x00\x00\x00\x00*\x00\x00\x00\x00\x00\x00\x006\x00\x00\x00\x00\x00\x00\x00\x7f\x00\x00\x00\x00\x00\x00\x00]\x00\x00\x00\x00\x00\x00\x00\xa8\x00\x00\x00\x00\x00\x00\x00=\x00\x00\x00\x00\x00\x00\x00\x98\x00\x00\x00\x00\x00\x00\x00q\x00\x00\x00\x00\x00\x00\x00 \x00\x00\x00\x00\x00\x00\x000\x00\x00\x00\x00\x00\x00\x00%\x00\x00\x00\x00\x00\x00\x00\x88\x00\x00\x00\x00\x00\x00\x00\x84\x00\x00\x00\x00\x00\x00\x00l\x00\x00\x00\x00\x00\x00\x00m\x00\x00\x00\x00\x00\x00\x00\x02\x00\x00\x00\x00\x00\x00\x00D\x00\x00\x00\x00\x00\x00\x007\x00\x00\x00\x00\x00\x00\x00\xaa\x00\x00\x00\x00\x00\x00\x00\x0b\x00\x00\x00\x00\x00\x00\x00d\x00\x00\x00\x00\x00\x00\x00\n\x00\x00\x00\x00\x00\x00\x00g\x00\x00\x00\x00\x00\x00\x00\xa0\x00\x00\x00\x00\x00\x00\x00?\x00\x00\x00\x00\x00\x00\x00\x87\x00\x00\x00\x00\x00\x00\x00\x0c\x00\x00\x00\x00\x00\x00\x00\x08\x00\x00\x00\x00\x00\x00\x00\x03\x00\x00\x00\x00\x00\x00\x00\x9b\x00\x00\x00\x00\x00\x00\x00T\x00\x00\x00\x00\x00\x00\x00\xa1\x00\x00\x00\x00\x00\x00\x00\x11\x00\x00\x00\x00\x00\x00\x005\x00\x00\x00\x00\x00\x00\x00\xa5\x00\x00\x00\x00\x00\x00\x00\x1b\x00\x00\x00\x00\x00\x00\x004\x00\x00\x00\x00\x00\x00\x00'
p2445
tp2446
bsS'finished'
p2447
I01
sS'nReps'
p2448
I1
sS'nRemaining'
p2449
I-1
sS'trialList'
p2450
(lp2451
ccollections
OrderedDict
p2452
((lp2453
(lp2454
g49
ag733
aa(lp2455
g50
ag727
aa(lp2456
g51
ag94
aa(lp2457
g52
ag193
aa(lp2458
g53
ag77
aa(lp2459
g54
ag139
aa(lp2460
g55
ag77
aa(lp2461
g56
ag132
aa(lp2462
g57
ag140
aa(lp2463
g58
ag81
aa(lp2464
g59
ag76
aatp2465
Rp2466
ag2452
((lp2467
(lp2468
g49
ag200
aa(lp2469
g50
ag194
aa(lp2470
g51
ag73
aa(lp2471
g52
ag193
aa(lp2472
g53
ag77
aa(lp2473
g54
ag139
aa(lp2474
g55
ag77
aa(lp2475
g56
ag132
aa(lp2476
g57
ag140
aa(lp2477
g58
ag81
aa(lp2478
g59
ag76
aatp2479
Rp2480
ag2452
((lp2481
(lp2482
g49
ag2096
aa(lp2483
g50
ag2090
aa(lp2484
g51
ag111
aa(lp2485
g52
ag193
aa(lp2486
g53
ag77
aa(lp2487
g54
ag139
aa(lp2488
g55
ag77
aa(lp2489
g56
ag132
aa(lp2490
g57
ag140
aa(lp2491
g58
ag81
aa(lp2492
g59
ag76
aatp2493
Rp2494
ag2452
((lp2495
(lp2496
g49
ag2265
aa(lp2497
g50
ag2259
aa(lp2498
g51
ag147
aa(lp2499
g52
ag193
aa(lp2500
g53
ag77
aa(lp2501
g54
ag139
aa(lp2502
g55
ag77
aa(lp2503
g56
ag132
aa(lp2504
g57
ag140
aa(lp2505
g58
ag81
aa(lp2506
g59
ag76
aatp2507
Rp2508
ag2452
((lp2509
(lp2510
g49
ag101
aa(lp2511
g50
ag95
aa(lp2512
g51
ag94
aa(lp2513
g52
ag93
aa(lp2514
g53
ag77
aa(lp2515
g54
ag103
aa(lp2516
g55
ag77
aa(lp2517
g56
ag78
aa(lp2518
g57
ag104
aa(lp2519
g58
ag81
aa(lp2520
g59
ag76
aatp2521
Rp2522
ag2452
((lp2523
(lp2524
g49
ag1887
aa(lp2525
g50
ag1881
aa(lp2526
g51
ag73
aa(lp2527
g52
ag93
aa(lp2528
g53
ag77
aa(lp2529
g54
ag103
aa(lp2530
g55
ag77
aa(lp2531
g56
ag78
aa(lp2532
g57
ag104
aa(lp2533
g58
ag81
aa(lp2534
g59
ag76
aatp2535
Rp2536
ag2452
((lp2537
(lp2538
g49
ag1536
aa(lp2539
g50
ag1530
aa(lp2540
g51
ag111
aa(lp2541
g52
ag93
aa(lp2542
g53
ag77
aa(lp2543
g54
ag103
aa(lp2544
g55
ag77
aa(lp2545
g56
ag78
aa(lp2546
g57
ag104
aa(lp2547
g58
ag81
aa(lp2548
g59
ag76
aatp2549
Rp2550
ag2452
((lp2551
(lp2552
g49
ag1809
aa(lp2553
g50
ag1803
aa(lp2554
g51
ag147
aa(lp2555
g52
ag93
aa(lp2556
g53
ag77
aa(lp2557
g54
ag103
aa(lp2558
g55
ag77
aa(lp2559
g56
ag78
aa(lp2560
g57
ag104
aa(lp2561
g58
ag81
aa(lp2562
g59
ag76
aatp2563
Rp2564
ag2452
((lp2565
(lp2566
g49
ag2252
aa(lp2567
g50
ag2246
aa(lp2568
g51
ag94
aa(lp2569
g52
ag72
aa(lp2570
g53
ag77
aa(lp2571
g54
ag86
aa(lp2572
g55
ag77
aa(lp2573
g56
ag78
aa(lp2574
g57
ag87
aa(lp2575
g58
ag81
aa(lp2576
g59
ag76
aatp2577
Rp2578
ag2452
((lp2579
(lp2580
g49
ag84
aa(lp2581
g50
ag74
aa(lp2582
g51
ag73
aa(lp2583
g52
ag72
aa(lp2584
g53
ag77
aa(lp2585
g54
ag86
aa(lp2586
g55
ag77
aa(lp2587
g56
ag78
aa(lp2588
g57
ag87
aa(lp2589
g58
ag81
aa(lp2590
g59
ag76
aatp2591
Rp2592
ag2452
((lp2593
(lp2594
g49
ag2174
aa(lp2595
g50
ag2168
aa(lp2596
g51
ag111
aa(lp2597
g52
ag72
aa(lp2598
g53
ag77
aa(lp2599
g54
ag86
aa(lp2600
g55
ag77
aa(lp2601
g56
ag78
aa(lp2602
g57
ag87
aa(lp2603
g58
ag81
aa(lp2604
g59
ag76
aatp2605
Rp2606
ag2452
((lp2607
(lp2608
g49
ag2148
aa(lp2609
g50
ag2142
aa(lp2610
g51
ag147
aa(lp2611
g52
ag72
aa(lp2612
g53
ag77
aa(lp2613
g54
ag86
aa(lp2614
g55
ag77
aa(lp2615
g56
ag78
aa(lp2616
g57
ag87
aa(lp2617
g58
ag81
aa(lp2618
g59
ag76
aatp2619
Rp2620
ag2452
((lp2621
(lp2622
g49
ag2239
aa(lp2623
g50
ag2233
aa(lp2624
g51
ag94
aa(lp2625
g52
ag236
aa(lp2626
g53
ag77
aa(lp2627
g54
ag172
aa(lp2628
g55
ag77
aa(lp2629
g56
ag164
aa(lp2630
g57
ag173
aa(lp2631
g58
ag81
aa(lp2632
g59
ag76
aatp2633
Rp2634
ag2452
((lp2635
(lp2636
g49
ag243
aa(lp2637
g50
ag237
aa(lp2638
g51
ag73
aa(lp2639
g52
ag236
aa(lp2640
g53
ag77
aa(lp2641
g54
ag172
aa(lp2642
g55
ag77
aa(lp2643
g56
ag164
aa(lp2644
g57
ag173
aa(lp2645
g58
ag81
aa(lp2646
g59
ag76
aatp2647
Rp2648
ag2452
((lp2649
(lp2650
g49
ag1301
aa(lp2651
g50
ag1295
aa(lp2652
g51
ag111
aa(lp2653
g52
ag236
aa(lp2654
g53
ag77
aa(lp2655
g54
ag172
aa(lp2656
g55
ag77
aa(lp2657
g56
ag164
aa(lp2658
g57
ag173
aa(lp2659
g58
ag81
aa(lp2660
g59
ag76
aatp2661
Rp2662
ag2452
((lp2663
(lp2664
g49
ag890
aa(lp2665
g50
ag884
aa(lp2666
g51
ag147
aa(lp2667
g52
ag236
aa(lp2668
g53
ag77
aa(lp2669
g54
ag172
aa(lp2670
g55
ag77
aa(lp2671
g56
ag164
aa(lp2672
g57
ag173
aa(lp2673
g58
ag81
aa(lp2674
g59
ag76
aatp2675
Rp2676
ag2452
((lp2677
(lp2678
g49
ag1314
aa(lp2679
g50
ag1308
aa(lp2680
g51
ag94
aa(lp2681
g52
ag376
aa(lp2682
g53
ag77
aa(lp2683
g54
ag230
aa(lp2684
g55
ag77
aa(lp2685
g56
ag164
aa(lp2686
g57
ag87
aa(lp2687
g58
ag81
aa(lp2688
g59
ag76
aatp2689
Rp2690
ag2452
((lp2691
(lp2692
g49
ag2317
aa(lp2693
g50
ag2311
aa(lp2694
g51
ag73
aa(lp2695
g52
ag376
aa(lp2696
g53
ag77
aa(lp2697
g54
ag230
aa(lp2698
g55
ag77
aa(lp2699
g56
ag164
aa(lp2700
g57
ag87
aa(lp2701
g58
ag81
aa(lp2702
g59
ag76
aatp2703
Rp2704
ag2452
((lp2705
(lp2706
g49
ag1236
aa(lp2707
g50
ag1230
aa(lp2708
g51
ag111
aa(lp2709
g52
ag376
aa(lp2710
g53
ag77
aa(lp2711
g54
ag230
aa(lp2712
g55
ag77
aa(lp2713
g56
ag164
aa(lp2714
g57
ag87
aa(lp2715
g58
ag81
aa(lp2716
g59
ag76
aatp2717
Rp2718
ag2452
((lp2719
(lp2720
g49
ag383
aa(lp2721
g50
ag377
aa(lp2722
g51
ag147
aa(lp2723
g52
ag376
aa(lp2724
g53
ag77
aa(lp2725
g54
ag230
aa(lp2726
g55
ag77
aa(lp2727
g56
ag164
aa(lp2728
g57
ag87
aa(lp2729
g58
ag81
aa(lp2730
g59
ag76
aatp2731
Rp2732
ag2452
((lp2733
(lp2734
g49
ag1718
aa(lp2735
g50
ag1712
aa(lp2736
g51
ag94
aa(lp2737
g52
ag264
aa(lp2738
g53
ag77
aa(lp2739
g54
ag139
aa(lp2740
g55
ag118
aa(lp2741
g56
ag132
aa(lp2742
g57
ag140
aa(lp2743
g58
ag81
aa(lp2744
g59
ag267
aatp2745
Rp2746
ag2452
((lp2747
(lp2748
g49
ag272
aa(lp2749
g50
ag265
aa(lp2750
g51
ag73
aa(lp2751
g52
ag264
aa(lp2752
g53
ag77
aa(lp2753
g54
ag139
aa(lp2754
g55
ag118
aa(lp2755
g56
ag132
aa(lp2756
g57
ag140
aa(lp2757
g58
ag81
aa(lp2758
g59
ag267
aatp2759
Rp2760
ag2452
((lp2761
(lp2762
g49
ag903
aa(lp2763
g50
ag897
aa(lp2764
g51
ag111
aa(lp2765
g52
ag264
aa(lp2766
g53
ag77
aa(lp2767
g54
ag139
aa(lp2768
g55
ag118
aa(lp2769
g56
ag132
aa(lp2770
g57
ag140
aa(lp2771
g58
ag81
aa(lp2772
g59
ag267
aatp2773
Rp2774
ag2452
((lp2775
(lp2776
g49
ag1380
aa(lp2777
g50
ag1374
aa(lp2778
g51
ag147
aa(lp2779
g52
ag264
aa(lp2780
g53
ag77
aa(lp2781
g54
ag139
aa(lp2782
g55
ag118
aa(lp2783
g56
ag132
aa(lp2784
g57
ag140
aa(lp2785
g58
ag81
aa(lp2786
g59
ag267
aatp2787
Rp2788
ag2452
((lp2789
(lp2790
g49
ag1731
aa(lp2791
g50
ag1725
aa(lp2792
g51
ag94
aa(lp2793
g52
ag512
aa(lp2794
g53
ag77
aa(lp2795
g54
ag86
aa(lp2796
g55
ag118
aa(lp2797
g56
ag78
aa(lp2798
g57
ag87
aa(lp2799
g58
ag81
aa(lp2800
g59
ag267
aatp2801
Rp2802
ag2452
((lp2803
(lp2804
g49
ag1129
aa(lp2805
g50
ag1123
aa(lp2806
g51
ag73
aa(lp2807
g52
ag512
aa(lp2808
g53
ag77
aa(lp2809
g54
ag86
aa(lp2810
g55
ag118
aa(lp2811
g56
ag78
aa(lp2812
g57
ag87
aa(lp2813
g58
ag81
aa(lp2814
g59
ag267
aatp2815
Rp2816
ag2452
((lp2817
(lp2818
g49
ag519
aa(lp2819
g50
ag513
aa(lp2820
g51
ag111
aa(lp2821
g52
ag512
aa(lp2822
g53
ag77
aa(lp2823
g54
ag86
aa(lp2824
g55
ag118
aa(lp2825
g56
ag78
aa(lp2826
g57
ag87
aa(lp2827
g58
ag81
aa(lp2828
g59
ag267
aatp2829
Rp2830
ag2452
((lp2831
(lp2832
g49
ag2356
aa(lp2833
g50
ag2350
aa(lp2834
g51
ag147
aa(lp2835
g52
ag512
aa(lp2836
g53
ag77
aa(lp2837
g54
ag86
aa(lp2838
g55
ag118
aa(lp2839
g56
ag78
aa(lp2840
g57
ag87
aa(lp2841
g58
ag81
aa(lp2842
g59
ag267
aatp2843
Rp2844
ag2452
((lp2845
(lp2846
g49
ag864
aa(lp2847
g50
ag858
aa(lp2848
g51
ag94
aa(lp2849
g52
ag526
aa(lp2850
g53
ag77
aa(lp2851
g54
ag172
aa(lp2852
g55
ag118
aa(lp2853
g56
ag164
aa(lp2854
g57
ag173
aa(lp2855
g58
ag81
aa(lp2856
g59
ag267
aatp2857
Rp2858
ag2452
((lp2859
(lp2860
g49
ag533
aa(lp2861
g50
ag527
aa(lp2862
g51
ag73
aa(lp2863
g52
ag526
aa(lp2864
g53
ag77
aa(lp2865
g54
ag172
aa(lp2866
g55
ag118
aa(lp2867
g56
ag164
aa(lp2868
g57
ag173
aa(lp2869
g58
ag81
aa(lp2870
g59
ag267
aatp2871
Rp2872
ag2452
((lp2873
(lp2874
g49
ag985
aa(lp2875
g50
ag979
aa(lp2876
g51
ag111
aa(lp2877
g52
ag526
aa(lp2878
g53
ag77
aa(lp2879
g54
ag172
aa(lp2880
g55
ag118
aa(lp2881
g56
ag164
aa(lp2882
g57
ag173
aa(lp2883
g58
ag81
aa(lp2884
g59
ag267
aatp2885
Rp2886
ag2452
((lp2887
(lp2888
g49
ag1262
aa(lp2889
g50
ag1256
aa(lp2890
g51
ag147
aa(lp2891
g52
ag526
aa(lp2892
g53
ag77
aa(lp2893
g54
ag172
aa(lp2894
g55
ag118
aa(lp2895
g56
ag164
aa(lp2896
g57
ag173
aa(lp2897
g58
ag81
aa(lp2898
g59
ag267
aatp2899
Rp2900
ag2452
((lp2901
(lp2902
g49
ag2005
aa(lp2903
g50
ag1999
aa(lp2904
g51
ag94
aa(lp2905
g52
ag951
aa(lp2906
g53
ag77
aa(lp2907
g54
ag230
aa(lp2908
g55
ag118
aa(lp2909
g56
ag164
aa(lp2910
g57
ag87
aa(lp2911
g58
ag81
aa(lp2912
g59
ag267
aatp2913
Rp2914
ag2452
((lp2915
(lp2916
g49
ag958
aa(lp2917
g50
ag952
aa(lp2918
g51
ag73
aa(lp2919
g52
ag951
aa(lp2920
g53
ag77
aa(lp2921
g54
ag230
aa(lp2922
g55
ag118
aa(lp2923
g56
ag164
aa(lp2924
g57
ag87
aa(lp2925
g58
ag81
aa(lp2926
g59
ag267
aatp2927
Rp2928
ag2452
((lp2929
(lp2930
g49
ag1848
aa(lp2931
g50
ag1842
aa(lp2932
g51
ag111
aa(lp2933
g52
ag951
aa(lp2934
g53
ag77
aa(lp2935
g54
ag230
aa(lp2936
g55
ag118
aa(lp2937
g56
ag164
aa(lp2938
g57
ag87
aa(lp2939
g58
ag81
aa(lp2940
g59
ag267
aatp2941
Rp2942
ag2452
((lp2943
(lp2944
g49
ag1757
aa(lp2945
g50
ag1751
aa(lp2946
g51
ag147
aa(lp2947
g52
ag951
aa(lp2948
g53
ag77
aa(lp2949
g54
ag230
aa(lp2950
g55
ag118
aa(lp2951
g56
ag164
aa(lp2952
g57
ag87
aa(lp2953
g58
ag81
aa(lp2954
g59
ag267
aatp2955
Rp2956
ag2452
((lp2957
(lp2958
g49
ag137
aa(lp2959
g50
ag130
aa(lp2960
g51
ag94
aa(lp2961
g52
ag129
aa(lp2962
g53
ag77
aa(lp2963
g54
ag139
aa(lp2964
g55
ag115
aa(lp2965
g56
ag132
aa(lp2966
g57
ag140
aa(lp2967
g58
ag81
aa(lp2968
g59
ag114
aatp2969
Rp2970
ag2452
((lp2971
(lp2972
g49
ag2031
aa(lp2973
g50
ag2025
aa(lp2974
g51
ag73
aa(lp2975
g52
ag129
aa(lp2976
g53
ag77
aa(lp2977
g54
ag139
aa(lp2978
g55
ag115
aa(lp2979
g56
ag132
aa(lp2980
g57
ag140
aa(lp2981
g58
ag81
aa(lp2982
g59
ag114
aatp2983
Rp2984
ag2452
((lp2985
(lp2986
g49
ag1011
aa(lp2987
g50
ag1005
aa(lp2988
g51
ag111
aa(lp2989
g52
ag129
aa(lp2990
g53
ag77
aa(lp2991
g54
ag139
aa(lp2992
g55
ag115
aa(lp2993
g56
ag132
aa(lp2994
g57
ag140
aa(lp2995
g58
ag81
aa(lp2996
g59
ag114
aatp2997
Rp2998
ag2452
((lp2999
(lp3000
g49
ag773
aa(lp3001
g50
ag767
aa(lp3002
g51
ag147
aa(lp3003
g52
ag129
aa(lp3004
g53
ag77
aa(lp3005
g54
ag139
aa(lp3006
g55
ag115
aa(lp3007
g56
ag132
aa(lp3008
g57
ag140
aa(lp3009
g58
ag81
aa(lp3010
g59
ag114
aatp3011
Rp3012
ag2452
((lp3013
(lp3014
g49
ag1116
aa(lp3015
g50
ag1110
aa(lp3016
g51
ag94
aa(lp3017
g52
ag1109
aa(lp3018
g53
ag77
aa(lp3019
g54
ag103
aa(lp3020
g55
ag115
aa(lp3021
g56
ag78
aa(lp3022
g57
ag104
aa(lp3023
g58
ag81
aa(lp3024
g59
ag114
aatp3025
Rp3026
ag2452
((lp3027
(lp3028
g49
ag1549
aa(lp3029
g50
ag1543
aa(lp3030
g51
ag73
aa(lp3031
g52
ag1109
aa(lp3032
g53
ag77
aa(lp3033
g54
ag103
aa(lp3034
g55
ag115
aa(lp3035
g56
ag78
aa(lp3036
g57
ag104
aa(lp3037
g58
ag81
aa(lp3038
g59
ag114
aatp3039
Rp3040
ag2452
((lp3041
(lp3042
g49
ag1900
aa(lp3043
g50
ag1894
aa(lp3044
g51
ag111
aa(lp3045
g52
ag1109
aa(lp3046
g53
ag77
aa(lp3047
g54
ag103
aa(lp3048
g55
ag115
aa(lp3049
g56
ag78
aa(lp3050
g57
ag104
aa(lp3051
g58
ag81
aa(lp3052
g59
ag114
aatp3053
Rp3054
ag2452
((lp3055
(lp3056
g49
ag1770
aa(lp3057
g50
ag1764
aa(lp3058
g51
ag147
aa(lp3059
g52
ag1109
aa(lp3060
g53
ag77
aa(lp3061
g54
ag103
aa(lp3062
g55
ag115
aa(lp3063
g56
ag78
aa(lp3064
g57
ag104
aa(lp3065
g58
ag81
aa(lp3066
g59
ag114
aatp3067
Rp3068
ag2452
((lp3069
(lp3070
g49
ag1783
aa(lp3071
g50
ag1777
aa(lp3072
g51
ag94
aa(lp3073
g52
ag740
aa(lp3074
g53
ag77
aa(lp3075
g54
ag86
aa(lp3076
g55
ag115
aa(lp3077
g56
ag78
aa(lp3078
g57
ag87
aa(lp3079
g58
ag81
aa(lp3080
g59
ag114
aatp3081
Rp3082
ag2452
((lp3083
(lp3084
g49
ag877
aa(lp3085
g50
ag871
aa(lp3086
g51
ag73
aa(lp3087
g52
ag740
aa(lp3088
g53
ag77
aa(lp3089
g54
ag86
aa(lp3090
g55
ag115
aa(lp3091
g56
ag78
aa(lp3092
g57
ag87
aa(lp3093
g58
ag81
aa(lp3094
g59
ag114
aatp3095
Rp3096
ag2452
((lp3097
(lp3098
g49
ag1679
aa(lp3099
g50
ag1673
aa(lp3100
g51
ag111
aa(lp3101
g52
ag740
aa(lp3102
g53
ag77
aa(lp3103
g54
ag86
aa(lp3104
g55
ag115
aa(lp3105
g56
ag78
aa(lp3106
g57
ag87
aa(lp3107
g58
ag81
aa(lp3108
g59
ag114
aatp3109
Rp3110
ag2452
((lp3111
(lp3112
g49
ag747
aa(lp3113
g50
ag741
aa(lp3114
g51
ag147
aa(lp3115
g52
ag740
aa(lp3116
g53
ag77
aa(lp3117
g54
ag86
aa(lp3118
g55
ag115
aa(lp3119
g56
ag78
aa(lp3120
g57
ag87
aa(lp3121
g58
ag81
aa(lp3122
g59
ag114
aatp3123
Rp3124
ag2452
((lp3125
(lp3126
g49
ag2018
aa(lp3127
g50
ag2012
aa(lp3128
g51
ag94
aa(lp3129
g52
ag1149
aa(lp3130
g53
ag77
aa(lp3131
g54
ag172
aa(lp3132
g55
ag115
aa(lp3133
g56
ag164
aa(lp3134
g57
ag173
aa(lp3135
g58
ag81
aa(lp3136
g59
ag114
aatp3137
Rp3138
ag2452
((lp3139
(lp3140
g49
ag1458
aa(lp3141
g50
ag1452
aa(lp3142
g51
ag73
aa(lp3143
g52
ag1149
aa(lp3144
g53
ag77
aa(lp3145
g54
ag172
aa(lp3146
g55
ag115
aa(lp3147
g56
ag164
aa(lp3148
g57
ag173
aa(lp3149
g58
ag81
aa(lp3150
g59
ag114
aatp3151
Rp3152
ag2452
((lp3153
(lp3154
g49
ag1653
aa(lp3155
g50
ag1647
aa(lp3156
g51
ag111
aa(lp3157
g52
ag1149
aa(lp3158
g53
ag77
aa(lp3159
g54
ag172
aa(lp3160
g55
ag115
aa(lp3161
g56
ag164
aa(lp3162
g57
ag173
aa(lp3163
g58
ag81
aa(lp3164
g59
ag114
aatp3165
Rp3166
ag2452
((lp3167
(lp3168
g49
ag1156
aa(lp3169
g50
ag1150
aa(lp3170
g51
ag147
aa(lp3171
g52
ag1149
aa(lp3172
g53
ag77
aa(lp3173
g54
ag172
aa(lp3174
g55
ag115
aa(lp3175
g56
ag164
aa(lp3176
g57
ag173
aa(lp3177
g58
ag81
aa(lp3178
g59
ag114
aatp3179
Rp3180
ag2452
((lp3181
(lp3182
g49
ag2369
aa(lp3183
g50
ag2363
aa(lp3184
g51
ag94
aa(lp3185
g52
ag1907
aa(lp3186
g53
ag77
aa(lp3187
g54
ag230
aa(lp3188
g55
ag115
aa(lp3189
g56
ag164
aa(lp3190
g57
ag87
aa(lp3191
g58
ag81
aa(lp3192
g59
ag114
aatp3193
Rp3194
ag2452
((lp3195
(lp3196
g49
ag2330
aa(lp3197
g50
ag2324
aa(lp3198
g51
ag73
aa(lp3199
g52
ag1907
aa(lp3200
g53
ag77
aa(lp3201
g54
ag230
aa(lp3202
g55
ag115
aa(lp3203
g56
ag164
aa(lp3204
g57
ag87
aa(lp3205
g58
ag81
aa(lp3206
g59
ag114
aatp3207
Rp3208
ag2452
((lp3209
(lp3210
g49
ag1914
aa(lp3211
g50
ag1908
aa(lp3212
g51
ag111
aa(lp3213
g52
ag1907
aa(lp3214
g53
ag77
aa(lp3215
g54
ag230
aa(lp3216
g55
ag115
aa(lp3217
g56
ag164
aa(lp3218
g57
ag87
aa(lp3219
g58
ag81
aa(lp3220
g59
ag114
aatp3221
Rp3222
ag2452
((lp3223
(lp3224
g49
ag2122
aa(lp3225
g50
ag2116
aa(lp3226
g51
ag147
aa(lp3227
g52
ag1907
aa(lp3228
g53
ag77
aa(lp3229
g54
ag230
aa(lp3230
g55
ag115
aa(lp3231
g56
ag164
aa(lp3232
g57
ag87
aa(lp3233
g58
ag81
aa(lp3234
g59
ag114
aatp3235
Rp3236
ag2452
((lp3237
(lp3238
g49
ag369
aa(lp3239
g50
ag363
aa(lp3240
g51
ag94
aa(lp3241
g52
ag362
aa(lp3242
g53
ag118
aa(lp3243
g54
ag139
aa(lp3244
g55
ag77
aa(lp3245
g56
ag132
aa(lp3246
g57
ag140
aa(lp3247
g58
ag119
aa(lp3248
g59
ag76
aatp3249
Rp3250
ag2452
((lp3251
(lp3252
g49
ag666
aa(lp3253
g50
ag660
aa(lp3254
g51
ag73
aa(lp3255
g52
ag362
aa(lp3256
g53
ag118
aa(lp3257
g54
ag139
aa(lp3258
g55
ag77
aa(lp3259
g56
ag132
aa(lp3260
g57
ag140
aa(lp3261
g58
ag119
aa(lp3262
g59
ag76
aatp3263
Rp3264
ag2452
((lp3265
(lp3266
g49
ag1705
aa(lp3267
g50
ag1699
aa(lp3268
g51
ag111
aa(lp3269
g52
ag362
aa(lp3270
g53
ag118
aa(lp3271
g54
ag139
aa(lp3272
g55
ag77
aa(lp3273
g56
ag132
aa(lp3274
g57
ag140
aa(lp3275
g58
ag119
aa(lp3276
g59
ag76
aatp3277
Rp3278
ag2452
((lp3279
(lp3280
g49
ag1692
aa(lp3281
g50
ag1686
aa(lp3282
g51
ag147
aa(lp3283
g52
ag362
aa(lp3284
g53
ag118
aa(lp3285
g54
ag139
aa(lp3286
g55
ag77
aa(lp3287
g56
ag132
aa(lp3288
g57
ag140
aa(lp3289
g58
ag119
aa(lp3290
g59
ag76
aatp3291
Rp3292
ag2452
((lp3293
(lp3294
g49
ag257
aa(lp3295
g50
ag251
aa(lp3296
g51
ag94
aa(lp3297
g52
ag250
aa(lp3298
g53
ag118
aa(lp3299
g54
ag103
aa(lp3300
g55
ag77
aa(lp3301
g56
ag78
aa(lp3302
g57
ag104
aa(lp3303
g58
ag119
aa(lp3304
g59
ag76
aatp3305
Rp3306
ag2452
((lp3307
(lp3308
g49
ag1966
aa(lp3309
g50
ag1960
aa(lp3310
g51
ag73
aa(lp3311
g52
ag250
aa(lp3312
g53
ag118
aa(lp3313
g54
ag103
aa(lp3314
g55
ag77
aa(lp3315
g56
ag78
aa(lp3316
g57
ag104
aa(lp3317
g58
ag119
aa(lp3318
g59
ag76
aatp3319
Rp3320
ag2452
((lp3321
(lp3322
g49
ag1037
aa(lp3323
g50
ag1031
aa(lp3324
g51
ag111
aa(lp3325
g52
ag250
aa(lp3326
g53
ag118
aa(lp3327
g54
ag103
aa(lp3328
g55
ag77
aa(lp3329
g56
ag78
aa(lp3330
g57
ag104
aa(lp3331
g58
ag119
aa(lp3332
g59
ag76
aatp3333
Rp3334
ag2452
((lp3335
(lp3336
g49
ag2213
aa(lp3337
g50
ag2207
aa(lp3338
g51
ag147
aa(lp3339
g52
ag250
aa(lp3340
g53
ag118
aa(lp3341
g54
ag103
aa(lp3342
g55
ag77
aa(lp3343
g56
ag78
aa(lp3344
g57
ag104
aa(lp3345
g58
ag119
aa(lp3346
g59
ag76
aatp3347
Rp3348
ag2452
((lp3349
(lp3350
g49
ag1210
aa(lp3351
g50
ag1204
aa(lp3352
g51
ag94
aa(lp3353
g52
ag146
aa(lp3354
g53
ag118
aa(lp3355
g54
ag86
aa(lp3356
g55
ag77
aa(lp3357
g56
ag78
aa(lp3358
g57
ag87
aa(lp3359
g58
ag119
aa(lp3360
g59
ag76
aatp3361
Rp3362
ag2452
((lp3363
(lp3364
g49
ag505
aa(lp3365
g50
ag499
aa(lp3366
g51
ag73
aa(lp3367
g52
ag146
aa(lp3368
g53
ag118
aa(lp3369
g54
ag86
aa(lp3370
g55
ag77
aa(lp3371
g56
ag78
aa(lp3372
g57
ag87
aa(lp3373
g58
ag119
aa(lp3374
g59
ag76
aatp3375
Rp3376
ag2452
((lp3377
(lp3378
g49
ag341
aa(lp3379
g50
ag335
aa(lp3380
g51
ag111
aa(lp3381
g52
ag146
aa(lp3382
g53
ag118
aa(lp3383
g54
ag86
aa(lp3384
g55
ag77
aa(lp3385
g56
ag78
aa(lp3386
g57
ag87
aa(lp3387
g58
ag119
aa(lp3388
g59
ag76
aatp3389
Rp3390
ag2452
((lp3391
(lp3392
g49
ag154
aa(lp3393
g50
ag148
aa(lp3394
g51
ag147
aa(lp3395
g52
ag146
aa(lp3396
g53
ag118
aa(lp3397
g54
ag86
aa(lp3398
g55
ag77
aa(lp3399
g56
ag78
aa(lp3400
g57
ag87
aa(lp3401
g58
ag119
aa(lp3402
g59
ag76
aatp3403
Rp3404
ag2452
((lp3405
(lp3406
g49
ag2109
aa(lp3407
g50
ag2103
aa(lp3408
g51
ag94
aa(lp3409
g52
ag620
aa(lp3410
g53
ag118
aa(lp3411
g54
ag172
aa(lp3412
g55
ag77
aa(lp3413
g56
ag164
aa(lp3414
g57
ag173
aa(lp3415
g58
ag119
aa(lp3416
g59
ag76
aatp3417
Rp3418
ag2452
((lp3419
(lp3420
g49
ag627
aa(lp3421
g50
ag621
aa(lp3422
g51
ag73
aa(lp3423
g52
ag620
aa(lp3424
g53
ag118
aa(lp3425
g54
ag172
aa(lp3426
g55
ag77
aa(lp3427
g56
ag164
aa(lp3428
g57
ag173
aa(lp3429
g58
ag119
aa(lp3430
g59
ag76
aatp3431
Rp3432
ag2452
((lp3433
(lp3434
g49
ag653
aa(lp3435
g50
ag647
aa(lp3436
g51
ag111
aa(lp3437
g52
ag620
aa(lp3438
g53
ag118
aa(lp3439
g54
ag172
aa(lp3440
g55
ag77
aa(lp3441
g56
ag164
aa(lp3442
g57
ag173
aa(lp3443
g58
ag119
aa(lp3444
g59
ag76
aatp3445
Rp3446
ag2452
((lp3447
(lp3448
g49
ag1354
aa(lp3449
g50
ag1348
aa(lp3450
g51
ag147
aa(lp3451
g52
ag620
aa(lp3452
g53
ag118
aa(lp3453
g54
ag172
aa(lp3454
g55
ag77
aa(lp3455
g56
ag164
aa(lp3456
g57
ag173
aa(lp3457
g58
ag119
aa(lp3458
g59
ag76
aatp3459
Rp3460
ag2452
((lp3461
(lp3462
g49
ag1419
aa(lp3463
g50
ag1413
aa(lp3464
g51
ag94
aa(lp3465
g52
ag221
aa(lp3466
g53
ag118
aa(lp3467
g54
ag230
aa(lp3468
g55
ag77
aa(lp3469
g56
ag164
aa(lp3470
g57
ag87
aa(lp3471
g58
ag119
aa(lp3472
g59
ag76
aatp3473
Rp3474
ag2452
((lp3475
(lp3476
g49
ag1249
aa(lp3477
g50
ag1243
aa(lp3478
g51
ag73
aa(lp3479
g52
ag221
aa(lp3480
g53
ag118
aa(lp3481
g54
ag230
aa(lp3482
g55
ag77
aa(lp3483
g56
ag164
aa(lp3484
g57
ag87
aa(lp3485
g58
ag119
aa(lp3486
g59
ag76
aatp3487
Rp3488
ag2452
((lp3489
(lp3490
g49
ag228
aa(lp3491
g50
ag222
aa(lp3492
g51
ag111
aa(lp3493
g52
ag221
aa(lp3494
g53
ag118
aa(lp3495
g54
ag230
aa(lp3496
g55
ag77
aa(lp3497
g56
ag164
aa(lp3498
g57
ag87
aa(lp3499
g58
ag119
aa(lp3500
g59
ag76
aatp3501
Rp3502
ag2452
((lp3503
(lp3504
g49
ag640
aa(lp3505
g50
ag634
aa(lp3506
g51
ag147
aa(lp3507
g52
ag221
aa(lp3508
g53
ag118
aa(lp3509
g54
ag230
aa(lp3510
g55
ag77
aa(lp3511
g56
ag164
aa(lp3512
g57
ag87
aa(lp3513
g58
ag119
aa(lp3514
g59
ag76
aatp3515
Rp3516
ag2452
((lp3517
(lp3518
g49
ag1822
aa(lp3519
g50
ag1816
aa(lp3520
g51
ag94
aa(lp3521
g52
ag279
aa(lp3522
g53
ag118
aa(lp3523
g54
ag139
aa(lp3524
g55
ag118
aa(lp3525
g56
ag132
aa(lp3526
g57
ag140
aa(lp3527
g58
ag119
aa(lp3528
g59
ag267
aatp3529
Rp3530
ag2452
((lp3531
(lp3532
g49
ag286
aa(lp3533
g50
ag280
aa(lp3534
g51
ag73
aa(lp3535
g52
ag279
aa(lp3536
g53
ag118
aa(lp3537
g54
ag139
aa(lp3538
g55
ag118
aa(lp3539
g56
ag132
aa(lp3540
g57
ag140
aa(lp3541
g58
ag119
aa(lp3542
g59
ag267
aatp3543
Rp3544
ag2452
((lp3545
(lp3546
g49
ag1076
aa(lp3547
g50
ag1070
aa(lp3548
g51
ag111
aa(lp3549
g52
ag279
aa(lp3550
g53
ag118
aa(lp3551
g54
ag139
aa(lp3552
g55
ag118
aa(lp3553
g56
ag132
aa(lp3554
g57
ag140
aa(lp3555
g58
ag119
aa(lp3556
g59
ag267
aatp3557
Rp3558
ag2452
((lp3559
(lp3560
g49
ag1142
aa(lp3561
g50
ag1136
aa(lp3562
g51
ag147
aa(lp3563
g52
ag279
aa(lp3564
g53
ag118
aa(lp3565
g54
ag139
aa(lp3566
g55
ag118
aa(lp3567
g56
ag132
aa(lp3568
g57
ag140
aa(lp3569
g58
ag119
aa(lp3570
g59
ag267
aatp3571
Rp3572
ag2452
((lp3573
(lp3574
g49
ag586
aa(lp3575
g50
ag580
aa(lp3576
g51
ag94
aa(lp3577
g52
ag418
aa(lp3578
g53
ag118
aa(lp3579
g54
ag103
aa(lp3580
g55
ag118
aa(lp3581
g56
ag78
aa(lp3582
g57
ag104
aa(lp3583
g58
ag119
aa(lp3584
g59
ag267
aatp3585
Rp3586
ag2452
((lp3587
(lp3588
g49
ag438
aa(lp3589
g50
ag432
aa(lp3590
g51
ag73
aa(lp3591
g52
ag418
aa(lp3592
g53
ag118
aa(lp3593
g54
ag103
aa(lp3594
g55
ag118
aa(lp3595
g56
ag78
aa(lp3596
g57
ag104
aa(lp3597
g58
ag119
aa(lp3598
g59
ag267
aatp3599
Rp3600
ag2452
((lp3601
(lp3602
g49
ag1367
aa(lp3603
g50
ag1361
aa(lp3604
g51
ag111
aa(lp3605
g52
ag418
aa(lp3606
g53
ag118
aa(lp3607
g54
ag103
aa(lp3608
g55
ag118
aa(lp3609
g56
ag78
aa(lp3610
g57
ag104
aa(lp3611
g58
ag119
aa(lp3612
g59
ag267
aatp3613
Rp3614
ag2452
((lp3615
(lp3616
g49
ag425
aa(lp3617
g50
ag419
aa(lp3618
g51
ag147
aa(lp3619
g52
ag418
aa(lp3620
g53
ag118
aa(lp3621
g54
ag103
aa(lp3622
g55
ag118
aa(lp3623
g56
ag78
aa(lp3624
g57
ag104
aa(lp3625
g58
ag119
aa(lp3626
g59
ag267
aatp3627
Rp3628
ag2452
((lp3629
(lp3630
g49
ag2291
aa(lp3631
g50
ag2285
aa(lp3632
g51
ag94
aa(lp3633
g52
ag606
aa(lp3634
g53
ag118
aa(lp3635
g54
ag86
aa(lp3636
g55
ag118
aa(lp3637
g56
ag78
aa(lp3638
g57
ag87
aa(lp3639
g58
ag119
aa(lp3640
g59
ag267
aatp3641
Rp3642
ag2452
((lp3643
(lp3644
g49
ag613
aa(lp3645
g50
ag607
aa(lp3646
g51
ag73
aa(lp3647
g52
ag606
aa(lp3648
g53
ag118
aa(lp3649
g54
ag86
aa(lp3650
g55
ag118
aa(lp3651
g56
ag78
aa(lp3652
g57
ag87
aa(lp3653
g58
ag119
aa(lp3654
g59
ag267
aatp3655
Rp3656
ag2452
((lp3657
(lp3658
g49
ag851
aa(lp3659
g50
ag845
aa(lp3660
g51
ag111
aa(lp3661
g52
ag606
aa(lp3662
g53
ag118
aa(lp3663
g54
ag86
aa(lp3664
g55
ag118
aa(lp3665
g56
ag78
aa(lp3666
g57
ag87
aa(lp3667
g58
ag119
aa(lp3668
g59
ag267
aatp3669
Rp3670
ag2452
((lp3671
(lp3672
g49
ag1288
aa(lp3673
g50
ag1282
aa(lp3674
g51
ag147
aa(lp3675
g52
ag606
aa(lp3676
g53
ag118
aa(lp3677
g54
ag86
aa(lp3678
g55
ag118
aa(lp3679
g56
ag78
aa(lp3680
g57
ag87
aa(lp3681
g58
ag119
aa(lp3682
g59
ag267
aatp3683
Rp3684
ag2452
((lp3685
(lp3686
g49
ag1050
aa(lp3687
g50
ag1044
aa(lp3688
g51
ag94
aa(lp3689
g52
ag910
aa(lp3690
g53
ag118
aa(lp3691
g54
ag172
aa(lp3692
g55
ag118
aa(lp3693
g56
ag164
aa(lp3694
g57
ag173
aa(lp3695
g58
ag119
aa(lp3696
g59
ag267
aatp3697
Rp3698
ag2452
((lp3699
(lp3700
g49
ag1523
aa(lp3701
g50
ag1517
aa(lp3702
g51
ag73
aa(lp3703
g52
ag910
aa(lp3704
g53
ag118
aa(lp3705
g54
ag172
aa(lp3706
g55
ag118
aa(lp3707
g56
ag164
aa(lp3708
g57
ag173
aa(lp3709
g58
ag119
aa(lp3710
g59
ag267
aatp3711
Rp3712
ag2452
((lp3713
(lp3714
g49
ag917
aa(lp3715
g50
ag911
aa(lp3716
g51
ag111
aa(lp3717
g52
ag910
aa(lp3718
g53
ag118
aa(lp3719
g54
ag172
aa(lp3720
g55
ag118
aa(lp3721
g56
ag164
aa(lp3722
g57
ag173
aa(lp3723
g58
ag119
aa(lp3724
g59
ag267
aatp3725
Rp3726
ag2452
((lp3727
(lp3728
g49
ag1484
aa(lp3729
g50
ag1478
aa(lp3730
g51
ag147
aa(lp3731
g52
ag910
aa(lp3732
g53
ag118
aa(lp3733
g54
ag172
aa(lp3734
g55
ag118
aa(lp3735
g56
ag164
aa(lp3736
g57
ag173
aa(lp3737
g58
ag119
aa(lp3738
g59
ag267
aatp3739
Rp3740
ag2452
((lp3741
(lp3742
g49
ag1575
aa(lp3743
g50
ag1569
aa(lp3744
g51
ag94
aa(lp3745
g52
ag445
aa(lp3746
g53
ag118
aa(lp3747
g54
ag230
aa(lp3748
g55
ag118
aa(lp3749
g56
ag164
aa(lp3750
g57
ag87
aa(lp3751
g58
ag119
aa(lp3752
g59
ag267
aatp3753
Rp3754
ag2452
((lp3755
(lp3756
g49
ag1940
aa(lp3757
g50
ag1934
aa(lp3758
g51
ag73
aa(lp3759
g52
ag445
aa(lp3760
g53
ag118
aa(lp3761
g54
ag230
aa(lp3762
g55
ag118
aa(lp3763
g56
ag164
aa(lp3764
g57
ag87
aa(lp3765
g58
ag119
aa(lp3766
g59
ag267
aatp3767
Rp3768
ag2452
((lp3769
(lp3770
g49
ag1601
aa(lp3771
g50
ag1595
aa(lp3772
g51
ag111
aa(lp3773
g52
ag445
aa(lp3774
g53
ag118
aa(lp3775
g54
ag230
aa(lp3776
g55
ag118
aa(lp3777
g56
ag164
aa(lp3778
g57
ag87
aa(lp3779
g58
ag119
aa(lp3780
g59
ag267
aatp3781
Rp3782
ag2452
((lp3783
(lp3784
g49
ag452
aa(lp3785
g50
ag446
aa(lp3786
g51
ag147
aa(lp3787
g52
ag445
aa(lp3788
g53
ag118
aa(lp3789
g54
ag230
aa(lp3790
g55
ag118
aa(lp3791
g56
ag164
aa(lp3792
g57
ag87
aa(lp3793
g58
ag119
aa(lp3794
g59
ag267
aatp3795
Rp3796
ag2452
((lp3797
(lp3798
g49
ag825
aa(lp3799
g50
ag819
aa(lp3800
g51
ag94
aa(lp3801
g52
ag348
aa(lp3802
g53
ag118
aa(lp3803
g54
ag139
aa(lp3804
g55
ag115
aa(lp3805
g56
ag132
aa(lp3806
g57
ag140
aa(lp3807
g58
ag119
aa(lp3808
g59
ag114
aatp3809
Rp3810
ag2452
((lp3811
(lp3812
g49
ag465
aa(lp3813
g50
ag459
aa(lp3814
g51
ag73
aa(lp3815
g52
ag348
aa(lp3816
g53
ag118
aa(lp3817
g54
ag139
aa(lp3818
g55
ag115
aa(lp3819
g56
ag132
aa(lp3820
g57
ag140
aa(lp3821
g58
ag119
aa(lp3822
g59
ag114
aatp3823
Rp3824
ag2452
((lp3825
(lp3826
g49
ag355
aa(lp3827
g50
ag349
aa(lp3828
g51
ag111
aa(lp3829
g52
ag348
aa(lp3830
g53
ag118
aa(lp3831
g54
ag139
aa(lp3832
g55
ag115
aa(lp3833
g56
ag132
aa(lp3834
g57
ag140
aa(lp3835
g58
ag119
aa(lp3836
g59
ag114
aatp3837
Rp3838
ag2452
((lp3839
(lp3840
g49
ag573
aa(lp3841
g50
ag567
aa(lp3842
g51
ag147
aa(lp3843
g52
ag348
aa(lp3844
g53
ag118
aa(lp3845
g54
ag139
aa(lp3846
g55
ag115
aa(lp3847
g56
ag132
aa(lp3848
g57
ag140
aa(lp3849
g58
ag119
aa(lp3850
g59
ag114
aatp3851
Rp3852
ag2452
((lp3853
(lp3854
g49
ag2161
aa(lp3855
g50
ag2155
aa(lp3856
g51
ag94
aa(lp3857
g52
ag207
aa(lp3858
g53
ag118
aa(lp3859
g54
ag103
aa(lp3860
g55
ag115
aa(lp3861
g56
ag78
aa(lp3862
g57
ag104
aa(lp3863
g58
ag119
aa(lp3864
g59
ag114
aatp3865
Rp3866
ag2452
((lp3867
(lp3868
g49
ag214
aa(lp3869
g50
ag208
aa(lp3870
g51
ag73
aa(lp3871
g52
ag207
aa(lp3872
g53
ag118
aa(lp3873
g54
ag103
aa(lp3874
g55
ag115
aa(lp3875
g56
ag78
aa(lp3876
g57
ag104
aa(lp3877
g58
ag119
aa(lp3878
g59
ag114
aatp3879
Rp3880
ag2452
((lp3881
(lp3882
g49
ag944
aa(lp3883
g50
ag938
aa(lp3884
g51
ag111
aa(lp3885
g52
ag207
aa(lp3886
g53
ag118
aa(lp3887
g54
ag103
aa(lp3888
g55
ag115
aa(lp3889
g56
ag78
aa(lp3890
g57
ag104
aa(lp3891
g58
ag119
aa(lp3892
g59
ag114
aatp3893
Rp3894
ag2452
((lp3895
(lp3896
g49
ag2187
aa(lp3897
g50
ag2181
aa(lp3898
g51
ag147
aa(lp3899
g52
ag207
aa(lp3900
g53
ag118
aa(lp3901
g54
ag103
aa(lp3902
g55
ag115
aa(lp3903
g56
ag78
aa(lp3904
g57
ag104
aa(lp3905
g58
ag119
aa(lp3906
g59
ag114
aatp3907
Rp3908
ag2452
((lp3909
(lp3910
g49
ag478
aa(lp3911
g50
ag472
aa(lp3912
g51
ag94
aa(lp3913
g52
ag110
aa(lp3914
g53
ag118
aa(lp3915
g54
ag86
aa(lp3916
g55
ag115
aa(lp3917
g56
ag78
aa(lp3918
g57
ag87
aa(lp3919
g58
ag119
aa(lp3920
g59
ag114
aatp3921
Rp3922
ag2452
((lp3923
(lp3924
g49
ag1089
aa(lp3925
g50
ag1083
aa(lp3926
g51
ag73
aa(lp3927
g52
ag110
aa(lp3928
g53
ag118
aa(lp3929
g54
ag86
aa(lp3930
g55
ag115
aa(lp3931
g56
ag78
aa(lp3932
g57
ag87
aa(lp3933
g58
ag119
aa(lp3934
g59
ag114
aatp3935
Rp3936
ag2452
((lp3937
(lp3938
g49
ag122
aa(lp3939
g50
ag112
aa(lp3940
g51
ag111
aa(lp3941
g52
ag110
aa(lp3942
g53
ag118
aa(lp3943
g54
ag86
aa(lp3944
g55
ag115
aa(lp3945
g56
ag78
aa(lp3946
g57
ag87
aa(lp3947
g58
ag119
aa(lp3948
g59
ag114
aatp3949
Rp3950
ag2452
((lp3951
(lp3952
g49
ag1640
aa(lp3953
g50
ag1634
aa(lp3954
g51
ag147
aa(lp3955
g52
ag110
aa(lp3956
g53
ag118
aa(lp3957
g54
ag86
aa(lp3958
g55
ag115
aa(lp3959
g56
ag78
aa(lp3960
g57
ag87
aa(lp3961
g58
ag119
aa(lp3962
g59
ag114
aatp3963
Rp3964
ag2452
((lp3965
(lp3966
g49
ag2070
aa(lp3967
g50
ag2064
aa(lp3968
g51
ag94
aa(lp3969
g52
ag965
aa(lp3970
g53
ag118
aa(lp3971
g54
ag172
aa(lp3972
g55
ag115
aa(lp3973
g56
ag164
aa(lp3974
g57
ag173
aa(lp3975
g58
ag119
aa(lp3976
g59
ag114
aatp3977
Rp3978
ag2452
((lp3979
(lp3980
g49
ag2083
aa(lp3981
g50
ag2077
aa(lp3982
g51
ag73
aa(lp3983
g52
ag965
aa(lp3984
g53
ag118
aa(lp3985
g54
ag172
aa(lp3986
g55
ag115
aa(lp3987
g56
ag164
aa(lp3988
g57
ag173
aa(lp3989
g58
ag119
aa(lp3990
g59
ag114
aatp3991
Rp3992
ag2452
((lp3993
(lp3994
g49
ag1744
aa(lp3995
g50
ag1738
aa(lp3996
g51
ag111
aa(lp3997
g52
ag965
aa(lp3998
g53
ag118
aa(lp3999
g54
ag172
aa(lp4000
g55
ag115
aa(lp4001
g56
ag164
aa(lp4002
g57
ag173
aa(lp4003
g58
ag119
aa(lp4004
g59
ag114
aatp4005
Rp4006
ag2452
((lp4007
(lp4008
g49
ag972
aa(lp4009
g50
ag966
aa(lp4010
g51
ag147
aa(lp4011
g52
ag965
aa(lp4012
g53
ag118
aa(lp4013
g54
ag172
aa(lp4014
g55
ag115
aa(lp4015
g56
ag164
aa(lp4016
g57
ag173
aa(lp4017
g58
ag119
aa(lp4018
g59
ag114
aatp4019
Rp4020
ag2452
((lp4021
(lp4022
g49
ag546
aa(lp4023
g50
ag540
aa(lp4024
g51
ag94
aa(lp4025
g52
ag293
aa(lp4026
g53
ag118
aa(lp4027
g54
ag230
aa(lp4028
g55
ag115
aa(lp4029
g56
ag164
aa(lp4030
g57
ag87
aa(lp4031
g58
ag119
aa(lp4032
g59
ag114
aatp4033
Rp4034
ag2452
((lp4035
(lp4036
g49
ag1992
aa(lp4037
g50
ag1986
aa(lp4038
g51
ag73
aa(lp4039
g52
ag293
aa(lp4040
g53
ag118
aa(lp4041
g54
ag230
aa(lp4042
g55
ag115
aa(lp4043
g56
ag164
aa(lp4044
g57
ag87
aa(lp4045
g58
ag119
aa(lp4046
g59
ag114
aatp4047
Rp4048
ag2452
((lp4049
(lp4050
g49
ag300
aa(lp4051
g50
ag294
aa(lp4052
g51
ag111
aa(lp4053
g52
ag293
aa(lp4054
g53
ag118
aa(lp4055
g54
ag230
aa(lp4056
g55
ag115
aa(lp4057
g56
ag164
aa(lp4058
g57
ag87
aa(lp4059
g58
ag119
aa(lp4060
g59
ag114
aatp4061
Rp4062
ag2452
((lp4063
(lp4064
g49
ag1627
aa(lp4065
g50
ag1621
aa(lp4066
g51
ag147
aa(lp4067
g52
ag293
aa(lp4068
g53
ag118
aa(lp4069
g54
ag230
aa(lp4070
g55
ag115
aa(lp4071
g56
ag164
aa(lp4072
g57
ag87
aa(lp4073
g58
ag119
aa(lp4074
g59
ag114
aatp4075
Rp4076
ag2452
((lp4077
(lp4078
g49
ag1327
aa(lp4079
g50
ag1321
aa(lp4080
g51
ag94
aa(lp4081
g52
ag924
aa(lp4082
g53
ag115
aa(lp4083
g54
ag139
aa(lp4084
g55
ag77
aa(lp4085
g56
ag132
aa(lp4086
g57
ag140
aa(lp4087
g58
ag167
aa(lp4088
g59
ag76
aatp4089
Rp4090
ag2452
((lp4091
(lp4092
g49
ag931
aa(lp4093
g50
ag925
aa(lp4094
g51
ag73
aa(lp4095
g52
ag924
aa(lp4096
g53
ag115
aa(lp4097
g54
ag139
aa(lp4098
g55
ag77
aa(lp4099
g56
ag132
aa(lp4100
g57
ag140
aa(lp4101
g58
ag167
aa(lp4102
g59
ag76
aatp4103
Rp4104
ag2452
((lp4105
(lp4106
g49
ag1275
aa(lp4107
g50
ag1269
aa(lp4108
g51
ag111
aa(lp4109
g52
ag924
aa(lp4110
g53
ag115
aa(lp4111
g54
ag139
aa(lp4112
g55
ag77
aa(lp4113
g56
ag132
aa(lp4114
g57
ag140
aa(lp4115
g58
ag167
aa(lp4116
g59
ag76
aatp4117
Rp4118
ag2452
((lp4119
(lp4120
g49
ag1497
aa(lp4121
g50
ag1491
aa(lp4122
g51
ag147
aa(lp4123
g52
ag924
aa(lp4124
g53
ag115
aa(lp4125
g54
ag139
aa(lp4126
g55
ag77
aa(lp4127
g56
ag132
aa(lp4128
g57
ag140
aa(lp4129
g58
ag167
aa(lp4130
g59
ag76
aatp4131
Rp4132
ag2452
((lp4133
(lp4134
g49
ag1874
aa(lp4135
g50
ag1868
aa(lp4136
g51
ag94
aa(lp4137
g52
ag179
aa(lp4138
g53
ag115
aa(lp4139
g54
ag103
aa(lp4140
g55
ag77
aa(lp4141
g56
ag78
aa(lp4142
g57
ag104
aa(lp4143
g58
ag167
aa(lp4144
g59
ag76
aatp4145
Rp4146
ag2452
((lp4147
(lp4148
g49
ag186
aa(lp4149
g50
ag180
aa(lp4150
g51
ag73
aa(lp4151
g52
ag179
aa(lp4152
g53
ag115
aa(lp4153
g54
ag103
aa(lp4154
g55
ag77
aa(lp4155
g56
ag78
aa(lp4156
g57
ag104
aa(lp4157
g58
ag167
aa(lp4158
g59
ag76
aatp4159
Rp4160
ag2452
((lp4161
(lp4162
g49
ag1666
aa(lp4163
g50
ag1660
aa(lp4164
g51
ag111
aa(lp4165
g52
ag179
aa(lp4166
g53
ag115
aa(lp4167
g54
ag103
aa(lp4168
g55
ag77
aa(lp4169
g56
ag78
aa(lp4170
g57
ag104
aa(lp4171
g58
ag167
aa(lp4172
g59
ag76
aatp4173
Rp4174
ag2452
((lp4175
(lp4176
g49
ag838
aa(lp4177
g50
ag832
aa(lp4178
g51
ag147
aa(lp4179
g52
ag179
aa(lp4180
g53
ag115
aa(lp4181
g54
ag103
aa(lp4182
g55
ag77
aa(lp4183
g56
ag78
aa(lp4184
g57
ag104
aa(lp4185
g58
ag167
aa(lp4186
g59
ag76
aatp4187
Rp4188
ag2452
((lp4189
(lp4190
g49
ag1197
aa(lp4191
g50
ag1191
aa(lp4192
g51
ag94
aa(lp4193
g52
ag713
aa(lp4194
g53
ag115
aa(lp4195
g54
ag86
aa(lp4196
g55
ag77
aa(lp4197
g56
ag78
aa(lp4198
g57
ag87
aa(lp4199
g58
ag167
aa(lp4200
g59
ag76
aatp4201
Rp4202
ag2452
((lp4203
(lp4204
g49
ag760
aa(lp4205
g50
ag754
aa(lp4206
g51
ag73
aa(lp4207
g52
ag713
aa(lp4208
g53
ag115
aa(lp4209
g54
ag86
aa(lp4210
g55
ag77
aa(lp4211
g56
ag78
aa(lp4212
g57
ag87
aa(lp4213
g58
ag167
aa(lp4214
g59
ag76
aatp4215
Rp4216
ag2452
((lp4217
(lp4218
g49
ag720
aa(lp4219
g50
ag714
aa(lp4220
g51
ag111
aa(lp4221
g52
ag713
aa(lp4222
g53
ag115
aa(lp4223
g54
ag86
aa(lp4224
g55
ag77
aa(lp4225
g56
ag78
aa(lp4226
g57
ag87
aa(lp4227
g58
ag167
aa(lp4228
g59
ag76
aatp4229
Rp4230
ag2452
((lp4231
(lp4232
g49
ag1927
aa(lp4233
g50
ag1921
aa(lp4234
g51
ag147
aa(lp4235
g52
ag713
aa(lp4236
g53
ag115
aa(lp4237
g54
ag86
aa(lp4238
g55
ag77
aa(lp4239
g56
ag78
aa(lp4240
g57
ag87
aa(lp4241
g58
ag167
aa(lp4242
g59
ag76
aatp4243
Rp4244
ag2452
((lp4245
(lp4246
g49
ag1063
aa(lp4247
g50
ag1057
aa(lp4248
g51
ag94
aa(lp4249
g52
ag404
aa(lp4250
g53
ag115
aa(lp4251
g54
ag172
aa(lp4252
g55
ag77
aa(lp4253
g56
ag164
aa(lp4254
g57
ag173
aa(lp4255
g58
ag167
aa(lp4256
g59
ag76
aatp4257
Rp4258
ag2452
((lp4259
(lp4260
g49
ag679
aa(lp4261
g50
ag673
aa(lp4262
g51
ag73
aa(lp4263
g52
ag404
aa(lp4264
g53
ag115
aa(lp4265
g54
ag172
aa(lp4266
g55
ag77
aa(lp4267
g56
ag164
aa(lp4268
g57
ag173
aa(lp4269
g58
ag167
aa(lp4270
g59
ag76
aatp4271
Rp4272
ag2452
((lp4273
(lp4274
g49
ag411
aa(lp4275
g50
ag405
aa(lp4276
g51
ag111
aa(lp4277
g52
ag404
aa(lp4278
g53
ag115
aa(lp4279
g54
ag172
aa(lp4280
g55
ag77
aa(lp4281
g56
ag164
aa(lp4282
g57
ag173
aa(lp4283
g58
ag167
aa(lp4284
g59
ag76
aatp4285
Rp4286
ag2452
((lp4287
(lp4288
g49
ag1471
aa(lp4289
g50
ag1465
aa(lp4290
g51
ag147
aa(lp4291
g52
ag404
aa(lp4292
g53
ag115
aa(lp4293
g54
ag172
aa(lp4294
g55
ag77
aa(lp4295
g56
ag164
aa(lp4296
g57
ag173
aa(lp4297
g58
ag167
aa(lp4298
g59
ag76
aatp4299
Rp4300
ag2452
((lp4301
(lp4302
g49
ag2057
aa(lp4303
g50
ag2051
aa(lp4304
g51
ag94
aa(lp4305
g52
ag321
aa(lp4306
g53
ag115
aa(lp4307
g54
ag230
aa(lp4308
g55
ag77
aa(lp4309
g56
ag164
aa(lp4310
g57
ag87
aa(lp4311
g58
ag167
aa(lp4312
g59
ag76
aatp4313
Rp4314
ag2452
((lp4315
(lp4316
g49
ag328
aa(lp4317
g50
ag322
aa(lp4318
g51
ag73
aa(lp4319
g52
ag321
aa(lp4320
g53
ag115
aa(lp4321
g54
ag230
aa(lp4322
g55
ag77
aa(lp4323
g56
ag164
aa(lp4324
g57
ag87
aa(lp4325
g58
ag167
aa(lp4326
g59
ag76
aatp4327
Rp4328
ag2452
((lp4329
(lp4330
g49
ag1588
aa(lp4331
g50
ag1582
aa(lp4332
g51
ag111
aa(lp4333
g52
ag321
aa(lp4334
g53
ag115
aa(lp4335
g54
ag230
aa(lp4336
g55
ag77
aa(lp4337
g56
ag164
aa(lp4338
g57
ag87
aa(lp4339
g58
ag167
aa(lp4340
g59
ag76
aatp4341
Rp4342
ag2452
((lp4343
(lp4344
g49
ag2226
aa(lp4345
g50
ag2220
aa(lp4346
g51
ag147
aa(lp4347
g52
ag321
aa(lp4348
g53
ag115
aa(lp4349
g54
ag230
aa(lp4350
g55
ag77
aa(lp4351
g56
ag164
aa(lp4352
g57
ag87
aa(lp4353
g58
ag167
aa(lp4354
g59
ag76
aatp4355
Rp4356
ag2452
((lp4357
(lp4358
g49
ag2044
aa(lp4359
g50
ag2038
aa(lp4360
g51
ag94
aa(lp4361
g52
ag1163
aa(lp4362
g53
ag115
aa(lp4363
g54
ag139
aa(lp4364
g55
ag118
aa(lp4365
g56
ag132
aa(lp4366
g57
ag140
aa(lp4367
g58
ag167
aa(lp4368
g59
ag267
aatp4369
Rp4370
ag2452
((lp4371
(lp4372
g49
ag1170
aa(lp4373
g50
ag1164
aa(lp4374
g51
ag73
aa(lp4375
g52
ag1163
aa(lp4376
g53
ag115
aa(lp4377
g54
ag139
aa(lp4378
g55
ag118
aa(lp4379
g56
ag132
aa(lp4380
g57
ag140
aa(lp4381
g58
ag167
aa(lp4382
g59
ag267
aatp4383
Rp4384
ag2452
((lp4385
(lp4386
g49
ag1406
aa(lp4387
g50
ag1400
aa(lp4388
g51
ag111
aa(lp4389
g52
ag1163
aa(lp4390
g53
ag115
aa(lp4391
g54
ag139
aa(lp4392
g55
ag118
aa(lp4393
g56
ag132
aa(lp4394
g57
ag140
aa(lp4395
g58
ag167
aa(lp4396
g59
ag267
aatp4397
Rp4398
ag2452
((lp4399
(lp4400
g49
ag1796
aa(lp4401
g50
ag1790
aa(lp4402
g51
ag147
aa(lp4403
g52
ag1163
aa(lp4404
g53
ag115
aa(lp4405
g54
ag139
aa(lp4406
g55
ag118
aa(lp4407
g56
ag132
aa(lp4408
g57
ag140
aa(lp4409
g58
ag167
aa(lp4410
g59
ag267
aatp4411
Rp4412
ag2452
((lp4413
(lp4414
g49
ag1432
aa(lp4415
g50
ag1426
aa(lp4416
g51
ag94
aa(lp4417
g52
ag390
aa(lp4418
g53
ag115
aa(lp4419
g54
ag103
aa(lp4420
g55
ag118
aa(lp4421
g56
ag78
aa(lp4422
g57
ag104
aa(lp4423
g58
ag167
aa(lp4424
g59
ag267
aatp4425
Rp4426
ag2452
((lp4427
(lp4428
g49
ag397
aa(lp4429
g50
ag391
aa(lp4430
g51
ag73
aa(lp4431
g52
ag390
aa(lp4432
g53
ag115
aa(lp4433
g54
ag103
aa(lp4434
g55
ag118
aa(lp4435
g56
ag78
aa(lp4436
g57
ag104
aa(lp4437
g58
ag167
aa(lp4438
g59
ag267
aatp4439
Rp4440
ag2452
((lp4441
(lp4442
g49
ag799
aa(lp4443
g50
ag793
aa(lp4444
g51
ag111
aa(lp4445
g52
ag390
aa(lp4446
g53
ag115
aa(lp4447
g54
ag103
aa(lp4448
g55
ag118
aa(lp4449
g56
ag78
aa(lp4450
g57
ag104
aa(lp4451
g58
ag167
aa(lp4452
g59
ag267
aatp4453
Rp4454
ag2452
((lp4455
(lp4456
g49
ag1835
aa(lp4457
g50
ag1829
aa(lp4458
g51
ag147
aa(lp4459
g52
ag390
aa(lp4460
g53
ag115
aa(lp4461
g54
ag103
aa(lp4462
g55
ag118
aa(lp4463
g56
ag78
aa(lp4464
g57
ag104
aa(lp4465
g58
ag167
aa(lp4466
g59
ag267
aatp4467
Rp4468
ag2452
((lp4469
(lp4470
g49
ag1861
aa(lp4471
g50
ag1855
aa(lp4472
g51
ag94
aa(lp4473
g52
ag1334
aa(lp4474
g53
ag115
aa(lp4475
g54
ag86
aa(lp4476
g55
ag118
aa(lp4477
g56
ag78
aa(lp4478
g57
ag87
aa(lp4479
g58
ag167
aa(lp4480
g59
ag267
aatp4481
Rp4482
ag2452
((lp4483
(lp4484
g49
ag1510
aa(lp4485
g50
ag1504
aa(lp4486
g51
ag73
aa(lp4487
g52
ag1334
aa(lp4488
g53
ag115
aa(lp4489
g54
ag86
aa(lp4490
g55
ag118
aa(lp4491
g56
ag78
aa(lp4492
g57
ag87
aa(lp4493
g58
ag167
aa(lp4494
g59
ag267
aatp4495
Rp4496
ag2452
((lp4497
(lp4498
g49
ag1445
aa(lp4499
g50
ag1439
aa(lp4500
g51
ag111
aa(lp4501
g52
ag1334
aa(lp4502
g53
ag115
aa(lp4503
g54
ag86
aa(lp4504
g55
ag118
aa(lp4505
g56
ag78
aa(lp4506
g57
ag87
aa(lp4507
g58
ag167
aa(lp4508
g59
ag267
aatp4509
Rp4510
ag2452
((lp4511
(lp4512
g49
ag1341
aa(lp4513
g50
ag1335
aa(lp4514
g51
ag147
aa(lp4515
g52
ag1334
aa(lp4516
g53
ag115
aa(lp4517
g54
ag86
aa(lp4518
g55
ag118
aa(lp4519
g56
ag78
aa(lp4520
g57
ag87
aa(lp4521
g58
ag167
aa(lp4522
g59
ag267
aatp4523
Rp4524
ag2452
((lp4525
(lp4526
g49
ag1562
aa(lp4527
g50
ag1556
aa(lp4528
g51
ag94
aa(lp4529
g52
ag485
aa(lp4530
g53
ag115
aa(lp4531
g54
ag172
aa(lp4532
g55
ag118
aa(lp4533
g56
ag164
aa(lp4534
g57
ag173
aa(lp4535
g58
ag167
aa(lp4536
g59
ag267
aatp4537
Rp4538
ag2452
((lp4539
(lp4540
g49
ag692
aa(lp4541
g50
ag686
aa(lp4542
g51
ag73
aa(lp4543
g52
ag485
aa(lp4544
g53
ag115
aa(lp4545
g54
ag172
aa(lp4546
g55
ag118
aa(lp4547
g56
ag164
aa(lp4548
g57
ag173
aa(lp4549
g58
ag167
aa(lp4550
g59
ag267
aatp4551
Rp4552
ag2452
((lp4553
(lp4554
g49
ag1223
aa(lp4555
g50
ag1217
aa(lp4556
g51
ag111
aa(lp4557
g52
ag485
aa(lp4558
g53
ag115
aa(lp4559
g54
ag172
aa(lp4560
g55
ag118
aa(lp4561
g56
ag164
aa(lp4562
g57
ag173
aa(lp4563
g58
ag167
aa(lp4564
g59
ag267
aatp4565
Rp4566
ag2452
((lp4567
(lp4568
g49
ag492
aa(lp4569
g50
ag486
aa(lp4570
g51
ag147
aa(lp4571
g52
ag485
aa(lp4572
g53
ag115
aa(lp4573
g54
ag172
aa(lp4574
g55
ag118
aa(lp4575
g56
ag164
aa(lp4576
g57
ag173
aa(lp4577
g58
ag167
aa(lp4578
g59
ag267
aatp4579
Rp4580
ag2452
((lp4581
(lp4582
g49
ag1979
aa(lp4583
g50
ag1973
aa(lp4584
g51
ag94
aa(lp4585
g52
ag553
aa(lp4586
g53
ag115
aa(lp4587
g54
ag230
aa(lp4588
g55
ag118
aa(lp4589
g56
ag164
aa(lp4590
g57
ag87
aa(lp4591
g58
ag167
aa(lp4592
g59
ag267
aatp4593
Rp4594
ag2452
((lp4595
(lp4596
g49
ag560
aa(lp4597
g50
ag554
aa(lp4598
g51
ag73
aa(lp4599
g52
ag553
aa(lp4600
g53
ag115
aa(lp4601
g54
ag230
aa(lp4602
g55
ag118
aa(lp4603
g56
ag164
aa(lp4604
g57
ag87
aa(lp4605
g58
ag167
aa(lp4606
g59
ag267
aatp4607
Rp4608
ag2452
((lp4609
(lp4610
g49
ag786
aa(lp4611
g50
ag780
aa(lp4612
g51
ag111
aa(lp4613
g52
ag553
aa(lp4614
g53
ag115
aa(lp4615
g54
ag230
aa(lp4616
g55
ag118
aa(lp4617
g56
ag164
aa(lp4618
g57
ag87
aa(lp4619
g58
ag167
aa(lp4620
g59
ag267
aatp4621
Rp4622
ag2452
((lp4623
(lp4624
g49
ag2278
aa(lp4625
g50
ag2272
aa(lp4626
g51
ag147
aa(lp4627
g52
ag553
aa(lp4628
g53
ag115
aa(lp4629
g54
ag230
aa(lp4630
g55
ag118
aa(lp4631
g56
ag164
aa(lp4632
g57
ag87
aa(lp4633
g58
ag167
aa(lp4634
g59
ag267
aatp4635
Rp4636
ag2452
((lp4637
(lp4638
g49
ag1102
aa(lp4639
g50
ag1096
aa(lp4640
g51
ag94
aa(lp4641
g52
ag699
aa(lp4642
g53
ag115
aa(lp4643
g54
ag103
aa(lp4644
g55
ag115
aa(lp4645
g56
ag78
aa(lp4646
g57
ag104
aa(lp4647
g58
ag167
aa(lp4648
g59
ag114
aatp4649
Rp4650
ag2452
((lp4651
(lp4652
g49
ag998
aa(lp4653
g50
ag992
aa(lp4654
g51
ag73
aa(lp4655
g52
ag699
aa(lp4656
g53
ag115
aa(lp4657
g54
ag103
aa(lp4658
g55
ag115
aa(lp4659
g56
ag78
aa(lp4660
g57
ag104
aa(lp4661
g58
ag167
aa(lp4662
g59
ag114
aatp4663
Rp4664
ag2452
((lp4665
(lp4666
g49
ag706
aa(lp4667
g50
ag700
aa(lp4668
g51
ag111
aa(lp4669
g52
ag699
aa(lp4670
g53
ag115
aa(lp4671
g54
ag103
aa(lp4672
g55
ag115
aa(lp4673
g56
ag78
aa(lp4674
g57
ag104
aa(lp4675
g58
ag167
aa(lp4676
g59
ag114
aatp4677
Rp4678
ag2452
((lp4679
(lp4680
g49
ag812
aa(lp4681
g50
ag806
aa(lp4682
g51
ag147
aa(lp4683
g52
ag699
aa(lp4684
g53
ag115
aa(lp4685
g54
ag103
aa(lp4686
g55
ag115
aa(lp4687
g56
ag78
aa(lp4688
g57
ag104
aa(lp4689
g58
ag167
aa(lp4690
g59
ag114
aatp4691
Rp4692
ag2452
((lp4693
(lp4694
g49
ag2200
aa(lp4695
g50
ag2194
aa(lp4696
g51
ag94
aa(lp4697
g52
ag1177
aa(lp4698
g53
ag115
aa(lp4699
g54
ag86
aa(lp4700
g55
ag115
aa(lp4701
g56
ag78
aa(lp4702
g57
ag87
aa(lp4703
g58
ag167
aa(lp4704
g59
ag114
aatp4705
Rp4706
ag2452
((lp4707
(lp4708
g49
ag2304
aa(lp4709
g50
ag2298
aa(lp4710
g51
ag73
aa(lp4711
g52
ag1177
aa(lp4712
g53
ag115
aa(lp4713
g54
ag86
aa(lp4714
g55
ag115
aa(lp4715
g56
ag78
aa(lp4716
g57
ag87
aa(lp4717
g58
ag167
aa(lp4718
g59
ag114
aatp4719
Rp4720
ag2452
((lp4721
(lp4722
g49
ag1184
aa(lp4723
g50
ag1178
aa(lp4724
g51
ag111
aa(lp4725
g52
ag1177
aa(lp4726
g53
ag115
aa(lp4727
g54
ag86
aa(lp4728
g55
ag115
aa(lp4729
g56
ag78
aa(lp4730
g57
ag87
aa(lp4731
g58
ag167
aa(lp4732
g59
ag114
aatp4733
Rp4734
ag2452
((lp4735
(lp4736
g49
ag1614
aa(lp4737
g50
ag1608
aa(lp4738
g51
ag147
aa(lp4739
g52
ag1177
aa(lp4740
g53
ag115
aa(lp4741
g54
ag86
aa(lp4742
g55
ag115
aa(lp4743
g56
ag78
aa(lp4744
g57
ag87
aa(lp4745
g58
ag167
aa(lp4746
g59
ag114
aatp4747
Rp4748
ag2452
((lp4749
(lp4750
g49
ag1393
aa(lp4751
g50
ag1387
aa(lp4752
g51
ag94
aa(lp4753
g52
ag161
aa(lp4754
g53
ag115
aa(lp4755
g54
ag172
aa(lp4756
g55
ag115
aa(lp4757
g56
ag164
aa(lp4758
g57
ag173
aa(lp4759
g58
ag167
aa(lp4760
g59
ag114
aatp4761
Rp4762
ag2452
((lp4763
(lp4764
g49
ag2343
aa(lp4765
g50
ag2337
aa(lp4766
g51
ag73
aa(lp4767
g52
ag161
aa(lp4768
g53
ag115
aa(lp4769
g54
ag172
aa(lp4770
g55
ag115
aa(lp4771
g56
ag164
aa(lp4772
g57
ag173
aa(lp4773
g58
ag167
aa(lp4774
g59
ag114
aatp4775
Rp4776
ag2452
((lp4777
(lp4778
g49
ag170
aa(lp4779
g50
ag162
aa(lp4780
g51
ag111
aa(lp4781
g52
ag161
aa(lp4782
g53
ag115
aa(lp4783
g54
ag172
aa(lp4784
g55
ag115
aa(lp4785
g56
ag164
aa(lp4786
g57
ag173
aa(lp4787
g58
ag167
aa(lp4788
g59
ag114
aatp4789
Rp4790
ag2452
((lp4791
(lp4792
g49
ag1024
aa(lp4793
g50
ag1018
aa(lp4794
g51
ag147
aa(lp4795
g52
ag161
aa(lp4796
g53
ag115
aa(lp4797
g54
ag172
aa(lp4798
g55
ag115
aa(lp4799
g56
ag164
aa(lp4800
g57
ag173
aa(lp4801
g58
ag167
aa(lp4802
g59
ag114
aatp4803
Rp4804
ag2452
((lp4805
(lp4806
g49
ag1953
aa(lp4807
g50
ag1947
aa(lp4808
g51
ag94
aa(lp4809
g52
ag307
aa(lp4810
g53
ag115
aa(lp4811
g54
ag230
aa(lp4812
g55
ag115
aa(lp4813
g56
ag164
aa(lp4814
g57
ag87
aa(lp4815
g58
ag167
aa(lp4816
g59
ag114
aatp4817
Rp4818
ag2452
((lp4819
(lp4820
g49
ag314
aa(lp4821
g50
ag308
aa(lp4822
g51
ag73
aa(lp4823
g52
ag307
aa(lp4824
g53
ag115
aa(lp4825
g54
ag230
aa(lp4826
g55
ag115
aa(lp4827
g56
ag164
aa(lp4828
g57
ag87
aa(lp4829
g58
ag167
aa(lp4830
g59
ag114
aatp4831
Rp4832
ag2452
((lp4833
(lp4834
g49
ag2135
aa(lp4835
g50
ag2129
aa(lp4836
g51
ag111
aa(lp4837
g52
ag307
aa(lp4838
g53
ag115
aa(lp4839
g54
ag230
aa(lp4840
g55
ag115
aa(lp4841
g56
ag164
aa(lp4842
g57
ag87
aa(lp4843
g58
ag167
aa(lp4844
g59
ag114
aatp4845
Rp4846
ag2452
((lp4847
(lp4848
g49
ag599
aa(lp4849
g50
ag593
aa(lp4850
g51
ag147
aa(lp4851
g52
ag307
aa(lp4852
g53
ag115
aa(lp4853
g54
ag230
aa(lp4854
g55
ag115
aa(lp4855
g56
ag164
aa(lp4856
g57
ag87
aa(lp4857
g58
ag167
aa(lp4858
g59
ag114
aatp4859
Rp4860
asS'seed'
p4861
NsS'thisIndex'
p4862
g2362
sS'thisN'
p4863
I172
sS'thisTrialN'
p4864
I0
sS'nTotal'
p4865
I172
sbasS'savePickle'
p4866
I00
sb.