ccopy_reg
_reconstructor
p0
(cpsychopy.data.experiment
ExperimentHandler
p1
c__builtin__
object
p2
Ntp3
Rp4
(dp5
S'originPath'
p6
V/Users/Stefano/Documents/GitHub/phd-project/perceptual-pilot/experiment/perceptual-pilot.psyexp
p7
sS'dataFileName'
p8
V/Users/Stefano/Documents/GitHub/phd-project/perceptual-pilot/experiment/data/f001_perceptual-pilot_2018_Jan_11_1419
p9
sS'runtimeInfo'
p10
NsS'name'
p11
S'perceptual-pilot'
p12
sS'dataNames'
p13
(lp14
S'key_resp_5.keys'
p15
aS'key_resp_5.rt'
p16
aS'key_resp_9.keys'
p17
aS'key_resp_9.rt'
p18
aS'key_resp_10.keys'
p19
aS'key_resp_10.rt'
p20
aS'key_resp_11.keys'
p21
aS'key_resp_11.rt'
p22
aS'key_resp_12.keys'
p23
aS'key_resp_12.rt'
p24
aS'key_resp_3.keys'
p25
aS'key_resp_3.corr'
p26
aS'key_resp_3.rt'
p27
aS'key_resp_4.keys'
p28
aS'key_resp_4.rt'
p29
aS'key_resp_2.keys'
p30
aS'key_resp_2.rt'
p31
asS'autoLog'
p32
I01
sS'extraInfo'
p33
(dp34
S'date'
p35
S'2018_Jan_11_1419'
p36
sS'frameRate'
p37
cnumpy.core.multiarray
scalar
p38
(cnumpy
dtype
p39
(S'f8'
p40
I0
I1
tp41
Rp42
(I3
S'<'
p43
NNNI-1
I-1
I0
tp44
bS'1\xf5\xa1;\x84\xfbM@'
p45
tp46
Rp47
sS'expName'
p48
g12
sVparticipant
p49
Vf001
p50
ssS'loopsUnfinished'
p51
(lp52
sS'saveWideText'
p53
I00
sS'thisEntry'
p54
(dp55
sS'version'
p56
S''
p57
sS'_paramNamesSoFar'
p58
(lp59
S'index'
p60
aS'burst'
p61
aS'voicing'
p62
aS'file_name'
p63
aS'vowel'
p64
aS'correct_answer'
p65
aS'side_condition'
p66
aS'condition'
p67
asS'entries'
p68
(lp69
(dp70
g48
g12
sg15
S'space'
p71
sg49
g50
sg35
g36
sg37
g47
sg16
F5.156243085861206
sa(dp72
g48
g12
sg49
g50
sg35
g36
sg18
F13.024508953094482
sg37
g47
sg17
S'space'
p73
sa(dp74
g48
g12
sg49
g50
sg35
g36
sg19
S'space'
p75
sg20
F6.639343976974487
sg37
g47
sa(dp76
g48
g12
sg49
g50
sg22
F6.271716833114624
sg35
g36
sg21
S'space'
p77
sg37
g47
sa(dp78
g48
g12
sg49
g50
sg35
g36
sg23
S'space'
p79
sg37
g47
sg24
F8.504729986190796
sa(dp80
g61
g38
(g39
(S'i8'
p81
I0
I1
tp82
Rp83
(I3
S'<'
p84
NNNI-1
I-1
I0
tp85
bS'\x05\x00\x00\x00\x00\x00\x00\x00'
p86
tp87
Rp88
sg62
g38
(g83
S'\x00\x00\x00\x00\x00\x00\x00\x00'
p89
tp90
Rp91
sg63
V../data/raw/stimuli/piti0.wav
p92
sg37
g47
sS'trials_3.thisRepN'
p93
I0
sg26
I1
sS'trials_2.thisIndex'
p94
g38
(g83
S'\x03\x00\x00\x00\x00\x00\x00\x00'
p95
tp96
Rp97
sg64
Vi
p98
sg25
S'slash'
p99
sg35
g36
sS'trials_3.thisIndex'
p100
g38
(g83
S'\x00\x00\x00\x00\x00\x00\x00\x00'
p101
tp102
Rp103
sS'trials_3.thisTrialN'
p104
I0
sg66
Vt_right
p105
sg67
Vvoicing
p106
sg60
g38
(g83
S'\x04\x00\x00\x00\x00\x00\x00\x00'
p107
tp108
Rp109
sg49
g50
sS'trials_2.thisRepN'
p110
I0
sS'trials_2.thisTrialN'
p111
I0
sS'trials_3.thisN'
p112
I0
sg48
g12
sg65
Vslash
p113
sg27
F1.436072826385498
sS'trials_2.thisN'
p114
I0
sa(dp115
g61
g38
(g83
S'\x00\x00\x00\x00\x00\x00\x00\x00'
p116
tp117
Rp118
sg62
g38
(g83
S'\x05\x00\x00\x00\x00\x00\x00\x00'
p119
tp120
Rp121
sg63
V../data/raw/stimuli/pidi.wav
p122
sg37
g47
sS'trials_3.thisRepN'
p123
I0
sg26
I1
sS'trials_2.thisIndex'
p124
g38
(g83
S'\x02\x00\x00\x00\x00\x00\x00\x00'
p125
tp126
Rp127
sg64
g98
sg25
S'z'
p128
sg35
g36
sS'trials_3.thisIndex'
p129
g103
sS'trials_3.thisTrialN'
p130
I0
sg66
g105
sg67
Vconfound
p131
sg60
g38
(g83
S'\x03\x00\x00\x00\x00\x00\x00\x00'
p132
tp133
Rp134
sg49
g50
sS'trials_2.thisRepN'
p135
I0
sS'trials_2.thisTrialN'
p136
I1
sS'trials_3.thisN'
p137
I0
sg48
g12
sg65
Vz
p138
sg27
F0.4689159393310547
sS'trials_2.thisN'
p139
I1
sa(dp140
g61
g38
(g83
S'\x05\x00\x00\x00\x00\x00\x00\x00'
p141
tp142
Rp143
sg62
g38
(g83
S'\x00\x00\x00\x00\x00\x00\x00\x00'
p144
tp145
Rp146
sg63
V../data/raw/stimuli/pata0.wav
p147
sg37
g47
sS'trials_3.thisRepN'
p148
I0
sg26
I1
sS'trials_2.thisIndex'
p149
g38
(g83
S'\x01\x00\x00\x00\x00\x00\x00\x00'
p150
tp151
Rp152
sg64
Va
p153
sg25
S'slash'
p154
sg35
g36
sS'trials_3.thisIndex'
p155
g103
sS'trials_3.thisTrialN'
p156
I0
sg66
g105
sg67
g106
sg60
g38
(g83
S'\x02\x00\x00\x00\x00\x00\x00\x00'
p157
tp158
Rp159
sg49
g50
sS'trials_2.thisRepN'
p160
I0
sS'trials_2.thisTrialN'
p161
I2
sS'trials_3.thisN'
p162
I0
sg48
g12
sg65
g113
sg27
F0.6031830310821533
sS'trials_2.thisN'
p163
I2
sa(dp164
g61
g38
(g83
S'\x00\x00\x00\x00\x00\x00\x00\x00'
p165
tp166
Rp167
sg62
g38
(g83
S'\x05\x00\x00\x00\x00\x00\x00\x00'
p168
tp169
Rp170
sg63
V../data/raw/stimuli/pudu.wav
p171
sg37
g47
sS'trials_3.thisRepN'
p172
I0
sg26
I1
sS'trials_2.thisIndex'
p173
g38
(g83
S'\x04\x00\x00\x00\x00\x00\x00\x00'
p174
tp175
Rp176
sg64
Vu
p177
sg25
S'z'
p178
sg35
g36
sS'trials_3.thisIndex'
p179
g103
sS'trials_3.thisTrialN'
p180
I0
sg66
g105
sg67
g131
sg60
g38
(g83
S'\x05\x00\x00\x00\x00\x00\x00\x00'
p181
tp182
Rp183
sg49
g50
sS'trials_2.thisRepN'
p184
I0
sS'trials_2.thisTrialN'
p185
I3
sS'trials_3.thisN'
p186
I0
sg48
g12
sg65
g138
sg27
F0.5032341480255127
sS'trials_2.thisN'
p187
I3
sa(dp188
g61
g38
(g83
S'\x00\x00\x00\x00\x00\x00\x00\x00'
p189
tp190
Rp191
sg62
g38
(g83
S'\x05\x00\x00\x00\x00\x00\x00\x00'
p192
tp193
Rp194
sg63
V../data/raw/stimuli/pada.wav
p195
sg37
g47
sS'trials_3.thisRepN'
p196
I0
sg26
I1
sS'trials_2.thisIndex'
p197
g38
(g83
S'\x00\x00\x00\x00\x00\x00\x00\x00'
p198
tp199
Rp200
sg64
g153
sg25
S'z'
p201
sg35
g36
sS'trials_3.thisIndex'
p202
g103
sS'trials_3.thisTrialN'
p203
I0
sg66
g105
sg67
g131
sg60
g38
(g83
S'\x01\x00\x00\x00\x00\x00\x00\x00'
p204
tp205
Rp206
sg49
g50
sS'trials_2.thisRepN'
p207
I0
sS'trials_2.thisTrialN'
p208
I4
sS'trials_3.thisN'
p209
I0
sg48
g12
sg65
g138
sg27
F0.7195448875427246
sS'trials_2.thisN'
p210
I4
sa(dp211
g61
g38
(g83
S'\x05\x00\x00\x00\x00\x00\x00\x00'
p212
tp213
Rp214
sg62
g38
(g83
S'\x00\x00\x00\x00\x00\x00\x00\x00'
p215
tp216
Rp217
sg63
V../data/raw/stimuli/putu0.wav
p218
sg37
g47
sS'trials_3.thisRepN'
p219
I0
sg26
I1
sS'trials_2.thisIndex'
p220
g38
(g83
S'\x05\x00\x00\x00\x00\x00\x00\x00'
p221
tp222
Rp223
sg64
g177
sg25
S'slash'
p224
sg35
g36
sS'trials_3.thisIndex'
p225
g103
sS'trials_3.thisTrialN'
p226
I0
sg66
g105
sg67
g106
sg60
g38
(g83
S'\x06\x00\x00\x00\x00\x00\x00\x00'
p227
tp228
Rp229
sg49
g50
sS'trials_2.thisRepN'
p230
I0
sS'trials_2.thisTrialN'
p231
I5
sS'trials_3.thisN'
p232
I0
sg48
g12
sg65
g113
sg27
F0.7028360366821289
sS'trials_2.thisN'
p233
I5
sa(dp234
g61
g88
sg62
g91
sg63
g92
sg37
g47
sS'trials_3.thisRepN'
p235
I0
sg26
I1
sS'trials_2.thisIndex'
p236
g38
(g83
S'\x03\x00\x00\x00\x00\x00\x00\x00'
p237
tp238
Rp239
sg64
g98
sg25
S'slash'
p240
sg35
g36
sS'trials_3.thisIndex'
p241
g103
sS'trials_3.thisTrialN'
p242
I0
sg66
g105
sg67
g106
sg60
g109
sg49
g50
sS'trials_2.thisRepN'
p243
I1
sS'trials_2.thisTrialN'
p244
I0
sS'trials_3.thisN'
p245
I0
sg48
g12
sg65
g113
sg27
F0.8865599632263184
sS'trials_2.thisN'
p246
I6
sa(dp247
g61
g191
sg62
g194
sg63
g195
sg37
g47
sS'trials_3.thisRepN'
p248
I0
sg26
I1
sS'trials_2.thisIndex'
p249
g38
(g83
S'\x00\x00\x00\x00\x00\x00\x00\x00'
p250
tp251
Rp252
sg64
g153
sg25
S'z'
p253
sg35
g36
sS'trials_3.thisIndex'
p254
g103
sS'trials_3.thisTrialN'
p255
I0
sg66
g105
sg67
g131
sg60
g206
sg49
g50
sS'trials_2.thisRepN'
p256
I1
sS'trials_2.thisTrialN'
p257
I1
sS'trials_3.thisN'
p258
I0
sg48
g12
sg65
g138
sg27
F0.6197412014007568
sS'trials_2.thisN'
p259
I7
sa(dp260
g61
g118
sg62
g121
sg63
g122
sg37
g47
sS'trials_3.thisRepN'
p261
I0
sg26
I1
sS'trials_2.thisIndex'
p262
g38
(g83
S'\x02\x00\x00\x00\x00\x00\x00\x00'
p263
tp264
Rp265
sg64
g98
sg25
S'z'
p266
sg35
g36
sS'trials_3.thisIndex'
p267
g103
sS'trials_3.thisTrialN'
p268
I0
sg66
g105
sg67
g131
sg60
g134
sg49
g50
sS'trials_2.thisRepN'
p269
I1
sS'trials_2.thisTrialN'
p270
I2
sS'trials_3.thisN'
p271
I0
sg48
g12
sg65
g138
sg27
F0.48575496673583984
sS'trials_2.thisN'
p272
I8
sa(dp273
g61
g167
sg62
g170
sg63
g171
sg37
g47
sS'trials_3.thisRepN'
p274
I0
sg26
I1
sS'trials_2.thisIndex'
p275
g38
(g83
S'\x04\x00\x00\x00\x00\x00\x00\x00'
p276
tp277
Rp278
sg64
g177
sg25
S'z'
p279
sg35
g36
sS'trials_3.thisIndex'
p280
g103
sS'trials_3.thisTrialN'
p281
I0
sg66
g105
sg67
g131
sg60
g183
sg49
g50
sS'trials_2.thisRepN'
p282
I1
sS'trials_2.thisTrialN'
p283
I3
sS'trials_3.thisN'
p284
I0
sg48
g12
sg65
g138
sg27
F0.7030510902404785
sS'trials_2.thisN'
p285
I9
sa(dp286
g61
g143
sg62
g146
sg63
g147
sg37
g47
sS'trials_3.thisRepN'
p287
I0
sg26
I1
sS'trials_2.thisIndex'
p288
g38
(g83
S'\x01\x00\x00\x00\x00\x00\x00\x00'
p289
tp290
Rp291
sg64
g153
sg25
S'slash'
p292
sg35
g36
sS'trials_3.thisIndex'
p293
g103
sS'trials_3.thisTrialN'
p294
I0
sg66
g105
sg67
g106
sg60
g159
sg49
g50
sS'trials_2.thisRepN'
p295
I1
sS'trials_2.thisTrialN'
p296
I4
sS'trials_3.thisN'
p297
I0
sg48
g12
sg65
g113
sg27
F0.4522581100463867
sS'trials_2.thisN'
p298
I10
sa(dp299
g61
g214
sg62
g217
sg63
g218
sg37
g47
sS'trials_3.thisRepN'
p300
I0
sg26
I1
sS'trials_2.thisIndex'
p301
g38
(g83
S'\x05\x00\x00\x00\x00\x00\x00\x00'
p302
tp303
Rp304
sg64
g177
sg25
S'slash'
p305
sg35
g36
sS'trials_3.thisIndex'
p306
g103
sS'trials_3.thisTrialN'
p307
I0
sg66
g105
sg67
g106
sg60
g229
sg49
g50
sS'trials_2.thisRepN'
p308
I1
sS'trials_2.thisTrialN'
p309
I5
sS'trials_3.thisN'
p310
I0
sg48
g12
sg65
g113
sg27
F0.6363611221313477
sS'trials_2.thisN'
p311
I11
sa(dp312
g31
F0.7839879989624023
sS'index'
p313
g38
(g83
S'\x1b\x00\x00\x00\x00\x00\x00\x00'
p314
tp315
Rp316
sS'voicing'
p317
g38
(g83
S'\x05\x00\x00\x00\x00\x00\x00\x00'
p318
tp319
Rp320
sS'file_name'
p321
V../data/raw/stimuli/piti5.wav
p322
sg37
g47
sg30
S'slash'
p323
sS'trials_3.thisRepN'
p324
I0
sS'vowel'
p325
g98
sg35
g36
sS'trials_3.thisIndex'
p326
g103
sS'trials_3.thisTrialN'
p327
I0
sS'side_condition'
p328
Vt_right
p329
sS'condition'
p330
Vvoicing
p331
sS'trials.thisIndex'
p332
g38
(g83
S'\x1a\x00\x00\x00\x00\x00\x00\x00'
p333
tp334
Rp335
sg49
g50
sg29
F3.770730972290039
sg28
S'space'
p336
sS'trials.thisRepN'
p337
I0
sS'trials_3.thisN'
p338
I0
sS'trials.thisN'
p339
I0
sg48
g12
sS'trials.thisTrialN'
p340
I0
sS'burst'
p341
g38
(g83
S'\x05\x00\x00\x00\x00\x00\x00\x00'
p342
tp343
Rp344
sa(dp345
S'trials.thisIndex'
p346
g38
(g83
S'\x07\x00\x00\x00\x00\x00\x00\x00'
p347
tp348
Rp349
sg31
F0.5693981647491455
sg35
g36
sg313
g38
(g83
S'\x08\x00\x00\x00\x00\x00\x00\x00'
p350
tp351
Rp352
sg317
g38
(g83
S'\x00\x00\x00\x00\x00\x00\x00\x00'
p353
tp354
Rp355
sS'trials.thisRepN'
p356
I0
sS'trials_3.thisN'
p357
I0
sg37
g47
sg30
S'slash'
p358
sS'trials.thisN'
p359
I1
sS'trials_3.thisRepN'
p360
I0
sg48
g12
sS'trials.thisTrialN'
p361
I1
sg325
g153
sg321
V../data/raw/stimuli/pata0.wav
p362
sg341
g38
(g83
S'\x05\x00\x00\x00\x00\x00\x00\x00'
p363
tp364
Rp365
sS'trials_3.thisIndex'
p366
g103
sS'trials_3.thisTrialN'
p367
I0
sg328
g329
sg330
g331
sg49
g50
sa(dp368
S'trials.thisIndex'
p369
g38
(g83
S' \x00\x00\x00\x00\x00\x00\x00'
p370
tp371
Rp372
sg31
F0.7175910472869873
sg35
g36
sg313
g38
(g83
S'!\x00\x00\x00\x00\x00\x00\x00'
p373
tp374
Rp375
sg317
g38
(g83
S'\x00\x00\x00\x00\x00\x00\x00\x00'
p376
tp377
Rp378
sS'trials.thisRepN'
p379
I0
sS'trials_3.thisN'
p380
I0
sg37
g47
sg30
S'slash'
p381
sS'trials.thisN'
p382
I2
sS'trials_3.thisRepN'
p383
I0
sg48
g12
sS'trials.thisTrialN'
p384
I2
sg325
g177
sg321
V../data/raw/stimuli/pudu3.wav
p385
sg341
g38
(g83
S'\x03\x00\x00\x00\x00\x00\x00\x00'
p386
tp387
Rp388
sS'trials_3.thisIndex'
p389
g103
sS'trials_3.thisTrialN'
p390
I0
sg328
g329
sg330
Vburst
p391
sg49
g50
sa(dp392
S'trials.thisIndex'
p393
g38
(g83
S'\x1f\x00\x00\x00\x00\x00\x00\x00'
p394
tp395
Rp396
sg31
F0.7201409339904785
sg35
g36
sg313
g38
(g83
S' \x00\x00\x00\x00\x00\x00\x00'
p397
tp398
Rp399
sg317
g38
(g83
S'\x00\x00\x00\x00\x00\x00\x00\x00'
p400
tp401
Rp402
sS'trials.thisRepN'
p403
I0
sS'trials_3.thisN'
p404
I0
sg37
g47
sg30
S'z'
p405
sS'trials.thisN'
p406
I3
sS'trials_3.thisRepN'
p407
I0
sg48
g12
sS'trials.thisTrialN'
p408
I3
sg325
g177
sg321
V../data/raw/stimuli/pudu2.wav
p409
sg341
g38
(g83
S'\x02\x00\x00\x00\x00\x00\x00\x00'
p410
tp411
Rp412
sS'trials_3.thisIndex'
p413
g103
sS'trials_3.thisTrialN'
p414
I0
sg328
g329
sg330
g391
sg49
g50
sa(dp415
S'trials.thisIndex'
p416
g38
(g83
S'!\x00\x00\x00\x00\x00\x00\x00'
p417
tp418
Rp419
sg31
F0.6191260814666748
sg35
g36
sg313
g38
(g83
S'"\x00\x00\x00\x00\x00\x00\x00'
p420
tp421
Rp422
sg317
g38
(g83
S'\x00\x00\x00\x00\x00\x00\x00\x00'
p423
tp424
Rp425
sS'trials.thisRepN'
p426
I0
sS'trials_3.thisN'
p427
I0
sg37
g47
sg30
S'slash'
p428
sS'trials.thisN'
p429
I4
sS'trials_3.thisRepN'
p430
I0
sg48
g12
sS'trials.thisTrialN'
p431
I4
sg325
g177
sg321
V../data/raw/stimuli/pudu4.wav
p432
sg341
g38
(g83
S'\x04\x00\x00\x00\x00\x00\x00\x00'
p433
tp434
Rp435
sS'trials_3.thisIndex'
p436
g103
sS'trials_3.thisTrialN'
p437
I0
sg328
g329
sg330
g391
sg49
g50
sa(dp438
S'trials.thisIndex'
p439
g38
(g83
S'\r\x00\x00\x00\x00\x00\x00\x00'
p440
tp441
Rp442
sg31
F0.452423095703125
sg35
g36
sg313
g38
(g83
S'\x0e\x00\x00\x00\x00\x00\x00\x00'
p443
tp444
Rp445
sg317
g38
(g83
S'\x06\x00\x00\x00\x00\x00\x00\x00'
p446
tp447
Rp448
sS'trials.thisRepN'
p449
I0
sS'trials_3.thisN'
p450
I0
sg37
g47
sg30
S'slash'
p451
sS'trials.thisN'
p452
I5
sS'trials_3.thisRepN'
p453
I0
sg48
g12
sS'trials.thisTrialN'
p454
I5
sg325
g153
sg321
V../data/raw/stimuli/pata6.wav
p455
sg341
g38
(g83
S'\x05\x00\x00\x00\x00\x00\x00\x00'
p456
tp457
Rp458
sS'trials_3.thisIndex'
p459
g103
sS'trials_3.thisTrialN'
p460
I0
sg328
g329
sg330
g331
sg49
g50
sa(dp461
S'trials.thisIndex'
p462
g38
(g83
S'\x01\x00\x00\x00\x00\x00\x00\x00'
p463
tp464
Rp465
sg31
F0.45260095596313477
sg35
g36
sg313
g38
(g83
S'\x02\x00\x00\x00\x00\x00\x00\x00'
p466
tp467
Rp468
sg317
g38
(g83
S'\x00\x00\x00\x00\x00\x00\x00\x00'
p469
tp470
Rp471
sS'trials.thisRepN'
p472
I0
sS'trials_3.thisN'
p473
I0
sg37
g47
sg30
S'z'
p474
sS'trials.thisN'
p475
I6
sS'trials_3.thisRepN'
p476
I0
sg48
g12
sS'trials.thisTrialN'
p477
I6
sg325
g153
sg321
V../data/raw/stimuli/pada0.wav
p478
sg341
g38
(g83
S'\x00\x00\x00\x00\x00\x00\x00\x00'
p479
tp480
Rp481
sS'trials_3.thisIndex'
p482
g103
sS'trials_3.thisTrialN'
p483
I0
sg328
g329
sg330
g391
sg49
g50
sa(dp484
S'trials.thisIndex'
p485
g38
(g83
S'\t\x00\x00\x00\x00\x00\x00\x00'
p486
tp487
Rp488
sg31
F0.48546791076660156
sg35
g36
sg313
g38
(g83
S'\n\x00\x00\x00\x00\x00\x00\x00'
p489
tp490
Rp491
sg317
g38
(g83
S'\x02\x00\x00\x00\x00\x00\x00\x00'
p492
tp493
Rp494
sS'trials.thisRepN'
p495
I0
sS'trials_3.thisN'
p496
I0
sg37
g47
sg30
S'slash'
p497
sS'trials.thisN'
p498
I7
sS'trials_3.thisRepN'
p499
I0
sg48
g12
sS'trials.thisTrialN'
p500
I7
sg325
g153
sg321
V../data/raw/stimuli/pata2.wav
p501
sg341
g38
(g83
S'\x05\x00\x00\x00\x00\x00\x00\x00'
p502
tp503
Rp504
sS'trials_3.thisIndex'
p505
g103
sS'trials_3.thisTrialN'
p506
I0
sg328
g329
sg330
g331
sg49
g50
sa(dp507
S'trials.thisIndex'
p508
g38
(g83
S'\x1e\x00\x00\x00\x00\x00\x00\x00'
p509
tp510
Rp511
sg31
F1.1030628681182861
sg35
g36
sg313
g38
(g83
S'\x1f\x00\x00\x00\x00\x00\x00\x00'
p512
tp513
Rp514
sg317
g38
(g83
S'\x00\x00\x00\x00\x00\x00\x00\x00'
p515
tp516
Rp517
sS'trials.thisRepN'
p518
I0
sS'trials_3.thisN'
p519
I0
sg37
g47
sg30
S'slash'
p520
sS'trials.thisN'
p521
I8
sS'trials_3.thisRepN'
p522
I0
sg48
g12
sS'trials.thisTrialN'
p523
I8
sg325
g177
sg321
V../data/raw/stimuli/pudu1.wav
p524
sg341
g38
(g83
S'\x01\x00\x00\x00\x00\x00\x00\x00'
p525
tp526
Rp527
sS'trials_3.thisIndex'
p528
g103
sS'trials_3.thisTrialN'
p529
I0
sg328
g329
sg330
g391
sg49
g50
sa(dp530
S'trials.thisIndex'
p531
g38
(g83
S'\x14\x00\x00\x00\x00\x00\x00\x00'
p532
tp533
Rp534
sg31
F0.5189130306243896
sg35
g36
sg313
g38
(g83
S'\x15\x00\x00\x00\x00\x00\x00\x00'
p535
tp536
Rp537
sg317
g38
(g83
S'\x00\x00\x00\x00\x00\x00\x00\x00'
p538
tp539
Rp540
sS'trials.thisRepN'
p541
I0
sS'trials_3.thisN'
p542
I0
sg37
g47
sg30
S'slash'
p543
sS'trials.thisN'
p544
I9
sS'trials_3.thisRepN'
p545
I0
sg48
g12
sS'trials.thisTrialN'
p546
I9
sg325
g98
sg321
V../data/raw/stimuli/pidi5.wav
p547
sg341
g38
(g83
S'\x05\x00\x00\x00\x00\x00\x00\x00'
p548
tp549
Rp550
sS'trials_3.thisIndex'
p551
g103
sS'trials_3.thisTrialN'
p552
I0
sg328
g329
sg330
g391
sg49
g50
sa(dp553
S'trials.thisIndex'
p554
g38
(g83
S'\x03\x00\x00\x00\x00\x00\x00\x00'
p555
tp556
Rp557
sg31
F0.9864799976348877
sg35
g36
sg313
g38
(g83
S'\x04\x00\x00\x00\x00\x00\x00\x00'
p558
tp559
Rp560
sg317
g38
(g83
S'\x00\x00\x00\x00\x00\x00\x00\x00'
p561
tp562
Rp563
sS'trials.thisRepN'
p564
I0
sS'trials_3.thisN'
p565
I0
sg37
g47
sg30
S'slash'
p566
sS'trials.thisN'
p567
I10
sS'trials_3.thisRepN'
p568
I0
sg48
g12
sS'trials.thisTrialN'
p569
I10
sg325
g153
sg321
V../data/raw/stimuli/pada2.wav
p570
sg341
g38
(g83
S'\x02\x00\x00\x00\x00\x00\x00\x00'
p571
tp572
Rp573
sS'trials_3.thisIndex'
p574
g103
sS'trials_3.thisTrialN'
p575
I0
sg328
g329
sg330
g391
sg49
g50
sa(dp576
S'trials.thisIndex'
p577
g38
(g83
S'\x08\x00\x00\x00\x00\x00\x00\x00'
p578
tp579
Rp580
sg31
F0.6024971008300781
sg35
g36
sg313
g38
(g83
S'\t\x00\x00\x00\x00\x00\x00\x00'
p581
tp582
Rp583
sg317
g38
(g83
S'\x01\x00\x00\x00\x00\x00\x00\x00'
p584
tp585
Rp586
sS'trials.thisRepN'
p587
I0
sS'trials_3.thisN'
p588
I0
sg37
g47
sg30
S'slash'
p589
sS'trials.thisN'
p590
I11
sS'trials_3.thisRepN'
p591
I0
sg48
g12
sS'trials.thisTrialN'
p592
I11
sg325
g153
sg321
V../data/raw/stimuli/pata1.wav
p593
sg341
g38
(g83
S'\x05\x00\x00\x00\x00\x00\x00\x00'
p594
tp595
Rp596
sS'trials_3.thisIndex'
p597
g103
sS'trials_3.thisTrialN'
p598
I0
sg328
g329
sg330
g331
sg49
g50
sa(dp599
S'trials.thisIndex'
p600
g38
(g83
S'\x04\x00\x00\x00\x00\x00\x00\x00'
p601
tp602
Rp603
sg31
F0.5198049545288086
sg35
g36
sg313
g38
(g83
S'\x05\x00\x00\x00\x00\x00\x00\x00'
p604
tp605
Rp606
sg317
g38
(g83
S'\x00\x00\x00\x00\x00\x00\x00\x00'
p607
tp608
Rp609
sS'trials.thisRepN'
p610
I0
sS'trials_3.thisN'
p611
I0
sg37
g47
sg30
S'slash'
p612
sS'trials.thisN'
p613
I12
sS'trials_3.thisRepN'
p614
I0
sg48
g12
sS'trials.thisTrialN'
p615
I12
sg325
g153
sg321
V../data/raw/stimuli/pada3.wav
p616
sg341
g38
(g83
S'\x03\x00\x00\x00\x00\x00\x00\x00'
p617
tp618
Rp619
sS'trials_3.thisIndex'
p620
g103
sS'trials_3.thisTrialN'
p621
I0
sg328
g329
sg330
g391
sg49
g50
sa(dp622
S'trials.thisIndex'
p623
g38
(g83
S'\x18\x00\x00\x00\x00\x00\x00\x00'
p624
tp625
Rp626
sg31
F0.8366270065307617
sg35
g36
sg313
g38
(g83
S'\x19\x00\x00\x00\x00\x00\x00\x00'
p627
tp628
Rp629
sg317
g38
(g83
S'\x03\x00\x00\x00\x00\x00\x00\x00'
p630
tp631
Rp632
sS'trials.thisRepN'
p633
I0
sS'trials_3.thisN'
p634
I0
sg37
g47
sg30
S'slash'
p635
sS'trials.thisN'
p636
I13
sS'trials_3.thisRepN'
p637
I0
sg48
g12
sS'trials.thisTrialN'
p638
I13
sg325
g98
sg321
V../data/raw/stimuli/piti3.wav
p639
sg341
g38
(g83
S'\x05\x00\x00\x00\x00\x00\x00\x00'
p640
tp641
Rp642
sS'trials_3.thisIndex'
p643
g103
sS'trials_3.thisTrialN'
p644
I0
sg328
g329
sg330
g331
sg49
g50
sa(dp645
S'trials.thisIndex'
p646
g38
(g83
S'\x15\x00\x00\x00\x00\x00\x00\x00'
p647
tp648
Rp649
sg31
F0.2837870121002197
sg35
g36
sg313
g38
(g83
S'\x16\x00\x00\x00\x00\x00\x00\x00'
p650
tp651
Rp652
sg317
g38
(g83
S'\x00\x00\x00\x00\x00\x00\x00\x00'
p653
tp654
Rp655
sS'trials.thisRepN'
p656
I0
sS'trials_3.thisN'
p657
I0
sg37
g47
sg30
S'slash'
p658
sS'trials.thisN'
p659
I14
sS'trials_3.thisRepN'
p660
I0
sg48
g12
sS'trials.thisTrialN'
p661
I14
sg325
g98
sg321
V../data/raw/stimuli/piti0.wav
p662
sg341
g38
(g83
S'\x05\x00\x00\x00\x00\x00\x00\x00'
p663
tp664
Rp665
sS'trials_3.thisIndex'
p666
g103
sS'trials_3.thisTrialN'
p667
I0
sg328
g329
sg330
g331
sg49
g50
sa(dp668
S'trials.thisIndex'
p669
g38
(g83
S'\x0b\x00\x00\x00\x00\x00\x00\x00'
p670
tp671
Rp672
sg31
F0.5841388702392578
sg35
g36
sg313
g38
(g83
S'\x0c\x00\x00\x00\x00\x00\x00\x00'
p673
tp674
Rp675
sg317
g38
(g83
S'\x04\x00\x00\x00\x00\x00\x00\x00'
p676
tp677
Rp678
sS'trials.thisRepN'
p679
I0
sS'trials_3.thisN'
p680
I0
sg37
g47
sg30
S'slash'
p681
sS'trials.thisN'
p682
I15
sS'trials_3.thisRepN'
p683
I0
sg48
g12
sS'trials.thisTrialN'
p684
I15
sg325
g153
sg321
V../data/raw/stimuli/pata4.wav
p685
sg341
g38
(g83
S'\x05\x00\x00\x00\x00\x00\x00\x00'
p686
tp687
Rp688
sS'trials_3.thisIndex'
p689
g103
sS'trials_3.thisTrialN'
p690
I0
sg328
g329
sg330
g331
sg49
g50
sa(dp691
S'trials.thisIndex'
p692
g38
(g83
S'\x12\x00\x00\x00\x00\x00\x00\x00'
p693
tp694
Rp695
sg31
F0.20253300666809082
sg35
g36
sg313
g38
(g83
S'\x13\x00\x00\x00\x00\x00\x00\x00'
p696
tp697
Rp698
sg317
g38
(g83
S'\x00\x00\x00\x00\x00\x00\x00\x00'
p699
tp700
Rp701
sS'trials.thisRepN'
p702
I0
sS'trials_3.thisN'
p703
I0
sg37
g47
sg30
S'slash'
p704
sS'trials.thisN'
p705
I16
sS'trials_3.thisRepN'
p706
I0
sg48
g12
sS'trials.thisTrialN'
p707
I16
sg325
g98
sg321
V../data/raw/stimuli/pidi3.wav
p708
sg341
g38
(g83
S'\x03\x00\x00\x00\x00\x00\x00\x00'
p709
tp710
Rp711
sS'trials_3.thisIndex'
p712
g103
sS'trials_3.thisTrialN'
p713
I0
sg328
g329
sg330
g391
sg49
g50
sa(dp714
S'trials.thisIndex'
p715
g38
(g83
S'$\x00\x00\x00\x00\x00\x00\x00'
p716
tp717
Rp718
sg31
F0.5025560855865479
sg35
g36
sg313
g38
(g83
S'%\x00\x00\x00\x00\x00\x00\x00'
p719
tp720
Rp721
sg317
g38
(g83
S'\x01\x00\x00\x00\x00\x00\x00\x00'
p722
tp723
Rp724
sS'trials.thisRepN'
p725
I0
sS'trials_3.thisN'
p726
I0
sg37
g47
sg30
S'slash'
p727
sS'trials.thisN'
p728
I17
sS'trials_3.thisRepN'
p729
I0
sg48
g12
sS'trials.thisTrialN'
p730
I17
sg325
g177
sg321
V../data/raw/stimuli/putu1.wav
p731
sg341
g38
(g83
S'\x05\x00\x00\x00\x00\x00\x00\x00'
p732
tp733
Rp734
sS'trials_3.thisIndex'
p735
g103
sS'trials_3.thisTrialN'
p736
I0
sg328
g329
sg330
g331
sg49
g50
sa(dp737
S'trials.thisIndex'
p738
g38
(g83
S'\x17\x00\x00\x00\x00\x00\x00\x00'
p739
tp740
Rp741
sg31
F0.367358922958374
sg35
g36
sg313
g38
(g83
S'\x18\x00\x00\x00\x00\x00\x00\x00'
p742
tp743
Rp744
sg317
g38
(g83
S'\x02\x00\x00\x00\x00\x00\x00\x00'
p745
tp746
Rp747
sS'trials.thisRepN'
p748
I0
sS'trials_3.thisN'
p749
I0
sg37
g47
sg30
S'slash'
p750
sS'trials.thisN'
p751
I18
sS'trials_3.thisRepN'
p752
I0
sg48
g12
sS'trials.thisTrialN'
p753
I18
sg325
g98
sg321
V../data/raw/stimuli/piti2.wav
p754
sg341
g38
(g83
S'\x05\x00\x00\x00\x00\x00\x00\x00'
p755
tp756
Rp757
sS'trials_3.thisIndex'
p758
g103
sS'trials_3.thisTrialN'
p759
I0
sg328
g329
sg330
g331
sg49
g50
sa(dp760
S'trials.thisIndex'
p761
g38
(g83
S'\x02\x00\x00\x00\x00\x00\x00\x00'
p762
tp763
Rp764
sg31
F0.7197179794311523
sg35
g36
sg313
g38
(g83
S'\x03\x00\x00\x00\x00\x00\x00\x00'
p765
tp766
Rp767
sg317
g38
(g83
S'\x00\x00\x00\x00\x00\x00\x00\x00'
p768
tp769
Rp770
sS'trials.thisRepN'
p771
I0
sS'trials_3.thisN'
p772
I0
sg37
g47
sg30
S'z'
p773
sS'trials.thisN'
p774
I19
sS'trials_3.thisRepN'
p775
I0
sg48
g12
sS'trials.thisTrialN'
p776
I19
sg325
g153
sg321
V../data/raw/stimuli/pada1.wav
p777
sg341
g38
(g83
S'\x01\x00\x00\x00\x00\x00\x00\x00'
p778
tp779
Rp780
sS'trials_3.thisIndex'
p781
g103
sS'trials_3.thisTrialN'
p782
I0
sg328
g329
sg330
g391
sg49
g50
sa(dp783
S'trials.thisIndex'
p784
g38
(g83
S'\x16\x00\x00\x00\x00\x00\x00\x00'
p785
tp786
Rp787
sg31
F0.18583893775939941
sg35
g36
sg313
g38
(g83
S'\x17\x00\x00\x00\x00\x00\x00\x00'
p788
tp789
Rp790
sg317
g38
(g83
S'\x01\x00\x00\x00\x00\x00\x00\x00'
p791
tp792
Rp793
sS'trials.thisRepN'
p794
I0
sS'trials_3.thisN'
p795
I0
sg37
g47
sg30
S'slash'
p796
sS'trials.thisN'
p797
I20
sS'trials_3.thisRepN'
p798
I0
sg48
g12
sS'trials.thisTrialN'
p799
I20
sg325
g98
sg321
V../data/raw/stimuli/piti1.wav
p800
sg341
g38
(g83
S'\x05\x00\x00\x00\x00\x00\x00\x00'
p801
tp802
Rp803
sS'trials_3.thisIndex'
p804
g103
sS'trials_3.thisTrialN'
p805
I0
sg328
g329
sg330
g331
sg49
g50
sa(dp806
S'trials.thisIndex'
p807
g38
(g83
S'\x0f\x00\x00\x00\x00\x00\x00\x00'
p808
tp809
Rp810
sg31
F0.2361600399017334
sg35
g36
sg313
g38
(g83
S'\x10\x00\x00\x00\x00\x00\x00\x00'
p811
tp812
Rp813
sg317
g38
(g83
S'\x00\x00\x00\x00\x00\x00\x00\x00'
p814
tp815
Rp816
sS'trials.thisRepN'
p817
I0
sS'trials_3.thisN'
p818
I0
sg37
g47
sg30
S'slash'
p819
sS'trials.thisN'
p820
I21
sS'trials_3.thisRepN'
p821
I0
sg48
g12
sS'trials.thisTrialN'
p822
I21
sg325
g98
sg321
V../data/raw/stimuli/pidi0.wav
p823
sg341
g38
(g83
S'\x00\x00\x00\x00\x00\x00\x00\x00'
p824
tp825
Rp826
sS'trials_3.thisIndex'
p827
g103
sS'trials_3.thisTrialN'
p828
I0
sg328
g329
sg330
g391
sg49
g50
sa(dp829
S'trials.thisIndex'
p830
g38
(g83
S'\x0e\x00\x00\x00\x00\x00\x00\x00'
p831
tp832
Rp833
sg31
F0.320065975189209
sg35
g36
sg313
g38
(g83
S'\x0f\x00\x00\x00\x00\x00\x00\x00'
p834
tp835
Rp836
sg317
g38
(g83
S'\x05\x00\x00\x00\x00\x00\x00\x00'
p837
tp838
Rp839
sS'trials.thisRepN'
p840
I0
sS'trials_3.thisN'
p841
I0
sg37
g47
sg30
S'z'
p842
sS'trials.thisN'
p843
I22
sS'trials_3.thisRepN'
p844
I0
sg48
g12
sS'trials.thisTrialN'
p845
I22
sg325
g98
sg321
V../data/raw/stimuli/pidi.wav
p846
sg341
g38
(g83
S'\x00\x00\x00\x00\x00\x00\x00\x00'
p847
tp848
Rp849
sS'trials_3.thisIndex'
p850
g103
sS'trials_3.thisTrialN'
p851
I0
sg328
g329
sg330
Vconfound
p852
sg49
g50
sa(dp853
S'trials.thisIndex'
p854
g38
(g83
S'\x00\x00\x00\x00\x00\x00\x00\x00'
p855
tp856
Rp857
sg31
F0.352006196975708
sg35
g36
sg313
g38
(g83
S'\x01\x00\x00\x00\x00\x00\x00\x00'
p858
tp859
Rp860
sg317
g38
(g83
S'\x05\x00\x00\x00\x00\x00\x00\x00'
p861
tp862
Rp863
sS'trials.thisRepN'
p864
I0
sS'trials_3.thisN'
p865
I0
sg37
g47
sg30
S'z'
p866
sS'trials.thisN'
p867
I23
sS'trials_3.thisRepN'
p868
I0
sg48
g12
sS'trials.thisTrialN'
p869
I23
sg325
g153
sg321
V../data/raw/stimuli/pada.wav
p870
sg341
g38
(g83
S'\x00\x00\x00\x00\x00\x00\x00\x00'
p871
tp872
Rp873
sS'trials_3.thisIndex'
p874
g103
sS'trials_3.thisTrialN'
p875
I0
sg328
g329
sg330
g852
sg49
g50
sa(dp876
S'trials.thisIndex'
p877
g38
(g83
S'\x1d\x00\x00\x00\x00\x00\x00\x00'
p878
tp879
Rp880
sg31
F0.33547186851501465
sg35
g36
sg313
g38
(g83
S'\x1e\x00\x00\x00\x00\x00\x00\x00'
p881
tp882
Rp883
sg317
g38
(g83
S'\x00\x00\x00\x00\x00\x00\x00\x00'
p884
tp885
Rp886
sS'trials.thisRepN'
p887
I0
sS'trials_3.thisN'
p888
I0
sg37
g47
sg30
S'slash'
p889
sS'trials.thisN'
p890
I24
sS'trials_3.thisRepN'
p891
I0
sg48
g12
sS'trials.thisTrialN'
p892
I24
sg325
g177
sg321
V../data/raw/stimuli/pudu0.wav
p893
sg341
g38
(g83
S'\x00\x00\x00\x00\x00\x00\x00\x00'
p894
tp895
Rp896
sS'trials_3.thisIndex'
p897
g103
sS'trials_3.thisTrialN'
p898
I0
sg328
g329
sg330
g391
sg49
g50
sa(dp899
S'trials.thisIndex'
p900
g38
(g83
S'\x1b\x00\x00\x00\x00\x00\x00\x00'
p901
tp902
Rp903
sg31
F0.9691162109375
sg35
g36
sg313
g38
(g83
S'\x1c\x00\x00\x00\x00\x00\x00\x00'
p904
tp905
Rp906
sg317
g38
(g83
S'\x06\x00\x00\x00\x00\x00\x00\x00'
p907
tp908
Rp909
sS'trials.thisRepN'
p910
I0
sS'trials_3.thisN'
p911
I0
sg37
g47
sg30
S'slash'
p912
sS'trials.thisN'
p913
I25
sS'trials_3.thisRepN'
p914
I0
sg48
g12
sS'trials.thisTrialN'
p915
I25
sg325
g98
sg321
V../data/raw/stimuli/piti6.wav
p916
sg341
g38
(g83
S'\x05\x00\x00\x00\x00\x00\x00\x00'
p917
tp918
Rp919
sS'trials_3.thisIndex'
p920
g103
sS'trials_3.thisTrialN'
p921
I0
sg328
g329
sg330
g331
sg49
g50
sa(dp922
S'trials.thisIndex'
p923
g38
(g83
S'\x11\x00\x00\x00\x00\x00\x00\x00'
p924
tp925
Rp926
sg31
F0.43671607971191406
sg35
g36
sg313
g38
(g83
S'\x12\x00\x00\x00\x00\x00\x00\x00'
p927
tp928
Rp929
sg317
g38
(g83
S'\x00\x00\x00\x00\x00\x00\x00\x00'
p930
tp931
Rp932
sS'trials.thisRepN'
p933
I0
sS'trials_3.thisN'
p934
I0
sg37
g47
sg30
S'slash'
p935
sS'trials.thisN'
p936
I26
sS'trials_3.thisRepN'
p937
I0
sg48
g12
sS'trials.thisTrialN'
p938
I26
sg325
g98
sg321
V../data/raw/stimuli/pidi2.wav
p939
sg341
g38
(g83
S'\x02\x00\x00\x00\x00\x00\x00\x00'
p940
tp941
Rp942
sS'trials_3.thisIndex'
p943
g103
sS'trials_3.thisTrialN'
p944
I0
sg328
g329
sg330
g391
sg49
g50
sa(dp945
S'trials.thisIndex'
p946
g38
(g83
S'\x13\x00\x00\x00\x00\x00\x00\x00'
p947
tp948
Rp949
sg31
F0.16724801063537598
sg35
g36
sg313
g38
(g83
S'\x14\x00\x00\x00\x00\x00\x00\x00'
p950
tp951
Rp952
sg317
g38
(g83
S'\x00\x00\x00\x00\x00\x00\x00\x00'
p953
tp954
Rp955
sS'trials.thisRepN'
p956
I0
sS'trials_3.thisN'
p957
I0
sg37
g47
sg30
S'slash'
p958
sS'trials.thisN'
p959
I27
sS'trials_3.thisRepN'
p960
I0
sg48
g12
sS'trials.thisTrialN'
p961
I27
sg325
g98
sg321
V../data/raw/stimuli/pidi4.wav
p962
sg341
g38
(g83
S'\x04\x00\x00\x00\x00\x00\x00\x00'
p963
tp964
Rp965
sS'trials_3.thisIndex'
p966
g103
sS'trials_3.thisTrialN'
p967
I0
sg328
g329
sg330
g391
sg49
g50
sa(dp968
S'trials.thisIndex'
p969
g38
(g83
S'\x1c\x00\x00\x00\x00\x00\x00\x00'
p970
tp971
Rp972
sg31
F0.23590803146362305
sg35
g36
sg313
g38
(g83
S'\x1d\x00\x00\x00\x00\x00\x00\x00'
p973
tp974
Rp975
sg317
g38
(g83
S'\x05\x00\x00\x00\x00\x00\x00\x00'
p976
tp977
Rp978
sS'trials.thisRepN'
p979
I0
sS'trials_3.thisN'
p980
I0
sg37
g47
sg30
S'z'
p981
sS'trials.thisN'
p982
I28
sS'trials_3.thisRepN'
p983
I0
sg48
g12
sS'trials.thisTrialN'
p984
I28
sg325
g177
sg321
V../data/raw/stimuli/pudu.wav
p985
sg341
g38
(g83
S'\x00\x00\x00\x00\x00\x00\x00\x00'
p986
tp987
Rp988
sS'trials_3.thisIndex'
p989
g103
sS'trials_3.thisTrialN'
p990
I0
sg328
g329
sg330
g852
sg49
g50
sa(dp991
S'trials.thisIndex'
p992
g38
(g83
S'\x10\x00\x00\x00\x00\x00\x00\x00'
p993
tp994
Rp995
sg31
F0.2836878299713135
sg35
g36
sg313
g38
(g83
S'\x11\x00\x00\x00\x00\x00\x00\x00'
p996
tp997
Rp998
sg317
g38
(g83
S'\x00\x00\x00\x00\x00\x00\x00\x00'
p999
tp1000
Rp1001
sS'trials.thisRepN'
p1002
I0
sS'trials_3.thisN'
p1003
I0
sg37
g47
sg30
S'slash'
p1004
sS'trials.thisN'
p1005
I29
sS'trials_3.thisRepN'
p1006
I0
sg48
g12
sS'trials.thisTrialN'
p1007
I29
sg325
g98
sg321
V../data/raw/stimuli/pidi1.wav
p1008
sg341
g38
(g83
S'\x01\x00\x00\x00\x00\x00\x00\x00'
p1009
tp1010
Rp1011
sS'trials_3.thisIndex'
p1012
g103
sS'trials_3.thisTrialN'
p1013
I0
sg328
g329
sg330
g391
sg49
g50
sa(dp1014
S'trials.thisIndex'
p1015
g38
(g83
S'\x05\x00\x00\x00\x00\x00\x00\x00'
p1016
tp1017
Rp1018
sg31
F0.40324997901916504
sg35
g36
sg313
g38
(g83
S'\x06\x00\x00\x00\x00\x00\x00\x00'
p1019
tp1020
Rp1021
sg317
g38
(g83
S'\x00\x00\x00\x00\x00\x00\x00\x00'
p1022
tp1023
Rp1024
sS'trials.thisRepN'
p1025
I0
sS'trials_3.thisN'
p1026
I0
sg37
g47
sg30
S'slash'
p1027
sS'trials.thisN'
p1028
I30
sS'trials_3.thisRepN'
p1029
I0
sg48
g12
sS'trials.thisTrialN'
p1030
I30
sg325
g153
sg321
V../data/raw/stimuli/pada4.wav
p1031
sg341
g38
(g83
S'\x04\x00\x00\x00\x00\x00\x00\x00'
p1032
tp1033
Rp1034
sS'trials_3.thisIndex'
p1035
g103
sS'trials_3.thisTrialN'
p1036
I0
sg328
g329
sg330
g391
sg49
g50
sa(dp1037
S'trials.thisIndex'
p1038
g38
(g83
S'\x06\x00\x00\x00\x00\x00\x00\x00'
p1039
tp1040
Rp1041
sg31
F0.38485002517700195
sg35
g36
sg313
g38
(g83
S'\x07\x00\x00\x00\x00\x00\x00\x00'
p1042
tp1043
Rp1044
sg317
g38
(g83
S'\x00\x00\x00\x00\x00\x00\x00\x00'
p1045
tp1046
Rp1047
sS'trials.thisRepN'
p1048
I0
sS'trials_3.thisN'
p1049
I0
sg37
g47
sg30
S'slash'
p1050
sS'trials.thisN'
p1051
I31
sS'trials_3.thisRepN'
p1052
I0
sg48
g12
sS'trials.thisTrialN'
p1053
I31
sg325
g153
sg321
V../data/raw/stimuli/pada5.wav
p1054
sg341
g38
(g83
S'\x05\x00\x00\x00\x00\x00\x00\x00'
p1055
tp1056
Rp1057
sS'trials_3.thisIndex'
p1058
g103
sS'trials_3.thisTrialN'
p1059
I0
sg328
g329
sg330
g391
sg49
g50
sa(dp1060
S'trials.thisIndex'
p1061
g38
(g83
S'\n\x00\x00\x00\x00\x00\x00\x00'
p1062
tp1063
Rp1064
sg31
F0.40343308448791504
sg35
g36
sg313
g38
(g83
S'\x0b\x00\x00\x00\x00\x00\x00\x00'
p1065
tp1066
Rp1067
sg317
g38
(g83
S'\x03\x00\x00\x00\x00\x00\x00\x00'
p1068
tp1069
Rp1070
sS'trials.thisRepN'
p1071
I0
sS'trials_3.thisN'
p1072
I0
sg37
g47
sg30
S'slash'
p1073
sS'trials.thisN'
p1074
I32
sS'trials_3.thisRepN'
p1075
I0
sg48
g12
sS'trials.thisTrialN'
p1076
I32
sg325
g153
sg321
V../data/raw/stimuli/pata3.wav
p1077
sg341
g38
(g83
S'\x05\x00\x00\x00\x00\x00\x00\x00'
p1078
tp1079
Rp1080
sS'trials_3.thisIndex'
p1081
g103
sS'trials_3.thisTrialN'
p1082
I0
sg328
g329
sg330
g331
sg49
g50
sa(dp1083
S'trials.thisIndex'
p1084
g38
(g83
S'&\x00\x00\x00\x00\x00\x00\x00'
p1085
tp1086
Rp1087
sg31
F0.552901029586792
sg35
g36
sg313
g38
(g83
S"'\x00\x00\x00\x00\x00\x00\x00"
p1088
tp1089
Rp1090
sg317
g38
(g83
S'\x03\x00\x00\x00\x00\x00\x00\x00'
p1091
tp1092
Rp1093
sS'trials.thisRepN'
p1094
I0
sS'trials_3.thisN'
p1095
I0
sg37
g47
sg30
S'z'
p1096
sS'trials.thisN'
p1097
I33
sS'trials_3.thisRepN'
p1098
I0
sg48
g12
sS'trials.thisTrialN'
p1099
I33
sg325
g177
sg321
V../data/raw/stimuli/putu3.wav
p1100
sg341
g38
(g83
S'\x05\x00\x00\x00\x00\x00\x00\x00'
p1101
tp1102
Rp1103
sS'trials_3.thisIndex'
p1104
g103
sS'trials_3.thisTrialN'
p1105
I0
sg328
g329
sg330
g331
sg49
g50
sa(dp1106
S'trials.thisIndex'
p1107
g38
(g83
S'\x19\x00\x00\x00\x00\x00\x00\x00'
p1108
tp1109
Rp1110
sg31
F0.5863409042358398
sg35
g36
sg313
g38
(g83
S'\x1a\x00\x00\x00\x00\x00\x00\x00'
p1111
tp1112
Rp1113
sg317
g38
(g83
S'\x04\x00\x00\x00\x00\x00\x00\x00'
p1114
tp1115
Rp1116
sS'trials.thisRepN'
p1117
I0
sS'trials_3.thisN'
p1118
I0
sg37
g47
sg30
S'slash'
p1119
sS'trials.thisN'
p1120
I34
sS'trials_3.thisRepN'
p1121
I0
sg48
g12
sS'trials.thisTrialN'
p1122
I34
sg325
g98
sg321
V../data/raw/stimuli/piti4.wav
p1123
sg341
g38
(g83
S'\x05\x00\x00\x00\x00\x00\x00\x00'
p1124
tp1125
Rp1126
sS'trials_3.thisIndex'
p1127
g103
sS'trials_3.thisTrialN'
p1128
I0
sg328
g329
sg330
g331
sg49
g50
sa(dp1129
S'trials.thisIndex'
p1130
g38
(g83
S'"\x00\x00\x00\x00\x00\x00\x00'
p1131
tp1132
Rp1133
sg31
F0.7028770446777344
sg35
g36
sg313
g38
(g83
S'#\x00\x00\x00\x00\x00\x00\x00'
p1134
tp1135
Rp1136
sg317
g38
(g83
S'\x00\x00\x00\x00\x00\x00\x00\x00'
p1137
tp1138
Rp1139
sS'trials.thisRepN'
p1140
I0
sS'trials_3.thisN'
p1141
I0
sg37
g47
sg30
S'slash'
p1142
sS'trials.thisN'
p1143
I35
sS'trials_3.thisRepN'
p1144
I0
sg48
g12
sS'trials.thisTrialN'
p1145
I35
sg325
g177
sg321
V../data/raw/stimuli/pudu5.wav
p1146
sg341
g38
(g83
S'\x05\x00\x00\x00\x00\x00\x00\x00'
p1147
tp1148
Rp1149
sS'trials_3.thisIndex'
p1150
g103
sS'trials_3.thisTrialN'
p1151
I0
sg328
g329
sg330
g391
sg49
g50
sa(dp1152
S'trials.thisIndex'
p1153
g38
(g83
S'\x0c\x00\x00\x00\x00\x00\x00\x00'
p1154
tp1155
Rp1156
sg31
F0.43374109268188477
sg35
g36
sg313
g38
(g83
S'\r\x00\x00\x00\x00\x00\x00\x00'
p1157
tp1158
Rp1159
sg317
g38
(g83
S'\x05\x00\x00\x00\x00\x00\x00\x00'
p1160
tp1161
Rp1162
sS'trials.thisRepN'
p1163
I0
sS'trials_3.thisN'
p1164
I0
sg37
g47
sg30
S'z'
p1165
sS'trials.thisN'
p1166
I36
sS'trials_3.thisRepN'
p1167
I0
sg48
g12
sS'trials.thisTrialN'
p1168
I36
sg325
g153
sg321
V../data/raw/stimuli/pata5.wav
p1169
sg341
g38
(g83
S'\x05\x00\x00\x00\x00\x00\x00\x00'
p1170
tp1171
Rp1172
sS'trials_3.thisIndex'
p1173
g103
sS'trials_3.thisTrialN'
p1174
I0
sg328
g329
sg330
g331
sg49
g50
sa(dp1175
S'trials.thisIndex'
p1176
g38
(g83
S'%\x00\x00\x00\x00\x00\x00\x00'
p1177
tp1178
Rp1179
sg31
F0.46915102005004883
sg35
g36
sg313
g38
(g83
S'&\x00\x00\x00\x00\x00\x00\x00'
p1180
tp1181
Rp1182
sg317
g38
(g83
S'\x02\x00\x00\x00\x00\x00\x00\x00'
p1183
tp1184
Rp1185
sS'trials.thisRepN'
p1186
I0
sS'trials_3.thisN'
p1187
I0
sg37
g47
sg30
S'z'
p1188
sS'trials.thisN'
p1189
I37
sS'trials_3.thisRepN'
p1190
I0
sg48
g12
sS'trials.thisTrialN'
p1191
I37
sg325
g177
sg321
V../data/raw/stimuli/putu2.wav
p1192
sg341
g38
(g83
S'\x05\x00\x00\x00\x00\x00\x00\x00'
p1193
tp1194
Rp1195
sS'trials_3.thisIndex'
p1196
g103
sS'trials_3.thisTrialN'
p1197
I0
sg328
g329
sg330
g331
sg49
g50
sa(dp1198
S'trials.thisIndex'
p1199
g38
(g83
S'#\x00\x00\x00\x00\x00\x00\x00'
p1200
tp1201
Rp1202
sg31
F0.36993408203125
sg35
g36
sg313
g38
(g83
S'$\x00\x00\x00\x00\x00\x00\x00'
p1203
tp1204
Rp1205
sg317
g38
(g83
S'\x00\x00\x00\x00\x00\x00\x00\x00'
p1206
tp1207
Rp1208
sS'trials.thisRepN'
p1209
I0
sS'trials_3.thisN'
p1210
I0
sg37
g47
sg30
S'slash'
p1211
sS'trials.thisN'
p1212
I38
sS'trials_3.thisRepN'
p1213
I0
sg48
g12
sS'trials.thisTrialN'
p1214
I38
sg325
g177
sg321
V../data/raw/stimuli/putu0.wav
p1215
sg341
g38
(g83
S'\x05\x00\x00\x00\x00\x00\x00\x00'
p1216
tp1217
Rp1218
sS'trials_3.thisIndex'
p1219
g103
sS'trials_3.thisTrialN'
p1220
I0
sg328
g329
sg330
g331
sg49
g50
sa(dp1221
S'trials.thisIndex'
p1222
g38
(g83
S'!\x00\x00\x00\x00\x00\x00\x00'
p1223
tp1224
Rp1225
sg31
F0.20038104057312012
sg35
g36
sg313
g422
sg317
g425
sS'trials.thisRepN'
p1226
I1
sS'trials_3.thisN'
p1227
I0
sg37
g47
sg30
S'slash'
p1228
sS'trials.thisN'
p1229
I39
sS'trials_3.thisRepN'
p1230
I0
sg48
g12
sS'trials.thisTrialN'
p1231
I0
sg325
g177
sg321
g432
sg341
g435
sS'trials_3.thisIndex'
p1232
g103
sS'trials_3.thisTrialN'
p1233
I0
sg328
g329
sg330
g391
sg49
g50
sa(dp1234
S'trials.thisIndex'
p1235
g38
(g83
S'\x0e\x00\x00\x00\x00\x00\x00\x00'
p1236
tp1237
Rp1238
sg31
F0.269489049911499
sg35
g36
sg313
g836
sg317
g839
sS'trials.thisRepN'
p1239
I1
sS'trials_3.thisN'
p1240
I0
sg37
g47
sg30
S'z'
p1241
sS'trials.thisN'
p1242
I40
sS'trials_3.thisRepN'
p1243
I0
sg48
g12
sS'trials.thisTrialN'
p1244
I1
sg325
g98
sg321
g846
sg341
g849
sS'trials_3.thisIndex'
p1245
g103
sS'trials_3.thisTrialN'
p1246
I0
sg328
g329
sg330
g852
sg49
g50
sa(dp1247
S'trials.thisIndex'
p1248
g38
(g83
S'\x1b\x00\x00\x00\x00\x00\x00\x00'
p1249
tp1250
Rp1251
sg31
F0.2506139278411865
sg35
g36
sg313
g906
sg317
g909
sS'trials.thisRepN'
p1252
I1
sS'trials_3.thisN'
p1253
I0
sg37
g47
sg30
S'z'
p1254
sS'trials.thisN'
p1255
I41
sS'trials_3.thisRepN'
p1256
I0
sg48
g12
sS'trials.thisTrialN'
p1257
I2
sg325
g98
sg321
g916
sg341
g919
sS'trials_3.thisIndex'
p1258
g103
sS'trials_3.thisTrialN'
p1259
I0
sg328
g329
sg330
g331
sg49
g50
sa(dp1260
S'trials.thisIndex'
p1261
g38
(g83
S'\x06\x00\x00\x00\x00\x00\x00\x00'
p1262
tp1263
Rp1264
sg31
F0.5195660591125488
sg35
g36
sg313
g1044
sg317
g1047
sS'trials.thisRepN'
p1265
I1
sS'trials_3.thisN'
p1266
I0
sg37
g47
sg30
S'slash'
p1267
sS'trials.thisN'
p1268
I42
sS'trials_3.thisRepN'
p1269
I0
sg48
g12
sS'trials.thisTrialN'
p1270
I3
sg325
g153
sg321
g1054
sg341
g1057
sS'trials_3.thisIndex'
p1271
g103
sS'trials_3.thisTrialN'
p1272
I0
sg328
g329
sg330
g391
sg49
g50
sa(dp1273
S'trials.thisIndex'
p1274
g38
(g83
S'\x17\x00\x00\x00\x00\x00\x00\x00'
p1275
tp1276
Rp1277
sg31
F0.5358190536499023
sg35
g36
sg313
g744
sg317
g747
sS'trials.thisRepN'
p1278
I1
sS'trials_3.thisN'
p1279
I0
sg37
g47
sg30
S'slash'
p1280
sS'trials.thisN'
p1281
I43
sS'trials_3.thisRepN'
p1282
I0
sg48
g12
sS'trials.thisTrialN'
p1283
I4
sg325
g98
sg321
g754
sg341
g757
sS'trials_3.thisIndex'
p1284
g103
sS'trials_3.thisTrialN'
p1285
I0
sg328
g329
sg330
g331
sg49
g50
sa(dp1286
S'trials.thisIndex'
p1287
g38
(g83
S'\x1a\x00\x00\x00\x00\x00\x00\x00'
p1288
tp1289
Rp1290
sg31
F0.40291595458984375
sg35
g36
sg313
g316
sg317
g320
sS'trials.thisRepN'
p1291
I1
sS'trials_3.thisN'
p1292
I0
sg37
g47
sg30
S'slash'
p1293
sS'trials.thisN'
p1294
I44
sS'trials_3.thisRepN'
p1295
I0
sg48
g12
sS'trials.thisTrialN'
p1296
I5
sg325
g98
sg321
g322
sg341
g344
sS'trials_3.thisIndex'
p1297
g103
sS'trials_3.thisTrialN'
p1298
I0
sg328
g329
sg330
g331
sg49
g50
sa(dp1299
S'trials.thisIndex'
p1300
g38
(g83
S'\x07\x00\x00\x00\x00\x00\x00\x00'
p1301
tp1302
Rp1303
sg31
F0.7528641223907471
sg35
g36
sg313
g352
sg317
g355
sS'trials.thisRepN'
p1304
I1
sS'trials_3.thisN'
p1305
I0
sg37
g47
sg30
S'slash'
p1306
sS'trials.thisN'
p1307
I45
sS'trials_3.thisRepN'
p1308
I0
sg48
g12
sS'trials.thisTrialN'
p1309
I6
sg325
g153
sg321
g362
sg341
g365
sS'trials_3.thisIndex'
p1310
g103
sS'trials_3.thisTrialN'
p1311
I0
sg328
g329
sg330
g331
sg49
g50
sa(dp1312
S'trials.thisIndex'
p1313
g38
(g83
S'\x1e\x00\x00\x00\x00\x00\x00\x00'
p1314
tp1315
Rp1316
sg31
F0.5690069198608398
sg35
g36
sg313
g514
sg317
g517
sS'trials.thisRepN'
p1317
I1
sS'trials_3.thisN'
p1318
I0
sg37
g47
sg30
S'z'
p1319
sS'trials.thisN'
p1320
I46
sS'trials_3.thisRepN'
p1321
I0
sg48
g12
sS'trials.thisTrialN'
p1322
I7
sg325
g177
sg321
g524
sg341
g527
sS'trials_3.thisIndex'
p1323
g103
sS'trials_3.thisTrialN'
p1324
I0
sg328
g329
sg330
g391
sg49
g50
sa(dp1325
S'trials.thisIndex'
p1326
g38
(g83
S'\x01\x00\x00\x00\x00\x00\x00\x00'
p1327
tp1328
Rp1329
sg31
F0.28561997413635254
sg35
g36
sg313
g468
sg317
g471
sS'trials.thisRepN'
p1330
I1
sS'trials_3.thisN'
p1331
I0
sg37
g47
sg30
S'z'
p1332
sS'trials.thisN'
p1333
I47
sS'trials_3.thisRepN'
p1334
I0
sg48
g12
sS'trials.thisTrialN'
p1335
I8
sg325
g153
sg321
g478
sg341
g481
sS'trials_3.thisIndex'
p1336
g103
sS'trials_3.thisTrialN'
p1337
I0
sg328
g329
sg330
g391
sg49
g50
sa(dp1338
S'trials.thisIndex'
p1339
g38
(g83
S'#\x00\x00\x00\x00\x00\x00\x00'
p1340
tp1341
Rp1342
sg31
F0.38370299339294434
sg35
g36
sg313
g1205
sg317
g1208
sS'trials.thisRepN'
p1343
I1
sS'trials_3.thisN'
p1344
I0
sg37
g47
sg30
S'slash'
p1345
sS'trials.thisN'
p1346
I48
sS'trials_3.thisRepN'
p1347
I0
sg48
g12
sS'trials.thisTrialN'
p1348
I9
sg325
g177
sg321
g1215
sg341
g1218
sS'trials_3.thisIndex'
p1349
g103
sS'trials_3.thisTrialN'
p1350
I0
sg328
g329
sg330
g331
sg49
g50
sa(dp1351
S'trials.thisIndex'
p1352
g38
(g83
S'"\x00\x00\x00\x00\x00\x00\x00'
p1353
tp1354
Rp1355
sg31
F0.20339679718017578
sg35
g36
sg313
g1136
sg317
g1139
sS'trials.thisRepN'
p1356
I1
sS'trials_3.thisN'
p1357
I0
sg37
g47
sg30
S'slash'
p1358
sS'trials.thisN'
p1359
I49
sS'trials_3.thisRepN'
p1360
I0
sg48
g12
sS'trials.thisTrialN'
p1361
I10
sg325
g177
sg321
g1146
sg341
g1149
sS'trials_3.thisIndex'
p1362
g103
sS'trials_3.thisTrialN'
p1363
I0
sg328
g329
sg330
g391
sg49
g50
sa(dp1364
S'trials.thisIndex'
p1365
g38
(g83
S'$\x00\x00\x00\x00\x00\x00\x00'
p1366
tp1367
Rp1368
sg31
F0.3007211685180664
sg35
g36
sg313
g721
sg317
g724
sS'trials.thisRepN'
p1369
I1
sS'trials_3.thisN'
p1370
I0
sg37
g47
sg30
S'slash'
p1371
sS'trials.thisN'
p1372
I50
sS'trials_3.thisRepN'
p1373
I0
sg48
g12
sS'trials.thisTrialN'
p1374
I11
sg325
g177
sg321
g731
sg341
g734
sS'trials_3.thisIndex'
p1375
g103
sS'trials_3.thisTrialN'
p1376
I0
sg328
g329
sg330
g331
sg49
g50
sa(dp1377
S'trials.thisIndex'
p1378
g38
(g83
S'\x11\x00\x00\x00\x00\x00\x00\x00'
p1379
tp1380
Rp1381
sg31
F0.7675008773803711
sg35
g36
sg313
g929
sg317
g932
sS'trials.thisRepN'
p1382
I1
sS'trials_3.thisN'
p1383
I0
sg37
g47
sg30
S'slash'
p1384
sS'trials.thisN'
p1385
I51
sS'trials_3.thisRepN'
p1386
I0
sg48
g12
sS'trials.thisTrialN'
p1387
I12
sg325
g98
sg321
g939
sg341
g942
sS'trials_3.thisIndex'
p1388
g103
sS'trials_3.thisTrialN'
p1389
I0
sg328
g329
sg330
g391
sg49
g50
sa(dp1390
S'trials.thisIndex'
p1391
g38
(g83
S'\x03\x00\x00\x00\x00\x00\x00\x00'
p1392
tp1393
Rp1394
sg31
F0.8031048774719238
sg35
g36
sg313
g560
sg317
g563
sS'trials.thisRepN'
p1395
I1
sS'trials_3.thisN'
p1396
I0
sg37
g47
sg30
S'z'
p1397
sS'trials.thisN'
p1398
I52
sS'trials_3.thisRepN'
p1399
I0
sg48
g12
sS'trials.thisTrialN'
p1400
I13
sg325
g153
sg321
g570
sg341
g573
sS'trials_3.thisIndex'
p1401
g103
sS'trials_3.thisTrialN'
p1402
I0
sg328
g329
sg330
g391
sg49
g50
sa(dp1403
S'trials.thisIndex'
p1404
g38
(g83
S'\x1c\x00\x00\x00\x00\x00\x00\x00'
p1405
tp1406
Rp1407
sg31
F0.5027530193328857
sg35
g36
sg313
g975
sg317
g978
sS'trials.thisRepN'
p1408
I1
sS'trials_3.thisN'
p1409
I0
sg37
g47
sg30
S'z'
p1410
sS'trials.thisN'
p1411
I53
sS'trials_3.thisRepN'
p1412
I0
sg48
g12
sS'trials.thisTrialN'
p1413
I14
sg325
g177
sg321
g985
sg341
g988
sS'trials_3.thisIndex'
p1414
g103
sS'trials_3.thisTrialN'
p1415
I0
sg328
g329
sg330
g852
sg49
g50
sa(dp1416
S'trials.thisIndex'
p1417
g38
(g83
S'\x1f\x00\x00\x00\x00\x00\x00\x00'
p1418
tp1419
Rp1420
sg31
F0.28498196601867676
sg35
g36
sg313
g399
sg317
g402
sS'trials.thisRepN'
p1421
I1
sS'trials_3.thisN'
p1422
I0
sg37
g47
sg30
S'z'
p1423
sS'trials.thisN'
p1424
I54
sS'trials_3.thisRepN'
p1425
I0
sg48
g12
sS'trials.thisTrialN'
p1426
I15
sg325
g177
sg321
g409
sg341
g412
sS'trials_3.thisIndex'
p1427
g103
sS'trials_3.thisTrialN'
p1428
I0
sg328
g329
sg330
g391
sg49
g50
sa(dp1429
S'trials.thisIndex'
p1430
g38
(g83
S'&\x00\x00\x00\x00\x00\x00\x00'
p1431
tp1432
Rp1433
sg31
F0.2857639789581299
sg35
g36
sg313
g1090
sg317
g1093
sS'trials.thisRepN'
p1434
I1
sS'trials_3.thisN'
p1435
I0
sg37
g47
sg30
S'z'
p1436
sS'trials.thisN'
p1437
I55
sS'trials_3.thisRepN'
p1438
I0
sg48
g12
sS'trials.thisTrialN'
p1439
I16
sg325
g177
sg321
g1100
sg341
g1103
sS'trials_3.thisIndex'
p1440
g103
sS'trials_3.thisTrialN'
p1441
I0
sg328
g329
sg330
g331
sg49
g50
sa(dp1442
S'trials.thisIndex'
p1443
g38
(g83
S'\x16\x00\x00\x00\x00\x00\x00\x00'
p1444
tp1445
Rp1446
sg31
F0.5198078155517578
sg35
g36
sg313
g790
sg317
g793
sS'trials.thisRepN'
p1447
I1
sS'trials_3.thisN'
p1448
I0
sg37
g47
sg30
S'slash'
p1449
sS'trials.thisN'
p1450
I56
sS'trials_3.thisRepN'
p1451
I0
sg48
g12
sS'trials.thisTrialN'
p1452
I17
sg325
g98
sg321
g800
sg341
g803
sS'trials_3.thisIndex'
p1453
g103
sS'trials_3.thisTrialN'
p1454
I0
sg328
g329
sg330
g331
sg49
g50
sa(dp1455
S'trials.thisIndex'
p1456
g38
(g83
S'\x12\x00\x00\x00\x00\x00\x00\x00'
p1457
tp1458
Rp1459
sg31
F0.21953392028808594
sg35
g36
sg313
g698
sg317
g701
sS'trials.thisRepN'
p1460
I1
sS'trials_3.thisN'
p1461
I0
sg37
g47
sg30
S'slash'
p1462
sS'trials.thisN'
p1463
I57
sS'trials_3.thisRepN'
p1464
I0
sg48
g12
sS'trials.thisTrialN'
p1465
I18
sg325
g98
sg321
g708
sg341
g711
sS'trials_3.thisIndex'
p1466
g103
sS'trials_3.thisTrialN'
p1467
I0
sg328
g329
sg330
g391
sg49
g50
sa(dp1468
S'trials.thisIndex'
p1469
g38
(g83
S'\x10\x00\x00\x00\x00\x00\x00\x00'
p1470
tp1471
Rp1472
sg31
F0.15283203125
sg35
g36
sg313
g998
sg317
g1001
sS'trials.thisRepN'
p1473
I1
sS'trials_3.thisN'
p1474
I0
sg37
g47
sg30
S'slash'
p1475
sS'trials.thisN'
p1476
I58
sS'trials_3.thisRepN'
p1477
I0
sg48
g12
sS'trials.thisTrialN'
p1478
I19
sg325
g98
sg321
g1008
sg341
g1011
sS'trials_3.thisIndex'
p1479
g103
sS'trials_3.thisTrialN'
p1480
I0
sg328
g329
sg330
g391
sg49
g50
sa(dp1481
S'trials.thisIndex'
p1482
g38
(g83
S'\x02\x00\x00\x00\x00\x00\x00\x00'
p1483
tp1484
Rp1485
sg31
F0.4860718250274658
sg35
g36
sg313
g767
sg317
g770
sS'trials.thisRepN'
p1486
I1
sS'trials_3.thisN'
p1487
I0
sg37
g47
sg30
S'slash'
p1488
sS'trials.thisN'
p1489
I59
sS'trials_3.thisRepN'
p1490
I0
sg48
g12
sS'trials.thisTrialN'
p1491
I20
sg325
g153
sg321
g777
sg341
g780
sS'trials_3.thisIndex'
p1492
g103
sS'trials_3.thisTrialN'
p1493
I0
sg328
g329
sg330
g391
sg49
g50
sa(dp1494
S'trials.thisIndex'
p1495
g38
(g83
S'\x00\x00\x00\x00\x00\x00\x00\x00'
p1496
tp1497
Rp1498
sg31
F0.15286803245544434
sg35
g36
sg313
g860
sg317
g863
sS'trials.thisRepN'
p1499
I1
sS'trials_3.thisN'
p1500
I0
sg37
g47
sg30
S'z'
p1501
sS'trials.thisN'
p1502
I60
sS'trials_3.thisRepN'
p1503
I0
sg48
g12
sS'trials.thisTrialN'
p1504
I21
sg325
g153
sg321
g870
sg341
g873
sS'trials_3.thisIndex'
p1505
g103
sS'trials_3.thisTrialN'
p1506
I0
sg328
g329
sg330
g852
sg49
g50
sa(dp1507
S'trials.thisIndex'
p1508
g38
(g83
S'\x14\x00\x00\x00\x00\x00\x00\x00'
p1509
tp1510
Rp1511
sg31
F0.36979198455810547
sg35
g36
sg313
g537
sg317
g540
sS'trials.thisRepN'
p1512
I1
sS'trials_3.thisN'
p1513
I0
sg37
g47
sg30
S'slash'
p1514
sS'trials.thisN'
p1515
I61
sS'trials_3.thisRepN'
p1516
I0
sg48
g12
sS'trials.thisTrialN'
p1517
I22
sg325
g98
sg321
g547
sg341
g550
sS'trials_3.thisIndex'
p1518
g103
sS'trials_3.thisTrialN'
p1519
I0
sg328
g329
sg330
g391
sg49
g50
sa(dp1520
S'trials.thisIndex'
p1521
g38
(g83
S'\x0f\x00\x00\x00\x00\x00\x00\x00'
p1522
tp1523
Rp1524
sg31
F0.6839120388031006
sg35
g36
sg313
g813
sg317
g816
sS'trials.thisRepN'
p1525
I1
sS'trials_3.thisN'
p1526
I0
sg37
g47
sg30
S'z'
p1527
sS'trials.thisN'
p1528
I62
sS'trials_3.thisRepN'
p1529
I0
sg48
g12
sS'trials.thisTrialN'
p1530
I23
sg325
g98
sg321
g823
sg341
g826
sS'trials_3.thisIndex'
p1531
g103
sS'trials_3.thisTrialN'
p1532
I0
sg328
g329
sg330
g391
sg49
g50
sa(dp1533
S'trials.thisIndex'
p1534
g38
(g83
S'\n\x00\x00\x00\x00\x00\x00\x00'
p1535
tp1536
Rp1537
sg31
F0.6366539001464844
sg35
g36
sg313
g1067
sg317
g1070
sS'trials.thisRepN'
p1538
I1
sS'trials_3.thisN'
p1539
I0
sg37
g47
sg30
S'slash'
p1540
sS'trials.thisN'
p1541
I63
sS'trials_3.thisRepN'
p1542
I0
sg48
g12
sS'trials.thisTrialN'
p1543
I24
sg325
g153
sg321
g1077
sg341
g1080
sS'trials_3.thisIndex'
p1544
g103
sS'trials_3.thisTrialN'
p1545
I0
sg328
g329
sg330
g331
sg49
g50
sa(dp1546
S'trials.thisIndex'
p1547
g38
(g83
S'%\x00\x00\x00\x00\x00\x00\x00'
p1548
tp1549
Rp1550
sg31
F0.35294485092163086
sg35
g36
sg313
g1182
sg317
g1185
sS'trials.thisRepN'
p1551
I1
sS'trials_3.thisN'
p1552
I0
sg37
g47
sg30
S'z'
p1553
sS'trials.thisN'
p1554
I64
sS'trials_3.thisRepN'
p1555
I0
sg48
g12
sS'trials.thisTrialN'
p1556
I25
sg325
g177
sg321
g1192
sg341
g1195
sS'trials_3.thisIndex'
p1557
g103
sS'trials_3.thisTrialN'
p1558
I0
sg328
g329
sg330
g331
sg49
g50
sa(dp1559
S'trials.thisIndex'
p1560
g38
(g83
S'\x0b\x00\x00\x00\x00\x00\x00\x00'
p1561
tp1562
Rp1563
sg31
F0.5030889511108398
sg35
g36
sg313
g675
sg317
g678
sS'trials.thisRepN'
p1564
I1
sS'trials_3.thisN'
p1565
I0
sg37
g47
sg30
S'slash'
p1566
sS'trials.thisN'
p1567
I65
sS'trials_3.thisRepN'
p1568
I0
sg48
g12
sS'trials.thisTrialN'
p1569
I26
sg325
g153
sg321
g685
sg341
g688
sS'trials_3.thisIndex'
p1570
g103
sS'trials_3.thisTrialN'
p1571
I0
sg328
g329
sg330
g331
sg49
g50
sa(dp1572
S'trials.thisIndex'
p1573
g38
(g83
S'\r\x00\x00\x00\x00\x00\x00\x00'
p1574
tp1575
Rp1576
sg31
F0.6197769641876221
sg35
g36
sg313
g445
sg317
g448
sS'trials.thisRepN'
p1577
I1
sS'trials_3.thisN'
p1578
I0
sg37
g47
sg30
S'z'
p1579
sS'trials.thisN'
p1580
I66
sS'trials_3.thisRepN'
p1581
I0
sg48
g12
sS'trials.thisTrialN'
p1582
I27
sg325
g153
sg321
g455
sg341
g458
sS'trials_3.thisIndex'
p1583
g103
sS'trials_3.thisTrialN'
p1584
I0
sg328
g329
sg330
g331
sg49
g50
sa(dp1585
S'trials.thisIndex'
p1586
g38
(g83
S'\t\x00\x00\x00\x00\x00\x00\x00'
p1587
tp1588
Rp1589
sg31
F0.4868290424346924
sg35
g36
sg313
g491
sg317
g494
sS'trials.thisRepN'
p1590
I1
sS'trials_3.thisN'
p1591
I0
sg37
g47
sg30
S'z'
p1592
sS'trials.thisN'
p1593
I67
sS'trials_3.thisRepN'
p1594
I0
sg48
g12
sS'trials.thisTrialN'
p1595
I28
sg325
g153
sg321
g501
sg341
g504
sS'trials_3.thisIndex'
p1596
g103
sS'trials_3.thisTrialN'
p1597
I0
sg328
g329
sg330
g331
sg49
g50
sa(dp1598
S'trials.thisIndex'
p1599
g38
(g83
S'\x15\x00\x00\x00\x00\x00\x00\x00'
p1600
tp1601
Rp1602
sg31
F0.20204496383666992
sg35
g36
sg313
g652
sg317
g655
sS'trials.thisRepN'
p1603
I1
sS'trials_3.thisN'
p1604
I0
sg37
g47
sg30
S'slash'
p1605
sS'trials.thisN'
p1606
I68
sS'trials_3.thisRepN'
p1607
I0
sg48
g12
sS'trials.thisTrialN'
p1608
I29
sg325
g98
sg321
g662
sg341
g665
sS'trials_3.thisIndex'
p1609
g103
sS'trials_3.thisTrialN'
p1610
I0
sg328
g329
sg330
g331
sg49
g50
sa(dp1611
S'trials.thisIndex'
p1612
g38
(g83
S'\x08\x00\x00\x00\x00\x00\x00\x00'
p1613
tp1614
Rp1615
sg31
F0.570145845413208
sg35
g36
sg313
g583
sg317
g586
sS'trials.thisRepN'
p1616
I1
sS'trials_3.thisN'
p1617
I0
sg37
g47
sg30
S'slash'
p1618
sS'trials.thisN'
p1619
I69
sS'trials_3.thisRepN'
p1620
I0
sg48
g12
sS'trials.thisTrialN'
p1621
I30
sg325
g153
sg321
g593
sg341
g596
sS'trials_3.thisIndex'
p1622
g103
sS'trials_3.thisTrialN'
p1623
I0
sg328
g329
sg330
g331
sg49
g50
sa(dp1624
S'trials.thisIndex'
p1625
g38
(g83
S'\x13\x00\x00\x00\x00\x00\x00\x00'
p1626
tp1627
Rp1628
sg31
F0.40215492248535156
sg35
g36
sg313
g952
sg317
g955
sS'trials.thisRepN'
p1629
I1
sS'trials_3.thisN'
p1630
I0
sg37
g47
sg30
S'slash'
p1631
sS'trials.thisN'
p1632
I70
sS'trials_3.thisRepN'
p1633
I0
sg48
g12
sS'trials.thisTrialN'
p1634
I31
sg325
g98
sg321
g962
sg341
g965
sS'trials_3.thisIndex'
p1635
g103
sS'trials_3.thisTrialN'
p1636
I0
sg328
g329
sg330
g391
sg49
g50
sa(dp1637
S'trials.thisIndex'
p1638
g38
(g83
S'\x05\x00\x00\x00\x00\x00\x00\x00'
p1639
tp1640
Rp1641
sg31
F0.41959691047668457
sg35
g36
sg313
g1021
sg317
g1024
sS'trials.thisRepN'
p1642
I1
sS'trials_3.thisN'
p1643
I0
sg37
g47
sg30
S'slash'
p1644
sS'trials.thisN'
p1645
I71
sS'trials_3.thisRepN'
p1646
I0
sg48
g12
sS'trials.thisTrialN'
p1647
I32
sg325
g153
sg321
g1031
sg341
g1034
sS'trials_3.thisIndex'
p1648
g103
sS'trials_3.thisTrialN'
p1649
I0
sg328
g329
sg330
g391
sg49
g50
sa(dp1650
S'trials.thisIndex'
p1651
g38
(g83
S'\x1d\x00\x00\x00\x00\x00\x00\x00'
p1652
tp1653
Rp1654
sg31
F0.20228290557861328
sg35
g36
sg313
g883
sg317
g886
sS'trials.thisRepN'
p1655
I1
sS'trials_3.thisN'
p1656
I0
sg37
g47
sg30
S'z'
p1657
sS'trials.thisN'
p1658
I72
sS'trials_3.thisRepN'
p1659
I0
sg48
g12
sS'trials.thisTrialN'
p1660
I33
sg325
g177
sg321
g893
sg341
g896
sS'trials_3.thisIndex'
p1661
g103
sS'trials_3.thisTrialN'
p1662
I0
sg328
g329
sg330
g391
sg49
g50
sa(dp1663
S'trials.thisIndex'
p1664
g38
(g83
S' \x00\x00\x00\x00\x00\x00\x00'
p1665
tp1666
Rp1667
sg31
F0.21941494941711426
sg35
g36
sg313
g375
sg317
g378
sS'trials.thisRepN'
p1668
I1
sS'trials_3.thisN'
p1669
I0
sg37
g47
sg30
S'z'
p1670
sS'trials.thisN'
p1671
I73
sS'trials_3.thisRepN'
p1672
I0
sg48
g12
sS'trials.thisTrialN'
p1673
I34
sg325
g177
sg321
g385
sg341
g388
sS'trials_3.thisIndex'
p1674
g103
sS'trials_3.thisTrialN'
p1675
I0
sg328
g329
sg330
g391
sg49
g50
sa(dp1676
S'trials.thisIndex'
p1677
g38
(g83
S'\x0c\x00\x00\x00\x00\x00\x00\x00'
p1678
tp1679
Rp1680
sg31
F0.3534059524536133
sg35
g36
sg313
g1159
sg317
g1162
sS'trials.thisRepN'
p1681
I1
sS'trials_3.thisN'
p1682
I0
sg37
g47
sg30
S'z'
p1683
sS'trials.thisN'
p1684
I74
sS'trials_3.thisRepN'
p1685
I0
sg48
g12
sS'trials.thisTrialN'
p1686
I35
sg325
g153
sg321
g1169
sg341
g1172
sS'trials_3.thisIndex'
p1687
g103
sS'trials_3.thisTrialN'
p1688
I0
sg328
g329
sg330
g331
sg49
g50
sa(dp1689
S'trials.thisIndex'
p1690
g38
(g83
S'\x18\x00\x00\x00\x00\x00\x00\x00'
p1691
tp1692
Rp1693
sg31
F0.41936516761779785
sg35
g36
sg313
g629
sg317
g632
sS'trials.thisRepN'
p1694
I1
sS'trials_3.thisN'
p1695
I0
sg37
g47
sg30
S'slash'
p1696
sS'trials.thisN'
p1697
I75
sS'trials_3.thisRepN'
p1698
I0
sg48
g12
sS'trials.thisTrialN'
p1699
I36
sg325
g98
sg321
g639
sg341
g642
sS'trials_3.thisIndex'
p1700
g103
sS'trials_3.thisTrialN'
p1701
I0
sg328
g329
sg330
g331
sg49
g50
sa(dp1702
S'trials.thisIndex'
p1703
g38
(g83
S'\x04\x00\x00\x00\x00\x00\x00\x00'
p1704
tp1705
Rp1706
sg31
F0.5195679664611816
sg35
g36
sg313
g606
sg317
g609
sS'trials.thisRepN'
p1707
I1
sS'trials_3.thisN'
p1708
I0
sg37
g47
sg30
S'slash'
p1709
sS'trials.thisN'
p1710
I76
sS'trials_3.thisRepN'
p1711
I0
sg48
g12
sS'trials.thisTrialN'
p1712
I37
sg325
g153
sg321
g616
sg341
g619
sS'trials_3.thisIndex'
p1713
g103
sS'trials_3.thisTrialN'
p1714
I0
sg328
g329
sg330
g391
sg49
g50
sa(dp1715
S'trials.thisIndex'
p1716
g38
(g83
S'\x19\x00\x00\x00\x00\x00\x00\x00'
p1717
tp1718
Rp1719
sg31
F0.8360550403594971
sg35
g36
sg313
g1113
sg317
g1116
sS'trials.thisRepN'
p1720
I1
sS'trials_3.thisN'
p1721
I0
sg37
g47
sg30
S'z'
p1722
sS'trials.thisN'
p1723
I77
sS'trials_3.thisRepN'
p1724
I0
sg48
g12
sS'trials.thisTrialN'
p1725
I38
sg325
g98
sg321
g1123
sg341
g1126
sS'trials_3.thisIndex'
p1726
g103
sS'trials_3.thisTrialN'
p1727
I0
sg328
g329
sg330
g331
sg49
g50
sa(dp1728
S'trials.thisIndex'
p1729
g38
(g83
S'\x1d\x00\x00\x00\x00\x00\x00\x00'
p1730
tp1731
Rp1732
sg31
F0.3530550003051758
sg35
g36
sg313
g883
sg317
g886
sS'trials.thisRepN'
p1733
I2
sS'trials_3.thisN'
p1734
I0
sg37
g47
sg30
S'z'
p1735
sS'trials.thisN'
p1736
I78
sS'trials_3.thisRepN'
p1737
I0
sg48
g12
sS'trials.thisTrialN'
p1738
I0
sg325
g177
sg321
g893
sg341
g896
sS'trials_3.thisIndex'
p1739
g103
sS'trials_3.thisTrialN'
p1740
I0
sg328
g329
sg330
g391
sg49
g50
sa(dp1741
S'trials.thisIndex'
p1742
g38
(g83
S'\x03\x00\x00\x00\x00\x00\x00\x00'
p1743
tp1744
Rp1745
sg31
F0.4673731327056885
sg35
g36
sg313
g560
sg317
g563
sS'trials.thisRepN'
p1746
I2
sS'trials_3.thisN'
p1747
I0
sg37
g47
sg30
S'slash'
p1748
sS'trials.thisN'
p1749
I79
sS'trials_3.thisRepN'
p1750
I0
sg48
g12
sS'trials.thisTrialN'
p1751
I1
sg325
g153
sg321
g570
sg341
g573
sS'trials_3.thisIndex'
p1752
g103
sS'trials_3.thisTrialN'
p1753
I0
sg328
g329
sg330
g391
sg49
g50
sa(dp1754
S'trials.thisIndex'
p1755
g38
(g83
S'\x0f\x00\x00\x00\x00\x00\x00\x00'
p1756
tp1757
Rp1758
sg31
F0.6028401851654053
sg35
g36
sg313
g813
sg317
g816
sS'trials.thisRepN'
p1759
I2
sS'trials_3.thisN'
p1760
I0
sg37
g47
sg30
S'z'
p1761
sS'trials.thisN'
p1762
I80
sS'trials_3.thisRepN'
p1763
I0
sg48
g12
sS'trials.thisTrialN'
p1764
I2
sg325
g98
sg321
g823
sg341
g826
sS'trials_3.thisIndex'
p1765
g103
sS'trials_3.thisTrialN'
p1766
I0
sg328
g329
sg330
g391
sg49
g50
sa(dp1767
S'trials.thisIndex'
p1768
g38
(g83
S'\x04\x00\x00\x00\x00\x00\x00\x00'
p1769
tp1770
Rp1771
sg31
F0.16973590850830078
sg35
g36
sg313
g606
sg317
g609
sS'trials.thisRepN'
p1772
I2
sS'trials_3.thisN'
p1773
I0
sg37
g47
sg30
S'slash'
p1774
sS'trials.thisN'
p1775
I81
sS'trials_3.thisRepN'
p1776
I0
sg48
g12
sS'trials.thisTrialN'
p1777
I3
sg325
g153
sg321
g616
sg341
g619
sS'trials_3.thisIndex'
p1778
g103
sS'trials_3.thisTrialN'
p1779
I0
sg328
g329
sg330
g391
sg49
g50
sa(dp1780
S'trials.thisIndex'
p1781
g38
(g83
S'\x02\x00\x00\x00\x00\x00\x00\x00'
p1782
tp1783
Rp1784
sg31
F0.7362160682678223
sg35
g36
sg313
g767
sg317
g770
sS'trials.thisRepN'
p1785
I2
sS'trials_3.thisN'
p1786
I0
sg37
g47
sg30
S'slash'
p1787
sS'trials.thisN'
p1788
I82
sS'trials_3.thisRepN'
p1789
I0
sg48
g12
sS'trials.thisTrialN'
p1790
I4
sg325
g153
sg321
g777
sg341
g780
sS'trials_3.thisIndex'
p1791
g103
sS'trials_3.thisTrialN'
p1792
I0
sg328
g329
sg330
g391
sg49
g50
sa(dp1793
S'trials.thisIndex'
p1794
g38
(g83
S'\x10\x00\x00\x00\x00\x00\x00\x00'
p1795
tp1796
Rp1797
sg31
F0.9198381900787354
sg35
g36
sg313
g998
sg317
g1001
sS'trials.thisRepN'
p1798
I2
sS'trials_3.thisN'
p1799
I0
sg37
g47
sg30
S'slash'
p1800
sS'trials.thisN'
p1801
I83
sS'trials_3.thisRepN'
p1802
I0
sg48
g12
sS'trials.thisTrialN'
p1803
I5
sg325
g98
sg321
g1008
sg341
g1011
sS'trials_3.thisIndex'
p1804
g103
sS'trials_3.thisTrialN'
p1805
I0
sg328
g329
sg330
g391
sg49
g50
sa(dp1806
S'trials.thisIndex'
p1807
g38
(g83
S'\x06\x00\x00\x00\x00\x00\x00\x00'
p1808
tp1809
Rp1810
sg31
F0.5864119529724121
sg35
g36
sg313
g1044
sg317
g1047
sS'trials.thisRepN'
p1811
I2
sS'trials_3.thisN'
p1812
I0
sg37
g47
sg30
S'slash'
p1813
sS'trials.thisN'
p1814
I84
sS'trials_3.thisRepN'
p1815
I0
sg48
g12
sS'trials.thisTrialN'
p1816
I6
sg325
g153
sg321
g1054
sg341
g1057
sS'trials_3.thisIndex'
p1817
g103
sS'trials_3.thisTrialN'
p1818
I0
sg328
g329
sg330
g391
sg49
g50
sa(dp1819
S'trials.thisIndex'
p1820
g38
(g83
S'\x1c\x00\x00\x00\x00\x00\x00\x00'
p1821
tp1822
Rp1823
sg31
F0.2360210418701172
sg35
g36
sg313
g975
sg317
g978
sS'trials.thisRepN'
p1824
I2
sS'trials_3.thisN'
p1825
I0
sg37
g47
sg30
S'z'
p1826
sS'trials.thisN'
p1827
I85
sS'trials_3.thisRepN'
p1828
I0
sg48
g12
sS'trials.thisTrialN'
p1829
I7
sg325
g177
sg321
g985
sg341
g988
sS'trials_3.thisIndex'
p1830
g103
sS'trials_3.thisTrialN'
p1831
I0
sg328
g329
sg330
g852
sg49
g50
sa(dp1832
S'trials.thisIndex'
p1833
g38
(g83
S'\t\x00\x00\x00\x00\x00\x00\x00'
p1834
tp1835
Rp1836
sg31
F0.6532680988311768
sg35
g36
sg313
g491
sg317
g494
sS'trials.thisRepN'
p1837
I2
sS'trials_3.thisN'
p1838
I0
sg37
g47
sg30
S'slash'
p1839
sS'trials.thisN'
p1840
I86
sS'trials_3.thisRepN'
p1841
I0
sg48
g12
sS'trials.thisTrialN'
p1842
I8
sg325
g153
sg321
g501
sg341
g504
sS'trials_3.thisIndex'
p1843
g103
sS'trials_3.thisTrialN'
p1844
I0
sg328
g329
sg330
g331
sg49
g50
sa(dp1845
S'trials.thisIndex'
p1846
g38
(g83
S' \x00\x00\x00\x00\x00\x00\x00'
p1847
tp1848
Rp1849
sg31
F0.7699620723724365
sg35
g36
sg313
g375
sg317
g378
sS'trials.thisRepN'
p1850
I2
sS'trials_3.thisN'
p1851
I0
sg37
g47
sg30
S'slash'
p1852
sS'trials.thisN'
p1853
I87
sS'trials_3.thisRepN'
p1854
I0
sg48
g12
sS'trials.thisTrialN'
p1855
I9
sg325
g177
sg321
g385
sg341
g388
sS'trials_3.thisIndex'
p1856
g103
sS'trials_3.thisTrialN'
p1857
I0
sg328
g329
sg330
g391
sg49
g50
sa(dp1858
S'trials.thisIndex'
p1859
g38
(g83
S'\x14\x00\x00\x00\x00\x00\x00\x00'
p1860
tp1861
Rp1862
sg31
F1.2871708869934082
sg35
g36
sg313
g537
sg317
g540
sS'trials.thisRepN'
p1863
I2
sS'trials_3.thisN'
p1864
I0
sg37
g47
sg30
S'slash'
p1865
sS'trials.thisN'
p1866
I88
sS'trials_3.thisRepN'
p1867
I0
sg48
g12
sS'trials.thisTrialN'
p1868
I10
sg325
g98
sg321
g547
sg341
g550
sS'trials_3.thisIndex'
p1869
g103
sS'trials_3.thisTrialN'
p1870
I0
sg328
g329
sg330
g391
sg49
g50
sa(dp1871
S'trials.thisIndex'
p1872
g38
(g83
S'"\x00\x00\x00\x00\x00\x00\x00'
p1873
tp1874
Rp1875
sg31
F0.6527431011199951
sg35
g36
sg313
g1136
sg317
g1139
sS'trials.thisRepN'
p1876
I2
sS'trials_3.thisN'
p1877
I0
sg37
g47
sg30
S'slash'
p1878
sS'trials.thisN'
p1879
I89
sS'trials_3.thisRepN'
p1880
I0
sg48
g12
sS'trials.thisTrialN'
p1881
I11
sg325
g177
sg321
g1146
sg341
g1149
sS'trials_3.thisIndex'
p1882
g103
sS'trials_3.thisTrialN'
p1883
I0
sg328
g329
sg330
g391
sg49
g50
sa(dp1884
S'trials.thisIndex'
p1885
g38
(g83
S'&\x00\x00\x00\x00\x00\x00\x00'
p1886
tp1887
Rp1888
sg31
F0.3695559501647949
sg35
g36
sg313
g1090
sg317
g1093
sS'trials.thisRepN'
p1889
I2
sS'trials_3.thisN'
p1890
I0
sg37
g47
sg30
S'z'
p1891
sS'trials.thisN'
p1892
I90
sS'trials_3.thisRepN'
p1893
I0
sg48
g12
sS'trials.thisTrialN'
p1894
I12
sg325
g177
sg321
g1100
sg341
g1103
sS'trials_3.thisIndex'
p1895
g103
sS'trials_3.thisTrialN'
p1896
I0
sg328
g329
sg330
g331
sg49
g50
sa(dp1897
S'trials.thisIndex'
p1898
g38
(g83
S'$\x00\x00\x00\x00\x00\x00\x00'
p1899
tp1900
Rp1901
sg31
F0.23616790771484375
sg35
g36
sg313
g721
sg317
g724
sS'trials.thisRepN'
p1902
I2
sS'trials_3.thisN'
p1903
I0
sg37
g47
sg30
S'z'
p1904
sS'trials.thisN'
p1905
I91
sS'trials_3.thisRepN'
p1906
I0
sg48
g12
sS'trials.thisTrialN'
p1907
I13
sg325
g177
sg321
g731
sg341
g734
sS'trials_3.thisIndex'
p1908
g103
sS'trials_3.thisTrialN'
p1909
I0
sg328
g329
sg330
g331
sg49
g50
sa(dp1910
S'trials.thisIndex'
p1911
g38
(g83
S'\x11\x00\x00\x00\x00\x00\x00\x00'
p1912
tp1913
Rp1914
sg31
F0.2528831958770752
sg35
g36
sg313
g929
sg317
g932
sS'trials.thisRepN'
p1915
I2
sS'trials_3.thisN'
p1916
I0
sg37
g47
sg30
S'slash'
p1917
sS'trials.thisN'
p1918
I92
sS'trials_3.thisRepN'
p1919
I0
sg48
g12
sS'trials.thisTrialN'
p1920
I14
sg325
g98
sg321
g939
sg341
g942
sS'trials_3.thisIndex'
p1921
g103
sS'trials_3.thisTrialN'
p1922
I0
sg328
g329
sg330
g391
sg49
g50
sa(dp1923
S'trials.thisIndex'
p1924
g38
(g83
S'\x16\x00\x00\x00\x00\x00\x00\x00'
p1925
tp1926
Rp1927
sg31
F0.4186370372772217
sg35
g36
sg313
g790
sg317
g793
sS'trials.thisRepN'
p1928
I2
sS'trials_3.thisN'
p1929
I0
sg37
g47
sg30
S'slash'
p1930
sS'trials.thisN'
p1931
I93
sS'trials_3.thisRepN'
p1932
I0
sg48
g12
sS'trials.thisTrialN'
p1933
I15
sg325
g98
sg321
g800
sg341
g803
sS'trials_3.thisIndex'
p1934
g103
sS'trials_3.thisTrialN'
p1935
I0
sg328
g329
sg330
g331
sg49
g50
sa(dp1936
S'trials.thisIndex'
p1937
g38
(g83
S'\x08\x00\x00\x00\x00\x00\x00\x00'
p1938
tp1939
Rp1940
sg31
F0.653144121170044
sg35
g36
sg313
g583
sg317
g586
sS'trials.thisRepN'
p1941
I2
sS'trials_3.thisN'
p1942
I0
sg37
g47
sg30
S'slash'
p1943
sS'trials.thisN'
p1944
I94
sS'trials_3.thisRepN'
p1945
I0
sg48
g12
sS'trials.thisTrialN'
p1946
I16
sg325
g153
sg321
g593
sg341
g596
sS'trials_3.thisIndex'
p1947
g103
sS'trials_3.thisTrialN'
p1948
I0
sg328
g329
sg330
g331
sg49
g50
sa(dp1949
S'trials.thisIndex'
p1950
g38
(g83
S'\x13\x00\x00\x00\x00\x00\x00\x00'
p1951
tp1952
Rp1953
sg31
F0.16895198822021484
sg35
g36
sg313
g952
sg317
g955
sS'trials.thisRepN'
p1954
I2
sS'trials_3.thisN'
p1955
I0
sg37
g47
sg30
S'slash'
p1956
sS'trials.thisN'
p1957
I95
sS'trials_3.thisRepN'
p1958
I0
sg48
g12
sS'trials.thisTrialN'
p1959
I17
sg325
g98
sg321
g962
sg341
g965
sS'trials_3.thisIndex'
p1960
g103
sS'trials_3.thisTrialN'
p1961
I0
sg328
g329
sg330
g391
sg49
g50
sa(dp1962
S'trials.thisIndex'
p1963
g38
(g83
S'\x12\x00\x00\x00\x00\x00\x00\x00'
p1964
tp1965
Rp1966
sg31
F0.3524508476257324
sg35
g36
sg313
g698
sg317
g701
sS'trials.thisRepN'
p1967
I2
sS'trials_3.thisN'
p1968
I0
sg37
g47
sg30
S'slash'
p1969
sS'trials.thisN'
p1970
I96
sS'trials_3.thisRepN'
p1971
I0
sg48
g12
sS'trials.thisTrialN'
p1972
I18
sg325
g98
sg321
g708
sg341
g711
sS'trials_3.thisIndex'
p1973
g103
sS'trials_3.thisTrialN'
p1974
I0
sg328
g329
sg330
g391
sg49
g50
sa(dp1975
S'trials.thisIndex'
p1976
g38
(g83
S'%\x00\x00\x00\x00\x00\x00\x00'
p1977
tp1978
Rp1979
sg31
F0.31974291801452637
sg35
g36
sg313
g1182
sg317
g1185
sS'trials.thisRepN'
p1980
I2
sS'trials_3.thisN'
p1981
I0
sg37
g47
sg30
S'z'
p1982
sS'trials.thisN'
p1983
I97
sS'trials_3.thisRepN'
p1984
I0
sg48
g12
sS'trials.thisTrialN'
p1985
I19
sg325
g177
sg321
g1192
sg341
g1195
sS'trials_3.thisIndex'
p1986
g103
sS'trials_3.thisTrialN'
p1987
I0
sg328
g329
sg330
g331
sg49
g50
sa(dp1988
S'trials.thisIndex'
p1989
g38
(g83
S'\x05\x00\x00\x00\x00\x00\x00\x00'
p1990
tp1991
Rp1992
sg31
F0.5029158592224121
sg35
g36
sg313
g1021
sg317
g1024
sS'trials.thisRepN'
p1993
I2
sS'trials_3.thisN'
p1994
I0
sg37
g47
sg30
S'slash'
p1995
sS'trials.thisN'
p1996
I98
sS'trials_3.thisRepN'
p1997
I0
sg48
g12
sS'trials.thisTrialN'
p1998
I20
sg325
g153
sg321
g1031
sg341
g1034
sS'trials_3.thisIndex'
p1999
g103
sS'trials_3.thisTrialN'
p2000
I0
sg328
g329
sg330
g391
sg49
g50
sa(dp2001
S'trials.thisIndex'
p2002
g38
(g83
S'\x1e\x00\x00\x00\x00\x00\x00\x00'
p2003
tp2004
Rp2005
sg31
F0.40268802642822266
sg35
g36
sg313
g514
sg317
g517
sS'trials.thisRepN'
p2006
I2
sS'trials_3.thisN'
p2007
I0
sg37
g47
sg30
S'z'
p2008
sS'trials.thisN'
p2009
I99
sS'trials_3.thisRepN'
p2010
I0
sg48
g12
sS'trials.thisTrialN'
p2011
I21
sg325
g177
sg321
g524
sg341
g527
sS'trials_3.thisIndex'
p2012
g103
sS'trials_3.thisTrialN'
p2013
I0
sg328
g329
sg330
g391
sg49
g50
sa(dp2014
S'trials.thisIndex'
p2015
g38
(g83
S'\x0b\x00\x00\x00\x00\x00\x00\x00'
p2016
tp2017
Rp2018
sg31
F0.7197830677032471
sg35
g36
sg313
g675
sg317
g678
sS'trials.thisRepN'
p2019
I2
sS'trials_3.thisN'
p2020
I0
sg37
g47
sg30
S'slash'
p2021
sS'trials.thisN'
p2022
I100
sS'trials_3.thisRepN'
p2023
I0
sg48
g12
sS'trials.thisTrialN'
p2024
I22
sg325
g153
sg321
g685
sg341
g688
sS'trials_3.thisIndex'
p2025
g103
sS'trials_3.thisTrialN'
p2026
I0
sg328
g329
sg330
g331
sg49
g50
sa(dp2027
S'trials.thisIndex'
p2028
g38
(g83
S'\x00\x00\x00\x00\x00\x00\x00\x00'
p2029
tp2030
Rp2031
sg31
F0.41884684562683105
sg35
g36
sg313
g860
sg317
g863
sS'trials.thisRepN'
p2032
I2
sS'trials_3.thisN'
p2033
I0
sg37
g47
sg30
S'z'
p2034
sS'trials.thisN'
p2035
I101
sS'trials_3.thisRepN'
p2036
I0
sg48
g12
sS'trials.thisTrialN'
p2037
I23
sg325
g153
sg321
g870
sg341
g873
sS'trials_3.thisIndex'
p2038
g103
sS'trials_3.thisTrialN'
p2039
I0
sg328
g329
sg330
g852
sg49
g50
sa(dp2040
S'trials.thisIndex'
p2041
g38
(g83
S'!\x00\x00\x00\x00\x00\x00\x00'
p2042
tp2043
Rp2044
sg31
F0.3025081157684326
sg35
g36
sg313
g422
sg317
g425
sS'trials.thisRepN'
p2045
I2
sS'trials_3.thisN'
p2046
I0
sg37
g47
sg30
S'slash'
p2047
sS'trials.thisN'
p2048
I102
sS'trials_3.thisRepN'
p2049
I0
sg48
g12
sS'trials.thisTrialN'
p2050
I24
sg325
g177
sg321
g432
sg341
g435
sS'trials_3.thisIndex'
p2051
g103
sS'trials_3.thisTrialN'
p2052
I0
sg328
g329
sg330
g391
sg49
g50
sa(dp2053
S'trials.thisIndex'
p2054
g38
(g83
S'\x18\x00\x00\x00\x00\x00\x00\x00'
p2055
tp2056
Rp2057
sg31
F1.0522019863128662
sg35
g36
sg313
g629
sg317
g632
sS'trials.thisRepN'
p2058
I2
sS'trials_3.thisN'
p2059
I0
sg37
g47
sg30
S'slash'
p2060
sS'trials.thisN'
p2061
I103
sS'trials_3.thisRepN'
p2062
I0
sg48
g12
sS'trials.thisTrialN'
p2063
I25
sg325
g98
sg321
g639
sg341
g642
sS'trials_3.thisIndex'
p2064
g103
sS'trials_3.thisTrialN'
p2065
I0
sg328
g329
sg330
g331
sg49
g50
sa(dp2066
S'trials.thisIndex'
p2067
g38
(g83
S'\x1a\x00\x00\x00\x00\x00\x00\x00'
p2068
tp2069
Rp2070
sg31
F1.1532530784606934
sg35
g36
sg313
g316
sg317
g320
sS'trials.thisRepN'
p2071
I2
sS'trials_3.thisN'
p2072
I0
sg37
g47
sg30
S'z'
p2073
sS'trials.thisN'
p2074
I104
sS'trials_3.thisRepN'
p2075
I0
sg48
g12
sS'trials.thisTrialN'
p2076
I26
sg325
g98
sg321
g322
sg341
g344
sS'trials_3.thisIndex'
p2077
g103
sS'trials_3.thisTrialN'
p2078
I0
sg328
g329
sg330
g331
sg49
g50
sa(dp2079
S'trials.thisIndex'
p2080
g38
(g83
S'\x0e\x00\x00\x00\x00\x00\x00\x00'
p2081
tp2082
Rp2083
sg31
F0.3694300651550293
sg35
g36
sg313
g836
sg317
g839
sS'trials.thisRepN'
p2084
I2
sS'trials_3.thisN'
p2085
I0
sg37
g47
sg30
S'z'
p2086
sS'trials.thisN'
p2087
I105
sS'trials_3.thisRepN'
p2088
I0
sg48
g12
sS'trials.thisTrialN'
p2089
I27
sg325
g98
sg321
g846
sg341
g849
sS'trials_3.thisIndex'
p2090
g103
sS'trials_3.thisTrialN'
p2091
I0
sg328
g329
sg330
g852
sg49
g50
sa(dp2092
S'trials.thisIndex'
p2093
g38
(g83
S'\n\x00\x00\x00\x00\x00\x00\x00'
p2094
tp2095
Rp2096
sg31
F0.33597397804260254
sg35
g36
sg313
g1067
sg317
g1070
sS'trials.thisRepN'
p2097
I2
sS'trials_3.thisN'
p2098
I0
sg37
g47
sg30
S'slash'
p2099
sS'trials.thisN'
p2100
I106
sS'trials_3.thisRepN'
p2101
I0
sg48
g12
sS'trials.thisTrialN'
p2102
I28
sg325
g153
sg321
g1077
sg341
g1080
sS'trials_3.thisIndex'
p2103
g103
sS'trials_3.thisTrialN'
p2104
I0
sg328
g329
sg330
g331
sg49
g50
sa(dp2105
S'trials.thisIndex'
p2106
g38
(g83
S'\r\x00\x00\x00\x00\x00\x00\x00'
p2107
tp2108
Rp2109
sg31
F0.3839840888977051
sg35
g36
sg313
g445
sg317
g448
sS'trials.thisRepN'
p2110
I2
sS'trials_3.thisN'
p2111
I0
sg37
g47
sg30
S'z'
p2112
sS'trials.thisN'
p2113
I107
sS'trials_3.thisRepN'
p2114
I0
sg48
g12
sS'trials.thisTrialN'
p2115
I29
sg325
g153
sg321
g455
sg341
g458
sS'trials_3.thisIndex'
p2116
g103
sS'trials_3.thisTrialN'
p2117
I0
sg328
g329
sg330
g331
sg49
g50
sa(dp2118
S'trials.thisIndex'
p2119
g38
(g83
S'\x0c\x00\x00\x00\x00\x00\x00\x00'
p2120
tp2121
Rp2122
sg31
F0.386275053024292
sg35
g36
sg313
g1159
sg317
g1162
sS'trials.thisRepN'
p2123
I2
sS'trials_3.thisN'
p2124
I0
sg37
g47
sg30
S'z'
p2125
sS'trials.thisN'
p2126
I108
sS'trials_3.thisRepN'
p2127
I0
sg48
g12
sS'trials.thisTrialN'
p2128
I30
sg325
g153
sg321
g1169
sg341
g1172
sS'trials_3.thisIndex'
p2129
g103
sS'trials_3.thisTrialN'
p2130
I0
sg328
g329
sg330
g331
sg49
g50
sa(dp2131
S'trials.thisIndex'
p2132
g38
(g83
S'\x1f\x00\x00\x00\x00\x00\x00\x00'
p2133
tp2134
Rp2135
sg31
F0.9008419513702393
sg35
g36
sg313
g399
sg317
g402
sS'trials.thisRepN'
p2136
I2
sS'trials_3.thisN'
p2137
I0
sg37
g47
sg30
S'z'
p2138
sS'trials.thisN'
p2139
I109
sS'trials_3.thisRepN'
p2140
I0
sg48
g12
sS'trials.thisTrialN'
p2141
I31
sg325
g177
sg321
g409
sg341
g412
sS'trials_3.thisIndex'
p2142
g103
sS'trials_3.thisTrialN'
p2143
I0
sg328
g329
sg330
g391
sg49
g50
sa(dp2144
S'trials.thisIndex'
p2145
g38
(g83
S'#\x00\x00\x00\x00\x00\x00\x00'
p2146
tp2147
Rp2148
sg31
F0.3360590934753418
sg35
g36
sg313
g1205
sg317
g1208
sS'trials.thisRepN'
p2149
I2
sS'trials_3.thisN'
p2150
I0
sg37
g47
sg30
S'slash'
p2151
sS'trials.thisN'
p2152
I110
sS'trials_3.thisRepN'
p2153
I0
sg48
g12
sS'trials.thisTrialN'
p2154
I32
sg325
g177
sg321
g1215
sg341
g1218
sS'trials_3.thisIndex'
p2155
g103
sS'trials_3.thisTrialN'
p2156
I0
sg328
g329
sg330
g331
sg49
g50
sa(dp2157
S'trials.thisIndex'
p2158
g38
(g83
S'\x1b\x00\x00\x00\x00\x00\x00\x00'
p2159
tp2160
Rp2161
sg31
F0.2525060176849365
sg35
g36
sg313
g906
sg317
g909
sS'trials.thisRepN'
p2162
I2
sS'trials_3.thisN'
p2163
I0
sg37
g47
sg30
S'z'
p2164
sS'trials.thisN'
p2165
I111
sS'trials_3.thisRepN'
p2166
I0
sg48
g12
sS'trials.thisTrialN'
p2167
I33
sg325
g98
sg321
g916
sg341
g919
sS'trials_3.thisIndex'
p2168
g103
sS'trials_3.thisTrialN'
p2169
I0
sg328
g329
sg330
g331
sg49
g50
sa(dp2170
S'trials.thisIndex'
p2171
g38
(g83
S'\x15\x00\x00\x00\x00\x00\x00\x00'
p2172
tp2173
Rp2174
sg31
F0.45351386070251465
sg35
g36
sg313
g652
sg317
g655
sS'trials.thisRepN'
p2175
I2
sS'trials_3.thisN'
p2176
I0
sg37
g47
sg30
S'slash'
p2177
sS'trials.thisN'
p2178
I112
sS'trials_3.thisRepN'
p2179
I0
sg48
g12
sS'trials.thisTrialN'
p2180
I34
sg325
g98
sg321
g662
sg341
g665
sS'trials_3.thisIndex'
p2181
g103
sS'trials_3.thisTrialN'
p2182
I0
sg328
g329
sg330
g331
sg49
g50
sa(dp2183
S'trials.thisIndex'
p2184
g38
(g83
S'\x19\x00\x00\x00\x00\x00\x00\x00'
p2185
tp2186
Rp2187
sg31
F0.43628787994384766
sg35
g36
sg313
g1113
sg317
g1116
sS'trials.thisRepN'
p2188
I2
sS'trials_3.thisN'
p2189
I0
sg37
g47
sg30
S'slash'
p2190
sS'trials.thisN'
p2191
I113
sS'trials_3.thisRepN'
p2192
I0
sg48
g12
sS'trials.thisTrialN'
p2193
I35
sg325
g98
sg321
g1123
sg341
g1126
sS'trials_3.thisIndex'
p2194
g103
sS'trials_3.thisTrialN'
p2195
I0
sg328
g329
sg330
g331
sg49
g50
sa(dp2196
S'trials.thisIndex'
p2197
g38
(g83
S'\x01\x00\x00\x00\x00\x00\x00\x00'
p2198
tp2199
Rp2200
sg31
F0.7363271713256836
sg35
g36
sg313
g468
sg317
g471
sS'trials.thisRepN'
p2201
I2
sS'trials_3.thisN'
p2202
I0
sg37
g47
sg30
S'z'
p2203
sS'trials.thisN'
p2204
I114
sS'trials_3.thisRepN'
p2205
I0
sg48
g12
sS'trials.thisTrialN'
p2206
I36
sg325
g153
sg321
g478
sg341
g481
sS'trials_3.thisIndex'
p2207
g103
sS'trials_3.thisTrialN'
p2208
I0
sg328
g329
sg330
g391
sg49
g50
sa(dp2209
S'trials.thisIndex'
p2210
g38
(g83
S'\x07\x00\x00\x00\x00\x00\x00\x00'
p2211
tp2212
Rp2213
sg31
F0.6196689605712891
sg35
g36
sg313
g352
sg317
g355
sS'trials.thisRepN'
p2214
I2
sS'trials_3.thisN'
p2215
I0
sg37
g47
sg30
S'slash'
p2216
sS'trials.thisN'
p2217
I115
sS'trials_3.thisRepN'
p2218
I0
sg48
g12
sS'trials.thisTrialN'
p2219
I37
sg325
g153
sg321
g362
sg341
g365
sS'trials_3.thisIndex'
p2220
g103
sS'trials_3.thisTrialN'
p2221
I0
sg328
g329
sg330
g331
sg49
g50
sa(dp2222
S'trials.thisIndex'
p2223
g38
(g83
S'\x17\x00\x00\x00\x00\x00\x00\x00'
p2224
tp2225
Rp2226
sg31
F0.7197558879852295
sg35
g36
sg313
g744
sg317
g747
sS'trials.thisRepN'
p2227
I2
sS'trials_3.thisN'
p2228
I0
sg37
g47
sg30
S'slash'
p2229
sS'trials.thisN'
p2230
I116
sS'trials_3.thisRepN'
p2231
I0
sg48
g12
sS'trials.thisTrialN'
p2232
I38
sg325
g98
sg321
g754
sg341
g757
sS'trials_3.thisIndex'
p2233
g103
sS'trials_3.thisTrialN'
p2234
I0
sg328
g329
sg330
g331
sg49
g50
sa(dp2235
S'trials.thisIndex'
p2236
g38
(g83
S'$\x00\x00\x00\x00\x00\x00\x00'
p2237
tp2238
Rp2239
sg31
F0.3353111743927002
sg35
g36
sg313
g721
sg317
g724
sS'trials.thisRepN'
p2240
I3
sS'trials_3.thisN'
p2241
I0
sg37
g47
sg30
S'z'
p2242
sS'trials.thisN'
p2243
I117
sS'trials_3.thisRepN'
p2244
I0
sg48
g12
sS'trials.thisTrialN'
p2245
I0
sg325
g177
sg321
g731
sg341
g734
sS'trials_3.thisIndex'
p2246
g103
sS'trials_3.thisTrialN'
p2247
I0
sg328
g329
sg330
g331
sg49
g50
sa(dp2248
S'trials.thisIndex'
p2249
g38
(g83
S'\x1e\x00\x00\x00\x00\x00\x00\x00'
p2250
tp2251
Rp2252
sg31
F0.2695620059967041
sg35
g36
sg313
g514
sg317
g517
sS'trials.thisRepN'
p2253
I3
sS'trials_3.thisN'
p2254
I0
sg37
g47
sg30
S'z'
p2255
sS'trials.thisN'
p2256
I118
sS'trials_3.thisRepN'
p2257
I0
sg48
g12
sS'trials.thisTrialN'
p2258
I1
sg325
g177
sg321
g524
sg341
g527
sS'trials_3.thisIndex'
p2259
g103
sS'trials_3.thisTrialN'
p2260
I0
sg328
g329
sg330
g391
sg49
g50
sa(dp2261
S'trials.thisIndex'
p2262
g38
(g83
S'\x19\x00\x00\x00\x00\x00\x00\x00'
p2263
tp2264
Rp2265
sg31
F0.33602094650268555
sg35
g36
sg313
g1113
sg317
g1116
sS'trials.thisRepN'
p2266
I3
sS'trials_3.thisN'
p2267
I0
sg37
g47
sg30
S'z'
p2268
sS'trials.thisN'
p2269
I119
sS'trials_3.thisRepN'
p2270
I0
sg48
g12
sS'trials.thisTrialN'
p2271
I2
sg325
g98
sg321
g1123
sg341
g1126
sS'trials_3.thisIndex'
p2272
g103
sS'trials_3.thisTrialN'
p2273
I0
sg328
g329
sg330
g331
sg49
g50
sa(dp2274
S'trials.thisIndex'
p2275
g38
(g83
S' \x00\x00\x00\x00\x00\x00\x00'
p2276
tp2277
Rp2278
sg31
F0.10204696655273438
sg35
g36
sg313
g375
sg317
g378
sS'trials.thisRepN'
p2279
I3
sS'trials_3.thisN'
p2280
I0
sg37
g47
sg30
S'slash'
p2281
sS'trials.thisN'
p2282
I120
sS'trials_3.thisRepN'
p2283
I0
sg48
g12
sS'trials.thisTrialN'
p2284
I3
sg325
g177
sg321
g385
sg341
g388
sS'trials_3.thisIndex'
p2285
g103
sS'trials_3.thisTrialN'
p2286
I0
sg328
g329
sg330
g391
sg49
g50
sa(dp2287
S'trials.thisIndex'
p2288
g38
(g83
S'\x1f\x00\x00\x00\x00\x00\x00\x00'
p2289
tp2290
Rp2291
sg31
F0.1518721580505371
sg35
g36
sg313
g399
sg317
g402
sS'trials.thisRepN'
p2292
I3
sS'trials_3.thisN'
p2293
I0
sg37
g47
sg30
S'slash'
p2294
sS'trials.thisN'
p2295
I121
sS'trials_3.thisRepN'
p2296
I0
sg48
g12
sS'trials.thisTrialN'
p2297
I4
sg325
g177
sg321
g409
sg341
g412
sS'trials_3.thisIndex'
p2298
g103
sS'trials_3.thisTrialN'
p2299
I0
sg328
g329
sg330
g391
sg49
g50
sa(dp2300
S'trials.thisIndex'
p2301
g38
(g83
S'\x15\x00\x00\x00\x00\x00\x00\x00'
p2302
tp2303
Rp2304
sg31
F0.6692078113555908
sg35
g36
sg313
g652
sg317
g655
sS'trials.thisRepN'
p2305
I3
sS'trials_3.thisN'
p2306
I0
sg37
g47
sg30
S'slash'
p2307
sS'trials.thisN'
p2308
I122
sS'trials_3.thisRepN'
p2309
I0
sg48
g12
sS'trials.thisTrialN'
p2310
I5
sg325
g98
sg321
g662
sg341
g665
sS'trials_3.thisIndex'
p2311
g103
sS'trials_3.thisTrialN'
p2312
I0
sg328
g329
sg330
g331
sg49
g50
sa(dp2313
S'trials.thisIndex'
p2314
g38
(g83
S'!\x00\x00\x00\x00\x00\x00\x00'
p2315
tp2316
Rp2317
sg31
F0.5858211517333984
sg35
g36
sg313
g422
sg317
g425
sS'trials.thisRepN'
p2318
I3
sS'trials_3.thisN'
p2319
I0
sg37
g47
sg30
S'slash'
p2320
sS'trials.thisN'
p2321
I123
sS'trials_3.thisRepN'
p2322
I0
sg48
g12
sS'trials.thisTrialN'
p2323
I6
sg325
g177
sg321
g432
sg341
g435
sS'trials_3.thisIndex'
p2324
g103
sS'trials_3.thisTrialN'
p2325
I0
sg328
g329
sg330
g391
sg49
g50
sa(dp2326
S'trials.thisIndex'
p2327
g38
(g83
S'\n\x00\x00\x00\x00\x00\x00\x00'
p2328
tp2329
Rp2330
sg31
F0.8194730281829834
sg35
g36
sg313
g1067
sg317
g1070
sS'trials.thisRepN'
p2331
I3
sS'trials_3.thisN'
p2332
I0
sg37
g47
sg30
S'z'
p2333
sS'trials.thisN'
p2334
I124
sS'trials_3.thisRepN'
p2335
I0
sg48
g12
sS'trials.thisTrialN'
p2336
I7
sg325
g153
sg321
g1077
sg341
g1080
sS'trials_3.thisIndex'
p2337
g103
sS'trials_3.thisTrialN'
p2338
I0
sg328
g329
sg330
g331
sg49
g50
sa(dp2339
S'trials.thisIndex'
p2340
g38
(g83
S'\r\x00\x00\x00\x00\x00\x00\x00'
p2341
tp2342
Rp2343
sg31
F0.3698999881744385
sg35
g36
sg313
g445
sg317
g448
sS'trials.thisRepN'
p2344
I3
sS'trials_3.thisN'
p2345
I0
sg37
g47
sg30
S'z'
p2346
sS'trials.thisN'
p2347
I125
sS'trials_3.thisRepN'
p2348
I0
sg48
g12
sS'trials.thisTrialN'
p2349
I8
sg325
g153
sg321
g455
sg341
g458
sS'trials_3.thisIndex'
p2350
g103
sS'trials_3.thisTrialN'
p2351
I0
sg328
g329
sg330
g331
sg49
g50
sa(dp2352
S'trials.thisIndex'
p2353
g38
(g83
S'\x11\x00\x00\x00\x00\x00\x00\x00'
p2354
tp2355
Rp2356
sg31
F0.25307798385620117
sg35
g36
sg313
g929
sg317
g932
sS'trials.thisRepN'
p2357
I3
sS'trials_3.thisN'
p2358
I0
sg37
g47
sg30
S'slash'
p2359
sS'trials.thisN'
p2360
I126
sS'trials_3.thisRepN'
p2361
I0
sg48
g12
sS'trials.thisTrialN'
p2362
I9
sg325
g98
sg321
g939
sg341
g942
sS'trials_3.thisIndex'
p2363
g103
sS'trials_3.thisTrialN'
p2364
I0
sg328
g329
sg330
g391
sg49
g50
sa(dp2365
S'trials.thisIndex'
p2366
g38
(g83
S'\x10\x00\x00\x00\x00\x00\x00\x00'
p2367
tp2368
Rp2369
sg31
F0.3172168731689453
sg35
g36
sg313
g998
sg317
g1001
sS'trials.thisRepN'
p2370
I3
sS'trials_3.thisN'
p2371
I0
sg37
g47
sg30
S'slash'
p2372
sS'trials.thisN'
p2373
I127
sS'trials_3.thisRepN'
p2374
I0
sg48
g12
sS'trials.thisTrialN'
p2375
I10
sg325
g98
sg321
g1008
sg341
g1011
sS'trials_3.thisIndex'
p2376
g103
sS'trials_3.thisTrialN'
p2377
I0
sg328
g329
sg330
g391
sg49
g50
sa(dp2378
S'trials.thisIndex'
p2379
g38
(g83
S'%\x00\x00\x00\x00\x00\x00\x00'
p2380
tp2381
Rp2382
sg31
F0.3528120517730713
sg35
g36
sg313
g1182
sg317
g1185
sS'trials.thisRepN'
p2383
I3
sS'trials_3.thisN'
p2384
I0
sg37
g47
sg30
S'z'
p2385
sS'trials.thisN'
p2386
I128
sS'trials_3.thisRepN'
p2387
I0
sg48
g12
sS'trials.thisTrialN'
p2388
I11
sg325
g177
sg321
g1192
sg341
g1195
sS'trials_3.thisIndex'
p2389
g103
sS'trials_3.thisTrialN'
p2390
I0
sg328
g329
sg330
g331
sg49
g50
sa(dp2391
S'trials.thisIndex'
p2392
g38
(g83
S'\x0b\x00\x00\x00\x00\x00\x00\x00'
p2393
tp2394
Rp2395
sg31
F0.8189661502838135
sg35
g36
sg313
g675
sg317
g678
sS'trials.thisRepN'
p2396
I3
sS'trials_3.thisN'
p2397
I0
sg37
g47
sg30
S'slash'
p2398
sS'trials.thisN'
p2399
I129
sS'trials_3.thisRepN'
p2400
I0
sg48
g12
sS'trials.thisTrialN'
p2401
I12
sg325
g153
sg321
g685
sg341
g688
sS'trials_3.thisIndex'
p2402
g103
sS'trials_3.thisTrialN'
p2403
I0
sg328
g329
sg330
g331
sg49
g50
sa(dp2404
S'trials.thisIndex'
p2405
g38
(g83
S'\x0c\x00\x00\x00\x00\x00\x00\x00'
p2406
tp2407
Rp2408
sg31
F0.8699359893798828
sg35
g36
sg313
g1159
sg317
g1162
sS'trials.thisRepN'
p2409
I3
sS'trials_3.thisN'
p2410
I0
sg37
g47
sg30
S'z'
p2411
sS'trials.thisN'
p2412
I130
sS'trials_3.thisRepN'
p2413
I0
sg48
g12
sS'trials.thisTrialN'
p2414
I13
sg325
g153
sg321
g1169
sg341
g1172
sS'trials_3.thisIndex'
p2415
g103
sS'trials_3.thisTrialN'
p2416
I0
sg328
g329
sg330
g331
sg49
g50
sa(dp2417
S'trials.thisIndex'
p2418
g38
(g83
S'\x05\x00\x00\x00\x00\x00\x00\x00'
p2419
tp2420
Rp2421
sg31
F0.40270090103149414
sg35
g36
sg313
g1021
sg317
g1024
sS'trials.thisRepN'
p2422
I3
sS'trials_3.thisN'
p2423
I0
sg37
g47
sg30
S'slash'
p2424
sS'trials.thisN'
p2425
I131
sS'trials_3.thisRepN'
p2426
I0
sg48
g12
sS'trials.thisTrialN'
p2427
I14
sg325
g153
sg321
g1031
sg341
g1034
sS'trials_3.thisIndex'
p2428
g103
sS'trials_3.thisTrialN'
p2429
I0
sg328
g329
sg330
g391
sg49
g50
sa(dp2430
S'trials.thisIndex'
p2431
g38
(g83
S'\x0e\x00\x00\x00\x00\x00\x00\x00'
p2432
tp2433
Rp2434
sg31
F0.3848381042480469
sg35
g36
sg313
g836
sg317
g839
sS'trials.thisRepN'
p2435
I3
sS'trials_3.thisN'
p2436
I0
sg37
g47
sg30
S'z'
p2437
sS'trials.thisN'
p2438
I132
sS'trials_3.thisRepN'
p2439
I0
sg48
g12
sS'trials.thisTrialN'
p2440
I15
sg325
g98
sg321
g846
sg341
g849
sS'trials_3.thisIndex'
p2441
g103
sS'trials_3.thisTrialN'
p2442
I0
sg328
g329
sg330
g852
sg49
g50
sa(dp2443
S'trials.thisIndex'
p2444
g38
(g83
S'\x14\x00\x00\x00\x00\x00\x00\x00'
p2445
tp2446
Rp2447
sg31
F0.4697530269622803
sg35
g36
sg313
g537
sg317
g540
sS'trials.thisRepN'
p2448
I3
sS'trials_3.thisN'
p2449
I0
sg37
g47
sg30
S'z'
p2450
sS'trials.thisN'
p2451
I133
sS'trials_3.thisRepN'
p2452
I0
sg48
g12
sS'trials.thisTrialN'
p2453
I16
sg325
g98
sg321
g547
sg341
g550
sS'trials_3.thisIndex'
p2454
g103
sS'trials_3.thisTrialN'
p2455
I0
sg328
g329
sg330
g391
sg49
g50
sa(dp2456
S'trials.thisIndex'
p2457
g38
(g83
S'\x13\x00\x00\x00\x00\x00\x00\x00'
p2458
tp2459
Rp2460
sg31
F0.41996192932128906
sg35
g36
sg313
g952
sg317
g955
sS'trials.thisRepN'
p2461
I3
sS'trials_3.thisN'
p2462
I0
sg37
g47
sg30
S'z'
p2463
sS'trials.thisN'
p2464
I134
sS'trials_3.thisRepN'
p2465
I0
sg48
g12
sS'trials.thisTrialN'
p2466
I17
sg325
g98
sg321
g962
sg341
g965
sS'trials_3.thisIndex'
p2467
g103
sS'trials_3.thisTrialN'
p2468
I0
sg328
g329
sg330
g391
sg49
g50
sa(dp2469
S'trials.thisIndex'
p2470
g38
(g83
S'\t\x00\x00\x00\x00\x00\x00\x00'
p2471
tp2472
Rp2473
sg31
F0.8863430023193359
sg35
g36
sg313
g491
sg317
g494
sS'trials.thisRepN'
p2474
I3
sS'trials_3.thisN'
p2475
I0
sg37
g47
sg30
S'slash'
p2476
sS'trials.thisN'
p2477
I135
sS'trials_3.thisRepN'
p2478
I0
sg48
g12
sS'trials.thisTrialN'
p2479
I18
sg325
g153
sg321
g501
sg341
g504
sS'trials_3.thisIndex'
p2480
g103
sS'trials_3.thisTrialN'
p2481
I0
sg328
g329
sg330
g331
sg49
g50
sa(dp2482
S'trials.thisIndex'
p2483
g38
(g83
S'\x1a\x00\x00\x00\x00\x00\x00\x00'
p2484
tp2485
Rp2486
sg31
F0.4693410396575928
sg35
g36
sg313
g316
sg317
g320
sS'trials.thisRepN'
p2487
I3
sS'trials_3.thisN'
p2488
I0
sg37
g47
sg30
S'z'
p2489
sS'trials.thisN'
p2490
I136
sS'trials_3.thisRepN'
p2491
I0
sg48
g12
sS'trials.thisTrialN'
p2492
I19
sg325
g98
sg321
g322
sg341
g344
sS'trials_3.thisIndex'
p2493
g103
sS'trials_3.thisTrialN'
p2494
I0
sg328
g329
sg330
g331
sg49
g50
sa(dp2495
S'trials.thisIndex'
p2496
g38
(g83
S'\x02\x00\x00\x00\x00\x00\x00\x00'
p2497
tp2498
Rp2499
sg31
F0.4359300136566162
sg35
g36
sg313
g767
sg317
g770
sS'trials.thisRepN'
p2500
I3
sS'trials_3.thisN'
p2501
I0
sg37
g47
sg30
S'z'
p2502
sS'trials.thisN'
p2503
I137
sS'trials_3.thisRepN'
p2504
I0
sg48
g12
sS'trials.thisTrialN'
p2505
I20
sg325
g153
sg321
g777
sg341
g780
sS'trials_3.thisIndex'
p2506
g103
sS'trials_3.thisTrialN'
p2507
I0
sg328
g329
sg330
g391
sg49
g50
sa(dp2508
S'trials.thisIndex'
p2509
g38
(g83
S'\x01\x00\x00\x00\x00\x00\x00\x00'
p2510
tp2511
Rp2512
sg31
F0.3527650833129883
sg35
g36
sg313
g468
sg317
g471
sS'trials.thisRepN'
p2513
I3
sS'trials_3.thisN'
p2514
I0
sg37
g47
sg30
S'z'
p2515
sS'trials.thisN'
p2516
I138
sS'trials_3.thisRepN'
p2517
I0
sg48
g12
sS'trials.thisTrialN'
p2518
I21
sg325
g153
sg321
g478
sg341
g481
sS'trials_3.thisIndex'
p2519
g103
sS'trials_3.thisTrialN'
p2520
I0
sg328
g329
sg330
g391
sg49
g50
sa(dp2521
S'trials.thisIndex'
p2522
g38
(g83
S'\x18\x00\x00\x00\x00\x00\x00\x00'
p2523
tp2524
Rp2525
sg31
F0.7030758857727051
sg35
g36
sg313
g629
sg317
g632
sS'trials.thisRepN'
p2526
I3
sS'trials_3.thisN'
p2527
I0
sg37
g47
sg30
S'slash'
p2528
sS'trials.thisN'
p2529
I139
sS'trials_3.thisRepN'
p2530
I0
sg48
g12
sS'trials.thisTrialN'
p2531
I22
sg325
g98
sg321
g639
sg341
g642
sS'trials_3.thisIndex'
p2532
g103
sS'trials_3.thisTrialN'
p2533
I0
sg328
g329
sg330
g331
sg49
g50
sa(dp2534
S'trials.thisIndex'
p2535
g38
(g83
S'"\x00\x00\x00\x00\x00\x00\x00'
p2536
tp2537
Rp2538
sg31
F1.085618019104004
sg35
g36
sg313
g1136
sg317
g1139
sS'trials.thisRepN'
p2539
I3
sS'trials_3.thisN'
p2540
I0
sg37
g47
sg30
S'slash'
p2541
sS'trials.thisN'
p2542
I140
sS'trials_3.thisRepN'
p2543
I0
sg48
g12
sS'trials.thisTrialN'
p2544
I23
sg325
g177
sg321
g1146
sg341
g1149
sS'trials_3.thisIndex'
p2545
g103
sS'trials_3.thisTrialN'
p2546
I0
sg328
g329
sg330
g391
sg49
g50
sa(dp2547
S'trials.thisIndex'
p2548
g38
(g83
S'\x08\x00\x00\x00\x00\x00\x00\x00'
p2549
tp2550
Rp2551
sg31
F0.5865709781646729
sg35
g36
sg313
g583
sg317
g586
sS'trials.thisRepN'
p2552
I3
sS'trials_3.thisN'
p2553
I0
sg37
g47
sg30
S'slash'
p2554
sS'trials.thisN'
p2555
I141
sS'trials_3.thisRepN'
p2556
I0
sg48
g12
sS'trials.thisTrialN'
p2557
I24
sg325
g153
sg321
g593
sg341
g596
sS'trials_3.thisIndex'
p2558
g103
sS'trials_3.thisTrialN'
p2559
I0
sg328
g329
sg330
g331
sg49
g50
sa(dp2560
S'trials.thisIndex'
p2561
g38
(g83
S'#\x00\x00\x00\x00\x00\x00\x00'
p2562
tp2563
Rp2564
sg31
F0.40241312980651855
sg35
g36
sg313
g1205
sg317
g1208
sS'trials.thisRepN'
p2565
I3
sS'trials_3.thisN'
p2566
I0
sg37
g47
sg30
S'slash'
p2567
sS'trials.thisN'
p2568
I142
sS'trials_3.thisRepN'
p2569
I0
sg48
g12
sS'trials.thisTrialN'
p2570
I25
sg325
g177
sg321
g1215
sg341
g1218
sS'trials_3.thisIndex'
p2571
g103
sS'trials_3.thisTrialN'
p2572
I0
sg328
g329
sg330
g331
sg49
g50
sa(dp2573
S'trials.thisIndex'
p2574
g38
(g83
S'\x1c\x00\x00\x00\x00\x00\x00\x00'
p2575
tp2576
Rp2577
sg31
F0.3696010112762451
sg35
g36
sg313
g975
sg317
g978
sS'trials.thisRepN'
p2578
I3
sS'trials_3.thisN'
p2579
I0
sg37
g47
sg30
S'z'
p2580
sS'trials.thisN'
p2581
I143
sS'trials_3.thisRepN'
p2582
I0
sg48
g12
sS'trials.thisTrialN'
p2583
I26
sg325
g177
sg321
g985
sg341
g988
sS'trials_3.thisIndex'
p2584
g103
sS'trials_3.thisTrialN'
p2585
I0
sg328
g329
sg330
g852
sg49
g50
sa(dp2586
S'trials.thisIndex'
p2587
g38
(g83
S'\x0f\x00\x00\x00\x00\x00\x00\x00'
p2588
tp2589
Rp2590
sg31
F0.46919703483581543
sg35
g36
sg313
g813
sg317
g816
sS'trials.thisRepN'
p2591
I3
sS'trials_3.thisN'
p2592
I0
sg37
g47
sg30
S'z'
p2593
sS'trials.thisN'
p2594
I144
sS'trials_3.thisRepN'
p2595
I0
sg48
g12
sS'trials.thisTrialN'
p2596
I27
sg325
g98
sg321
g823
sg341
g826
sS'trials_3.thisIndex'
p2597
g103
sS'trials_3.thisTrialN'
p2598
I0
sg328
g329
sg330
g391
sg49
g50
sa(dp2599
S'trials.thisIndex'
p2600
g38
(g83
S'\x1b\x00\x00\x00\x00\x00\x00\x00'
p2601
tp2602
Rp2603
sg31
F0.31961607933044434
sg35
g36
sg313
g906
sg317
g909
sS'trials.thisRepN'
p2604
I3
sS'trials_3.thisN'
p2605
I0
sg37
g47
sg30
S'z'
p2606
sS'trials.thisN'
p2607
I145
sS'trials_3.thisRepN'
p2608
I0
sg48
g12
sS'trials.thisTrialN'
p2609
I28
sg325
g98
sg321
g916
sg341
g919
sS'trials_3.thisIndex'
p2610
g103
sS'trials_3.thisTrialN'
p2611
I0
sg328
g329
sg330
g331
sg49
g50
sa(dp2612
S'trials.thisIndex'
p2613
g38
(g83
S'\x03\x00\x00\x00\x00\x00\x00\x00'
p2614
tp2615
Rp2616
sg31
F0.6341919898986816
sg35
g36
sg313
g560
sg317
g563
sS'trials.thisRepN'
p2617
I3
sS'trials_3.thisN'
p2618
I0
sg37
g47
sg30
S'slash'
p2619
sS'trials.thisN'
p2620
I146
sS'trials_3.thisRepN'
p2621
I0
sg48
g12
sS'trials.thisTrialN'
p2622
I29
sg325
g153
sg321
g570
sg341
g573
sS'trials_3.thisIndex'
p2623
g103
sS'trials_3.thisTrialN'
p2624
I0
sg328
g329
sg330
g391
sg49
g50
sa(dp2625
S'trials.thisIndex'
p2626
g38
(g83
S'\x07\x00\x00\x00\x00\x00\x00\x00'
p2627
tp2628
Rp2629
sg31
F0.33645105361938477
sg35
g36
sg313
g352
sg317
g355
sS'trials.thisRepN'
p2630
I3
sS'trials_3.thisN'
p2631
I0
sg37
g47
sg30
S'slash'
p2632
sS'trials.thisN'
p2633
I147
sS'trials_3.thisRepN'
p2634
I0
sg48
g12
sS'trials.thisTrialN'
p2635
I30
sg325
g153
sg321
g362
sg341
g365
sS'trials_3.thisIndex'
p2636
g103
sS'trials_3.thisTrialN'
p2637
I0
sg328
g329
sg330
g331
sg49
g50
sa(dp2638
S'trials.thisIndex'
p2639
g38
(g83
S'\x00\x00\x00\x00\x00\x00\x00\x00'
p2640
tp2641
Rp2642
sg31
F0.368927001953125
sg35
g36
sg313
g860
sg317
g863
sS'trials.thisRepN'
p2643
I3
sS'trials_3.thisN'
p2644
I0
sg37
g47
sg30
S'z'
p2645
sS'trials.thisN'
p2646
I148
sS'trials_3.thisRepN'
p2647
I0
sg48
g12
sS'trials.thisTrialN'
p2648
I31
sg325
g153
sg321
g870
sg341
g873
sS'trials_3.thisIndex'
p2649
g103
sS'trials_3.thisTrialN'
p2650
I0
sg328
g329
sg330
g852
sg49
g50
sa(dp2651
S'trials.thisIndex'
p2652
g38
(g83
S'\x1d\x00\x00\x00\x00\x00\x00\x00'
p2653
tp2654
Rp2655
sg31
F0.7197208404541016
sg35
g36
sg313
g883
sg317
g886
sS'trials.thisRepN'
p2656
I3
sS'trials_3.thisN'
p2657
I0
sg37
g47
sg30
S'z'
p2658
sS'trials.thisN'
p2659
I149
sS'trials_3.thisRepN'
p2660
I0
sg48
g12
sS'trials.thisTrialN'
p2661
I32
sg325
g177
sg321
g893
sg341
g896
sS'trials_3.thisIndex'
p2662
g103
sS'trials_3.thisTrialN'
p2663
I0
sg328
g329
sg330
g391
sg49
g50
sa(dp2664
S'trials.thisIndex'
p2665
g38
(g83
S'\x16\x00\x00\x00\x00\x00\x00\x00'
p2666
tp2667
Rp2668
sg31
F0.5030460357666016
sg35
g36
sg313
g790
sg317
g793
sS'trials.thisRepN'
p2669
I3
sS'trials_3.thisN'
p2670
I0
sg37
g47
sg30
S'slash'
p2671
sS'trials.thisN'
p2672
I150
sS'trials_3.thisRepN'
p2673
I0
sg48
g12
sS'trials.thisTrialN'
p2674
I33
sg325
g98
sg321
g800
sg341
g803
sS'trials_3.thisIndex'
p2675
g103
sS'trials_3.thisTrialN'
p2676
I0
sg328
g329
sg330
g331
sg49
g50
sa(dp2677
S'trials.thisIndex'
p2678
g38
(g83
S'\x12\x00\x00\x00\x00\x00\x00\x00'
p2679
tp2680
Rp2681
sg31
F0.8865039348602295
sg35
g36
sg313
g698
sg317
g701
sS'trials.thisRepN'
p2682
I3
sS'trials_3.thisN'
p2683
I0
sg37
g47
sg30
S'slash'
p2684
sS'trials.thisN'
p2685
I151
sS'trials_3.thisRepN'
p2686
I0
sg48
g12
sS'trials.thisTrialN'
p2687
I34
sg325
g98
sg321
g708
sg341
g711
sS'trials_3.thisIndex'
p2688
g103
sS'trials_3.thisTrialN'
p2689
I0
sg328
g329
sg330
g391
sg49
g50
sa(dp2690
S'trials.thisIndex'
p2691
g38
(g83
S'\x06\x00\x00\x00\x00\x00\x00\x00'
p2692
tp2693
Rp2694
sg31
F0.4862091541290283
sg35
g36
sg313
g1044
sg317
g1047
sS'trials.thisRepN'
p2695
I3
sS'trials_3.thisN'
p2696
I0
sg37
g47
sg30
S'slash'
p2697
sS'trials.thisN'
p2698
I152
sS'trials_3.thisRepN'
p2699
I0
sg48
g12
sS'trials.thisTrialN'
p2700
I35
sg325
g153
sg321
g1054
sg341
g1057
sS'trials_3.thisIndex'
p2701
g103
sS'trials_3.thisTrialN'
p2702
I0
sg328
g329
sg330
g391
sg49
g50
sa(dp2703
S'trials.thisIndex'
p2704
g38
(g83
S'\x17\x00\x00\x00\x00\x00\x00\x00'
p2705
tp2706
Rp2707
sg31
F0.6530628204345703
sg35
g36
sg313
g744
sg317
g747
sS'trials.thisRepN'
p2708
I3
sS'trials_3.thisN'
p2709
I0
sg37
g47
sg30
S'slash'
p2710
sS'trials.thisN'
p2711
I153
sS'trials_3.thisRepN'
p2712
I0
sg48
g12
sS'trials.thisTrialN'
p2713
I36
sg325
g98
sg321
g754
sg341
g757
sS'trials_3.thisIndex'
p2714
g103
sS'trials_3.thisTrialN'
p2715
I0
sg328
g329
sg330
g331
sg49
g50
sa(dp2716
S'trials.thisIndex'
p2717
g38
(g83
S'&\x00\x00\x00\x00\x00\x00\x00'
p2718
tp2719
Rp2720
sg31
F0.4529838562011719
sg35
g36
sg313
g1090
sg317
g1093
sS'trials.thisRepN'
p2721
I3
sS'trials_3.thisN'
p2722
I0
sg37
g47
sg30
S'z'
p2723
sS'trials.thisN'
p2724
I154
sS'trials_3.thisRepN'
p2725
I0
sg48
g12
sS'trials.thisTrialN'
p2726
I37
sg325
g177
sg321
g1100
sg341
g1103
sS'trials_3.thisIndex'
p2727
g103
sS'trials_3.thisTrialN'
p2728
I0
sg328
g329
sg330
g331
sg49
g50
sa(dp2729
S'trials.thisIndex'
p2730
g38
(g83
S'\x04\x00\x00\x00\x00\x00\x00\x00'
p2731
tp2732
Rp2733
sg31
F0.7357800006866455
sg35
g36
sg313
g606
sg317
g609
sS'trials.thisRepN'
p2734
I3
sS'trials_3.thisN'
p2735
I0
sg37
g47
sg30
S'slash'
p2736
sS'trials.thisN'
p2737
I155
sS'trials_3.thisRepN'
p2738
I0
sg48
g12
sS'trials.thisTrialN'
p2739
I38
sg325
g153
sg321
g616
sg341
g619
sS'trials_3.thisIndex'
p2740
g103
sS'trials_3.thisTrialN'
p2741
I0
sg328
g329
sg330
g391
sg49
g50
sa(dp2742
S'trials.thisIndex'
p2743
g38
(g83
S'\x02\x00\x00\x00\x00\x00\x00\x00'
p2744
tp2745
Rp2746
sg31
F0.719078779220581
sg35
g36
sg313
g767
sg317
g770
sS'trials.thisRepN'
p2747
I4
sS'trials_3.thisN'
p2748
I0
sg37
g47
sg30
S'z'
p2749
sS'trials.thisN'
p2750
I156
sS'trials_3.thisRepN'
p2751
I0
sg48
g12
sS'trials.thisTrialN'
p2752
I0
sg325
g153
sg321
g777
sg341
g780
sS'trials_3.thisIndex'
p2753
g103
sS'trials_3.thisTrialN'
p2754
I0
sg328
g329
sg330
g391
sg49
g50
sa(dp2755
S'trials.thisIndex'
p2756
g38
(g83
S'\x10\x00\x00\x00\x00\x00\x00\x00'
p2757
tp2758
Rp2759
sg31
F2.220094919204712
sg35
g36
sg313
g998
sg317
g1001
sS'trials.thisRepN'
p2760
I4
sS'trials_3.thisN'
p2761
I0
sg37
g47
sg30
S'z'
p2762
sS'trials.thisN'
p2763
I157
sS'trials_3.thisRepN'
p2764
I0
sg48
g12
sS'trials.thisTrialN'
p2765
I1
sg325
g98
sg321
g1008
sg341
g1011
sS'trials_3.thisIndex'
p2766
g103
sS'trials_3.thisTrialN'
p2767
I0
sg328
g329
sg330
g391
sg49
g50
sa(dp2768
S'trials.thisIndex'
p2769
g38
(g83
S'\x04\x00\x00\x00\x00\x00\x00\x00'
p2770
tp2771
Rp2772
sg31
F0.7359509468078613
sg35
g36
sg313
g606
sg317
g609
sS'trials.thisRepN'
p2773
I4
sS'trials_3.thisN'
p2774
I0
sg37
g47
sg30
S'slash'
p2775
sS'trials.thisN'
p2776
I158
sS'trials_3.thisRepN'
p2777
I0
sg48
g12
sS'trials.thisTrialN'
p2778
I2
sg325
g153
sg321
g616
sg341
g619
sS'trials_3.thisIndex'
p2779
g103
sS'trials_3.thisTrialN'
p2780
I0
sg328
g329
sg330
g391
sg49
g50
sa(dp2781
S'trials.thisIndex'
p2782
g38
(g83
S'\r\x00\x00\x00\x00\x00\x00\x00'
p2783
tp2784
Rp2785
sg31
F0.7339630126953125
sg35
g36
sg313
g445
sg317
g448
sS'trials.thisRepN'
p2786
I4
sS'trials_3.thisN'
p2787
I0
sg37
g47
sg30
S'z'
p2788
sS'trials.thisN'
p2789
I159
sS'trials_3.thisRepN'
p2790
I0
sg48
g12
sS'trials.thisTrialN'
p2791
I3
sg325
g153
sg321
g455
sg341
g458
sS'trials_3.thisIndex'
p2792
g103
sS'trials_3.thisTrialN'
p2793
I0
sg328
g329
sg330
g331
sg49
g50
sa(dp2794
S'trials.thisIndex'
p2795
g38
(g83
S'\x18\x00\x00\x00\x00\x00\x00\x00'
p2796
tp2797
Rp2798
sg31
F0.8032228946685791
sg35
g36
sg313
g629
sg317
g632
sS'trials.thisRepN'
p2799
I4
sS'trials_3.thisN'
p2800
I0
sg37
g47
sg30
S'slash'
p2801
sS'trials.thisN'
p2802
I160
sS'trials_3.thisRepN'
p2803
I0
sg48
g12
sS'trials.thisTrialN'
p2804
I4
sg325
g98
sg321
g639
sg341
g642
sS'trials_3.thisIndex'
p2805
g103
sS'trials_3.thisTrialN'
p2806
I0
sg328
g329
sg330
g331
sg49
g50
sa(dp2807
S'trials.thisIndex'
p2808
g38
(g83
S'\n\x00\x00\x00\x00\x00\x00\x00'
p2809
tp2810
Rp2811
sg31
F0.9008691310882568
sg35
g36
sg313
g1067
sg317
g1070
sS'trials.thisRepN'
p2812
I4
sS'trials_3.thisN'
p2813
I0
sg37
g47
sg30
S'z'
p2814
sS'trials.thisN'
p2815
I161
sS'trials_3.thisRepN'
p2816
I0
sg48
g12
sS'trials.thisTrialN'
p2817
I5
sg325
g153
sg321
g1077
sg341
g1080
sS'trials_3.thisIndex'
p2818
g103
sS'trials_3.thisTrialN'
p2819
I0
sg328
g329
sg330
g331
sg49
g50
sa(dp2820
S'trials.thisIndex'
p2821
g38
(g83
S'$\x00\x00\x00\x00\x00\x00\x00'
p2822
tp2823
Rp2824
sg31
F1.4193799495697021
sg35
g36
sg313
g721
sg317
g724
sS'trials.thisRepN'
p2825
I4
sS'trials_3.thisN'
p2826
I0
sg37
g47
sg30
S'z'
p2827
sS'trials.thisN'
p2828
I162
sS'trials_3.thisRepN'
p2829
I0
sg48
g12
sS'trials.thisTrialN'
p2830
I6
sg325
g177
sg321
g731
sg341
g734
sS'trials_3.thisIndex'
p2831
g103
sS'trials_3.thisTrialN'
p2832
I0
sg328
g329
sg330
g331
sg49
g50
sa(dp2833
S'trials.thisIndex'
p2834
g38
(g83
S'\x12\x00\x00\x00\x00\x00\x00\x00'
p2835
tp2836
Rp2837
sg31
F0.3687300682067871
sg35
g36
sg313
g698
sg317
g701
sS'trials.thisRepN'
p2838
I4
sS'trials_3.thisN'
p2839
I0
sg37
g47
sg30
S'slash'
p2840
sS'trials.thisN'
p2841
I163
sS'trials_3.thisRepN'
p2842
I0
sg48
g12
sS'trials.thisTrialN'
p2843
I7
sg325
g98
sg321
g708
sg341
g711
sS'trials_3.thisIndex'
p2844
g103
sS'trials_3.thisTrialN'
p2845
I0
sg328
g329
sg330
g391
sg49
g50
sa(dp2846
S'trials.thisIndex'
p2847
g38
(g83
S'\x17\x00\x00\x00\x00\x00\x00\x00'
p2848
tp2849
Rp2850
sg31
F0.6693730354309082
sg35
g36
sg313
g744
sg317
g747
sS'trials.thisRepN'
p2851
I4
sS'trials_3.thisN'
p2852
I0
sg37
g47
sg30
S'slash'
p2853
sS'trials.thisN'
p2854
I164
sS'trials_3.thisRepN'
p2855
I0
sg48
g12
sS'trials.thisTrialN'
p2856
I8
sg325
g98
sg321
g754
sg341
g757
sS'trials_3.thisIndex'
p2857
g103
sS'trials_3.thisTrialN'
p2858
I0
sg328
g329
sg330
g331
sg49
g50
sa(dp2859
S'trials.thisIndex'
p2860
g38
(g83
S' \x00\x00\x00\x00\x00\x00\x00'
p2861
tp2862
Rp2863
sg31
F0.6186239719390869
sg35
g36
sg313
g375
sg317
g378
sS'trials.thisRepN'
p2864
I4
sS'trials_3.thisN'
p2865
I0
sg37
g47
sg30
S'slash'
p2866
sS'trials.thisN'
p2867
I165
sS'trials_3.thisRepN'
p2868
I0
sg48
g12
sS'trials.thisTrialN'
p2869
I9
sg325
g177
sg321
g385
sg341
g388
sS'trials_3.thisIndex'
p2870
g103
sS'trials_3.thisTrialN'
p2871
I0
sg328
g329
sg330
g391
sg49
g50
sa(dp2872
S'trials.thisIndex'
p2873
g38
(g83
S'\x0f\x00\x00\x00\x00\x00\x00\x00'
p2874
tp2875
Rp2876
sg31
F0.46758317947387695
sg35
g36
sg313
g813
sg317
g816
sS'trials.thisRepN'
p2877
I4
sS'trials_3.thisN'
p2878
I0
sg37
g47
sg30
S'z'
p2879
sS'trials.thisN'
p2880
I166
sS'trials_3.thisRepN'
p2881
I0
sg48
g12
sS'trials.thisTrialN'
p2882
I10
sg325
g98
sg321
g823
sg341
g826
sS'trials_3.thisIndex'
p2883
g103
sS'trials_3.thisTrialN'
p2884
I0
sg328
g329
sg330
g391
sg49
g50
sa(dp2885
S'trials.thisIndex'
p2886
g38
(g83
S'\x1e\x00\x00\x00\x00\x00\x00\x00'
p2887
tp2888
Rp2889
sg31
F0.35262298583984375
sg35
g36
sg313
g514
sg317
g517
sS'trials.thisRepN'
p2890
I4
sS'trials_3.thisN'
p2891
I0
sg37
g47
sg30
S'slash'
p2892
sS'trials.thisN'
p2893
I167
sS'trials_3.thisRepN'
p2894
I0
sg48
g12
sS'trials.thisTrialN'
p2895
I11
sg325
g177
sg321
g524
sg341
g527
sS'trials_3.thisIndex'
p2896
g103
sS'trials_3.thisTrialN'
p2897
I0
sg328
g329
sg330
g391
sg49
g50
sa(dp2898
S'trials.thisIndex'
p2899
g38
(g83
S'\x06\x00\x00\x00\x00\x00\x00\x00'
p2900
tp2901
Rp2902
sg31
F0.5174739360809326
sg35
g36
sg313
g1044
sg317
g1047
sS'trials.thisRepN'
p2903
I4
sS'trials_3.thisN'
p2904
I0
sg37
g47
sg30
S'slash'
p2905
sS'trials.thisN'
p2906
I168
sS'trials_3.thisRepN'
p2907
I0
sg48
g12
sS'trials.thisTrialN'
p2908
I12
sg325
g153
sg321
g1054
sg341
g1057
sS'trials_3.thisIndex'
p2909
g103
sS'trials_3.thisTrialN'
p2910
I0
sg328
g329
sg330
g391
sg49
g50
sa(dp2911
S'trials.thisIndex'
p2912
g38
(g83
S'\x0b\x00\x00\x00\x00\x00\x00\x00'
p2913
tp2914
Rp2915
sg31
F1.2694220542907715
sg35
g36
sg313
g675
sg317
g678
sS'trials.thisRepN'
p2916
I4
sS'trials_3.thisN'
p2917
I0
sg37
g47
sg30
S'slash'
p2918
sS'trials.thisN'
p2919
I169
sS'trials_3.thisRepN'
p2920
I0
sg48
g12
sS'trials.thisTrialN'
p2921
I13
sg325
g153
sg321
g685
sg341
g688
sS'trials_3.thisIndex'
p2922
g103
sS'trials_3.thisTrialN'
p2923
I0
sg328
g329
sg330
g331
sg49
g50
sa(dp2924
S'trials.thisIndex'
p2925
g38
(g83
S'#\x00\x00\x00\x00\x00\x00\x00'
p2926
tp2927
Rp2928
sg31
F0.6506140232086182
sg35
g36
sg313
g1205
sg317
g1208
sS'trials.thisRepN'
p2929
I4
sS'trials_3.thisN'
p2930
I0
sg37
g47
sg30
S'slash'
p2931
sS'trials.thisN'
p2932
I170
sS'trials_3.thisRepN'
p2933
I0
sg48
g12
sS'trials.thisTrialN'
p2934
I14
sg325
g177
sg321
g1215
sg341
g1218
sS'trials_3.thisIndex'
p2935
g103
sS'trials_3.thisTrialN'
p2936
I0
sg328
g329
sg330
g331
sg49
g50
sa(dp2937
S'trials.thisIndex'
p2938
g38
(g83
S'\x1a\x00\x00\x00\x00\x00\x00\x00'
p2939
tp2940
Rp2941
sg31
F0.4021918773651123
sg35
g36
sg313
g316
sg317
g320
sS'trials.thisRepN'
p2942
I4
sS'trials_3.thisN'
p2943
I0
sg37
g47
sg30
S'z'
p2944
sS'trials.thisN'
p2945
I171
sS'trials_3.thisRepN'
p2946
I0
sg48
g12
sS'trials.thisTrialN'
p2947
I15
sg325
g98
sg321
g322
sg341
g344
sS'trials_3.thisIndex'
p2948
g103
sS'trials_3.thisTrialN'
p2949
I0
sg328
g329
sg330
g331
sg49
g50
sa(dp2950
S'trials.thisIndex'
p2951
g38
(g83
S'\x19\x00\x00\x00\x00\x00\x00\x00'
p2952
tp2953
Rp2954
sg31
F0.4838290214538574
sg35
g36
sg313
g1113
sg317
g1116
sS'trials.thisRepN'
p2955
I4
sS'trials_3.thisN'
p2956
I0
sg37
g47
sg30
S'z'
p2957
sS'trials.thisN'
p2958
I172
sS'trials_3.thisRepN'
p2959
I0
sg48
g12
sS'trials.thisTrialN'
p2960
I16
sg325
g98
sg321
g1123
sg341
g1126
sS'trials_3.thisIndex'
p2961
g103
sS'trials_3.thisTrialN'
p2962
I0
sg328
g329
sg330
g331
sg49
g50
sa(dp2963
S'trials.thisIndex'
p2964
g38
(g83
S'"\x00\x00\x00\x00\x00\x00\x00'
p2965
tp2966
Rp2967
sg31
F0.23618698120117188
sg35
g36
sg313
g1136
sg317
g1139
sS'trials.thisRepN'
p2968
I4
sS'trials_3.thisN'
p2969
I0
sg37
g47
sg30
S'slash'
p2970
sS'trials.thisN'
p2971
I173
sS'trials_3.thisRepN'
p2972
I0
sg48
g12
sS'trials.thisTrialN'
p2973
I17
sg325
g177
sg321
g1146
sg341
g1149
sS'trials_3.thisIndex'
p2974
g103
sS'trials_3.thisTrialN'
p2975
I0
sg328
g329
sg330
g391
sg49
g50
sa(dp2976
S'trials.thisIndex'
p2977
g38
(g83
S'\x08\x00\x00\x00\x00\x00\x00\x00'
p2978
tp2979
Rp2980
sg31
F0.9700698852539062
sg35
g36
sg313
g583
sg317
g586
sS'trials.thisRepN'
p2981
I4
sS'trials_3.thisN'
p2982
I0
sg37
g47
sg30
S'slash'
p2983
sS'trials.thisN'
p2984
I174
sS'trials_3.thisRepN'
p2985
I0
sg48
g12
sS'trials.thisTrialN'
p2986
I18
sg325
g153
sg321
g593
sg341
g596
sS'trials_3.thisIndex'
p2987
g103
sS'trials_3.thisTrialN'
p2988
I0
sg328
g329
sg330
g331
sg49
g50
sa(dp2989
S'trials.thisIndex'
p2990
g38
(g83
S'\x13\x00\x00\x00\x00\x00\x00\x00'
p2991
tp2992
Rp2993
sg31
F0.469372034072876
sg35
g36
sg313
g952
sg317
g955
sS'trials.thisRepN'
p2994
I4
sS'trials_3.thisN'
p2995
I0
sg37
g47
sg30
S'slash'
p2996
sS'trials.thisN'
p2997
I175
sS'trials_3.thisRepN'
p2998
I0
sg48
g12
sS'trials.thisTrialN'
p2999
I19
sg325
g98
sg321
g962
sg341
g965
sS'trials_3.thisIndex'
p3000
g103
sS'trials_3.thisTrialN'
p3001
I0
sg328
g329
sg330
g391
sg49
g50
sa(dp3002
S'trials.thisIndex'
p3003
g38
(g83
S'%\x00\x00\x00\x00\x00\x00\x00'
p3004
tp3005
Rp3006
sg31
F1.1342699527740479
sg35
g36
sg313
g1182
sg317
g1185
sS'trials.thisRepN'
p3007
I4
sS'trials_3.thisN'
p3008
I0
sg37
g47
sg30
S'slash'
p3009
sS'trials.thisN'
p3010
I176
sS'trials_3.thisRepN'
p3011
I0
sg48
g12
sS'trials.thisTrialN'
p3012
I20
sg325
g177
sg321
g1192
sg341
g1195
sS'trials_3.thisIndex'
p3013
g103
sS'trials_3.thisTrialN'
p3014
I0
sg328
g329
sg330
g331
sg49
g50
sa(dp3015
S'trials.thisIndex'
p3016
g38
(g83
S'\x15\x00\x00\x00\x00\x00\x00\x00'
p3017
tp3018
Rp3019
sg31
F1.385542869567871
sg35
g36
sg313
g652
sg317
g655
sS'trials.thisRepN'
p3020
I4
sS'trials_3.thisN'
p3021
I0
sg37
g47
sg30
S'slash'
p3022
sS'trials.thisN'
p3023
I177
sS'trials_3.thisRepN'
p3024
I0
sg48
g12
sS'trials.thisTrialN'
p3025
I21
sg325
g98
sg321
g662
sg341
g665
sS'trials_3.thisIndex'
p3026
g103
sS'trials_3.thisTrialN'
p3027
I0
sg328
g329
sg330
g331
sg49
g50
sa(dp3028
S'trials.thisIndex'
p3029
g38
(g83
S'\x05\x00\x00\x00\x00\x00\x00\x00'
p3030
tp3031
Rp3032
sg31
F0.7853090763092041
sg35
g36
sg313
g1021
sg317
g1024
sS'trials.thisRepN'
p3033
I4
sS'trials_3.thisN'
p3034
I0
sg37
g47
sg30
S'slash'
p3035
sS'trials.thisN'
p3036
I178
sS'trials_3.thisRepN'
p3037
I0
sg48
g12
sS'trials.thisTrialN'
p3038
I22
sg325
g153
sg321
g1031
sg341
g1034
sS'trials_3.thisIndex'
p3039
g103
sS'trials_3.thisTrialN'
p3040
I0
sg328
g329
sg330
g391
sg49
g50
sa(dp3041
S'trials.thisIndex'
p3042
g38
(g83
S'\x11\x00\x00\x00\x00\x00\x00\x00'
p3043
tp3044
Rp3045
sg31
F2.3373329639434814
sg35
g36
sg313
g929
sg317
g932
sS'trials.thisRepN'
p3046
I4
sS'trials_3.thisN'
p3047
I0
sg37
g47
sg30
S'z'
p3048
sS'trials.thisN'
p3049
I179
sS'trials_3.thisRepN'
p3050
I0
sg48
g12
sS'trials.thisTrialN'
p3051
I23
sg325
g98
sg321
g939
sg341
g942
sS'trials_3.thisIndex'
p3052
g103
sS'trials_3.thisTrialN'
p3053
I0
sg328
g329
sg330
g391
sg49
g50
sa(dp3054
S'trials.thisIndex'
p3055
g38
(g83
S'\x1d\x00\x00\x00\x00\x00\x00\x00'
p3056
tp3057
Rp3058
sg31
F0.7197999954223633
sg35
g36
sg313
g883
sg317
g886
sS'trials.thisRepN'
p3059
I4
sS'trials_3.thisN'
p3060
I0
sg37
g47
sg30
S'z'
p3061
sS'trials.thisN'
p3062
I180
sS'trials_3.thisRepN'
p3063
I0
sg48
g12
sS'trials.thisTrialN'
p3064
I24
sg325
g177
sg321
g893
sg341
g896
sS'trials_3.thisIndex'
p3065
g103
sS'trials_3.thisTrialN'
p3066
I0
sg328
g329
sg330
g391
sg49
g50
sa(dp3067
S'trials.thisIndex'
p3068
g38
(g83
S'\x0e\x00\x00\x00\x00\x00\x00\x00'
p3069
tp3070
Rp3071
sg31
F0.36946606636047363
sg35
g36
sg313
g836
sg317
g839
sS'trials.thisRepN'
p3072
I4
sS'trials_3.thisN'
p3073
I0
sg37
g47
sg30
S'z'
p3074
sS'trials.thisN'
p3075
I181
sS'trials_3.thisRepN'
p3076
I0
sg48
g12
sS'trials.thisTrialN'
p3077
I25
sg325
g98
sg321
g846
sg341
g849
sS'trials_3.thisIndex'
p3078
g103
sS'trials_3.thisTrialN'
p3079
I0
sg328
g329
sg330
g852
sg49
g50
sa(dp3080
S'trials.thisIndex'
p3081
g38
(g83
S'\x1b\x00\x00\x00\x00\x00\x00\x00'
p3082
tp3083
Rp3084
sg31
F0.26961398124694824
sg35
g36
sg313
g906
sg317
g909
sS'trials.thisRepN'
p3085
I4
sS'trials_3.thisN'
p3086
I0
sg37
g47
sg30
S'z'
p3087
sS'trials.thisN'
p3088
I182
sS'trials_3.thisRepN'
p3089
I0
sg48
g12
sS'trials.thisTrialN'
p3090
I26
sg325
g98
sg321
g916
sg341
g919
sS'trials_3.thisIndex'
p3091
g103
sS'trials_3.thisTrialN'
p3092
I0
sg328
g329
sg330
g331
sg49
g50
sa(dp3093
S'trials.thisIndex'
p3094
g38
(g83
S'\x07\x00\x00\x00\x00\x00\x00\x00'
p3095
tp3096
Rp3097
sg31
F0.6532180309295654
sg35
g36
sg313
g352
sg317
g355
sS'trials.thisRepN'
p3098
I4
sS'trials_3.thisN'
p3099
I0
sg37
g47
sg30
S'slash'
p3100
sS'trials.thisN'
p3101
I183
sS'trials_3.thisRepN'
p3102
I0
sg48
g12
sS'trials.thisTrialN'
p3103
I27
sg325
g153
sg321
g362
sg341
g365
sS'trials_3.thisIndex'
p3104
g103
sS'trials_3.thisTrialN'
p3105
I0
sg328
g329
sg330
g331
sg49
g50
sa(dp3106
S'trials.thisIndex'
p3107
g38
(g83
S'\x1f\x00\x00\x00\x00\x00\x00\x00'
p3108
tp3109
Rp3110
sg31
F0.9533398151397705
sg35
g36
sg313
g399
sg317
g402
sS'trials.thisRepN'
p3111
I4
sS'trials_3.thisN'
p3112
I0
sg37
g47
sg30
S'slash'
p3113
sS'trials.thisN'
p3114
I184
sS'trials_3.thisRepN'
p3115
I0
sg48
g12
sS'trials.thisTrialN'
p3116
I28
sg325
g177
sg321
g409
sg341
g412
sS'trials_3.thisIndex'
p3117
g103
sS'trials_3.thisTrialN'
p3118
I0
sg328
g329
sg330
g391
sg49
g50
sa(dp3119
S'trials.thisIndex'
p3120
g38
(g83
S'\x03\x00\x00\x00\x00\x00\x00\x00'
p3121
tp3122
Rp3123
sg31
F1.051285982131958
sg35
g36
sg313
g560
sg317
g563
sS'trials.thisRepN'
p3124
I4
sS'trials_3.thisN'
p3125
I0
sg37
g47
sg30
S'z'
p3126
sS'trials.thisN'
p3127
I185
sS'trials_3.thisRepN'
p3128
I0
sg48
g12
sS'trials.thisTrialN'
p3129
I29
sg325
g153
sg321
g570
sg341
g573
sS'trials_3.thisIndex'
p3130
g103
sS'trials_3.thisTrialN'
p3131
I0
sg328
g329
sg330
g391
sg49
g50
sa(dp3132
S'trials.thisIndex'
p3133
g38
(g83
S'&\x00\x00\x00\x00\x00\x00\x00'
p3134
tp3135
Rp3136
sg31
F0.5357241630554199
sg35
g36
sg313
g1090
sg317
g1093
sS'trials.thisRepN'
p3137
I4
sS'trials_3.thisN'
p3138
I0
sg37
g47
sg30
S'z'
p3139
sS'trials.thisN'
p3140
I186
sS'trials_3.thisRepN'
p3141
I0
sg48
g12
sS'trials.thisTrialN'
p3142
I30
sg325
g177
sg321
g1100
sg341
g1103
sS'trials_3.thisIndex'
p3143
g103
sS'trials_3.thisTrialN'
p3144
I0
sg328
g329
sg330
g331
sg49
g50
sa(dp3145
S'trials.thisIndex'
p3146
g38
(g83
S'\x14\x00\x00\x00\x00\x00\x00\x00'
p3147
tp3148
Rp3149
sg31
F1.3194530010223389
sg35
g36
sg313
g537
sg317
g540
sS'trials.thisRepN'
p3150
I4
sS'trials_3.thisN'
p3151
I0
sg37
g47
sg30
S'slash'
p3152
sS'trials.thisN'
p3153
I187
sS'trials_3.thisRepN'
p3154
I0
sg48
g12
sS'trials.thisTrialN'
p3155
I31
sg325
g98
sg321
g547
sg341
g550
sS'trials_3.thisIndex'
p3156
g103
sS'trials_3.thisTrialN'
p3157
I0
sg328
g329
sg330
g391
sg49
g50
sa(dp3158
S'trials.thisIndex'
p3159
g38
(g83
S'\x1c\x00\x00\x00\x00\x00\x00\x00'
p3160
tp3161
Rp3162
sg31
F0.2695751190185547
sg35
g36
sg313
g975
sg317
g978
sS'trials.thisRepN'
p3163
I4
sS'trials_3.thisN'
p3164
I0
sg37
g47
sg30
S'z'
p3165
sS'trials.thisN'
p3166
I188
sS'trials_3.thisRepN'
p3167
I0
sg48
g12
sS'trials.thisTrialN'
p3168
I32
sg325
g177
sg321
g985
sg341
g988
sS'trials_3.thisIndex'
p3169
g103
sS'trials_3.thisTrialN'
p3170
I0
sg328
g329
sg330
g852
sg49
g50
sa(dp3171
S'trials.thisIndex'
p3172
g38
(g83
S'\x01\x00\x00\x00\x00\x00\x00\x00'
p3173
tp3174
Rp3175
sg31
F0.5347471237182617
sg35
g36
sg313
g468
sg317
g471
sS'trials.thisRepN'
p3176
I4
sS'trials_3.thisN'
p3177
I0
sg37
g47
sg30
S'z'
p3178
sS'trials.thisN'
p3179
I189
sS'trials_3.thisRepN'
p3180
I0
sg48
g12
sS'trials.thisTrialN'
p3181
I33
sg325
g153
sg321
g478
sg341
g481
sS'trials_3.thisIndex'
p3182
g103
sS'trials_3.thisTrialN'
p3183
I0
sg328
g329
sg330
g391
sg49
g50
sa(dp3184
S'trials.thisIndex'
p3185
g38
(g83
S'\t\x00\x00\x00\x00\x00\x00\x00'
p3186
tp3187
Rp3188
sg31
F0.5363559722900391
sg35
g36
sg313
g491
sg317
g494
sS'trials.thisRepN'
p3189
I4
sS'trials_3.thisN'
p3190
I0
sg37
g47
sg30
S'slash'
p3191
sS'trials.thisN'
p3192
I190
sS'trials_3.thisRepN'
p3193
I0
sg48
g12
sS'trials.thisTrialN'
p3194
I34
sg325
g153
sg321
g501
sg341
g504
sS'trials_3.thisIndex'
p3195
g103
sS'trials_3.thisTrialN'
p3196
I0
sg328
g329
sg330
g331
sg49
g50
sa(dp3197
S'trials.thisIndex'
p3198
g38
(g83
S'\x00\x00\x00\x00\x00\x00\x00\x00'
p3199
tp3200
Rp3201
sg31
F0.3356781005859375
sg35
g36
sg313
g860
sg317
g863
sS'trials.thisRepN'
p3202
I4
sS'trials_3.thisN'
p3203
I0
sg37
g47
sg30
S'z'
p3204
sS'trials.thisN'
p3205
I191
sS'trials_3.thisRepN'
p3206
I0
sg48
g12
sS'trials.thisTrialN'
p3207
I35
sg325
g153
sg321
g870
sg341
g873
sS'trials_3.thisIndex'
p3208
g103
sS'trials_3.thisTrialN'
p3209
I0
sg328
g329
sg330
g852
sg49
g50
sa(dp3210
S'trials.thisIndex'
p3211
g38
(g83
S'\x0c\x00\x00\x00\x00\x00\x00\x00'
p3212
tp3213
Rp3214
sg31
F0.3370540142059326
sg35
g36
sg313
g1159
sg317
g1162
sS'trials.thisRepN'
p3215
I4
sS'trials_3.thisN'
p3216
I0
sg37
g47
sg30
S'z'
p3217
sS'trials.thisN'
p3218
I192
sS'trials_3.thisRepN'
p3219
I0
sg48
g12
sS'trials.thisTrialN'
p3220
I36
sg325
g153
sg321
g1169
sg341
g1172
sS'trials_3.thisIndex'
p3221
g103
sS'trials_3.thisTrialN'
p3222
I0
sg328
g329
sg330
g331
sg49
g50
sa(dp3223
S'trials.thisIndex'
p3224
g38
(g83
S'\x16\x00\x00\x00\x00\x00\x00\x00'
p3225
tp3226
Rp3227
sg31
F0.3358778953552246
sg35
g36
sg313
g790
sg317
g793
sS'trials.thisRepN'
p3228
I4
sS'trials_3.thisN'
p3229
I0
sg37
g47
sg30
S'slash'
p3230
sS'trials.thisN'
p3231
I193
sS'trials_3.thisRepN'
p3232
I0
sg48
g12
sS'trials.thisTrialN'
p3233
I37
sg325
g98
sg321
g800
sg341
g803
sS'trials_3.thisIndex'
p3234
g103
sS'trials_3.thisTrialN'
p3235
I0
sg328
g329
sg330
g331
sg49
g50
sa(dp3236
S'trials.thisIndex'
p3237
g38
(g83
S'!\x00\x00\x00\x00\x00\x00\x00'
p3238
tp3239
Rp3240
sg31
F0.5172789096832275
sg35
g36
sg313
g422
sg317
g425
sS'trials.thisRepN'
p3241
I4
sS'trials_3.thisN'
p3242
I0
sg37
g47
sg30
S'slash'
p3243
sS'trials.thisN'
p3244
I194
sS'trials_3.thisRepN'
p3245
I0
sg48
g12
sS'trials.thisTrialN'
p3246
I38
sg325
g177
sg321
g432
sg341
g435
sS'trials_3.thisIndex'
p3247
g103
sS'trials_3.thisTrialN'
p3248
I0
sg328
g329
sg330
g391
sg49
g50
sa(dp3249
g49
g50
sS'trials_3.thisN'
p3250
I0
sg37
g47
sS'trials_3.thisRepN'
p3251
I0
sg48
g12
sg35
g36
sS'trials_3.thisIndex'
p3252
g103
sS'trials_3.thisTrialN'
p3253
I0
sasS'loops'
p3254
(lp3255
g0
(cpsychopy.data.trial
TrialHandler
p3256
g2
Ntp3257
Rp3258
(dp3259
S'origin'
p3260
NsS'thisTrial'
p3261
(lp3262
sS'_exp'
p3263
I4576718032
sg11
S'trials_3'
p3264
sg6
I-1
sS'thisRepN'
p3265
I1
sg32
I01
sg33
g34
sS'data'
p3266
g0
(cpsychopy.data.base
DataHandler
p3267
c__builtin__
dict
p3268
(dp3269
S'ran'
p3270
cnumpy.ma.core
_mareconstruct
p3271
(cnumpy.ma.core
MaskedArray
p3272
cnumpy
ndarray
p3273
(I0
tp3274
S'b'
p3275
tp3276
Rp3277
(I1
(I1
I1
tp3278
g39
(S'f4'
p3279
I0
I1
tp3280
Rp3281
(I3
S'<'
p3282
NNNI-1
I-1
I0
tp3283
bI00
S'\x00\x00\x80?'
p3284
S'\x00'
p3285
Ntp3286
bsg28
cnumpy.core.multiarray
_reconstruct
p3287
(g3273
(I0
tp3288
g3275
tp3289
Rp3290
(I1
(I1
I1
tp3291
g39
(S'O8'
p3292
I0
I1
tp3293
Rp3294
(I3
S'|'
p3295
NNNI-1
I-1
I63
tp3296
bI00
(lp3297
g336
atp3298
bsg29
g3271
(g3272
g3273
g3274
g3275
tp3299
Rp3300
(I1
(I1
I1
tp3301
g3281
I00
S'\xa8Sq@'
p3302
g3285
Ntp3303
bsS'order'
p3304
g3271
(g3272
g3273
g3274
g3275
tp3305
Rp3306
(I1
(I1
I1
tp3307
g3281
I00
S'\x00\x00\x00\x00'
p3308
g3285
Ntp3309
bstp3310
Rp3311
(dp3312
S'isNumeric'
p3313
(dp3314
g3270
I01
sg28
I00
sg29
I01
sg3304
I01
ssS'trials'
p3315
g3258
sS'dataTypes'
p3316
(lp3317
g3270
ag3304
ag28
ag29
asS'dataShape'
p3318
(lp3319
I1
aI1
asbsS'method'
p3320
S'random'
p3321
sS'sequenceIndices'
p3322
g3287
(g3273
(I0
tp3323
g3275
tp3324
Rp3325
(I1
(I1
I1
tp3326
g83
I00
S'\x00\x00\x00\x00\x00\x00\x00\x00'
p3327
tp3328
bsS'finished'
p3329
I01
sS'nReps'
p3330
I1
sS'nRemaining'
p3331
I-1
sS'trialList'
p3332
(lp3333
NasS'seed'
p3334
NsS'thisIndex'
p3335
g103
sS'thisN'
p3336
I1
sS'thisTrialN'
p3337
I0
sS'nTotal'
p3338
I1
sbag0
(g3256
g2
Ntp3339
Rp3340
(dp3341
g3260
Nsg3261
(lp3342
sg3263
I4576718032
sg11
S'trials_2'
p3343
sg6
I-1
sg3265
I2
sg32
I01
sg33
g34
sg3266
g0
(g3267
g3268
(dp3344
g3270
g3271
(g3272
g3273
g3274
g3275
tp3345
Rp3346
(I1
(I6
I2
tp3347
g3281
I00
S'\x00\x00\x80?\x00\x00\x80?\x00\x00\x80?\x00\x00\x80?\x00\x00\x80?\x00\x00\x80?\x00\x00\x80?\x00\x00\x80?\x00\x00\x80?\x00\x00\x80?\x00\x00\x80?\x00\x00\x80?'
p3348
S'\x00\x00\x00\x00\x00\x00\x00\x00\x00\x00\x00\x00'
p3349
Ntp3350
bsg25
g3287
(g3273
(I0
tp3351
g3275
tp3352
Rp3353
(I1
(I6
I2
tp3354
g3294
I00
(lp3355
g201
ag253
ag154
ag292
ag128
ag266
ag99
ag240
ag178
ag279
ag224
ag305
atp3356
bsg26
g3271
(g3272
g3273
g3274
g3275
tp3357
Rp3358
(I1
(I6
I2
tp3359
g3281
I00
S'\x00\x00\x80?\x00\x00\x80?\x00\x00\x80?\x00\x00\x80?\x00\x00\x80?\x00\x00\x80?\x00\x00\x80?\x00\x00\x80?\x00\x00\x80?\x00\x00\x80?\x00\x00\x80?\x00\x00\x80?'
p3360
S'\x00\x00\x00\x00\x00\x00\x00\x00\x00\x00\x00\x00'
p3361
Ntp3362
bsg3304
g3271
(g3272
g3273
g3274
g3275
tp3363
Rp3364
(I1
(I6
I2
tp3365
g3281
I00
S'\x00\x00\x80@\x00\x00\xe0@\x00\x00\x00@\x00\x00 A\x00\x00\x80?\x00\x00\x00A\x00\x00\x00\x00\x00\x00\xc0@\x00\x00@@\x00\x00\x10A\x00\x00\xa0@\x00\x000A'
p3366
S'\x00\x00\x00\x00\x00\x00\x00\x00\x00\x00\x00\x00'
p3367
Ntp3368
bsg27
g3271
(g3272
g3273
g3274
g3275
tp3369
Rp3370
(I1
(I6
I2
tp3371
g3281
I00
S'\x1848?\\\xa7\x1e?4j\x1a?`\x8e\xe7>\xc0\x15\xf0>\xe0\xb4\xf8><\xd1\xb7?\x98\xf5b?\xf4\xd3\x00?(\xfb3?\x10\xed3?\x90\xe8"?'
p3372
S'\x00\x00\x00\x00\x00\x00\x00\x00\x00\x00\x00\x00'
p3373
Ntp3374
bstp3375
Rp3376
(dp3377
g3313
(dp3378
g3270
I01
sg25
I00
sg26
I01
sg3304
I01
sg27
I01
ssg3315
g3340
sg3316
(lp3379
g3270
ag3304
ag25
ag26
ag27
asg3318
(lp3380
I6
aI2
asbsg3320
g3321
sg3322
g3287
(g3273
(I0
tp3381
g3275
tp3382
Rp3383
(I1
(I6
I2
tp3384
g83
I01
S'\x03\x00\x00\x00\x00\x00\x00\x00\x02\x00\x00\x00\x00\x00\x00\x00\x01\x00\x00\x00\x00\x00\x00\x00\x04\x00\x00\x00\x00\x00\x00\x00\x00\x00\x00\x00\x00\x00\x00\x00\x05\x00\x00\x00\x00\x00\x00\x00\x03\x00\x00\x00\x00\x00\x00\x00\x00\x00\x00\x00\x00\x00\x00\x00\x02\x00\x00\x00\x00\x00\x00\x00\x04\x00\x00\x00\x00\x00\x00\x00\x01\x00\x00\x00\x00\x00\x00\x00\x05\x00\x00\x00\x00\x00\x00\x00'
p3385
tp3386
bsg3329
I01
sg3330
I2
sg3331
I-1
sg3332
(lp3387
g0
(cpsychopy.data.trial
TrialType
p3388
g3268
(dp3389
g60
g206
sg61
g191
sg62
g194
sg63
g195
sg64
g153
sg65
g138
sg66
g105
sg67
g131
stp3390
Rp3391
ag0
(g3388
g3268
(dp3392
g60
g159
sg61
g143
sg62
g146
sg63
g147
sg64
g153
sg65
g113
sg66
g105
sg67
g106
stp3393
Rp3394
ag0
(g3388
g3268
(dp3395
g60
g134
sg61
g118
sg62
g121
sg63
g122
sg64
g98
sg65
g138
sg66
g105
sg67
g131
stp3396
Rp3397
ag0
(g3388
g3268
(dp3398
g60
g109
sg61
g88
sg62
g91
sg63
g92
sg64
g98
sg65
g113
sg66
g105
sg67
g106
stp3399
Rp3400
ag0
(g3388
g3268
(dp3401
g60
g183
sg61
g167
sg62
g170
sg63
g171
sg64
g177
sg65
g138
sg66
g105
sg67
g131
stp3402
Rp3403
ag0
(g3388
g3268
(dp3404
g60
g229
sg61
g214
sg62
g217
sg63
g218
sg64
g177
sg65
g113
sg66
g105
sg67
g106
stp3405
Rp3406
asg3334
Nsg3335
g304
sg3336
I12
sg3337
I0
sg3338
I12
sbag0
(g3256
g2
Ntp3407
Rp3408
(dp3409
g3260
Nsg3261
(lp3410
sg3263
I4576718032
sg11
g3315
sg6
I-1
sg3265
I5
sg32
I01
sg33
g34
sg3266
g0
(g3267
g3268
(dp3411
g3270
g3271
(g3272
g3273
g3274
g3275
tp3412
Rp3413
(I1
(I39
I5
tp3414
g3281
I00
S'\x00\x00\x80?\x00\x00\x80?\x00\x00\x80?\x00\x00\x80?\x00\x00\x80?\x00\x00\x80?\x00\x00\x80?\x00\x00\x80?\x00\x00\x80?\x00\x00\x80?\x00\x00\x80?\x00\x00\x80?\x00\x00\x80?\x00\x00\x80?\x00\x00\x80?\x00\x00\x80?\x00\x00\x80?\x00\x00\x80?\x00\x00\x80?\x00\x00\x80?\x00\x00\x80?\x00\x00\x80?\x00\x00\x80?\x00\x00\x80?\x00\x00\x80?\x00\x00\x80?\x00\x00\x80?\x00\x00\x80?\x00\x00\x80?\x00\x00\x80?\x00\x00\x80?\x00\x00\x80?\x00\x00\x80?\x00\x00\x80?\x00\x00\x80?\x00\x00\x80?\x00\x00\x80?\x00\x00\x80?\x00\x00\x80?\x00\x00\x80?\x00\x00\x80?\x00\x00\x80?\x00\x00\x80?\x00\x00\x80?\x00\x00\x80?\x00\x00\x80?\x00\x00\x80?\x00\x00\x80?\x00\x00\x80?\x00\x00\x80?\x00\x00\x80?\x00\x00\x80?\x00\x00\x80?\x00\x00\x80?\x00\x00\x80?\x00\x00\x80?\x00\x00\x80?\x00\x00\x80?\x00\x00\x80?\x00\x00\x80?\x00\x00\x80?\x00\x00\x80?\x00\x00\x80?\x00\x00\x80?\x00\x00\x80?\x00\x00\x80?\x00\x00\x80?\x00\x00\x80?\x00\x00\x80?\x00\x00\x80?\x00\x00\x80?\x00\x00\x80?\x00\x00\x80?\x00\x00\x80?\x00\x00\x80?\x00\x00\x80?\x00\x00\x80?\x00\x00\x80?\x00\x00\x80?\x00\x00\x80?\x00\x00\x80?\x00\x00\x80?\x00\x00\x80?\x00\x00\x80?\x00\x00\x80?\x00\x00\x80?\x00\x00\x80?\x00\x00\x80?\x00\x00\x80?\x00\x00\x80?\x00\x00\x80?\x00\x00\x80?\x00\x00\x80?\x00\x00\x80?\x00\x00\x80?\x00\x00\x80?\x00\x00\x80?\x00\x00\x80?\x00\x00\x80?\x00\x00\x80?\x00\x00\x80?\x00\x00\x80?\x00\x00\x80?\x00\x00\x80?\x00\x00\x80?\x00\x00\x80?\x00\x00\x80?\x00\x00\x80?\x00\x00\x80?\x00\x00\x80?\x00\x00\x80?\x00\x00\x80?\x00\x00\x80?\x00\x00\x80?\x00\x00\x80?\x00\x00\x80?\x00\x00\x80?\x00\x00\x80?\x00\x00\x80?\x00\x00\x80?\x00\x00\x80?\x00\x00\x80?\x00\x00\x80?\x00\x00\x80?\x00\x00\x80?\x00\x00\x80?\x00\x00\x80?\x00\x00\x80?\x00\x00\x80?\x00\x00\x80?\x00\x00\x80?\x00\x00\x80?\x00\x00\x80?\x00\x00\x80?\x00\x00\x80?\x00\x00\x80?\x00\x00\x80?\x00\x00\x80?\x00\x00\x80?\x00\x00\x80?\x00\x00\x80?\x00\x00\x80?\x00\x00\x80?\x00\x00\x80?\x00\x00\x80?\x00\x00\x80?\x00\x00\x80?\x00\x00\x80?\x00\x00\x80?\x00\x00\x80?\x00\x00\x80?\x00\x00\x80?\x00\x00\x80?\x00\x00\x80?\x00\x00\x80?\x00\x00\x80?\x00\x00\x80?\x00\x00\x80?\x00\x00\x80?\x00\x00\x80?\x00\x00\x80?\x00\x00\x80?\x00\x00\x80?\x00\x00\x80?\x00\x00\x80?\x00\x00\x80?\x00\x00\x80?\x00\x00\x80?\x00\x00\x80?\x00\x00\x80?\x00\x00\x80?\x00\x00\x80?\x00\x00\x80?\x00\x00\x80?\x00\x00\x80?\x00\x00\x80?\x00\x00\x80?\x00\x00\x80?\x00\x00\x80?\x00\x00\x80?\x00\x00\x80?\x00\x00\x80?\x00\x00\x80?\x00\x00\x80?\x00\x00\x80?\x00\x00\x80?\x00\x00\x80?\x00\x00\x80?\x00\x00\x80?\x00\x00\x80?\x00\x00\x80?\x00\x00\x80?\x00\x00\x80?\x00\x00\x80?\x00\x00\x80?'
p3415
S'\x00\x00\x00\x00\x00\x00\x00\x00\x00\x00\x00\x00\x00\x00\x00\x00\x00\x00\x00\x00\x00\x00\x00\x00\x00\x00\x00\x00\x00\x00\x00\x00\x00\x00\x00\x00\x00\x00\x00\x00\x00\x00\x00\x00\x00\x00\x00\x00\x00\x00\x00\x00\x00\x00\x00\x00\x00\x00\x00\x00\x00\x00\x00\x00\x00\x00\x00\x00\x00\x00\x00\x00\x00\x00\x00\x00\x00\x00\x00\x00\x00\x00\x00\x00\x00\x00\x00\x00\x00\x00\x00\x00\x00\x00\x00\x00\x00\x00\x00\x00\x00\x00\x00\x00\x00\x00\x00\x00\x00\x00\x00\x00\x00\x00\x00\x00\x00\x00\x00\x00\x00\x00\x00\x00\x00\x00\x00\x00\x00\x00\x00\x00\x00\x00\x00\x00\x00\x00\x00\x00\x00\x00\x00\x00\x00\x00\x00\x00\x00\x00\x00\x00\x00\x00\x00\x00\x00\x00\x00\x00\x00\x00\x00\x00\x00\x00\x00\x00\x00\x00\x00\x00\x00\x00\x00\x00\x00\x00\x00\x00\x00\x00\x00\x00\x00\x00\x00\x00\x00\x00\x00\x00\x00\x00\x00'
p3416
Ntp3417
bsg31
g3271
(g3272
g3273
g3274
g3275
tp3418
Rp3419
(I1
(I39
I5
tp3420
g3281
I00
S'(:\xb4>p\x89\x1c>\x18s\xd6>\x00\xe4\xbc>\x00\xde\xab>P\xbb\xe7>\xc8<\x92>\xf0\x7f<?\xa0\x9d\xb4>0\xe5\x08?p?8?h\xde\xf8>\xa8x<?82\xdf>\x8c\x158?\xf4\x89|?H\x98M?\x88K\xef>hZ"?\x8a\x90\x86?\xf0\x11\x05?h\x02\x05?@\xcf->\x14\\<?Hg<?\xc8v\xce>h\xd5\xd6>\x18\xbf\x00?\xd0.\xce>\x04\nI?\x10\x0b\xc5>H\x02\x05?\x18\x1f\x16?h\xf0\xf8>,y\x04?\x14\xc4\x11?\xb4\xbb@?\xa0\xa2\x1e?PC\xac>L9\'?@=\x1a?\x14\xf5\x11?t4\'?\x84)\x16?\x80Vx?@\x8f\xf8>\xa8A\xf9>\x94<\'?`\xe7b?\xa0N\t?\xc8\x8e\xce>\xc0\xfb"?\xc8\x04\xac>\xfc\xc8Q?\\\x9ff? \x8a\x15?p\xca\x00?\xb4C8?\xc4\xa7Q?l|\xa2?P\x13\xde>\xa0\xf1\xb4>\xd8\xc5\xc5> \xb4^?X\x92\xac>\x00\xa4\xe7>\xb4\xa9\x1e?\x90\x99\xc4>\x88c\xbd>\x00\xe5;?\xb0\xdf\xa3>x\xfa\x89>\xf0%\xbd>\x80\t\xc5>\xa8*\xbd>\xf0\xd3q>\xdc\x14/?\xbcS\x1a?\x98:\xf0>\x10g\xef>\x88?\x91>\x00\x80\x1c>\x84zk?@j\xa2>\t\x16\x0e@@\x99\xdf>\xf0zD?\xe8y\x81>p\x93\x81>\xdd\x96\x15@\xd0dO>\x80\xcd`>pt\xb4>\xec\xf1b?0\xca\xbc>\x10C+>@\xe7\xcd>\xc0\x01->@\x05\xd7>\x88Q\xf0>|\xd7\x04?`U\xbd>\x04\xc2\xa4?x\x83\xf0>\xd6\xe3\xa8?\x88L\x91>\xe0\xe4N>\xf82\xe8>4Q+?xY\xb1?\x90L>> \x12\x05?\x98W\xd6>\xa0\xc7\x00?0\xf8\xab>x\x16\xbc>p+\t?\xecA8? /\'?\x08\\+?0-V?\x08\xb7\xd6>\x8e\xae\x86?\xc8\xfc3?\x04\xa0M?p\x1a\x16?\xb4\x07V? a\xdf>\xf0\n\xac>p\xb8\xf7>p\xb3H?\x00K\xce>\xcc\x9d\x93?xM\xf0>\x18\xec\xcd>\x00\x18x?xP\x80>xH\x81>\xb8\xa4\xa3>\xd8\n\x8a>\xe0\x91q>l\xb4\x00?\x80\xafq>X<\xbd>\xc0\x05\x8a>\xf8\xc2\xab>@#O>\xa0\xc3\xb4>\xa0?8?\xd0D8?*1\x8d?p\xaa\x11? -\xce>\x08\x04\x8a>\x00\x8b\xb4>([8?(\xe9\x91>\x94\x9df?`\x84\x1b>\x14\x0et?\x0c\xb47?P\xae`><\x1cE?\x00\xfe\xd0=$^\x1e?\x0c\x7f\x1e?\xb00M>X\xe2\x9a>`\xf8\x15?dl\x04?\xc0\xef3?@GP>,\x1a\'?\x88\xf5\x8a?\x00\xdbq>\x00h\xbd>\xb8t\xc4>\xf0\x0f\xac>\x18\t\xce>\xa4\x8e&?\x84\xa7\x00? \xf8\x99>\x00\xd6q>\xe8\xad\xab>>\xae\xb5?\x904\xf0>0\xb5\xb4>X\xb5\xa3>\xc8\xa3\xb4>\xc2/\x91?\xec\x8a\r?\xa8O\x92>p6\xbd>\x80\xed\xe7>8%\t?'
p3421
S'\x00\x00\x00\x00\x00\x00\x00\x00\x00\x00\x00\x00\x00\x00\x00\x00\x00\x00\x00\x00\x00\x00\x00\x00\x00\x00\x00\x00\x00\x00\x00\x00\x00\x00\x00\x00\x00\x00\x00\x00\x00\x00\x00\x00\x00\x00\x00\x00\x00\x00\x00\x00\x00\x00\x00\x00\x00\x00\x00\x00\x00\x00\x00\x00\x00\x00\x00\x00\x00\x00\x00\x00\x00\x00\x00\x00\x00\x00\x00\x00\x00\x00\x00\x00\x00\x00\x00\x00\x00\x00\x00\x00\x00\x00\x00\x00\x00\x00\x00\x00\x00\x00\x00\x00\x00\x00\x00\x00\x00\x00\x00\x00\x00\x00\x00\x00\x00\x00\x00\x00\x00\x00\x00\x00\x00\x00\x00\x00\x00\x00\x00\x00\x00\x00\x00\x00\x00\x00\x00\x00\x00\x00\x00\x00\x00\x00\x00\x00\x00\x00\x00\x00\x00\x00\x00\x00\x00\x00\x00\x00\x00\x00\x00\x00\x00\x00\x00\x00\x00\x00\x00\x00\x00\x00\x00\x00\x00\x00\x00\x00\x00\x00\x00\x00\x00\x00\x00\x00\x00\x00\x00\x00\x00\x00\x00'
p3422
Ntp3423
bsg3304
g3271
(g3272
g3273
g3274
g3275
tp3424
Rp3425
(I1
(I39
I5
tp3426
g3281
I00
S'\x00\x00\xb8A\x00\x00pB\x00\x00\xcaB\x00\x00\x14C\x00\x00?C\x00\x00\xc0@\x00\x00<B\x00\x00\xe4B\x00\x00\nC\x00\x00=C\x00\x00\x98A\x00\x00lB\x00\x00\xa4B\x00\x00\tC\x00\x00\x1cC\x00\x00 A\x00\x00PB\x00\x00\x9eB\x00\x00\x12C\x00\x009C\x00\x00@A\x00\x00\x98B\x00\x00\xa2B\x00\x00\x1bC\x00\x00\x1eC\x00\x00\xf0A\x00\x00\x8eB\x00\x00\xc4B\x00\x00\x03C\x00\x002C\x00\x00\xf8A\x00\x00(B\x00\x00\xa8B\x00\x00\x18C\x00\x00(C\x00\x00\x80?\x00\x004B\x00\x00\xe6B\x00\x00\x13C\x00\x007C\x00\x000A\x00\x00\x8aB\x00\x00\xbcB\x00\x00\rC\x00\x00.C\x00\x00\xe0@\x00\x00\x86B\x00\x00\xacB\x00\x00\x07C\x00\x00>C\x00\x00\x00B\x00\x00|B\x00\x00\xd4B\x00\x00\xf8B\x00\x00!C\x00\x00pA\x00\x00\x82B\x00\x00\xc8B\x00\x00\x01C\x00\x00)C\x00\x00\x10B\x00\x00\x94B\x00\x00\xd8B\x00\x00\x02C\x00\x00@C\x00\x00\xa0@\x00\x00\x84B\x00\x00\xd6B\x00\x00\xfaB\x00\x00\x1fC\x00\x00\xb0A\x00\x00 B\x00\x00\xd2B\x00\x00\x04C\x00\x005C\x00\x00\xa8A\x00\x00xB\x00\x00\xa0B\x00\x00\x10C\x00\x00&C\x00\x00\xe8A\x00\x00hB\x00\x00\xa6B\x00\x00\xfeB\x00\x00\x1dC\x00\x00\xd0A\x00\x00LB\x00\x00\xb8B\x00\x00\xfcB\x00\x003C\x00\x00\x80A\x00\x00dB\x00\x00\xc0B\x00\x00\x17C\x00\x00#C\x00\x00\xd8A\x00\x00\x8cB\x00\x00\xbeB\x00\x00\x06C\x00\x00/C\x00\x00\x10A\x00\x00tB\x00\x00\xb0B\x00\x00\x05C\x00\x00;C\x00\x00`A\x00\x00\x88B\x00\x00\xe0B\x00\x00\xf4B\x00\x001C\x00\x00\xa0A\x00\x00`B\x00\x00\xbaB\x00\x00\x16C\x00\x00AC\x00\x00\x90A\x00\x00,B\x00\x00\xe8B\x00\x00\x19C\x00\x00$C\x00\x00PA\x00\x00\x96B\x00\x00\xceB\x00\x00\x0bC\x00\x00 C\x00\x00\x08B\x00\x00\x9aB\x00\x00\xe2B\x00\x00\xeeB\x00\x00,C\x00\x00\x00\x00\x00\x000B\x00\x00\xd0B\x00\x00\x08C\x00\x00+C\x00\x00\xc8A\x00\x00$B\x00\x00\xdeB\x00\x00\x11C\x00\x006C\x00\x00\xe0A\x00\x00TB\x00\x00\xaaB\x00\x00\x0fC\x00\x00<C\x00\x00\xc0A\x00\x00\x90B\x00\x00\x9cB\x00\x00\x15C\x00\x004C\x00\x00\x00A\x00\x008B\x00\x00\xc6B\x00\x00\xecB\x00\x00\'C\x00\x00@@\x00\x00XB\x00\x00\xdaB\x00\x00\xf2B\x00\x008C\x00\x00\x00@\x00\x00\x92B\x00\x00\xaeB\x00\x00\xf0B\x00\x00%C\x00\x00\x80@\x00\x00\x1cB\x00\x00\xccB\x00\x00\xf6B\x00\x00BC\x00\x00\x0cB\x00\x00DB\x00\x00\xb2B\x00\x00\x0cC\x00\x00-C\x00\x00\x18B\x00\x00@B\x00\x00\xdcB\x00\x00\x0eC\x00\x00*C\x00\x00\x88A\x00\x00HB\x00\x00\xb6B\x00\x00\xeaB\x00\x00"C\x00\x00\x14B\x00\x00\x80B\x00\x00\xc2B\x00\x00\x00C\x00\x000C\x00\x00\x04B\x00\x00\\B\x00\x00\xb4B\x00\x00\x1aC\x00\x00:C'
p3427
S'\x00\x00\x00\x00\x00\x00\x00\x00\x00\x00\x00\x00\x00\x00\x00\x00\x00\x00\x00\x00\x00\x00\x00\x00\x00\x00\x00\x00\x00\x00\x00\x00\x00\x00\x00\x00\x00\x00\x00\x00\x00\x00\x00\x00\x00\x00\x00\x00\x00\x00\x00\x00\x00\x00\x00\x00\x00\x00\x00\x00\x00\x00\x00\x00\x00\x00\x00\x00\x00\x00\x00\x00\x00\x00\x00\x00\x00\x00\x00\x00\x00\x00\x00\x00\x00\x00\x00\x00\x00\x00\x00\x00\x00\x00\x00\x00\x00\x00\x00\x00\x00\x00\x00\x00\x00\x00\x00\x00\x00\x00\x00\x00\x00\x00\x00\x00\x00\x00\x00\x00\x00\x00\x00\x00\x00\x00\x00\x00\x00\x00\x00\x00\x00\x00\x00\x00\x00\x00\x00\x00\x00\x00\x00\x00\x00\x00\x00\x00\x00\x00\x00\x00\x00\x00\x00\x00\x00\x00\x00\x00\x00\x00\x00\x00\x00\x00\x00\x00\x00\x00\x00\x00\x00\x00\x00\x00\x00\x00\x00\x00\x00\x00\x00\x00\x00\x00\x00\x00\x00\x00\x00\x00\x00\x00\x00'
p3428
Ntp3429
bsg30
g3287
(g3273
(I0
tp3430
g3275
tp3431
Rp3432
(I1
(I39
I5
tp3433
g3294
I00
(lp3434
g866
ag1501
ag2034
ag2645
ag3204
ag474
ag1332
ag2203
ag2515
ag3178
ag773
ag1488
ag1787
ag2502
ag2749
ag566
ag1397
ag1748
ag2619
ag3126
ag612
ag1709
ag1774
ag2736
ag2775
ag1027
ag1644
ag1995
ag2424
ag3035
ag1050
ag1267
ag1813
ag2697
ag2905
ag358
ag1306
ag2216
ag2632
ag3100
ag589
ag1618
ag1943
ag2554
ag2983
ag497
ag1592
ag1839
ag2476
ag3191
ag1073
ag1540
ag2099
ag2333
ag2814
ag681
ag1566
ag2021
ag2398
ag2918
ag1165
ag1683
ag2125
ag2411
ag3217
ag451
ag1579
ag2112
ag2346
ag2788
ag842
ag1241
ag2086
ag2437
ag3074
ag819
ag1527
ag1761
ag2593
ag2879
ag1004
ag1475
ag1800
ag2372
ag2762
ag935
ag1384
ag1917
ag2359
ag3048
ag704
ag1462
ag1969
ag2684
ag2840
ag958
ag1631
ag1956
ag2463
ag2996
ag543
ag1514
ag1865
ag2450
ag3152
ag658
ag1605
ag2177
ag2307
ag3022
ag796
ag1449
ag1930
ag2671
ag3230
ag750
ag1280
ag2229
ag2710
ag2853
ag635
ag1696
ag2060
ag2528
ag2801
ag1119
ag1722
ag2190
ag2268
ag2957
ag323
ag1293
ag2073
ag2489
ag2944
ag912
ag1254
ag2164
ag2606
ag3087
ag981
ag1410
ag1826
ag2580
ag3165
ag889
ag1657
ag1735
ag2658
ag3061
ag520
ag1319
ag2008
ag2255
ag2892
ag405
ag1423
ag2138
ag2294
ag3113
ag381
ag1670
ag1852
ag2281
ag2866
ag428
ag1228
ag2047
ag2320
ag3243
ag1142
ag1358
ag1878
ag2541
ag2970
ag1211
ag1345
ag2151
ag2567
ag2931
ag727
ag1371
ag1904
ag2242
ag2827
ag1188
ag1553
ag1982
ag2385
ag3009
ag1096
ag1436
ag1891
ag2723
ag3139
atp3435
bstp3436
Rp3437
(dp3438
g3313
(dp3439
g3270
I01
sg31
I01
sg3304
I01
sg30
I00
ssg3315
g3408
sg3316
(lp3440
g3270
ag3304
ag30
ag31
asg3318
(lp3441
I39
aI5
asbsg3320
g3321
sg3322
g3287
(g3273
(I0
tp3442
g3275
tp3443
Rp3444
(I1
(I39
I5
tp3445
g83
I01
S'\x1a\x00\x00\x00\x00\x00\x00\x00\x07\x00\x00\x00\x00\x00\x00\x00 \x00\x00\x00\x00\x00\x00\x00\x1f\x00\x00\x00\x00\x00\x00\x00!\x00\x00\x00\x00\x00\x00\x00\r\x00\x00\x00\x00\x00\x00\x00\x01\x00\x00\x00\x00\x00\x00\x00\t\x00\x00\x00\x00\x00\x00\x00\x1e\x00\x00\x00\x00\x00\x00\x00\x14\x00\x00\x00\x00\x00\x00\x00\x03\x00\x00\x00\x00\x00\x00\x00\x08\x00\x00\x00\x00\x00\x00\x00\x04\x00\x00\x00\x00\x00\x00\x00\x18\x00\x00\x00\x00\x00\x00\x00\x15\x00\x00\x00\x00\x00\x00\x00\x0b\x00\x00\x00\x00\x00\x00\x00\x12\x00\x00\x00\x00\x00\x00\x00$\x00\x00\x00\x00\x00\x00\x00\x17\x00\x00\x00\x00\x00\x00\x00\x02\x00\x00\x00\x00\x00\x00\x00\x16\x00\x00\x00\x00\x00\x00\x00\x0f\x00\x00\x00\x00\x00\x00\x00\x0e\x00\x00\x00\x00\x00\x00\x00\x00\x00\x00\x00\x00\x00\x00\x00\x1d\x00\x00\x00\x00\x00\x00\x00\x1b\x00\x00\x00\x00\x00\x00\x00\x11\x00\x00\x00\x00\x00\x00\x00\x13\x00\x00\x00\x00\x00\x00\x00\x1c\x00\x00\x00\x00\x00\x00\x00\x10\x00\x00\x00\x00\x00\x00\x00\x05\x00\x00\x00\x00\x00\x00\x00\x06\x00\x00\x00\x00\x00\x00\x00\n\x00\x00\x00\x00\x00\x00\x00&\x00\x00\x00\x00\x00\x00\x00\x19\x00\x00\x00\x00\x00\x00\x00"\x00\x00\x00\x00\x00\x00\x00\x0c\x00\x00\x00\x00\x00\x00\x00%\x00\x00\x00\x00\x00\x00\x00#\x00\x00\x00\x00\x00\x00\x00!\x00\x00\x00\x00\x00\x00\x00\x0e\x00\x00\x00\x00\x00\x00\x00\x1b\x00\x00\x00\x00\x00\x00\x00\x06\x00\x00\x00\x00\x00\x00\x00\x17\x00\x00\x00\x00\x00\x00\x00\x1a\x00\x00\x00\x00\x00\x00\x00\x07\x00\x00\x00\x00\x00\x00\x00\x1e\x00\x00\x00\x00\x00\x00\x00\x01\x00\x00\x00\x00\x00\x00\x00#\x00\x00\x00\x00\x00\x00\x00"\x00\x00\x00\x00\x00\x00\x00$\x00\x00\x00\x00\x00\x00\x00\x11\x00\x00\x00\x00\x00\x00\x00\x03\x00\x00\x00\x00\x00\x00\x00\x1c\x00\x00\x00\x00\x00\x00\x00\x1f\x00\x00\x00\x00\x00\x00\x00&\x00\x00\x00\x00\x00\x00\x00\x16\x00\x00\x00\x00\x00\x00\x00\x12\x00\x00\x00\x00\x00\x00\x00\x10\x00\x00\x00\x00\x00\x00\x00\x02\x00\x00\x00\x00\x00\x00\x00\x00\x00\x00\x00\x00\x00\x00\x00\x14\x00\x00\x00\x00\x00\x00\x00\x0f\x00\x00\x00\x00\x00\x00\x00\n\x00\x00\x00\x00\x00\x00\x00%\x00\x00\x00\x00\x00\x00\x00\x0b\x00\x00\x00\x00\x00\x00\x00\r\x00\x00\x00\x00\x00\x00\x00\t\x00\x00\x00\x00\x00\x00\x00\x15\x00\x00\x00\x00\x00\x00\x00\x08\x00\x00\x00\x00\x00\x00\x00\x13\x00\x00\x00\x00\x00\x00\x00\x05\x00\x00\x00\x00\x00\x00\x00\x1d\x00\x00\x00\x00\x00\x00\x00 \x00\x00\x00\x00\x00\x00\x00\x0c\x00\x00\x00\x00\x00\x00\x00\x18\x00\x00\x00\x00\x00\x00\x00\x04\x00\x00\x00\x00\x00\x00\x00\x19\x00\x00\x00\x00\x00\x00\x00\x1d\x00\x00\x00\x00\x00\x00\x00\x03\x00\x00\x00\x00\x00\x00\x00\x0f\x00\x00\x00\x00\x00\x00\x00\x04\x00\x00\x00\x00\x00\x00\x00\x02\x00\x00\x00\x00\x00\x00\x00\x10\x00\x00\x00\x00\x00\x00\x00\x06\x00\x00\x00\x00\x00\x00\x00\x1c\x00\x00\x00\x00\x00\x00\x00\t\x00\x00\x00\x00\x00\x00\x00 \x00\x00\x00\x00\x00\x00\x00\x14\x00\x00\x00\x00\x00\x00\x00"\x00\x00\x00\x00\x00\x00\x00&\x00\x00\x00\x00\x00\x00\x00$\x00\x00\x00\x00\x00\x00\x00\x11\x00\x00\x00\x00\x00\x00\x00\x16\x00\x00\x00\x00\x00\x00\x00\x08\x00\x00\x00\x00\x00\x00\x00\x13\x00\x00\x00\x00\x00\x00\x00\x12\x00\x00\x00\x00\x00\x00\x00%\x00\x00\x00\x00\x00\x00\x00\x05\x00\x00\x00\x00\x00\x00\x00\x1e\x00\x00\x00\x00\x00\x00\x00\x0b\x00\x00\x00\x00\x00\x00\x00\x00\x00\x00\x00\x00\x00\x00\x00!\x00\x00\x00\x00\x00\x00\x00\x18\x00\x00\x00\x00\x00\x00\x00\x1a\x00\x00\x00\x00\x00\x00\x00\x0e\x00\x00\x00\x00\x00\x00\x00\n\x00\x00\x00\x00\x00\x00\x00\r\x00\x00\x00\x00\x00\x00\x00\x0c\x00\x00\x00\x00\x00\x00\x00\x1f\x00\x00\x00\x00\x00\x00\x00#\x00\x00\x00\x00\x00\x00\x00\x1b\x00\x00\x00\x00\x00\x00\x00\x15\x00\x00\x00\x00\x00\x00\x00\x19\x00\x00\x00\x00\x00\x00\x00\x01\x00\x00\x00\x00\x00\x00\x00\x07\x00\x00\x00\x00\x00\x00\x00\x17\x00\x00\x00\x00\x00\x00\x00$\x00\x00\x00\x00\x00\x00\x00\x1e\x00\x00\x00\x00\x00\x00\x00\x19\x00\x00\x00\x00\x00\x00\x00 \x00\x00\x00\x00\x00\x00\x00\x1f\x00\x00\x00\x00\x00\x00\x00\x15\x00\x00\x00\x00\x00\x00\x00!\x00\x00\x00\x00\x00\x00\x00\n\x00\x00\x00\x00\x00\x00\x00\r\x00\x00\x00\x00\x00\x00\x00\x11\x00\x00\x00\x00\x00\x00\x00\x10\x00\x00\x00\x00\x00\x00\x00%\x00\x00\x00\x00\x00\x00\x00\x0b\x00\x00\x00\x00\x00\x00\x00\x0c\x00\x00\x00\x00\x00\x00\x00\x05\x00\x00\x00\x00\x00\x00\x00\x0e\x00\x00\x00\x00\x00\x00\x00\x14\x00\x00\x00\x00\x00\x00\x00\x13\x00\x00\x00\x00\x00\x00\x00\t\x00\x00\x00\x00\x00\x00\x00\x1a\x00\x00\x00\x00\x00\x00\x00\x02\x00\x00\x00\x00\x00\x00\x00\x01\x00\x00\x00\x00\x00\x00\x00\x18\x00\x00\x00\x00\x00\x00\x00"\x00\x00\x00\x00\x00\x00\x00\x08\x00\x00\x00\x00\x00\x00\x00#\x00\x00\x00\x00\x00\x00\x00\x1c\x00\x00\x00\x00\x00\x00\x00\x0f\x00\x00\x00\x00\x00\x00\x00\x1b\x00\x00\x00\x00\x00\x00\x00\x03\x00\x00\x00\x00\x00\x00\x00\x07\x00\x00\x00\x00\x00\x00\x00\x00\x00\x00\x00\x00\x00\x00\x00\x1d\x00\x00\x00\x00\x00\x00\x00\x16\x00\x00\x00\x00\x00\x00\x00\x12\x00\x00\x00\x00\x00\x00\x00\x06\x00\x00\x00\x00\x00\x00\x00\x17\x00\x00\x00\x00\x00\x00\x00&\x00\x00\x00\x00\x00\x00\x00\x04\x00\x00\x00\x00\x00\x00\x00\x02\x00\x00\x00\x00\x00\x00\x00\x10\x00\x00\x00\x00\x00\x00\x00\x04\x00\x00\x00\x00\x00\x00\x00\r\x00\x00\x00\x00\x00\x00\x00\x18\x00\x00\x00\x00\x00\x00\x00\n\x00\x00\x00\x00\x00\x00\x00$\x00\x00\x00\x00\x00\x00\x00\x12\x00\x00\x00\x00\x00\x00\x00\x17\x00\x00\x00\x00\x00\x00\x00 \x00\x00\x00\x00\x00\x00\x00\x0f\x00\x00\x00\x00\x00\x00\x00\x1e\x00\x00\x00\x00\x00\x00\x00\x06\x00\x00\x00\x00\x00\x00\x00\x0b\x00\x00\x00\x00\x00\x00\x00#\x00\x00\x00\x00\x00\x00\x00\x1a\x00\x00\x00\x00\x00\x00\x00\x19\x00\x00\x00\x00\x00\x00\x00"\x00\x00\x00\x00\x00\x00\x00\x08\x00\x00\x00\x00\x00\x00\x00\x13\x00\x00\x00\x00\x00\x00\x00%\x00\x00\x00\x00\x00\x00\x00\x15\x00\x00\x00\x00\x00\x00\x00\x05\x00\x00\x00\x00\x00\x00\x00\x11\x00\x00\x00\x00\x00\x00\x00\x1d\x00\x00\x00\x00\x00\x00\x00\x0e\x00\x00\x00\x00\x00\x00\x00\x1b\x00\x00\x00\x00\x00\x00\x00\x07\x00\x00\x00\x00\x00\x00\x00\x1f\x00\x00\x00\x00\x00\x00\x00\x03\x00\x00\x00\x00\x00\x00\x00&\x00\x00\x00\x00\x00\x00\x00\x14\x00\x00\x00\x00\x00\x00\x00\x1c\x00\x00\x00\x00\x00\x00\x00\x01\x00\x00\x00\x00\x00\x00\x00\t\x00\x00\x00\x00\x00\x00\x00\x00\x00\x00\x00\x00\x00\x00\x00\x0c\x00\x00\x00\x00\x00\x00\x00\x16\x00\x00\x00\x00\x00\x00\x00!\x00\x00\x00\x00\x00\x00\x00'
p3446
tp3447
bsg3329
I01
sg3330
I5
sg3331
I-1
sg3332
(lp3448
g0
(g3388
g3268
(dp3449
g313
g860
sg325
g153
sg341
g873
sg317
g863
sg321
g870
sg328
g329
sg330
g852
stp3450
Rp3451
ag0
(g3388
g3268
(dp3452
g313
g468
sg325
g153
sg341
g481
sg317
g471
sg321
g478
sg328
g329
sg330
g391
stp3453
Rp3454
ag0
(g3388
g3268
(dp3455
g313
g767
sg325
g153
sg341
g780
sg317
g770
sg321
g777
sg328
g329
sg330
g391
stp3456
Rp3457
ag0
(g3388
g3268
(dp3458
g313
g560
sg325
g153
sg341
g573
sg317
g563
sg321
g570
sg328
g329
sg330
g391
stp3459
Rp3460
ag0
(g3388
g3268
(dp3461
g313
g606
sg325
g153
sg341
g619
sg317
g609
sg321
g616
sg328
g329
sg330
g391
stp3462
Rp3463
ag0
(g3388
g3268
(dp3464
g313
g1021
sg325
g153
sg341
g1034
sg317
g1024
sg321
g1031
sg328
g329
sg330
g391
stp3465
Rp3466
ag0
(g3388
g3268
(dp3467
g313
g1044
sg325
g153
sg341
g1057
sg317
g1047
sg321
g1054
sg328
g329
sg330
g391
stp3468
Rp3469
ag0
(g3388
g3268
(dp3470
g313
g352
sg325
g153
sg341
g365
sg317
g355
sg321
g362
sg328
g329
sg330
g331
stp3471
Rp3472
ag0
(g3388
g3268
(dp3473
g313
g583
sg325
g153
sg341
g596
sg317
g586
sg321
g593
sg328
g329
sg330
g331
stp3474
Rp3475
ag0
(g3388
g3268
(dp3476
g313
g491
sg325
g153
sg341
g504
sg317
g494
sg321
g501
sg328
g329
sg330
g331
stp3477
Rp3478
ag0
(g3388
g3268
(dp3479
g313
g1067
sg325
g153
sg341
g1080
sg317
g1070
sg321
g1077
sg328
g329
sg330
g331
stp3480
Rp3481
ag0
(g3388
g3268
(dp3482
g313
g675
sg325
g153
sg341
g688
sg317
g678
sg321
g685
sg328
g329
sg330
g331
stp3483
Rp3484
ag0
(g3388
g3268
(dp3485
g313
g1159
sg325
g153
sg341
g1172
sg317
g1162
sg321
g1169
sg328
g329
sg330
g331
stp3486
Rp3487
ag0
(g3388
g3268
(dp3488
g313
g445
sg325
g153
sg341
g458
sg317
g448
sg321
g455
sg328
g329
sg330
g331
stp3489
Rp3490
ag0
(g3388
g3268
(dp3491
g313
g836
sg325
g98
sg341
g849
sg317
g839
sg321
g846
sg328
g329
sg330
g852
stp3492
Rp3493
ag0
(g3388
g3268
(dp3494
g313
g813
sg325
g98
sg341
g826
sg317
g816
sg321
g823
sg328
g329
sg330
g391
stp3495
Rp3496
ag0
(g3388
g3268
(dp3497
g313
g998
sg325
g98
sg341
g1011
sg317
g1001
sg321
g1008
sg328
g329
sg330
g391
stp3498
Rp3499
ag0
(g3388
g3268
(dp3500
g313
g929
sg325
g98
sg341
g942
sg317
g932
sg321
g939
sg328
g329
sg330
g391
stp3501
Rp3502
ag0
(g3388
g3268
(dp3503
g313
g698
sg325
g98
sg341
g711
sg317
g701
sg321
g708
sg328
g329
sg330
g391
stp3504
Rp3505
ag0
(g3388
g3268
(dp3506
g313
g952
sg325
g98
sg341
g965
sg317
g955
sg321
g962
sg328
g329
sg330
g391
stp3507
Rp3508
ag0
(g3388
g3268
(dp3509
g313
g537
sg325
g98
sg341
g550
sg317
g540
sg321
g547
sg328
g329
sg330
g391
stp3510
Rp3511
ag0
(g3388
g3268
(dp3512
g313
g652
sg325
g98
sg341
g665
sg317
g655
sg321
g662
sg328
g329
sg330
g331
stp3513
Rp3514
ag0
(g3388
g3268
(dp3515
g313
g790
sg325
g98
sg341
g803
sg317
g793
sg321
g800
sg328
g329
sg330
g331
stp3516
Rp3517
ag0
(g3388
g3268
(dp3518
g313
g744
sg325
g98
sg341
g757
sg317
g747
sg321
g754
sg328
g329
sg330
g331
stp3519
Rp3520
ag0
(g3388
g3268
(dp3521
g313
g629
sg325
g98
sg341
g642
sg317
g632
sg321
g639
sg328
g329
sg330
g331
stp3522
Rp3523
ag0
(g3388
g3268
(dp3524
g313
g1113
sg325
g98
sg341
g1126
sg317
g1116
sg321
g1123
sg328
g329
sg330
g331
stp3525
Rp3526
ag0
(g3388
g3268
(dp3527
g313
g316
sg325
g98
sg341
g344
sg317
g320
sg321
g322
sg328
g329
sg330
g331
stp3528
Rp3529
ag0
(g3388
g3268
(dp3530
g313
g906
sg325
g98
sg341
g919
sg317
g909
sg321
g916
sg328
g329
sg330
g331
stp3531
Rp3532
ag0
(g3388
g3268
(dp3533
g313
g975
sg325
g177
sg341
g988
sg317
g978
sg321
g985
sg328
g329
sg330
g852
stp3534
Rp3535
ag0
(g3388
g3268
(dp3536
g313
g883
sg325
g177
sg341
g896
sg317
g886
sg321
g893
sg328
g329
sg330
g391
stp3537
Rp3538
ag0
(g3388
g3268
(dp3539
g313
g514
sg325
g177
sg341
g527
sg317
g517
sg321
g524
sg328
g329
sg330
g391
stp3540
Rp3541
ag0
(g3388
g3268
(dp3542
g313
g399
sg325
g177
sg341
g412
sg317
g402
sg321
g409
sg328
g329
sg330
g391
stp3543
Rp3544
ag0
(g3388
g3268
(dp3545
g313
g375
sg325
g177
sg341
g388
sg317
g378
sg321
g385
sg328
g329
sg330
g391
stp3546
Rp3547
ag0
(g3388
g3268
(dp3548
g313
g422
sg325
g177
sg341
g435
sg317
g425
sg321
g432
sg328
g329
sg330
g391
stp3549
Rp3550
ag0
(g3388
g3268
(dp3551
g313
g1136
sg325
g177
sg341
g1149
sg317
g1139
sg321
g1146
sg328
g329
sg330
g391
stp3552
Rp3553
ag0
(g3388
g3268
(dp3554
g313
g1205
sg325
g177
sg341
g1218
sg317
g1208
sg321
g1215
sg328
g329
sg330
g331
stp3555
Rp3556
ag0
(g3388
g3268
(dp3557
g313
g721
sg325
g177
sg341
g734
sg317
g724
sg321
g731
sg328
g329
sg330
g331
stp3558
Rp3559
ag0
(g3388
g3268
(dp3560
g313
g1182
sg325
g177
sg341
g1195
sg317
g1185
sg321
g1192
sg328
g329
sg330
g331
stp3561
Rp3562
ag0
(g3388
g3268
(dp3563
g313
g1090
sg325
g177
sg341
g1103
sg317
g1093
sg321
g1100
sg328
g329
sg330
g331
stp3564
Rp3565
asg3334
Nsg3335
g3240
sg3336
I195
sg3337
I0
sg3338
I195
sbag0
(g3256
g2
Ntp3566
Rp3567
(dp3568
g3260
Nsg3261
(lp3569
sg3263
I4576718032
sg11
S'trials_4'
p3570
sg6
I-1
sg3265
I0
sg32
I01
sg33
g34
sg3266
g0
(g3267
g3268
(dp3571
g3270
g3271
(g3272
g3273
g3274
g3275
tp3572
Rp3573
(I1
(I1
I0
tp3574
g3281
I00
g57
g57
Ntp3575
bsg3304
g3271
(g3272
g3273
g3274
g3275
tp3576
Rp3577
(I1
(I1
I0
tp3578
g3281
I00
g57
g57
Ntp3579
bstp3580
Rp3581
(dp3582
g3313
(dp3583
g3270
I01
sg3304
I01
ssg3315
g3567
sg3316
(lp3584
g3270
ag3304
asg3318
(lp3585
I1
aI0
asbsg3320
g3321
sg3322
g3287
(g3273
(I0
tp3586
g3275
tp3587
Rp3588
(I1
(I0
tp3589
g42
I00
g57
tp3590
bsg3329
I01
sg3330
I0
sg3331
I-1
sg3332
(lp3591
Nasg3334
Nsg3335
I0
sg3336
I0
sg3337
I0
sg3338
I0
sbasS'savePickle'
p3592
I00
sb.