ccopy_reg
_reconstructor
p0
(cpsychopy.data.experiment
ExperimentHandler
p1
c__builtin__
object
p2
Ntp3
Rp4
(dp5
S'originPath'
p6
V/Users/Stefano/GitHub/phd-project/perceptual-pilot/experiment/perceptual-pilot.psyexp
p7
sS'dataFileName'
p8
V/Users/Stefano/GitHub/phd-project/perceptual-pilot/experiment/results/f003_perceptual-pilot_2018_Jan_25_1508
p9
sS'runtimeInfo'
p10
NsS'name'
p11
S'perceptual-pilot'
p12
sS'dataNames'
p13
(lp14
S'key_resp_5.keys'
p15
aS'key_resp_5.rt'
p16
aS'key_resp_9.keys'
p17
aS'key_resp_9.rt'
p18
aS'key_resp_10.keys'
p19
aS'key_resp_10.rt'
p20
aS'key_resp_11.keys'
p21
aS'key_resp_11.rt'
p22
aS'key_resp_12.keys'
p23
aS'key_resp_12.rt'
p24
aS'key_resp_3.keys'
p25
aS'key_resp_3.corr'
p26
aS'key_resp_3.rt'
p27
aS'key_resp_4.keys'
p28
aS'key_resp_4.rt'
p29
aS'key_resp_2.keys'
p30
aS'key_resp_2.rt'
p31
asS'autoLog'
p32
I01
sS'extraInfo'
p33
(dp34
S'date'
p35
S'2018_Jan_25_1508'
p36
sS'frameRate'
p37
cnumpy.core.multiarray
scalar
p38
(cnumpy
dtype
p39
(S'f8'
p40
I0
I1
tp41
Rp42
(I3
S'<'
p43
NNNI-1
I-1
I0
tp44
bS'P]?\xc0\xe3\xfbM@'
p45
tp46
Rp47
sS'expName'
p48
g12
sVparticipant
p49
Vf003
p50
ssS'loopsUnfinished'
p51
(lp52
sS'saveWideText'
p53
I00
sS'thisEntry'
p54
(dp55
sS'version'
p56
S''
p57
sS'_paramNamesSoFar'
p58
(lp59
S'index'
p60
aS'burst'
p61
aS'voicing'
p62
aS'file_name'
p63
aS'vowel'
p64
aS'correct_answer'
p65
aS'side_condition'
p66
aS'condition'
p67
asS'entries'
p68
(lp69
(dp70
g48
g12
sg49
g50
sg21
S'space'
p71
sg37
g47
sS'trials_7.thisN'
p72
I0
sg18
F4.3215179443359375
sg20
F4.838179111480713
sS'trials_7.thisIndex'
p73
g38
(g39
(S'i8'
p74
I0
I1
tp75
Rp76
(I3
S'<'
p77
NNNI-1
I-1
I0
tp78
bS'\x00\x00\x00\x00\x00\x00\x00\x00'
p79
tp80
Rp81
sg17
S'space'
p82
sg35
g36
sg15
S'space'
p83
sS'trials_7.thisRepN'
p84
I0
sg22
F0.3025500774383545
sS'trials_7.thisTrialN'
p85
I0
sg19
S'space'
p86
sg16
F1.7214851379394531
sa(dp87
g48
g12
sg49
g50
sg35
g36
sg23
S'space'
p88
sg37
g47
sg24
F2.20383882522583
sa(dp89
g61
g38
(g76
S'\x05\x00\x00\x00\x00\x00\x00\x00'
p90
tp91
Rp92
sg62
g38
(g76
S'\x00\x00\x00\x00\x00\x00\x00\x00'
p93
tp94
Rp95
sg63
V../data/raw/stimuli/piti0.wav
p96
sg37
g47
sS'trials_3.thisRepN'
p97
I0
sg26
I1
sS'trials_2.thisIndex'
p98
g38
(g76
S'\x03\x00\x00\x00\x00\x00\x00\x00'
p99
tp100
Rp101
sg64
Vi
p102
sg25
S'slash'
p103
sg35
g36
sS'trials_3.thisIndex'
p104
g38
(g76
S'\x00\x00\x00\x00\x00\x00\x00\x00'
p105
tp106
Rp107
sS'trials_3.thisTrialN'
p108
I0
sg66
Vt_right
p109
sg67
Vvoicing
p110
sg60
g38
(g76
S'\x04\x00\x00\x00\x00\x00\x00\x00'
p111
tp112
Rp113
sg49
g50
sS'trials_2.thisRepN'
p114
I0
sS'trials_2.thisTrialN'
p115
I0
sS'trials_3.thisN'
p116
I0
sg48
g12
sg65
Vslash
p117
sg27
F0.5023479461669922
sS'trials_2.thisN'
p118
I0
sa(dp119
g61
g38
(g76
S'\x00\x00\x00\x00\x00\x00\x00\x00'
p120
tp121
Rp122
sg62
g38
(g76
S'\x05\x00\x00\x00\x00\x00\x00\x00'
p123
tp124
Rp125
sg63
V../data/raw/stimuli/pudu.wav
p126
sg37
g47
sS'trials_3.thisRepN'
p127
I0
sg26
I1
sS'trials_2.thisIndex'
p128
g38
(g76
S'\x04\x00\x00\x00\x00\x00\x00\x00'
p129
tp130
Rp131
sg64
Vu
p132
sg25
S'z'
p133
sg35
g36
sS'trials_3.thisIndex'
p134
g107
sS'trials_3.thisTrialN'
p135
I0
sg66
g109
sg67
Vconfound
p136
sg60
g38
(g76
S'\x05\x00\x00\x00\x00\x00\x00\x00'
p137
tp138
Rp139
sg49
g50
sS'trials_2.thisRepN'
p140
I0
sS'trials_2.thisTrialN'
p141
I1
sS'trials_3.thisN'
p142
I0
sg48
g12
sg65
Vz
p143
sg27
F0.38620805740356445
sS'trials_2.thisN'
p144
I1
sa(dp145
g61
g38
(g76
S'\x05\x00\x00\x00\x00\x00\x00\x00'
p146
tp147
Rp148
sg62
g38
(g76
S'\x00\x00\x00\x00\x00\x00\x00\x00'
p149
tp150
Rp151
sg63
V../data/raw/stimuli/pata0.wav
p152
sg37
g47
sS'trials_3.thisRepN'
p153
I0
sg26
I1
sS'trials_2.thisIndex'
p154
g38
(g76
S'\x01\x00\x00\x00\x00\x00\x00\x00'
p155
tp156
Rp157
sg64
Va
p158
sg25
S'slash'
p159
sg35
g36
sS'trials_3.thisIndex'
p160
g107
sS'trials_3.thisTrialN'
p161
I0
sg66
g109
sg67
g110
sg60
g38
(g76
S'\x02\x00\x00\x00\x00\x00\x00\x00'
p162
tp163
Rp164
sg49
g50
sS'trials_2.thisRepN'
p165
I0
sS'trials_2.thisTrialN'
p166
I2
sS'trials_3.thisN'
p167
I0
sg48
g12
sg65
g117
sg27
F0.36983394622802734
sS'trials_2.thisN'
p168
I2
sa(dp169
g61
g38
(g76
S'\x00\x00\x00\x00\x00\x00\x00\x00'
p170
tp171
Rp172
sg62
g38
(g76
S'\x05\x00\x00\x00\x00\x00\x00\x00'
p173
tp174
Rp175
sg63
V../data/raw/stimuli/pidi.wav
p176
sg37
g47
sS'trials_3.thisRepN'
p177
I0
sg26
I1
sS'trials_2.thisIndex'
p178
g38
(g76
S'\x02\x00\x00\x00\x00\x00\x00\x00'
p179
tp180
Rp181
sg64
g102
sg25
S'z'
p182
sg35
g36
sS'trials_3.thisIndex'
p183
g107
sS'trials_3.thisTrialN'
p184
I0
sg66
g109
sg67
g136
sg60
g38
(g76
S'\x03\x00\x00\x00\x00\x00\x00\x00'
p185
tp186
Rp187
sg49
g50
sS'trials_2.thisRepN'
p188
I0
sS'trials_2.thisTrialN'
p189
I3
sS'trials_3.thisN'
p190
I0
sg48
g12
sg65
g143
sg27
F0.3524148464202881
sS'trials_2.thisN'
p191
I3
sa(dp192
g61
g38
(g76
S'\x05\x00\x00\x00\x00\x00\x00\x00'
p193
tp194
Rp195
sg62
g38
(g76
S'\x00\x00\x00\x00\x00\x00\x00\x00'
p196
tp197
Rp198
sg63
V../data/raw/stimuli/putu0.wav
p199
sg37
g47
sS'trials_3.thisRepN'
p200
I0
sg26
I1
sS'trials_2.thisIndex'
p201
g38
(g76
S'\x05\x00\x00\x00\x00\x00\x00\x00'
p202
tp203
Rp204
sg64
g132
sg25
S'slash'
p205
sg35
g36
sS'trials_3.thisIndex'
p206
g107
sS'trials_3.thisTrialN'
p207
I0
sg66
g109
sg67
g110
sg60
g38
(g76
S'\x06\x00\x00\x00\x00\x00\x00\x00'
p208
tp209
Rp210
sg49
g50
sS'trials_2.thisRepN'
p211
I0
sS'trials_2.thisTrialN'
p212
I4
sS'trials_3.thisN'
p213
I0
sg48
g12
sg65
g117
sg27
F0.169158935546875
sS'trials_2.thisN'
p214
I4
sa(dp215
g61
g38
(g76
S'\x00\x00\x00\x00\x00\x00\x00\x00'
p216
tp217
Rp218
sg62
g38
(g76
S'\x05\x00\x00\x00\x00\x00\x00\x00'
p219
tp220
Rp221
sg63
V../data/raw/stimuli/pada.wav
p222
sg37
g47
sS'trials_3.thisRepN'
p223
I0
sg26
I1
sS'trials_2.thisIndex'
p224
g38
(g76
S'\x00\x00\x00\x00\x00\x00\x00\x00'
p225
tp226
Rp227
sg64
g158
sg25
S'z'
p228
sg35
g36
sS'trials_3.thisIndex'
p229
g107
sS'trials_3.thisTrialN'
p230
I0
sg66
g109
sg67
g136
sg60
g38
(g76
S'\x01\x00\x00\x00\x00\x00\x00\x00'
p231
tp232
Rp233
sg49
g50
sS'trials_2.thisRepN'
p234
I0
sS'trials_2.thisTrialN'
p235
I5
sS'trials_3.thisN'
p236
I0
sg48
g12
sg65
g143
sg27
F0.6694810390472412
sS'trials_2.thisN'
p237
I5
sa(dp238
g61
g92
sg62
g95
sg63
g96
sg37
g47
sS'trials_3.thisRepN'
p239
I0
sg26
I1
sS'trials_2.thisIndex'
p240
g38
(g76
S'\x03\x00\x00\x00\x00\x00\x00\x00'
p241
tp242
Rp243
sg64
g102
sg25
S'slash'
p244
sg35
g36
sS'trials_3.thisIndex'
p245
g107
sS'trials_3.thisTrialN'
p246
I0
sg66
g109
sg67
g110
sg60
g113
sg49
g50
sS'trials_2.thisRepN'
p247
I1
sS'trials_2.thisTrialN'
p248
I0
sS'trials_3.thisN'
p249
I0
sg48
g12
sg65
g117
sg27
F0.3363649845123291
sS'trials_2.thisN'
p250
I6
sa(dp251
g61
g218
sg62
g221
sg63
g222
sg37
g47
sS'trials_3.thisRepN'
p252
I0
sg26
I1
sS'trials_2.thisIndex'
p253
g38
(g76
S'\x00\x00\x00\x00\x00\x00\x00\x00'
p254
tp255
Rp256
sg64
g158
sg25
S'z'
p257
sg35
g36
sS'trials_3.thisIndex'
p258
g107
sS'trials_3.thisTrialN'
p259
I0
sg66
g109
sg67
g136
sg60
g233
sg49
g50
sS'trials_2.thisRepN'
p260
I1
sS'trials_2.thisTrialN'
p261
I1
sS'trials_3.thisN'
p262
I0
sg48
g12
sg65
g143
sg27
F0.6520090103149414
sS'trials_2.thisN'
p263
I7
sa(dp264
g61
g148
sg62
g151
sg63
g152
sg37
g47
sS'trials_3.thisRepN'
p265
I0
sg26
I1
sS'trials_2.thisIndex'
p266
g38
(g76
S'\x01\x00\x00\x00\x00\x00\x00\x00'
p267
tp268
Rp269
sg64
g158
sg25
S'slash'
p270
sg35
g36
sS'trials_3.thisIndex'
p271
g107
sS'trials_3.thisTrialN'
p272
I0
sg66
g109
sg67
g110
sg60
g164
sg49
g50
sS'trials_2.thisRepN'
p273
I1
sS'trials_2.thisTrialN'
p274
I2
sS'trials_3.thisN'
p275
I0
sg48
g12
sg65
g117
sg27
F0.5704989433288574
sS'trials_2.thisN'
p276
I8
sa(dp277
g61
g122
sg62
g125
sg63
g126
sg37
g47
sS'trials_3.thisRepN'
p278
I0
sg26
I1
sS'trials_2.thisIndex'
p279
g38
(g76
S'\x04\x00\x00\x00\x00\x00\x00\x00'
p280
tp281
Rp282
sg64
g132
sg25
S'z'
p283
sg35
g36
sS'trials_3.thisIndex'
p284
g107
sS'trials_3.thisTrialN'
p285
I0
sg66
g109
sg67
g136
sg60
g139
sg49
g50
sS'trials_2.thisRepN'
p286
I1
sS'trials_2.thisTrialN'
p287
I3
sS'trials_3.thisN'
p288
I0
sg48
g12
sg65
g143
sg27
F0.503018856048584
sS'trials_2.thisN'
p289
I9
sa(dp290
g61
g172
sg62
g175
sg63
g176
sg37
g47
sS'trials_3.thisRepN'
p291
I0
sg26
I1
sS'trials_2.thisIndex'
p292
g38
(g76
S'\x02\x00\x00\x00\x00\x00\x00\x00'
p293
tp294
Rp295
sg64
g102
sg25
S'z'
p296
sg35
g36
sS'trials_3.thisIndex'
p297
g107
sS'trials_3.thisTrialN'
p298
I0
sg66
g109
sg67
g136
sg60
g187
sg49
g50
sS'trials_2.thisRepN'
p299
I1
sS'trials_2.thisTrialN'
p300
I4
sS'trials_3.thisN'
p301
I0
sg48
g12
sg65
g143
sg27
F0.4192931652069092
sS'trials_2.thisN'
p302
I10
sa(dp303
g61
g195
sg62
g198
sg63
g199
sg37
g47
sS'trials_3.thisRepN'
p304
I0
sg26
I1
sS'trials_2.thisIndex'
p305
g38
(g76
S'\x05\x00\x00\x00\x00\x00\x00\x00'
p306
tp307
Rp308
sg64
g132
sg25
S'slash'
p309
sg35
g36
sS'trials_3.thisIndex'
p310
g107
sS'trials_3.thisTrialN'
p311
I0
sg66
g109
sg67
g110
sg60
g210
sg49
g50
sS'trials_2.thisRepN'
p312
I1
sS'trials_2.thisTrialN'
p313
I5
sS'trials_3.thisN'
p314
I0
sg48
g12
sg65
g117
sg27
F0.5529470443725586
sS'trials_2.thisN'
p315
I11
sa(dp316
g31
F0.453233003616333
sS'index'
p317
g38
(g76
S'\x01\x00\x00\x00\x00\x00\x00\x00'
p318
tp319
Rp320
sS'voicing'
p321
g38
(g76
S'\x05\x00\x00\x00\x00\x00\x00\x00'
p322
tp323
Rp324
sS'file_name'
p325
V../data/raw/stimuli/pada.wav
p326
sg37
g47
sg30
S'z'
p327
sS'trials_3.thisRepN'
p328
I0
sS'vowel'
p329
g158
sg35
g36
sS'trials_3.thisIndex'
p330
g107
sS'trials_3.thisTrialN'
p331
I0
sS'side_condition'
p332
Vt_right
p333
sS'condition'
p334
Vconfound
p335
sS'trials.thisIndex'
p336
g38
(g76
S'\x00\x00\x00\x00\x00\x00\x00\x00'
p337
tp338
Rp339
sg49
g50
sg29
F4.35530686378479
sg28
S'space'
p340
sS'trials.thisRepN'
p341
I0
sS'trials_3.thisN'
p342
I0
sS'trials.thisN'
p343
I0
sg48
g12
sS'trials.thisTrialN'
p344
I0
sS'burst'
p345
g38
(g76
S'\x00\x00\x00\x00\x00\x00\x00\x00'
p346
tp347
Rp348
sa(dp349
S'trials.thisIndex'
p350
g38
(g76
S'\x1c\x00\x00\x00\x00\x00\x00\x00'
p351
tp352
Rp353
sg31
F0.41962099075317383
sg35
g36
sg317
g38
(g76
S'\x1d\x00\x00\x00\x00\x00\x00\x00'
p354
tp355
Rp356
sg321
g38
(g76
S'\x05\x00\x00\x00\x00\x00\x00\x00'
p357
tp358
Rp359
sS'trials.thisRepN'
p360
I0
sS'trials_3.thisN'
p361
I0
sg37
g47
sg30
S'z'
p362
sS'trials.thisN'
p363
I1
sS'trials_3.thisRepN'
p364
I0
sg48
g12
sS'trials.thisTrialN'
p365
I1
sg329
g132
sg325
V../data/raw/stimuli/pudu.wav
p366
sg345
g38
(g76
S'\x00\x00\x00\x00\x00\x00\x00\x00'
p367
tp368
Rp369
sS'trials_3.thisIndex'
p370
g107
sS'trials_3.thisTrialN'
p371
I0
sg332
g333
sg334
g335
sg49
g50
sa(dp372
S'trials.thisIndex'
p373
g38
(g76
S'\x05\x00\x00\x00\x00\x00\x00\x00'
p374
tp375
Rp376
sg31
F0.21969389915466309
sg35
g36
sg317
g38
(g76
S'\x06\x00\x00\x00\x00\x00\x00\x00'
p377
tp378
Rp379
sg321
g38
(g76
S'\x00\x00\x00\x00\x00\x00\x00\x00'
p380
tp381
Rp382
sS'trials.thisRepN'
p383
I0
sS'trials_3.thisN'
p384
I0
sg37
g47
sg30
S'slash'
p385
sS'trials.thisN'
p386
I2
sS'trials_3.thisRepN'
p387
I0
sg48
g12
sS'trials.thisTrialN'
p388
I2
sg329
g158
sg325
V../data/raw/stimuli/pada4.wav
p389
sg345
g38
(g76
S'\x04\x00\x00\x00\x00\x00\x00\x00'
p390
tp391
Rp392
sS'trials_3.thisIndex'
p393
g107
sS'trials_3.thisTrialN'
p394
I0
sg332
g333
sg334
Vburst
p395
sg49
g50
sa(dp396
S'trials.thisIndex'
p397
g38
(g76
S'\x1a\x00\x00\x00\x00\x00\x00\x00'
p398
tp399
Rp400
sg31
F0.3362140655517578
sg35
g36
sg317
g38
(g76
S'\x1b\x00\x00\x00\x00\x00\x00\x00'
p401
tp402
Rp403
sg321
g38
(g76
S'\x05\x00\x00\x00\x00\x00\x00\x00'
p404
tp405
Rp406
sS'trials.thisRepN'
p407
I0
sS'trials_3.thisN'
p408
I0
sg37
g47
sg30
S'z'
p409
sS'trials.thisN'
p410
I3
sS'trials_3.thisRepN'
p411
I0
sg48
g12
sS'trials.thisTrialN'
p412
I3
sg329
g102
sg325
V../data/raw/stimuli/piti5.wav
p413
sg345
g38
(g76
S'\x05\x00\x00\x00\x00\x00\x00\x00'
p414
tp415
Rp416
sS'trials_3.thisIndex'
p417
g107
sS'trials_3.thisTrialN'
p418
I0
sg332
g333
sg334
Vvoicing
p419
sg49
g50
sa(dp420
S'trials.thisIndex'
p421
g38
(g76
S'\x03\x00\x00\x00\x00\x00\x00\x00'
p422
tp423
Rp424
sg31
F0.553117036819458
sg35
g36
sg317
g38
(g76
S'\x04\x00\x00\x00\x00\x00\x00\x00'
p425
tp426
Rp427
sg321
g38
(g76
S'\x00\x00\x00\x00\x00\x00\x00\x00'
p428
tp429
Rp430
sS'trials.thisRepN'
p431
I0
sS'trials_3.thisN'
p432
I0
sg37
g47
sg30
S'slash'
p433
sS'trials.thisN'
p434
I4
sS'trials_3.thisRepN'
p435
I0
sg48
g12
sS'trials.thisTrialN'
p436
I4
sg329
g158
sg325
V../data/raw/stimuli/pada2.wav
p437
sg345
g38
(g76
S'\x02\x00\x00\x00\x00\x00\x00\x00'
p438
tp439
Rp440
sS'trials_3.thisIndex'
p441
g107
sS'trials_3.thisTrialN'
p442
I0
sg332
g333
sg334
g395
sg49
g50
sa(dp443
S'trials.thisIndex'
p444
g38
(g76
S'\x06\x00\x00\x00\x00\x00\x00\x00'
p445
tp446
Rp447
sg31
F0.33598804473876953
sg35
g36
sg317
g38
(g76
S'\x07\x00\x00\x00\x00\x00\x00\x00'
p448
tp449
Rp450
sg321
g38
(g76
S'\x00\x00\x00\x00\x00\x00\x00\x00'
p451
tp452
Rp453
sS'trials.thisRepN'
p454
I0
sS'trials_3.thisN'
p455
I0
sg37
g47
sg30
S'slash'
p456
sS'trials.thisN'
p457
I5
sS'trials_3.thisRepN'
p458
I0
sg48
g12
sS'trials.thisTrialN'
p459
I5
sg329
g158
sg325
V../data/raw/stimuli/pada5.wav
p460
sg345
g38
(g76
S'\x05\x00\x00\x00\x00\x00\x00\x00'
p461
tp462
Rp463
sS'trials_3.thisIndex'
p464
g107
sS'trials_3.thisTrialN'
p465
I0
sg332
g333
sg334
g395
sg49
g50
sa(dp466
S'trials.thisIndex'
p467
g38
(g76
S'\x02\x00\x00\x00\x00\x00\x00\x00'
p468
tp469
Rp470
sg31
F0.4527771472930908
sg35
g36
sg317
g38
(g76
S'\x03\x00\x00\x00\x00\x00\x00\x00'
p471
tp472
Rp473
sg321
g38
(g76
S'\x00\x00\x00\x00\x00\x00\x00\x00'
p474
tp475
Rp476
sS'trials.thisRepN'
p477
I0
sS'trials_3.thisN'
p478
I0
sg37
g47
sg30
S'slash'
p479
sS'trials.thisN'
p480
I6
sS'trials_3.thisRepN'
p481
I0
sg48
g12
sS'trials.thisTrialN'
p482
I6
sg329
g158
sg325
V../data/raw/stimuli/pada1.wav
p483
sg345
g38
(g76
S'\x01\x00\x00\x00\x00\x00\x00\x00'
p484
tp485
Rp486
sS'trials_3.thisIndex'
p487
g107
sS'trials_3.thisTrialN'
p488
I0
sg332
g333
sg334
g395
sg49
g50
sa(dp489
S'trials.thisIndex'
p490
g38
(g76
S'\x07\x00\x00\x00\x00\x00\x00\x00'
p491
tp492
Rp493
sg31
F1.4699180126190186
sg35
g36
sg317
g38
(g76
S'\x08\x00\x00\x00\x00\x00\x00\x00'
p494
tp495
Rp496
sg321
g38
(g76
S'\x00\x00\x00\x00\x00\x00\x00\x00'
p497
tp498
Rp499
sS'trials.thisRepN'
p500
I0
sS'trials_3.thisN'
p501
I0
sg37
g47
sg30
S'slash'
p502
sS'trials.thisN'
p503
I7
sS'trials_3.thisRepN'
p504
I0
sg48
g12
sS'trials.thisTrialN'
p505
I7
sg329
g158
sg325
V../data/raw/stimuli/pata0.wav
p506
sg345
g38
(g76
S'\x05\x00\x00\x00\x00\x00\x00\x00'
p507
tp508
Rp509
sS'trials_3.thisIndex'
p510
g107
sS'trials_3.thisTrialN'
p511
I0
sg332
g333
sg334
g419
sg49
g50
sa(dp512
S'trials.thisIndex'
p513
g38
(g76
S'\x19\x00\x00\x00\x00\x00\x00\x00'
p514
tp515
Rp516
sg31
F0.5195550918579102
sg35
g36
sg317
g38
(g76
S'\x1a\x00\x00\x00\x00\x00\x00\x00'
p517
tp518
Rp519
sg321
g38
(g76
S'\x04\x00\x00\x00\x00\x00\x00\x00'
p520
tp521
Rp522
sS'trials.thisRepN'
p523
I0
sS'trials_3.thisN'
p524
I0
sg37
g47
sg30
S'slash'
p525
sS'trials.thisN'
p526
I8
sS'trials_3.thisRepN'
p527
I0
sg48
g12
sS'trials.thisTrialN'
p528
I8
sg329
g102
sg325
V../data/raw/stimuli/piti4.wav
p529
sg345
g38
(g76
S'\x05\x00\x00\x00\x00\x00\x00\x00'
p530
tp531
Rp532
sS'trials_3.thisIndex'
p533
g107
sS'trials_3.thisTrialN'
p534
I0
sg332
g333
sg334
g419
sg49
g50
sa(dp535
S'trials.thisIndex'
p536
g38
(g76
S'%\x00\x00\x00\x00\x00\x00\x00'
p537
tp538
Rp539
sg31
F0.6007051467895508
sg35
g36
sg317
g38
(g76
S'&\x00\x00\x00\x00\x00\x00\x00'
p540
tp541
Rp542
sg321
g38
(g76
S'\x02\x00\x00\x00\x00\x00\x00\x00'
p543
tp544
Rp545
sS'trials.thisRepN'
p546
I0
sS'trials_3.thisN'
p547
I0
sg37
g47
sg30
S'slash'
p548
sS'trials.thisN'
p549
I9
sS'trials_3.thisRepN'
p550
I0
sg48
g12
sS'trials.thisTrialN'
p551
I9
sg329
g132
sg325
V../data/raw/stimuli/putu2.wav
p552
sg345
g38
(g76
S'\x05\x00\x00\x00\x00\x00\x00\x00'
p553
tp554
Rp555
sS'trials_3.thisIndex'
p556
g107
sS'trials_3.thisTrialN'
p557
I0
sg332
g333
sg334
g419
sg49
g50
sa(dp558
S'trials.thisIndex'
p559
g38
(g76
S'\x1d\x00\x00\x00\x00\x00\x00\x00'
p560
tp561
Rp562
sg31
F0.4696619510650635
sg35
g36
sg317
g38
(g76
S'\x1e\x00\x00\x00\x00\x00\x00\x00'
p563
tp564
Rp565
sg321
g38
(g76
S'\x00\x00\x00\x00\x00\x00\x00\x00'
p566
tp567
Rp568
sS'trials.thisRepN'
p569
I0
sS'trials_3.thisN'
p570
I0
sg37
g47
sg30
S'z'
p571
sS'trials.thisN'
p572
I10
sS'trials_3.thisRepN'
p573
I0
sg48
g12
sS'trials.thisTrialN'
p574
I10
sg329
g132
sg325
V../data/raw/stimuli/pudu0.wav
p575
sg345
g38
(g76
S'\x00\x00\x00\x00\x00\x00\x00\x00'
p576
tp577
Rp578
sS'trials_3.thisIndex'
p579
g107
sS'trials_3.thisTrialN'
p580
I0
sg332
g333
sg334
g395
sg49
g50
sa(dp581
S'trials.thisIndex'
p582
g38
(g76
S'\x17\x00\x00\x00\x00\x00\x00\x00'
p583
tp584
Rp585
sg31
F0.38666582107543945
sg35
g36
sg317
g38
(g76
S'\x18\x00\x00\x00\x00\x00\x00\x00'
p586
tp587
Rp588
sg321
g38
(g76
S'\x02\x00\x00\x00\x00\x00\x00\x00'
p589
tp590
Rp591
sS'trials.thisRepN'
p592
I0
sS'trials_3.thisN'
p593
I0
sg37
g47
sg30
S'slash'
p594
sS'trials.thisN'
p595
I11
sS'trials_3.thisRepN'
p596
I0
sg48
g12
sS'trials.thisTrialN'
p597
I11
sg329
g102
sg325
V../data/raw/stimuli/piti2.wav
p598
sg345
g38
(g76
S'\x05\x00\x00\x00\x00\x00\x00\x00'
p599
tp600
Rp601
sS'trials_3.thisIndex'
p602
g107
sS'trials_3.thisTrialN'
p603
I0
sg332
g333
sg334
g419
sg49
g50
sa(dp604
S'trials.thisIndex'
p605
g38
(g76
S'\x18\x00\x00\x00\x00\x00\x00\x00'
p606
tp607
Rp608
sg31
F0.4005718231201172
sg35
g36
sg317
g38
(g76
S'\x19\x00\x00\x00\x00\x00\x00\x00'
p609
tp610
Rp611
sg321
g38
(g76
S'\x03\x00\x00\x00\x00\x00\x00\x00'
p612
tp613
Rp614
sS'trials.thisRepN'
p615
I0
sS'trials_3.thisN'
p616
I0
sg37
g47
sg30
S'slash'
p617
sS'trials.thisN'
p618
I12
sS'trials_3.thisRepN'
p619
I0
sg48
g12
sS'trials.thisTrialN'
p620
I12
sg329
g102
sg325
V../data/raw/stimuli/piti3.wav
p621
sg345
g38
(g76
S'\x05\x00\x00\x00\x00\x00\x00\x00'
p622
tp623
Rp624
sS'trials_3.thisIndex'
p625
g107
sS'trials_3.thisTrialN'
p626
I0
sg332
g333
sg334
g419
sg49
g50
sa(dp627
S'trials.thisIndex'
p628
g38
(g76
S'\x12\x00\x00\x00\x00\x00\x00\x00'
p629
tp630
Rp631
sg31
F0.6867458820343018
sg35
g36
sg317
g38
(g76
S'\x13\x00\x00\x00\x00\x00\x00\x00'
p632
tp633
Rp634
sg321
g38
(g76
S'\x00\x00\x00\x00\x00\x00\x00\x00'
p635
tp636
Rp637
sS'trials.thisRepN'
p638
I0
sS'trials_3.thisN'
p639
I0
sg37
g47
sg30
S'slash'
p640
sS'trials.thisN'
p641
I13
sS'trials_3.thisRepN'
p642
I0
sg48
g12
sS'trials.thisTrialN'
p643
I13
sg329
g102
sg325
V../data/raw/stimuli/pidi3.wav
p644
sg345
g38
(g76
S'\x03\x00\x00\x00\x00\x00\x00\x00'
p645
tp646
Rp647
sS'trials_3.thisIndex'
p648
g107
sS'trials_3.thisTrialN'
p649
I0
sg332
g333
sg334
g395
sg49
g50
sa(dp650
S'trials.thisIndex'
p651
g38
(g76
S'\x08\x00\x00\x00\x00\x00\x00\x00'
p652
tp653
Rp654
sg31
F0.6012389659881592
sg35
g36
sg317
g38
(g76
S'\t\x00\x00\x00\x00\x00\x00\x00'
p655
tp656
Rp657
sg321
g38
(g76
S'\x01\x00\x00\x00\x00\x00\x00\x00'
p658
tp659
Rp660
sS'trials.thisRepN'
p661
I0
sS'trials_3.thisN'
p662
I0
sg37
g47
sg30
S'slash'
p663
sS'trials.thisN'
p664
I14
sS'trials_3.thisRepN'
p665
I0
sg48
g12
sS'trials.thisTrialN'
p666
I14
sg329
g158
sg325
V../data/raw/stimuli/pata1.wav
p667
sg345
g38
(g76
S'\x05\x00\x00\x00\x00\x00\x00\x00'
p668
tp669
Rp670
sS'trials_3.thisIndex'
p671
g107
sS'trials_3.thisTrialN'
p672
I0
sg332
g333
sg334
g419
sg49
g50
sa(dp673
S'trials.thisIndex'
p674
g38
(g76
S' \x00\x00\x00\x00\x00\x00\x00'
p675
tp676
Rp677
sg31
F0.4857640266418457
sg35
g36
sg317
g38
(g76
S'!\x00\x00\x00\x00\x00\x00\x00'
p678
tp679
Rp680
sg321
g38
(g76
S'\x00\x00\x00\x00\x00\x00\x00\x00'
p681
tp682
Rp683
sS'trials.thisRepN'
p684
I0
sS'trials_3.thisN'
p685
I0
sg37
g47
sg30
S'slash'
p686
sS'trials.thisN'
p687
I15
sS'trials_3.thisRepN'
p688
I0
sg48
g12
sS'trials.thisTrialN'
p689
I15
sg329
g132
sg325
V../data/raw/stimuli/pudu3.wav
p690
sg345
g38
(g76
S'\x03\x00\x00\x00\x00\x00\x00\x00'
p691
tp692
Rp693
sS'trials_3.thisIndex'
p694
g107
sS'trials_3.thisTrialN'
p695
I0
sg332
g333
sg334
g395
sg49
g50
sa(dp696
S'trials.thisIndex'
p697
g38
(g76
S'\x16\x00\x00\x00\x00\x00\x00\x00'
p698
tp699
Rp700
sg31
F0.35303592681884766
sg35
g36
sg317
g38
(g76
S'\x17\x00\x00\x00\x00\x00\x00\x00'
p701
tp702
Rp703
sg321
g38
(g76
S'\x01\x00\x00\x00\x00\x00\x00\x00'
p704
tp705
Rp706
sS'trials.thisRepN'
p707
I0
sS'trials_3.thisN'
p708
I0
sg37
g47
sg30
S'slash'
p709
sS'trials.thisN'
p710
I16
sS'trials_3.thisRepN'
p711
I0
sg48
g12
sS'trials.thisTrialN'
p712
I16
sg329
g102
sg325
V../data/raw/stimuli/piti1.wav
p713
sg345
g38
(g76
S'\x05\x00\x00\x00\x00\x00\x00\x00'
p714
tp715
Rp716
sS'trials_3.thisIndex'
p717
g107
sS'trials_3.thisTrialN'
p718
I0
sg332
g333
sg334
g419
sg49
g50
sa(dp719
S'trials.thisIndex'
p720
g38
(g76
S'\x0f\x00\x00\x00\x00\x00\x00\x00'
p721
tp722
Rp723
sg31
F0.5865950584411621
sg35
g36
sg317
g38
(g76
S'\x10\x00\x00\x00\x00\x00\x00\x00'
p724
tp725
Rp726
sg321
g38
(g76
S'\x00\x00\x00\x00\x00\x00\x00\x00'
p727
tp728
Rp729
sS'trials.thisRepN'
p730
I0
sS'trials_3.thisN'
p731
I0
sg37
g47
sg30
S'z'
p732
sS'trials.thisN'
p733
I17
sS'trials_3.thisRepN'
p734
I0
sg48
g12
sS'trials.thisTrialN'
p735
I17
sg329
g102
sg325
V../data/raw/stimuli/pidi0.wav
p736
sg345
g38
(g76
S'\x00\x00\x00\x00\x00\x00\x00\x00'
p737
tp738
Rp739
sS'trials_3.thisIndex'
p740
g107
sS'trials_3.thisTrialN'
p741
I0
sg332
g333
sg334
g395
sg49
g50
sa(dp742
S'trials.thisIndex'
p743
g38
(g76
S'#\x00\x00\x00\x00\x00\x00\x00'
p744
tp745
Rp746
sg31
F0.4193758964538574
sg35
g36
sg317
g38
(g76
S'$\x00\x00\x00\x00\x00\x00\x00'
p747
tp748
Rp749
sg321
g38
(g76
S'\x00\x00\x00\x00\x00\x00\x00\x00'
p750
tp751
Rp752
sS'trials.thisRepN'
p753
I0
sS'trials_3.thisN'
p754
I0
sg37
g47
sg30
S'slash'
p755
sS'trials.thisN'
p756
I18
sS'trials_3.thisRepN'
p757
I0
sg48
g12
sS'trials.thisTrialN'
p758
I18
sg329
g132
sg325
V../data/raw/stimuli/putu0.wav
p759
sg345
g38
(g76
S'\x05\x00\x00\x00\x00\x00\x00\x00'
p760
tp761
Rp762
sS'trials_3.thisIndex'
p763
g107
sS'trials_3.thisTrialN'
p764
I0
sg332
g333
sg334
g419
sg49
g50
sa(dp765
S'trials.thisIndex'
p766
g38
(g76
S'\x10\x00\x00\x00\x00\x00\x00\x00'
p767
tp768
Rp769
sg31
F0.319476842880249
sg35
g36
sg317
g38
(g76
S'\x11\x00\x00\x00\x00\x00\x00\x00'
p770
tp771
Rp772
sg321
g38
(g76
S'\x00\x00\x00\x00\x00\x00\x00\x00'
p773
tp774
Rp775
sS'trials.thisRepN'
p776
I0
sS'trials_3.thisN'
p777
I0
sg37
g47
sg30
S'slash'
p778
sS'trials.thisN'
p779
I19
sS'trials_3.thisRepN'
p780
I0
sg48
g12
sS'trials.thisTrialN'
p781
I19
sg329
g102
sg325
V../data/raw/stimuli/pidi1.wav
p782
sg345
g38
(g76
S'\x01\x00\x00\x00\x00\x00\x00\x00'
p783
tp784
Rp785
sS'trials_3.thisIndex'
p786
g107
sS'trials_3.thisTrialN'
p787
I0
sg332
g333
sg334
g395
sg49
g50
sa(dp788
S'trials.thisIndex'
p789
g38
(g76
S'\x1b\x00\x00\x00\x00\x00\x00\x00'
p790
tp791
Rp792
sg31
F0.43643879890441895
sg35
g36
sg317
g38
(g76
S'\x1c\x00\x00\x00\x00\x00\x00\x00'
p793
tp794
Rp795
sg321
g38
(g76
S'\x06\x00\x00\x00\x00\x00\x00\x00'
p796
tp797
Rp798
sS'trials.thisRepN'
p799
I0
sS'trials_3.thisN'
p800
I0
sg37
g47
sg30
S'z'
p801
sS'trials.thisN'
p802
I20
sS'trials_3.thisRepN'
p803
I0
sg48
g12
sS'trials.thisTrialN'
p804
I20
sg329
g102
sg325
V../data/raw/stimuli/piti6.wav
p805
sg345
g38
(g76
S'\x05\x00\x00\x00\x00\x00\x00\x00'
p806
tp807
Rp808
sS'trials_3.thisIndex'
p809
g107
sS'trials_3.thisTrialN'
p810
I0
sg332
g333
sg334
g419
sg49
g50
sa(dp811
S'trials.thisIndex'
p812
g38
(g76
S'\x04\x00\x00\x00\x00\x00\x00\x00'
p813
tp814
Rp815
sg31
F0.3525059223175049
sg35
g36
sg317
g38
(g76
S'\x05\x00\x00\x00\x00\x00\x00\x00'
p816
tp817
Rp818
sg321
g38
(g76
S'\x00\x00\x00\x00\x00\x00\x00\x00'
p819
tp820
Rp821
sS'trials.thisRepN'
p822
I0
sS'trials_3.thisN'
p823
I0
sg37
g47
sg30
S'slash'
p824
sS'trials.thisN'
p825
I21
sS'trials_3.thisRepN'
p826
I0
sg48
g12
sS'trials.thisTrialN'
p827
I21
sg329
g158
sg325
V../data/raw/stimuli/pada3.wav
p828
sg345
g38
(g76
S'\x03\x00\x00\x00\x00\x00\x00\x00'
p829
tp830
Rp831
sS'trials_3.thisIndex'
p832
g107
sS'trials_3.thisTrialN'
p833
I0
sg332
g333
sg334
g395
sg49
g50
sa(dp834
S'trials.thisIndex'
p835
g38
(g76
S'\x1f\x00\x00\x00\x00\x00\x00\x00'
p836
tp837
Rp838
sg31
F0.603503942489624
sg35
g36
sg317
g38
(g76
S' \x00\x00\x00\x00\x00\x00\x00'
p839
tp840
Rp841
sg321
g38
(g76
S'\x00\x00\x00\x00\x00\x00\x00\x00'
p842
tp843
Rp844
sS'trials.thisRepN'
p845
I0
sS'trials_3.thisN'
p846
I0
sg37
g47
sg30
S'z'
p847
sS'trials.thisN'
p848
I22
sS'trials_3.thisRepN'
p849
I0
sg48
g12
sS'trials.thisTrialN'
p850
I22
sg329
g132
sg325
V../data/raw/stimuli/pudu2.wav
p851
sg345
g38
(g76
S'\x02\x00\x00\x00\x00\x00\x00\x00'
p852
tp853
Rp854
sS'trials_3.thisIndex'
p855
g107
sS'trials_3.thisTrialN'
p856
I0
sg332
g333
sg334
g395
sg49
g50
sa(dp857
S'trials.thisIndex'
p858
g38
(g76
S'\x0b\x00\x00\x00\x00\x00\x00\x00'
p859
tp860
Rp861
sg31
F0.8175060749053955
sg35
g36
sg317
g38
(g76
S'\x0c\x00\x00\x00\x00\x00\x00\x00'
p862
tp863
Rp864
sg321
g38
(g76
S'\x04\x00\x00\x00\x00\x00\x00\x00'
p865
tp866
Rp867
sS'trials.thisRepN'
p868
I0
sS'trials_3.thisN'
p869
I0
sg37
g47
sg30
S'slash'
p870
sS'trials.thisN'
p871
I23
sS'trials_3.thisRepN'
p872
I0
sg48
g12
sS'trials.thisTrialN'
p873
I23
sg329
g158
sg325
V../data/raw/stimuli/pata4.wav
p874
sg345
g38
(g76
S'\x05\x00\x00\x00\x00\x00\x00\x00'
p875
tp876
Rp877
sS'trials_3.thisIndex'
p878
g107
sS'trials_3.thisTrialN'
p879
I0
sg332
g333
sg334
g419
sg49
g50
sa(dp880
S'trials.thisIndex'
p881
g38
(g76
S'\x01\x00\x00\x00\x00\x00\x00\x00'
p882
tp883
Rp884
sg31
F0.4856710433959961
sg35
g36
sg317
g38
(g76
S'\x02\x00\x00\x00\x00\x00\x00\x00'
p885
tp886
Rp887
sg321
g38
(g76
S'\x00\x00\x00\x00\x00\x00\x00\x00'
p888
tp889
Rp890
sS'trials.thisRepN'
p891
I0
sS'trials_3.thisN'
p892
I0
sg37
g47
sg30
S'z'
p893
sS'trials.thisN'
p894
I24
sS'trials_3.thisRepN'
p895
I0
sg48
g12
sS'trials.thisTrialN'
p896
I24
sg329
g158
sg325
V../data/raw/stimuli/pada0.wav
p897
sg345
g38
(g76
S'\x00\x00\x00\x00\x00\x00\x00\x00'
p898
tp899
Rp900
sS'trials_3.thisIndex'
p901
g107
sS'trials_3.thisTrialN'
p902
I0
sg332
g333
sg334
g395
sg49
g50
sa(dp903
S'trials.thisIndex'
p904
g38
(g76
S'\n\x00\x00\x00\x00\x00\x00\x00'
p905
tp906
Rp907
sg31
F0.4528789520263672
sg35
g36
sg317
g38
(g76
S'\x0b\x00\x00\x00\x00\x00\x00\x00'
p908
tp909
Rp910
sg321
g38
(g76
S'\x03\x00\x00\x00\x00\x00\x00\x00'
p911
tp912
Rp913
sS'trials.thisRepN'
p914
I0
sS'trials_3.thisN'
p915
I0
sg37
g47
sg30
S'slash'
p916
sS'trials.thisN'
p917
I25
sS'trials_3.thisRepN'
p918
I0
sg48
g12
sS'trials.thisTrialN'
p919
I25
sg329
g158
sg325
V../data/raw/stimuli/pata3.wav
p920
sg345
g38
(g76
S'\x05\x00\x00\x00\x00\x00\x00\x00'
p921
tp922
Rp923
sS'trials_3.thisIndex'
p924
g107
sS'trials_3.thisTrialN'
p925
I0
sg332
g333
sg334
g419
sg49
g50
sa(dp926
S'trials.thisIndex'
p927
g38
(g76
S'\t\x00\x00\x00\x00\x00\x00\x00'
p928
tp929
Rp930
sg31
F0.36928391456604004
sg35
g36
sg317
g38
(g76
S'\n\x00\x00\x00\x00\x00\x00\x00'
p931
tp932
Rp933
sg321
g38
(g76
S'\x02\x00\x00\x00\x00\x00\x00\x00'
p934
tp935
Rp936
sS'trials.thisRepN'
p937
I0
sS'trials_3.thisN'
p938
I0
sg37
g47
sg30
S'slash'
p939
sS'trials.thisN'
p940
I26
sS'trials_3.thisRepN'
p941
I0
sg48
g12
sS'trials.thisTrialN'
p942
I26
sg329
g158
sg325
V../data/raw/stimuli/pata2.wav
p943
sg345
g38
(g76
S'\x05\x00\x00\x00\x00\x00\x00\x00'
p944
tp945
Rp946
sS'trials_3.thisIndex'
p947
g107
sS'trials_3.thisTrialN'
p948
I0
sg332
g333
sg334
g419
sg49
g50
sa(dp949
S'trials.thisIndex'
p950
g38
(g76
S'!\x00\x00\x00\x00\x00\x00\x00'
p951
tp952
Rp953
sg31
F0.3862340450286865
sg35
g36
sg317
g38
(g76
S'"\x00\x00\x00\x00\x00\x00\x00'
p954
tp955
Rp956
sg321
g38
(g76
S'\x00\x00\x00\x00\x00\x00\x00\x00'
p957
tp958
Rp959
sS'trials.thisRepN'
p960
I0
sS'trials_3.thisN'
p961
I0
sg37
g47
sg30
S'slash'
p962
sS'trials.thisN'
p963
I27
sS'trials_3.thisRepN'
p964
I0
sg48
g12
sS'trials.thisTrialN'
p965
I27
sg329
g132
sg325
V../data/raw/stimuli/pudu4.wav
p966
sg345
g38
(g76
S'\x04\x00\x00\x00\x00\x00\x00\x00'
p967
tp968
Rp969
sS'trials_3.thisIndex'
p970
g107
sS'trials_3.thisTrialN'
p971
I0
sg332
g333
sg334
g395
sg49
g50
sa(dp972
S'trials.thisIndex'
p973
g38
(g76
S'\x15\x00\x00\x00\x00\x00\x00\x00'
p974
tp975
Rp976
sg31
F0.3526599407196045
sg35
g36
sg317
g38
(g76
S'\x16\x00\x00\x00\x00\x00\x00\x00'
p977
tp978
Rp979
sg321
g38
(g76
S'\x00\x00\x00\x00\x00\x00\x00\x00'
p980
tp981
Rp982
sS'trials.thisRepN'
p983
I0
sS'trials_3.thisN'
p984
I0
sg37
g47
sg30
S'slash'
p985
sS'trials.thisN'
p986
I28
sS'trials_3.thisRepN'
p987
I0
sg48
g12
sS'trials.thisTrialN'
p988
I28
sg329
g102
sg325
V../data/raw/stimuli/piti0.wav
p989
sg345
g38
(g76
S'\x05\x00\x00\x00\x00\x00\x00\x00'
p990
tp991
Rp992
sS'trials_3.thisIndex'
p993
g107
sS'trials_3.thisTrialN'
p994
I0
sg332
g333
sg334
g419
sg49
g50
sa(dp995
S'trials.thisIndex'
p996
g38
(g76
S'\x14\x00\x00\x00\x00\x00\x00\x00'
p997
tp998
Rp999
sg31
F0.2670760154724121
sg35
g36
sg317
g38
(g76
S'\x15\x00\x00\x00\x00\x00\x00\x00'
p1000
tp1001
Rp1002
sg321
g38
(g76
S'\x00\x00\x00\x00\x00\x00\x00\x00'
p1003
tp1004
Rp1005
sS'trials.thisRepN'
p1006
I0
sS'trials_3.thisN'
p1007
I0
sg37
g47
sg30
S'slash'
p1008
sS'trials.thisN'
p1009
I29
sS'trials_3.thisRepN'
p1010
I0
sg48
g12
sS'trials.thisTrialN'
p1011
I29
sg329
g102
sg325
V../data/raw/stimuli/pidi5.wav
p1012
sg345
g38
(g76
S'\x05\x00\x00\x00\x00\x00\x00\x00'
p1013
tp1014
Rp1015
sS'trials_3.thisIndex'
p1016
g107
sS'trials_3.thisTrialN'
p1017
I0
sg332
g333
sg334
g395
sg49
g50
sa(dp1018
S'trials.thisIndex'
p1019
g38
(g76
S'\r\x00\x00\x00\x00\x00\x00\x00'
p1020
tp1021
Rp1022
sg31
F0.5862908363342285
sg35
g36
sg317
g38
(g76
S'\x0e\x00\x00\x00\x00\x00\x00\x00'
p1023
tp1024
Rp1025
sg321
g38
(g76
S'\x06\x00\x00\x00\x00\x00\x00\x00'
p1026
tp1027
Rp1028
sS'trials.thisRepN'
p1029
I0
sS'trials_3.thisN'
p1030
I0
sg37
g47
sg30
S'z'
p1031
sS'trials.thisN'
p1032
I30
sS'trials_3.thisRepN'
p1033
I0
sg48
g12
sS'trials.thisTrialN'
p1034
I30
sg329
g158
sg325
V../data/raw/stimuli/pata6.wav
p1035
sg345
g38
(g76
S'\x05\x00\x00\x00\x00\x00\x00\x00'
p1036
tp1037
Rp1038
sS'trials_3.thisIndex'
p1039
g107
sS'trials_3.thisTrialN'
p1040
I0
sg332
g333
sg334
g419
sg49
g50
sa(dp1041
S'trials.thisIndex'
p1042
g38
(g76
S'\x11\x00\x00\x00\x00\x00\x00\x00'
p1043
tp1044
Rp1045
sg31
F0.25273895263671875
sg35
g36
sg317
g38
(g76
S'\x12\x00\x00\x00\x00\x00\x00\x00'
p1046
tp1047
Rp1048
sg321
g38
(g76
S'\x00\x00\x00\x00\x00\x00\x00\x00'
p1049
tp1050
Rp1051
sS'trials.thisRepN'
p1052
I0
sS'trials_3.thisN'
p1053
I0
sg37
g47
sg30
S'slash'
p1054
sS'trials.thisN'
p1055
I31
sS'trials_3.thisRepN'
p1056
I0
sg48
g12
sS'trials.thisTrialN'
p1057
I31
sg329
g102
sg325
V../data/raw/stimuli/pidi2.wav
p1058
sg345
g38
(g76
S'\x02\x00\x00\x00\x00\x00\x00\x00'
p1059
tp1060
Rp1061
sS'trials_3.thisIndex'
p1062
g107
sS'trials_3.thisTrialN'
p1063
I0
sg332
g333
sg334
g395
sg49
g50
sa(dp1064
S'trials.thisIndex'
p1065
g38
(g76
S'&\x00\x00\x00\x00\x00\x00\x00'
p1066
tp1067
Rp1068
sg31
F0.26876211166381836
sg35
g36
sg317
g38
(g76
S"'\x00\x00\x00\x00\x00\x00\x00"
p1069
tp1070
Rp1071
sg321
g38
(g76
S'\x03\x00\x00\x00\x00\x00\x00\x00'
p1072
tp1073
Rp1074
sS'trials.thisRepN'
p1075
I0
sS'trials_3.thisN'
p1076
I0
sg37
g47
sg30
S'z'
p1077
sS'trials.thisN'
p1078
I32
sS'trials_3.thisRepN'
p1079
I0
sg48
g12
sS'trials.thisTrialN'
p1080
I32
sg329
g132
sg325
V../data/raw/stimuli/putu3.wav
p1081
sg345
g38
(g76
S'\x05\x00\x00\x00\x00\x00\x00\x00'
p1082
tp1083
Rp1084
sS'trials_3.thisIndex'
p1085
g107
sS'trials_3.thisTrialN'
p1086
I0
sg332
g333
sg334
g419
sg49
g50
sa(dp1087
S'trials.thisIndex'
p1088
g38
(g76
S'\x1e\x00\x00\x00\x00\x00\x00\x00'
p1089
tp1090
Rp1091
sg31
F0.519150972366333
sg35
g36
sg317
g38
(g76
S'\x1f\x00\x00\x00\x00\x00\x00\x00'
p1092
tp1093
Rp1094
sg321
g38
(g76
S'\x00\x00\x00\x00\x00\x00\x00\x00'
p1095
tp1096
Rp1097
sS'trials.thisRepN'
p1098
I0
sS'trials_3.thisN'
p1099
I0
sg37
g47
sg30
S'z'
p1100
sS'trials.thisN'
p1101
I33
sS'trials_3.thisRepN'
p1102
I0
sg48
g12
sS'trials.thisTrialN'
p1103
I33
sg329
g132
sg325
V../data/raw/stimuli/pudu1.wav
p1104
sg345
g38
(g76
S'\x01\x00\x00\x00\x00\x00\x00\x00'
p1105
tp1106
Rp1107
sS'trials_3.thisIndex'
p1108
g107
sS'trials_3.thisTrialN'
p1109
I0
sg332
g333
sg334
g395
sg49
g50
sa(dp1110
S'trials.thisIndex'
p1111
g38
(g76
S'\x0e\x00\x00\x00\x00\x00\x00\x00'
p1112
tp1113
Rp1114
sg31
F0.4528951644897461
sg35
g36
sg317
g38
(g76
S'\x0f\x00\x00\x00\x00\x00\x00\x00'
p1115
tp1116
Rp1117
sg321
g38
(g76
S'\x05\x00\x00\x00\x00\x00\x00\x00'
p1118
tp1119
Rp1120
sS'trials.thisRepN'
p1121
I0
sS'trials_3.thisN'
p1122
I0
sg37
g47
sg30
S'z'
p1123
sS'trials.thisN'
p1124
I34
sS'trials_3.thisRepN'
p1125
I0
sg48
g12
sS'trials.thisTrialN'
p1126
I34
sg329
g102
sg325
V../data/raw/stimuli/pidi.wav
p1127
sg345
g38
(g76
S'\x00\x00\x00\x00\x00\x00\x00\x00'
p1128
tp1129
Rp1130
sS'trials_3.thisIndex'
p1131
g107
sS'trials_3.thisTrialN'
p1132
I0
sg332
g333
sg334
g335
sg49
g50
sa(dp1133
S'trials.thisIndex'
p1134
g38
(g76
S'$\x00\x00\x00\x00\x00\x00\x00'
p1135
tp1136
Rp1137
sg31
F0.5030570030212402
sg35
g36
sg317
g38
(g76
S'%\x00\x00\x00\x00\x00\x00\x00'
p1138
tp1139
Rp1140
sg321
g38
(g76
S'\x01\x00\x00\x00\x00\x00\x00\x00'
p1141
tp1142
Rp1143
sS'trials.thisRepN'
p1144
I0
sS'trials_3.thisN'
p1145
I0
sg37
g47
sg30
S'z'
p1146
sS'trials.thisN'
p1147
I35
sS'trials_3.thisRepN'
p1148
I0
sg48
g12
sS'trials.thisTrialN'
p1149
I35
sg329
g132
sg325
V../data/raw/stimuli/putu1.wav
p1150
sg345
g38
(g76
S'\x05\x00\x00\x00\x00\x00\x00\x00'
p1151
tp1152
Rp1153
sS'trials_3.thisIndex'
p1154
g107
sS'trials_3.thisTrialN'
p1155
I0
sg332
g333
sg334
g419
sg49
g50
sa(dp1156
S'trials.thisIndex'
p1157
g38
(g76
S'\x0c\x00\x00\x00\x00\x00\x00\x00'
p1158
tp1159
Rp1160
sg31
F0.5357871055603027
sg35
g36
sg317
g38
(g76
S'\r\x00\x00\x00\x00\x00\x00\x00'
p1161
tp1162
Rp1163
sg321
g38
(g76
S'\x05\x00\x00\x00\x00\x00\x00\x00'
p1164
tp1165
Rp1166
sS'trials.thisRepN'
p1167
I0
sS'trials_3.thisN'
p1168
I0
sg37
g47
sg30
S'slash'
p1169
sS'trials.thisN'
p1170
I36
sS'trials_3.thisRepN'
p1171
I0
sg48
g12
sS'trials.thisTrialN'
p1172
I36
sg329
g158
sg325
V../data/raw/stimuli/pata5.wav
p1173
sg345
g38
(g76
S'\x05\x00\x00\x00\x00\x00\x00\x00'
p1174
tp1175
Rp1176
sS'trials_3.thisIndex'
p1177
g107
sS'trials_3.thisTrialN'
p1178
I0
sg332
g333
sg334
g419
sg49
g50
sa(dp1179
S'trials.thisIndex'
p1180
g38
(g76
S'"\x00\x00\x00\x00\x00\x00\x00'
p1181
tp1182
Rp1183
sg31
F0.38565993309020996
sg35
g36
sg317
g38
(g76
S'#\x00\x00\x00\x00\x00\x00\x00'
p1184
tp1185
Rp1186
sg321
g38
(g76
S'\x00\x00\x00\x00\x00\x00\x00\x00'
p1187
tp1188
Rp1189
sS'trials.thisRepN'
p1190
I0
sS'trials_3.thisN'
p1191
I0
sg37
g47
sg30
S'slash'
p1192
sS'trials.thisN'
p1193
I37
sS'trials_3.thisRepN'
p1194
I0
sg48
g12
sS'trials.thisTrialN'
p1195
I37
sg329
g132
sg325
V../data/raw/stimuli/pudu5.wav
p1196
sg345
g38
(g76
S'\x05\x00\x00\x00\x00\x00\x00\x00'
p1197
tp1198
Rp1199
sS'trials_3.thisIndex'
p1200
g107
sS'trials_3.thisTrialN'
p1201
I0
sg332
g333
sg334
g395
sg49
g50
sa(dp1202
S'trials.thisIndex'
p1203
g38
(g76
S'\x13\x00\x00\x00\x00\x00\x00\x00'
p1204
tp1205
Rp1206
sg31
F0.18636083602905273
sg35
g36
sg317
g38
(g76
S'\x14\x00\x00\x00\x00\x00\x00\x00'
p1207
tp1208
Rp1209
sg321
g38
(g76
S'\x00\x00\x00\x00\x00\x00\x00\x00'
p1210
tp1211
Rp1212
sS'trials.thisRepN'
p1213
I0
sS'trials_3.thisN'
p1214
I0
sg37
g47
sg30
S'slash'
p1215
sS'trials.thisN'
p1216
I38
sS'trials_3.thisRepN'
p1217
I0
sg48
g12
sS'trials.thisTrialN'
p1218
I38
sg329
g102
sg325
V../data/raw/stimuli/pidi4.wav
p1219
sg345
g38
(g76
S'\x04\x00\x00\x00\x00\x00\x00\x00'
p1220
tp1221
Rp1222
sS'trials_3.thisIndex'
p1223
g107
sS'trials_3.thisTrialN'
p1224
I0
sg332
g333
sg334
g395
sg49
g50
sa(dp1225
S'trials.thisIndex'
p1226
g38
(g76
S'\x04\x00\x00\x00\x00\x00\x00\x00'
p1227
tp1228
Rp1229
sg31
F0.3017280101776123
sg35
g36
sg317
g818
sg321
g821
sS'trials.thisRepN'
p1230
I1
sS'trials_3.thisN'
p1231
I0
sg37
g47
sg30
S'slash'
p1232
sS'trials.thisN'
p1233
I39
sS'trials_3.thisRepN'
p1234
I0
sg48
g12
sS'trials.thisTrialN'
p1235
I0
sg329
g158
sg325
g828
sg345
g831
sS'trials_3.thisIndex'
p1236
g107
sS'trials_3.thisTrialN'
p1237
I0
sg332
g333
sg334
g395
sg49
g50
sa(dp1238
S'trials.thisIndex'
p1239
g38
(g76
S' \x00\x00\x00\x00\x00\x00\x00'
p1240
tp1241
Rp1242
sg31
F0.40294814109802246
sg35
g36
sg317
g680
sg321
g683
sS'trials.thisRepN'
p1243
I1
sS'trials_3.thisN'
p1244
I0
sg37
g47
sg30
S'slash'
p1245
sS'trials.thisN'
p1246
I40
sS'trials_3.thisRepN'
p1247
I0
sg48
g12
sS'trials.thisTrialN'
p1248
I1
sg329
g132
sg325
g690
sg345
g693
sS'trials_3.thisIndex'
p1249
g107
sS'trials_3.thisTrialN'
p1250
I0
sg332
g333
sg334
g395
sg49
g50
sa(dp1251
S'trials.thisIndex'
p1252
g38
(g76
S'\x03\x00\x00\x00\x00\x00\x00\x00'
p1253
tp1254
Rp1255
sg31
F0.3021059036254883
sg35
g36
sg317
g427
sg321
g430
sS'trials.thisRepN'
p1256
I1
sS'trials_3.thisN'
p1257
I0
sg37
g47
sg30
S'slash'
p1258
sS'trials.thisN'
p1259
I41
sS'trials_3.thisRepN'
p1260
I0
sg48
g12
sS'trials.thisTrialN'
p1261
I2
sg329
g158
sg325
g437
sg345
g440
sS'trials_3.thisIndex'
p1262
g107
sS'trials_3.thisTrialN'
p1263
I0
sg332
g333
sg334
g395
sg49
g50
sa(dp1264
S'trials.thisIndex'
p1265
g38
(g76
S'\x18\x00\x00\x00\x00\x00\x00\x00'
p1266
tp1267
Rp1268
sg31
F0.2527501583099365
sg35
g36
sg317
g611
sg321
g614
sS'trials.thisRepN'
p1269
I1
sS'trials_3.thisN'
p1270
I0
sg37
g47
sg30
S'slash'
p1271
sS'trials.thisN'
p1272
I42
sS'trials_3.thisRepN'
p1273
I0
sg48
g12
sS'trials.thisTrialN'
p1274
I3
sg329
g102
sg325
g621
sg345
g624
sS'trials_3.thisIndex'
p1275
g107
sS'trials_3.thisTrialN'
p1276
I0
sg332
g333
sg334
g419
sg49
g50
sa(dp1277
S'trials.thisIndex'
p1278
g38
(g76
S'%\x00\x00\x00\x00\x00\x00\x00'
p1279
tp1280
Rp1281
sg31
F0.48622798919677734
sg35
g36
sg317
g542
sg321
g545
sS'trials.thisRepN'
p1282
I1
sS'trials_3.thisN'
p1283
I0
sg37
g47
sg30
S'slash'
p1284
sS'trials.thisN'
p1285
I43
sS'trials_3.thisRepN'
p1286
I0
sg48
g12
sS'trials.thisTrialN'
p1287
I4
sg329
g132
sg325
g552
sg345
g555
sS'trials_3.thisIndex'
p1288
g107
sS'trials_3.thisTrialN'
p1289
I0
sg332
g333
sg334
g419
sg49
g50
sa(dp1290
S'trials.thisIndex'
p1291
g38
(g76
S'\n\x00\x00\x00\x00\x00\x00\x00'
p1292
tp1293
Rp1294
sg31
F0.2695620059967041
sg35
g36
sg317
g910
sg321
g913
sS'trials.thisRepN'
p1295
I1
sS'trials_3.thisN'
p1296
I0
sg37
g47
sg30
S'slash'
p1297
sS'trials.thisN'
p1298
I44
sS'trials_3.thisRepN'
p1299
I0
sg48
g12
sS'trials.thisTrialN'
p1300
I5
sg329
g158
sg325
g920
sg345
g923
sS'trials_3.thisIndex'
p1301
g107
sS'trials_3.thisTrialN'
p1302
I0
sg332
g333
sg334
g419
sg49
g50
sa(dp1303
S'trials.thisIndex'
p1304
g38
(g76
S'\x0f\x00\x00\x00\x00\x00\x00\x00'
p1305
tp1306
Rp1307
sg31
F0.7357311248779297
sg35
g36
sg317
g726
sg321
g729
sS'trials.thisRepN'
p1308
I1
sS'trials_3.thisN'
p1309
I0
sg37
g47
sg30
S'z'
p1310
sS'trials.thisN'
p1311
I45
sS'trials_3.thisRepN'
p1312
I0
sg48
g12
sS'trials.thisTrialN'
p1313
I6
sg329
g102
sg325
g736
sg345
g739
sS'trials_3.thisIndex'
p1314
g107
sS'trials_3.thisTrialN'
p1315
I0
sg332
g333
sg334
g395
sg49
g50
sa(dp1316
S'trials.thisIndex'
p1317
g38
(g76
S'\x06\x00\x00\x00\x00\x00\x00\x00'
p1318
tp1319
Rp1320
sg31
F0.3862600326538086
sg35
g36
sg317
g450
sg321
g453
sS'trials.thisRepN'
p1321
I1
sS'trials_3.thisN'
p1322
I0
sg37
g47
sg30
S'slash'
p1323
sS'trials.thisN'
p1324
I46
sS'trials_3.thisRepN'
p1325
I0
sg48
g12
sS'trials.thisTrialN'
p1326
I7
sg329
g158
sg325
g460
sg345
g463
sS'trials_3.thisIndex'
p1327
g107
sS'trials_3.thisTrialN'
p1328
I0
sg332
g333
sg334
g395
sg49
g50
sa(dp1329
S'trials.thisIndex'
p1330
g38
(g76
S'\x02\x00\x00\x00\x00\x00\x00\x00'
p1331
tp1332
Rp1333
sg31
F0.23636698722839355
sg35
g36
sg317
g473
sg321
g476
sS'trials.thisRepN'
p1334
I1
sS'trials_3.thisN'
p1335
I0
sg37
g47
sg30
S'slash'
p1336
sS'trials.thisN'
p1337
I47
sS'trials_3.thisRepN'
p1338
I0
sg48
g12
sS'trials.thisTrialN'
p1339
I8
sg329
g158
sg325
g483
sg345
g486
sS'trials_3.thisIndex'
p1340
g107
sS'trials_3.thisTrialN'
p1341
I0
sg332
g333
sg334
g395
sg49
g50
sa(dp1342
S'trials.thisIndex'
p1343
g38
(g76
S'&\x00\x00\x00\x00\x00\x00\x00'
p1344
tp1345
Rp1346
sg31
F0.3862800598144531
sg35
g36
sg317
g1071
sg321
g1074
sS'trials.thisRepN'
p1347
I1
sS'trials_3.thisN'
p1348
I0
sg37
g47
sg30
S'z'
p1349
sS'trials.thisN'
p1350
I48
sS'trials_3.thisRepN'
p1351
I0
sg48
g12
sS'trials.thisTrialN'
p1352
I9
sg329
g132
sg325
g1081
sg345
g1084
sS'trials_3.thisIndex'
p1353
g107
sS'trials_3.thisTrialN'
p1354
I0
sg332
g333
sg334
g419
sg49
g50
sa(dp1355
S'trials.thisIndex'
p1356
g38
(g76
S'\x10\x00\x00\x00\x00\x00\x00\x00'
p1357
tp1358
Rp1359
sg31
F0.23557591438293457
sg35
g36
sg317
g772
sg321
g775
sS'trials.thisRepN'
p1360
I1
sS'trials_3.thisN'
p1361
I0
sg37
g47
sg30
S'slash'
p1362
sS'trials.thisN'
p1363
I49
sS'trials_3.thisRepN'
p1364
I0
sg48
g12
sS'trials.thisTrialN'
p1365
I10
sg329
g102
sg325
g782
sg345
g785
sS'trials_3.thisIndex'
p1366
g107
sS'trials_3.thisTrialN'
p1367
I0
sg332
g333
sg334
g395
sg49
g50
sa(dp1368
S'trials.thisIndex'
p1369
g38
(g76
S'#\x00\x00\x00\x00\x00\x00\x00'
p1370
tp1371
Rp1372
sg31
F0.2199079990386963
sg35
g36
sg317
g749
sg321
g752
sS'trials.thisRepN'
p1373
I1
sS'trials_3.thisN'
p1374
I0
sg37
g47
sg30
S'slash'
p1375
sS'trials.thisN'
p1376
I50
sS'trials_3.thisRepN'
p1377
I0
sg48
g12
sS'trials.thisTrialN'
p1378
I11
sg329
g132
sg325
g759
sg345
g762
sS'trials_3.thisIndex'
p1379
g107
sS'trials_3.thisTrialN'
p1380
I0
sg332
g333
sg334
g419
sg49
g50
sa(dp1381
S'trials.thisIndex'
p1382
g38
(g76
S'!\x00\x00\x00\x00\x00\x00\x00'
p1383
tp1384
Rp1385
sg31
F0.2696969509124756
sg35
g36
sg317
g956
sg321
g959
sS'trials.thisRepN'
p1386
I1
sS'trials_3.thisN'
p1387
I0
sg37
g47
sg30
S'slash'
p1388
sS'trials.thisN'
p1389
I51
sS'trials_3.thisRepN'
p1390
I0
sg48
g12
sS'trials.thisTrialN'
p1391
I12
sg329
g132
sg325
g966
sg345
g969
sS'trials_3.thisIndex'
p1392
g107
sS'trials_3.thisTrialN'
p1393
I0
sg332
g333
sg334
g395
sg49
g50
sa(dp1394
S'trials.thisIndex'
p1395
g38
(g76
S'\x1a\x00\x00\x00\x00\x00\x00\x00'
p1396
tp1397
Rp1398
sg31
F0.35338687896728516
sg35
g36
sg317
g403
sg321
g406
sS'trials.thisRepN'
p1399
I1
sS'trials_3.thisN'
p1400
I0
sg37
g47
sg30
S'z'
p1401
sS'trials.thisN'
p1402
I52
sS'trials_3.thisRepN'
p1403
I0
sg48
g12
sS'trials.thisTrialN'
p1404
I13
sg329
g102
sg325
g413
sg345
g416
sS'trials_3.thisIndex'
p1405
g107
sS'trials_3.thisTrialN'
p1406
I0
sg332
g333
sg334
g419
sg49
g50
sa(dp1407
S'trials.thisIndex'
p1408
g38
(g76
S'\x1c\x00\x00\x00\x00\x00\x00\x00'
p1409
tp1410
Rp1411
sg31
F0.26993703842163086
sg35
g36
sg317
g356
sg321
g359
sS'trials.thisRepN'
p1412
I1
sS'trials_3.thisN'
p1413
I0
sg37
g47
sg30
S'z'
p1414
sS'trials.thisN'
p1415
I53
sS'trials_3.thisRepN'
p1416
I0
sg48
g12
sS'trials.thisTrialN'
p1417
I14
sg329
g132
sg325
g366
sg345
g369
sS'trials_3.thisIndex'
p1418
g107
sS'trials_3.thisTrialN'
p1419
I0
sg332
g333
sg334
g335
sg49
g50
sa(dp1420
S'trials.thisIndex'
p1421
g38
(g76
S'\x1d\x00\x00\x00\x00\x00\x00\x00'
p1422
tp1423
Rp1424
sg31
F0.3020360469818115
sg35
g36
sg317
g565
sg321
g568
sS'trials.thisRepN'
p1425
I1
sS'trials_3.thisN'
p1426
I0
sg37
g47
sg30
S'z'
p1427
sS'trials.thisN'
p1428
I54
sS'trials_3.thisRepN'
p1429
I0
sg48
g12
sS'trials.thisTrialN'
p1430
I15
sg329
g132
sg325
g575
sg345
g578
sS'trials_3.thisIndex'
p1431
g107
sS'trials_3.thisTrialN'
p1432
I0
sg332
g333
sg334
g395
sg49
g50
sa(dp1433
S'trials.thisIndex'
p1434
g38
(g76
S'\x11\x00\x00\x00\x00\x00\x00\x00'
p1435
tp1436
Rp1437
sg31
F0.30362510681152344
sg35
g36
sg317
g1048
sg321
g1051
sS'trials.thisRepN'
p1438
I1
sS'trials_3.thisN'
p1439
I0
sg37
g47
sg30
S'slash'
p1440
sS'trials.thisN'
p1441
I55
sS'trials_3.thisRepN'
p1442
I0
sg48
g12
sS'trials.thisTrialN'
p1443
I16
sg329
g102
sg325
g1058
sg345
g1061
sS'trials_3.thisIndex'
p1444
g107
sS'trials_3.thisTrialN'
p1445
I0
sg332
g333
sg334
g395
sg49
g50
sa(dp1446
S'trials.thisIndex'
p1447
g38
(g76
S'\x05\x00\x00\x00\x00\x00\x00\x00'
p1448
tp1449
Rp1450
sg31
F0.5363070964813232
sg35
g36
sg317
g379
sg321
g382
sS'trials.thisRepN'
p1451
I1
sS'trials_3.thisN'
p1452
I0
sg37
g47
sg30
S'slash'
p1453
sS'trials.thisN'
p1454
I56
sS'trials_3.thisRepN'
p1455
I0
sg48
g12
sS'trials.thisTrialN'
p1456
I17
sg329
g158
sg325
g389
sg345
g392
sS'trials_3.thisIndex'
p1457
g107
sS'trials_3.thisTrialN'
p1458
I0
sg332
g333
sg334
g395
sg49
g50
sa(dp1459
S'trials.thisIndex'
p1460
g38
(g76
S'\x00\x00\x00\x00\x00\x00\x00\x00'
p1461
tp1462
Rp1463
sg31
F0.23534297943115234
sg35
g36
sg317
g320
sg321
g324
sS'trials.thisRepN'
p1464
I1
sS'trials_3.thisN'
p1465
I0
sg37
g47
sg30
S'z'
p1466
sS'trials.thisN'
p1467
I57
sS'trials_3.thisRepN'
p1468
I0
sg48
g12
sS'trials.thisTrialN'
p1469
I18
sg329
g158
sg325
g326
sg345
g348
sS'trials_3.thisIndex'
p1470
g107
sS'trials_3.thisTrialN'
p1471
I0
sg332
g333
sg334
g335
sg49
g50
sa(dp1472
S'trials.thisIndex'
p1473
g38
(g76
S'\x0e\x00\x00\x00\x00\x00\x00\x00'
p1474
tp1475
Rp1476
sg31
F0.20280790328979492
sg35
g36
sg317
g1117
sg321
g1120
sS'trials.thisRepN'
p1477
I1
sS'trials_3.thisN'
p1478
I0
sg37
g47
sg30
S'z'
p1479
sS'trials.thisN'
p1480
I58
sS'trials_3.thisRepN'
p1481
I0
sg48
g12
sS'trials.thisTrialN'
p1482
I19
sg329
g102
sg325
g1127
sg345
g1130
sS'trials_3.thisIndex'
p1483
g107
sS'trials_3.thisTrialN'
p1484
I0
sg332
g333
sg334
g335
sg49
g50
sa(dp1485
S'trials.thisIndex'
p1486
g38
(g76
S'\x15\x00\x00\x00\x00\x00\x00\x00'
p1487
tp1488
Rp1489
sg31
F0.20269298553466797
sg35
g36
sg317
g979
sg321
g982
sS'trials.thisRepN'
p1490
I1
sS'trials_3.thisN'
p1491
I0
sg37
g47
sg30
S'slash'
p1492
sS'trials.thisN'
p1493
I59
sS'trials_3.thisRepN'
p1494
I0
sg48
g12
sS'trials.thisTrialN'
p1495
I20
sg329
g102
sg325
g989
sg345
g992
sS'trials_3.thisIndex'
p1496
g107
sS'trials_3.thisTrialN'
p1497
I0
sg332
g333
sg334
g419
sg49
g50
sa(dp1498
S'trials.thisIndex'
p1499
g38
(g76
S'\x19\x00\x00\x00\x00\x00\x00\x00'
p1500
tp1501
Rp1502
sg31
F0.3528249263763428
sg35
g36
sg317
g519
sg321
g522
sS'trials.thisRepN'
p1503
I1
sS'trials_3.thisN'
p1504
I0
sg37
g47
sg30
S'slash'
p1505
sS'trials.thisN'
p1506
I60
sS'trials_3.thisRepN'
p1507
I0
sg48
g12
sS'trials.thisTrialN'
p1508
I21
sg329
g102
sg325
g529
sg345
g532
sS'trials_3.thisIndex'
p1509
g107
sS'trials_3.thisTrialN'
p1510
I0
sg332
g333
sg334
g419
sg49
g50
sa(dp1511
S'trials.thisIndex'
p1512
g38
(g76
S'\x08\x00\x00\x00\x00\x00\x00\x00'
p1513
tp1514
Rp1515
sg31
F0.3673439025878906
sg35
g36
sg317
g657
sg321
g660
sS'trials.thisRepN'
p1516
I1
sS'trials_3.thisN'
p1517
I0
sg37
g47
sg30
S'slash'
p1518
sS'trials.thisN'
p1519
I61
sS'trials_3.thisRepN'
p1520
I0
sg48
g12
sS'trials.thisTrialN'
p1521
I22
sg329
g158
sg325
g667
sg345
g670
sS'trials_3.thisIndex'
p1522
g107
sS'trials_3.thisTrialN'
p1523
I0
sg332
g333
sg334
g419
sg49
g50
sa(dp1524
S'trials.thisIndex'
p1525
g38
(g76
S'\r\x00\x00\x00\x00\x00\x00\x00'
p1526
tp1527
Rp1528
sg31
F0.4353189468383789
sg35
g36
sg317
g1025
sg321
g1028
sS'trials.thisRepN'
p1529
I1
sS'trials_3.thisN'
p1530
I0
sg37
g47
sg30
S'slash'
p1531
sS'trials.thisN'
p1532
I62
sS'trials_3.thisRepN'
p1533
I0
sg48
g12
sS'trials.thisTrialN'
p1534
I23
sg329
g158
sg325
g1035
sg345
g1038
sS'trials_3.thisIndex'
p1535
g107
sS'trials_3.thisTrialN'
p1536
I0
sg332
g333
sg334
g419
sg49
g50
sa(dp1537
S'trials.thisIndex'
p1538
g38
(g76
S'\x16\x00\x00\x00\x00\x00\x00\x00'
p1539
tp1540
Rp1541
sg31
F0.21950292587280273
sg35
g36
sg317
g703
sg321
g706
sS'trials.thisRepN'
p1542
I1
sS'trials_3.thisN'
p1543
I0
sg37
g47
sg30
S'slash'
p1544
sS'trials.thisN'
p1545
I63
sS'trials_3.thisRepN'
p1546
I0
sg48
g12
sS'trials.thisTrialN'
p1547
I24
sg329
g102
sg325
g713
sg345
g716
sS'trials_3.thisIndex'
p1548
g107
sS'trials_3.thisTrialN'
p1549
I0
sg332
g333
sg334
g419
sg49
g50
sa(dp1550
S'trials.thisIndex'
p1551
g38
(g76
S'\x12\x00\x00\x00\x00\x00\x00\x00'
p1552
tp1553
Rp1554
sg31
F0.23626494407653809
sg35
g36
sg317
g634
sg321
g637
sS'trials.thisRepN'
p1555
I1
sS'trials_3.thisN'
p1556
I0
sg37
g47
sg30
S'slash'
p1557
sS'trials.thisN'
p1558
I64
sS'trials_3.thisRepN'
p1559
I0
sg48
g12
sS'trials.thisTrialN'
p1560
I25
sg329
g102
sg325
g644
sg345
g647
sS'trials_3.thisIndex'
p1561
g107
sS'trials_3.thisTrialN'
p1562
I0
sg332
g333
sg334
g395
sg49
g50
sa(dp1563
S'trials.thisIndex'
p1564
g38
(g76
S'\x1f\x00\x00\x00\x00\x00\x00\x00'
p1565
tp1566
Rp1567
sg31
F0.23605990409851074
sg35
g36
sg317
g841
sg321
g844
sS'trials.thisRepN'
p1568
I1
sS'trials_3.thisN'
p1569
I0
sg37
g47
sg30
S'slash'
p1570
sS'trials.thisN'
p1571
I65
sS'trials_3.thisRepN'
p1572
I0
sg48
g12
sS'trials.thisTrialN'
p1573
I26
sg329
g132
sg325
g851
sg345
g854
sS'trials_3.thisIndex'
p1574
g107
sS'trials_3.thisTrialN'
p1575
I0
sg332
g333
sg334
g395
sg49
g50
sa(dp1576
S'trials.thisIndex'
p1577
g38
(g76
S'\x14\x00\x00\x00\x00\x00\x00\x00'
p1578
tp1579
Rp1580
sg31
F0.2503530979156494
sg35
g36
sg317
g1002
sg321
g1005
sS'trials.thisRepN'
p1581
I1
sS'trials_3.thisN'
p1582
I0
sg37
g47
sg30
S'slash'
p1583
sS'trials.thisN'
p1584
I66
sS'trials_3.thisRepN'
p1585
I0
sg48
g12
sS'trials.thisTrialN'
p1586
I27
sg329
g102
sg325
g1012
sg345
g1015
sS'trials_3.thisIndex'
p1587
g107
sS'trials_3.thisTrialN'
p1588
I0
sg332
g333
sg334
g395
sg49
g50
sa(dp1589
S'trials.thisIndex'
p1590
g38
(g76
S'\x13\x00\x00\x00\x00\x00\x00\x00'
p1591
tp1592
Rp1593
sg31
F0.11948585510253906
sg35
g36
sg317
g1209
sg321
g1212
sS'trials.thisRepN'
p1594
I1
sS'trials_3.thisN'
p1595
I0
sg37
g47
sg30
S'slash'
p1596
sS'trials.thisN'
p1597
I67
sS'trials_3.thisRepN'
p1598
I0
sg48
g12
sS'trials.thisTrialN'
p1599
I28
sg329
g102
sg325
g1219
sg345
g1222
sS'trials_3.thisIndex'
p1600
g107
sS'trials_3.thisTrialN'
p1601
I0
sg332
g333
sg334
g395
sg49
g50
sa(dp1602
S'trials.thisIndex'
p1603
g38
(g76
S'\x0c\x00\x00\x00\x00\x00\x00\x00'
p1604
tp1605
Rp1606
sg31
F0.3509671688079834
sg35
g36
sg317
g1163
sg321
g1166
sS'trials.thisRepN'
p1607
I1
sS'trials_3.thisN'
p1608
I0
sg37
g47
sg30
S'z'
p1609
sS'trials.thisN'
p1610
I68
sS'trials_3.thisRepN'
p1611
I0
sg48
g12
sS'trials.thisTrialN'
p1612
I29
sg329
g158
sg325
g1173
sg345
g1176
sS'trials_3.thisIndex'
p1613
g107
sS'trials_3.thisTrialN'
p1614
I0
sg332
g333
sg334
g419
sg49
g50
sa(dp1615
S'trials.thisIndex'
p1616
g38
(g76
S'\x1b\x00\x00\x00\x00\x00\x00\x00'
p1617
tp1618
Rp1619
sg31
F0.519575834274292
sg35
g36
sg317
g795
sg321
g798
sS'trials.thisRepN'
p1620
I1
sS'trials_3.thisN'
p1621
I0
sg37
g47
sg30
S'z'
p1622
sS'trials.thisN'
p1623
I69
sS'trials_3.thisRepN'
p1624
I0
sg48
g12
sS'trials.thisTrialN'
p1625
I30
sg329
g102
sg325
g805
sg345
g808
sS'trials_3.thisIndex'
p1626
g107
sS'trials_3.thisTrialN'
p1627
I0
sg332
g333
sg334
g419
sg49
g50
sa(dp1628
S'trials.thisIndex'
p1629
g38
(g76
S'\x1e\x00\x00\x00\x00\x00\x00\x00'
p1630
tp1631
Rp1632
sg31
F0.3029060363769531
sg35
g36
sg317
g1094
sg321
g1097
sS'trials.thisRepN'
p1633
I1
sS'trials_3.thisN'
p1634
I0
sg37
g47
sg30
S'z'
p1635
sS'trials.thisN'
p1636
I70
sS'trials_3.thisRepN'
p1637
I0
sg48
g12
sS'trials.thisTrialN'
p1638
I31
sg329
g132
sg325
g1104
sg345
g1107
sS'trials_3.thisIndex'
p1639
g107
sS'trials_3.thisTrialN'
p1640
I0
sg332
g333
sg334
g395
sg49
g50
sa(dp1641
S'trials.thisIndex'
p1642
g38
(g76
S'$\x00\x00\x00\x00\x00\x00\x00'
p1643
tp1644
Rp1645
sg31
F0.2030351161956787
sg35
g36
sg317
g1140
sg321
g1143
sS'trials.thisRepN'
p1646
I1
sS'trials_3.thisN'
p1647
I0
sg37
g47
sg30
S'z'
p1648
sS'trials.thisN'
p1649
I71
sS'trials_3.thisRepN'
p1650
I0
sg48
g12
sS'trials.thisTrialN'
p1651
I32
sg329
g132
sg325
g1150
sg345
g1153
sS'trials_3.thisIndex'
p1652
g107
sS'trials_3.thisTrialN'
p1653
I0
sg332
g333
sg334
g419
sg49
g50
sa(dp1654
S'trials.thisIndex'
p1655
g38
(g76
S'\x01\x00\x00\x00\x00\x00\x00\x00'
p1656
tp1657
Rp1658
sg31
F0.26856398582458496
sg35
g36
sg317
g887
sg321
g890
sS'trials.thisRepN'
p1659
I1
sS'trials_3.thisN'
p1660
I0
sg37
g47
sg30
S'slash'
p1661
sS'trials.thisN'
p1662
I72
sS'trials_3.thisRepN'
p1663
I0
sg48
g12
sS'trials.thisTrialN'
p1664
I33
sg329
g158
sg325
g897
sg345
g900
sS'trials_3.thisIndex'
p1665
g107
sS'trials_3.thisTrialN'
p1666
I0
sg332
g333
sg334
g395
sg49
g50
sa(dp1667
S'trials.thisIndex'
p1668
g38
(g76
S'"\x00\x00\x00\x00\x00\x00\x00'
p1669
tp1670
Rp1671
sg31
F0.41977500915527344
sg35
g36
sg317
g1186
sg321
g1189
sS'trials.thisRepN'
p1672
I1
sS'trials_3.thisN'
p1673
I0
sg37
g47
sg30
S'z'
p1674
sS'trials.thisN'
p1675
I73
sS'trials_3.thisRepN'
p1676
I0
sg48
g12
sS'trials.thisTrialN'
p1677
I34
sg329
g132
sg325
g1196
sg345
g1199
sS'trials_3.thisIndex'
p1678
g107
sS'trials_3.thisTrialN'
p1679
I0
sg332
g333
sg334
g395
sg49
g50
sa(dp1680
S'trials.thisIndex'
p1681
g38
(g76
S'\x07\x00\x00\x00\x00\x00\x00\x00'
p1682
tp1683
Rp1684
sg31
F0.46947312355041504
sg35
g36
sg317
g496
sg321
g499
sS'trials.thisRepN'
p1685
I1
sS'trials_3.thisN'
p1686
I0
sg37
g47
sg30
S'slash'
p1687
sS'trials.thisN'
p1688
I74
sS'trials_3.thisRepN'
p1689
I0
sg48
g12
sS'trials.thisTrialN'
p1690
I35
sg329
g158
sg325
g506
sg345
g509
sS'trials_3.thisIndex'
p1691
g107
sS'trials_3.thisTrialN'
p1692
I0
sg332
g333
sg334
g419
sg49
g50
sa(dp1693
S'trials.thisIndex'
p1694
g38
(g76
S'\x17\x00\x00\x00\x00\x00\x00\x00'
p1695
tp1696
Rp1697
sg31
F0.36880016326904297
sg35
g36
sg317
g588
sg321
g591
sS'trials.thisRepN'
p1698
I1
sS'trials_3.thisN'
p1699
I0
sg37
g47
sg30
S'slash'
p1700
sS'trials.thisN'
p1701
I75
sS'trials_3.thisRepN'
p1702
I0
sg48
g12
sS'trials.thisTrialN'
p1703
I36
sg329
g102
sg325
g598
sg345
g601
sS'trials_3.thisIndex'
p1704
g107
sS'trials_3.thisTrialN'
p1705
I0
sg332
g333
sg334
g419
sg49
g50
sa(dp1706
S'trials.thisIndex'
p1707
g38
(g76
S'\x0b\x00\x00\x00\x00\x00\x00\x00'
p1708
tp1709
Rp1710
sg31
F0.5026650428771973
sg35
g36
sg317
g864
sg321
g867
sS'trials.thisRepN'
p1711
I1
sS'trials_3.thisN'
p1712
I0
sg37
g47
sg30
S'slash'
p1713
sS'trials.thisN'
p1714
I76
sS'trials_3.thisRepN'
p1715
I0
sg48
g12
sS'trials.thisTrialN'
p1716
I37
sg329
g158
sg325
g874
sg345
g877
sS'trials_3.thisIndex'
p1717
g107
sS'trials_3.thisTrialN'
p1718
I0
sg332
g333
sg334
g419
sg49
g50
sa(dp1719
S'trials.thisIndex'
p1720
g38
(g76
S'\t\x00\x00\x00\x00\x00\x00\x00'
p1721
tp1722
Rp1723
sg31
F0.4363701343536377
sg35
g36
sg317
g933
sg321
g936
sS'trials.thisRepN'
p1724
I1
sS'trials_3.thisN'
p1725
I0
sg37
g47
sg30
S'slash'
p1726
sS'trials.thisN'
p1727
I77
sS'trials_3.thisRepN'
p1728
I0
sg48
g12
sS'trials.thisTrialN'
p1729
I38
sg329
g158
sg325
g943
sg345
g946
sS'trials_3.thisIndex'
p1730
g107
sS'trials_3.thisTrialN'
p1731
I0
sg332
g333
sg334
g419
sg49
g50
sa(dp1732
S'trials.thisIndex'
p1733
g38
(g76
S'\x1f\x00\x00\x00\x00\x00\x00\x00'
p1734
tp1735
Rp1736
sg31
F0.586176872253418
sg35
g36
sg317
g841
sg321
g844
sS'trials.thisRepN'
p1737
I2
sS'trials_3.thisN'
p1738
I0
sg37
g47
sg30
S'z'
p1739
sS'trials.thisN'
p1740
I78
sS'trials_3.thisRepN'
p1741
I0
sg48
g12
sS'trials.thisTrialN'
p1742
I0
sg329
g132
sg325
g851
sg345
g854
sS'trials_3.thisIndex'
p1743
g107
sS'trials_3.thisTrialN'
p1744
I0
sg332
g333
sg334
g395
sg49
g50
sa(dp1745
S'trials.thisIndex'
p1746
g38
(g76
S'\x02\x00\x00\x00\x00\x00\x00\x00'
p1747
tp1748
Rp1749
sg31
F0.4857368469238281
sg35
g36
sg317
g473
sg321
g476
sS'trials.thisRepN'
p1750
I2
sS'trials_3.thisN'
p1751
I0
sg37
g47
sg30
S'z'
p1752
sS'trials.thisN'
p1753
I79
sS'trials_3.thisRepN'
p1754
I0
sg48
g12
sS'trials.thisTrialN'
p1755
I1
sg329
g158
sg325
g483
sg345
g486
sS'trials_3.thisIndex'
p1756
g107
sS'trials_3.thisTrialN'
p1757
I0
sg332
g333
sg334
g395
sg49
g50
sa(dp1758
S'trials.thisIndex'
p1759
g38
(g76
S' \x00\x00\x00\x00\x00\x00\x00'
p1760
tp1761
Rp1762
sg31
F0.5524778366088867
sg35
g36
sg317
g680
sg321
g683
sS'trials.thisRepN'
p1763
I2
sS'trials_3.thisN'
p1764
I0
sg37
g47
sg30
S'z'
p1765
sS'trials.thisN'
p1766
I80
sS'trials_3.thisRepN'
p1767
I0
sg48
g12
sS'trials.thisTrialN'
p1768
I2
sg329
g132
sg325
g690
sg345
g693
sS'trials_3.thisIndex'
p1769
g107
sS'trials_3.thisTrialN'
p1770
I0
sg332
g333
sg334
g395
sg49
g50
sa(dp1771
S'trials.thisIndex'
p1772
g38
(g76
S'%\x00\x00\x00\x00\x00\x00\x00'
p1773
tp1774
Rp1775
sg31
F0.28620100021362305
sg35
g36
sg317
g542
sg321
g545
sS'trials.thisRepN'
p1776
I2
sS'trials_3.thisN'
p1777
I0
sg37
g47
sg30
S'z'
p1778
sS'trials.thisN'
p1779
I81
sS'trials_3.thisRepN'
p1780
I0
sg48
g12
sS'trials.thisTrialN'
p1781
I3
sg329
g132
sg325
g552
sg345
g555
sS'trials_3.thisIndex'
p1782
g107
sS'trials_3.thisTrialN'
p1783
I0
sg332
g333
sg334
g419
sg49
g50
sa(dp1784
S'trials.thisIndex'
p1785
g38
(g76
S'\x06\x00\x00\x00\x00\x00\x00\x00'
p1786
tp1787
Rp1788
sg31
F0.4859941005706787
sg35
g36
sg317
g450
sg321
g453
sS'trials.thisRepN'
p1789
I2
sS'trials_3.thisN'
p1790
I0
sg37
g47
sg30
S'slash'
p1791
sS'trials.thisN'
p1792
I82
sS'trials_3.thisRepN'
p1793
I0
sg48
g12
sS'trials.thisTrialN'
p1794
I4
sg329
g158
sg325
g460
sg345
g463
sS'trials_3.thisIndex'
p1795
g107
sS'trials_3.thisTrialN'
p1796
I0
sg332
g333
sg334
g395
sg49
g50
sa(dp1797
S'trials.thisIndex'
p1798
g38
(g76
S'\t\x00\x00\x00\x00\x00\x00\x00'
p1799
tp1800
Rp1801
sg31
F0.4692671298980713
sg35
g36
sg317
g933
sg321
g936
sS'trials.thisRepN'
p1802
I2
sS'trials_3.thisN'
p1803
I0
sg37
g47
sg30
S'slash'
p1804
sS'trials.thisN'
p1805
I83
sS'trials_3.thisRepN'
p1806
I0
sg48
g12
sS'trials.thisTrialN'
p1807
I5
sg329
g158
sg325
g943
sg345
g946
sS'trials_3.thisIndex'
p1808
g107
sS'trials_3.thisTrialN'
p1809
I0
sg332
g333
sg334
g419
sg49
g50
sa(dp1810
S'trials.thisIndex'
p1811
g38
(g76
S'\n\x00\x00\x00\x00\x00\x00\x00'
p1812
tp1813
Rp1814
sg31
F0.3694648742675781
sg35
g36
sg317
g910
sg321
g913
sS'trials.thisRepN'
p1815
I2
sS'trials_3.thisN'
p1816
I0
sg37
g47
sg30
S'slash'
p1817
sS'trials.thisN'
p1818
I84
sS'trials_3.thisRepN'
p1819
I0
sg48
g12
sS'trials.thisTrialN'
p1820
I6
sg329
g158
sg325
g920
sg345
g923
sS'trials_3.thisIndex'
p1821
g107
sS'trials_3.thisTrialN'
p1822
I0
sg332
g333
sg334
g419
sg49
g50
sa(dp1823
S'trials.thisIndex'
p1824
g38
(g76
S'\x01\x00\x00\x00\x00\x00\x00\x00'
p1825
tp1826
Rp1827
sg31
F0.5189650058746338
sg35
g36
sg317
g887
sg321
g890
sS'trials.thisRepN'
p1828
I2
sS'trials_3.thisN'
p1829
I0
sg37
g47
sg30
S'slash'
p1830
sS'trials.thisN'
p1831
I85
sS'trials_3.thisRepN'
p1832
I0
sg48
g12
sS'trials.thisTrialN'
p1833
I7
sg329
g158
sg325
g897
sg345
g900
sS'trials_3.thisIndex'
p1834
g107
sS'trials_3.thisTrialN'
p1835
I0
sg332
g333
sg334
g395
sg49
g50
sa(dp1836
S'trials.thisIndex'
p1837
g38
(g76
S'#\x00\x00\x00\x00\x00\x00\x00'
p1838
tp1839
Rp1840
sg31
F0.5689308643341064
sg35
g36
sg317
g749
sg321
g752
sS'trials.thisRepN'
p1841
I2
sS'trials_3.thisN'
p1842
I0
sg37
g47
sg30
S'slash'
p1843
sS'trials.thisN'
p1844
I86
sS'trials_3.thisRepN'
p1845
I0
sg48
g12
sS'trials.thisTrialN'
p1846
I8
sg329
g132
sg325
g759
sg345
g762
sS'trials_3.thisIndex'
p1847
g107
sS'trials_3.thisTrialN'
p1848
I0
sg332
g333
sg334
g419
sg49
g50
sa(dp1849
S'trials.thisIndex'
p1850
g38
(g76
S'\x13\x00\x00\x00\x00\x00\x00\x00'
p1851
tp1852
Rp1853
sg31
F0.4861750602722168
sg35
g36
sg317
g1209
sg321
g1212
sS'trials.thisRepN'
p1854
I2
sS'trials_3.thisN'
p1855
I0
sg37
g47
sg30
S'slash'
p1856
sS'trials.thisN'
p1857
I87
sS'trials_3.thisRepN'
p1858
I0
sg48
g12
sS'trials.thisTrialN'
p1859
I9
sg329
g102
sg325
g1219
sg345
g1222
sS'trials_3.thisIndex'
p1860
g107
sS'trials_3.thisTrialN'
p1861
I0
sg332
g333
sg334
g395
sg49
g50
sa(dp1862
S'trials.thisIndex'
p1863
g38
(g76
S'!\x00\x00\x00\x00\x00\x00\x00'
p1864
tp1865
Rp1866
sg31
F0.6356399059295654
sg35
g36
sg317
g956
sg321
g959
sS'trials.thisRepN'
p1867
I2
sS'trials_3.thisN'
p1868
I0
sg37
g47
sg30
S'slash'
p1869
sS'trials.thisN'
p1870
I88
sS'trials_3.thisRepN'
p1871
I0
sg48
g12
sS'trials.thisTrialN'
p1872
I10
sg329
g132
sg325
g966
sg345
g969
sS'trials_3.thisIndex'
p1873
g107
sS'trials_3.thisTrialN'
p1874
I0
sg332
g333
sg334
g395
sg49
g50
sa(dp1875
S'trials.thisIndex'
p1876
g38
(g76
S'&\x00\x00\x00\x00\x00\x00\x00'
p1877
tp1878
Rp1879
sg31
F0.2861309051513672
sg35
g36
sg317
g1071
sg321
g1074
sS'trials.thisRepN'
p1880
I2
sS'trials_3.thisN'
p1881
I0
sg37
g47
sg30
S'z'
p1882
sS'trials.thisN'
p1883
I89
sS'trials_3.thisRepN'
p1884
I0
sg48
g12
sS'trials.thisTrialN'
p1885
I11
sg329
g132
sg325
g1081
sg345
g1084
sS'trials_3.thisIndex'
p1886
g107
sS'trials_3.thisTrialN'
p1887
I0
sg332
g333
sg334
g419
sg49
g50
sa(dp1888
S'trials.thisIndex'
p1889
g38
(g76
S'\r\x00\x00\x00\x00\x00\x00\x00'
p1890
tp1891
Rp1892
sg31
F0.4198641777038574
sg35
g36
sg317
g1025
sg321
g1028
sS'trials.thisRepN'
p1893
I2
sS'trials_3.thisN'
p1894
I0
sg37
g47
sg30
S'z'
p1895
sS'trials.thisN'
p1896
I90
sS'trials_3.thisRepN'
p1897
I0
sg48
g12
sS'trials.thisTrialN'
p1898
I12
sg329
g158
sg325
g1035
sg345
g1038
sS'trials_3.thisIndex'
p1899
g107
sS'trials_3.thisTrialN'
p1900
I0
sg332
g333
sg334
g419
sg49
g50
sa(dp1901
S'trials.thisIndex'
p1902
g38
(g76
S'\x03\x00\x00\x00\x00\x00\x00\x00'
p1903
tp1904
Rp1905
sg31
F0.28588104248046875
sg35
g36
sg317
g427
sg321
g430
sS'trials.thisRepN'
p1906
I2
sS'trials_3.thisN'
p1907
I0
sg37
g47
sg30
S'z'
p1908
sS'trials.thisN'
p1909
I91
sS'trials_3.thisRepN'
p1910
I0
sg48
g12
sS'trials.thisTrialN'
p1911
I13
sg329
g158
sg325
g437
sg345
g440
sS'trials_3.thisIndex'
p1912
g107
sS'trials_3.thisTrialN'
p1913
I0
sg332
g333
sg334
g395
sg49
g50
sa(dp1914
S'trials.thisIndex'
p1915
g38
(g76
S'\x18\x00\x00\x00\x00\x00\x00\x00'
p1916
tp1917
Rp1918
sg31
F0.5699520111083984
sg35
g36
sg317
g611
sg321
g614
sS'trials.thisRepN'
p1919
I2
sS'trials_3.thisN'
p1920
I0
sg37
g47
sg30
S'slash'
p1921
sS'trials.thisN'
p1922
I92
sS'trials_3.thisRepN'
p1923
I0
sg48
g12
sS'trials.thisTrialN'
p1924
I14
sg329
g102
sg325
g621
sg345
g624
sS'trials_3.thisIndex'
p1925
g107
sS'trials_3.thisTrialN'
p1926
I0
sg332
g333
sg334
g419
sg49
g50
sa(dp1927
S'trials.thisIndex'
p1928
g38
(g76
S'\x10\x00\x00\x00\x00\x00\x00\x00'
p1929
tp1930
Rp1931
sg31
F0.23622703552246094
sg35
g36
sg317
g772
sg321
g775
sS'trials.thisRepN'
p1932
I2
sS'trials_3.thisN'
p1933
I0
sg37
g47
sg30
S'slash'
p1934
sS'trials.thisN'
p1935
I93
sS'trials_3.thisRepN'
p1936
I0
sg48
g12
sS'trials.thisTrialN'
p1937
I15
sg329
g102
sg325
g782
sg345
g785
sS'trials_3.thisIndex'
p1938
g107
sS'trials_3.thisTrialN'
p1939
I0
sg332
g333
sg334
g395
sg49
g50
sa(dp1940
S'trials.thisIndex'
p1941
g38
(g76
S'\x19\x00\x00\x00\x00\x00\x00\x00'
p1942
tp1943
Rp1944
sg31
F0.6525218486785889
sg35
g36
sg317
g519
sg321
g522
sS'trials.thisRepN'
p1945
I2
sS'trials_3.thisN'
p1946
I0
sg37
g47
sg30
S'z'
p1947
sS'trials.thisN'
p1948
I94
sS'trials_3.thisRepN'
p1949
I0
sg48
g12
sS'trials.thisTrialN'
p1950
I16
sg329
g102
sg325
g529
sg345
g532
sS'trials_3.thisIndex'
p1951
g107
sS'trials_3.thisTrialN'
p1952
I0
sg332
g333
sg334
g419
sg49
g50
sa(dp1953
S'trials.thisIndex'
p1954
g38
(g76
S'\x1c\x00\x00\x00\x00\x00\x00\x00'
p1955
tp1956
Rp1957
sg31
F0.4020819664001465
sg35
g36
sg317
g356
sg321
g359
sS'trials.thisRepN'
p1958
I2
sS'trials_3.thisN'
p1959
I0
sg37
g47
sg30
S'z'
p1960
sS'trials.thisN'
p1961
I95
sS'trials_3.thisRepN'
p1962
I0
sg48
g12
sS'trials.thisTrialN'
p1963
I17
sg329
g132
sg325
g366
sg345
g369
sS'trials_3.thisIndex'
p1964
g107
sS'trials_3.thisTrialN'
p1965
I0
sg332
g333
sg334
g335
sg49
g50
sa(dp1966
S'trials.thisIndex'
p1967
g38
(g76
S'\x08\x00\x00\x00\x00\x00\x00\x00'
p1968
tp1969
Rp1970
sg31
F0.5689001083374023
sg35
g36
sg317
g657
sg321
g660
sS'trials.thisRepN'
p1971
I2
sS'trials_3.thisN'
p1972
I0
sg37
g47
sg30
S'slash'
p1973
sS'trials.thisN'
p1974
I96
sS'trials_3.thisRepN'
p1975
I0
sg48
g12
sS'trials.thisTrialN'
p1976
I18
sg329
g158
sg325
g667
sg345
g670
sS'trials_3.thisIndex'
p1977
g107
sS'trials_3.thisTrialN'
p1978
I0
sg332
g333
sg334
g419
sg49
g50
sa(dp1979
S'trials.thisIndex'
p1980
g38
(g76
S'\x14\x00\x00\x00\x00\x00\x00\x00'
p1981
tp1982
Rp1983
sg31
F0.46729397773742676
sg35
g36
sg317
g1002
sg321
g1005
sS'trials.thisRepN'
p1984
I2
sS'trials_3.thisN'
p1985
I0
sg37
g47
sg30
S'z'
p1986
sS'trials.thisN'
p1987
I97
sS'trials_3.thisRepN'
p1988
I0
sg48
g12
sS'trials.thisTrialN'
p1989
I19
sg329
g102
sg325
g1012
sg345
g1015
sS'trials_3.thisIndex'
p1990
g107
sS'trials_3.thisTrialN'
p1991
I0
sg332
g333
sg334
g395
sg49
g50
sa(dp1992
S'trials.thisIndex'
p1993
g38
(g76
S'\x07\x00\x00\x00\x00\x00\x00\x00'
p1994
tp1995
Rp1996
sg31
F0.5022070407867432
sg35
g36
sg317
g496
sg321
g499
sS'trials.thisRepN'
p1997
I2
sS'trials_3.thisN'
p1998
I0
sg37
g47
sg30
S'slash'
p1999
sS'trials.thisN'
p2000
I98
sS'trials_3.thisRepN'
p2001
I0
sg48
g12
sS'trials.thisTrialN'
p2002
I20
sg329
g158
sg325
g506
sg345
g509
sS'trials_3.thisIndex'
p2003
g107
sS'trials_3.thisTrialN'
p2004
I0
sg332
g333
sg334
g419
sg49
g50
sa(dp2005
S'trials.thisIndex'
p2006
g38
(g76
S'\x05\x00\x00\x00\x00\x00\x00\x00'
p2007
tp2008
Rp2009
sg31
F0.40087294578552246
sg35
g36
sg317
g379
sg321
g382
sS'trials.thisRepN'
p2010
I2
sS'trials_3.thisN'
p2011
I0
sg37
g47
sg30
S'slash'
p2012
sS'trials.thisN'
p2013
I99
sS'trials_3.thisRepN'
p2014
I0
sg48
g12
sS'trials.thisTrialN'
p2015
I21
sg329
g158
sg325
g389
sg345
g392
sS'trials_3.thisIndex'
p2016
g107
sS'trials_3.thisTrialN'
p2017
I0
sg332
g333
sg334
g395
sg49
g50
sa(dp2018
S'trials.thisIndex'
p2019
g38
(g76
S'\x1a\x00\x00\x00\x00\x00\x00\x00'
p2020
tp2021
Rp2022
sg31
F0.4861640930175781
sg35
g36
sg317
g403
sg321
g406
sS'trials.thisRepN'
p2023
I2
sS'trials_3.thisN'
p2024
I0
sg37
g47
sg30
S'slash'
p2025
sS'trials.thisN'
p2026
I100
sS'trials_3.thisRepN'
p2027
I0
sg48
g12
sS'trials.thisTrialN'
p2028
I22
sg329
g102
sg325
g413
sg345
g416
sS'trials_3.thisIndex'
p2029
g107
sS'trials_3.thisTrialN'
p2030
I0
sg332
g333
sg334
g419
sg49
g50
sa(dp2031
S'trials.thisIndex'
p2032
g38
(g76
S'\x0e\x00\x00\x00\x00\x00\x00\x00'
p2033
tp2034
Rp2035
sg31
F0.3698430061340332
sg35
g36
sg317
g1117
sg321
g1120
sS'trials.thisRepN'
p2036
I2
sS'trials_3.thisN'
p2037
I0
sg37
g47
sg30
S'z'
p2038
sS'trials.thisN'
p2039
I101
sS'trials_3.thisRepN'
p2040
I0
sg48
g12
sS'trials.thisTrialN'
p2041
I23
sg329
g102
sg325
g1127
sg345
g1130
sS'trials_3.thisIndex'
p2042
g107
sS'trials_3.thisTrialN'
p2043
I0
sg332
g333
sg334
g335
sg49
g50
sa(dp2044
S'trials.thisIndex'
p2045
g38
(g76
S'\x0b\x00\x00\x00\x00\x00\x00\x00'
p2046
tp2047
Rp2048
sg31
F0.6690988540649414
sg35
g36
sg317
g864
sg321
g867
sS'trials.thisRepN'
p2049
I2
sS'trials_3.thisN'
p2050
I0
sg37
g47
sg30
S'z'
p2051
sS'trials.thisN'
p2052
I102
sS'trials_3.thisRepN'
p2053
I0
sg48
g12
sS'trials.thisTrialN'
p2054
I24
sg329
g158
sg325
g874
sg345
g877
sS'trials_3.thisIndex'
p2055
g107
sS'trials_3.thisTrialN'
p2056
I0
sg332
g333
sg334
g419
sg49
g50
sa(dp2057
S'trials.thisIndex'
p2058
g38
(g76
S'\x0f\x00\x00\x00\x00\x00\x00\x00'
p2059
tp2060
Rp2061
sg31
F0.6362471580505371
sg35
g36
sg317
g726
sg321
g729
sS'trials.thisRepN'
p2062
I2
sS'trials_3.thisN'
p2063
I0
sg37
g47
sg30
S'z'
p2064
sS'trials.thisN'
p2065
I103
sS'trials_3.thisRepN'
p2066
I0
sg48
g12
sS'trials.thisTrialN'
p2067
I25
sg329
g102
sg325
g736
sg345
g739
sS'trials_3.thisIndex'
p2068
g107
sS'trials_3.thisTrialN'
p2069
I0
sg332
g333
sg334
g395
sg49
g50
sa(dp2070
S'trials.thisIndex'
p2071
g38
(g76
S'\x17\x00\x00\x00\x00\x00\x00\x00'
p2072
tp2073
Rp2074
sg31
F0.18358492851257324
sg35
g36
sg317
g588
sg321
g591
sS'trials.thisRepN'
p2075
I2
sS'trials_3.thisN'
p2076
I0
sg37
g47
sg30
S'z'
p2077
sS'trials.thisN'
p2078
I104
sS'trials_3.thisRepN'
p2079
I0
sg48
g12
sS'trials.thisTrialN'
p2080
I26
sg329
g102
sg325
g598
sg345
g601
sS'trials_3.thisIndex'
p2081
g107
sS'trials_3.thisTrialN'
p2082
I0
sg332
g333
sg334
g419
sg49
g50
sa(dp2083
S'trials.thisIndex'
p2084
g38
(g76
S'\x12\x00\x00\x00\x00\x00\x00\x00'
p2085
tp2086
Rp2087
sg31
F0.15261507034301758
sg35
g36
sg317
g634
sg321
g637
sS'trials.thisRepN'
p2088
I2
sS'trials_3.thisN'
p2089
I0
sg37
g47
sg30
S'slash'
p2090
sS'trials.thisN'
p2091
I105
sS'trials_3.thisRepN'
p2092
I0
sg48
g12
sS'trials.thisTrialN'
p2093
I27
sg329
g102
sg325
g644
sg345
g647
sS'trials_3.thisIndex'
p2094
g107
sS'trials_3.thisTrialN'
p2095
I0
sg332
g333
sg334
g395
sg49
g50
sa(dp2096
S'trials.thisIndex'
p2097
g38
(g76
S'\x00\x00\x00\x00\x00\x00\x00\x00'
p2098
tp2099
Rp2100
sg31
F0.4196500778198242
sg35
g36
sg317
g320
sg321
g324
sS'trials.thisRepN'
p2101
I2
sS'trials_3.thisN'
p2102
I0
sg37
g47
sg30
S'z'
p2103
sS'trials.thisN'
p2104
I106
sS'trials_3.thisRepN'
p2105
I0
sg48
g12
sS'trials.thisTrialN'
p2106
I28
sg329
g158
sg325
g326
sg345
g348
sS'trials_3.thisIndex'
p2107
g107
sS'trials_3.thisTrialN'
p2108
I0
sg332
g333
sg334
g335
sg49
g50
sa(dp2109
S'trials.thisIndex'
p2110
g38
(g76
S'\x16\x00\x00\x00\x00\x00\x00\x00'
p2111
tp2112
Rp2113
sg31
F0.31884098052978516
sg35
g36
sg317
g703
sg321
g706
sS'trials.thisRepN'
p2114
I2
sS'trials_3.thisN'
p2115
I0
sg37
g47
sg30
S'slash'
p2116
sS'trials.thisN'
p2117
I107
sS'trials_3.thisRepN'
p2118
I0
sg48
g12
sS'trials.thisTrialN'
p2119
I29
sg329
g102
sg325
g713
sg345
g716
sS'trials_3.thisIndex'
p2120
g107
sS'trials_3.thisTrialN'
p2121
I0
sg332
g333
sg334
g419
sg49
g50
sa(dp2122
S'trials.thisIndex'
p2123
g38
(g76
S'"\x00\x00\x00\x00\x00\x00\x00'
p2124
tp2125
Rp2126
sg31
F0.4189150333404541
sg35
g36
sg317
g1186
sg321
g1189
sS'trials.thisRepN'
p2127
I2
sS'trials_3.thisN'
p2128
I0
sg37
g47
sg30
S'z'
p2129
sS'trials.thisN'
p2130
I108
sS'trials_3.thisRepN'
p2131
I0
sg48
g12
sS'trials.thisTrialN'
p2132
I30
sg329
g132
sg325
g1196
sg345
g1199
sS'trials_3.thisIndex'
p2133
g107
sS'trials_3.thisTrialN'
p2134
I0
sg332
g333
sg334
g395
sg49
g50
sa(dp2135
S'trials.thisIndex'
p2136
g38
(g76
S'$\x00\x00\x00\x00\x00\x00\x00'
p2137
tp2138
Rp2139
sg31
F0.2533998489379883
sg35
g36
sg317
g1140
sg321
g1143
sS'trials.thisRepN'
p2140
I2
sS'trials_3.thisN'
p2141
I0
sg37
g47
sg30
S'z'
p2142
sS'trials.thisN'
p2143
I109
sS'trials_3.thisRepN'
p2144
I0
sg48
g12
sS'trials.thisTrialN'
p2145
I31
sg329
g132
sg325
g1150
sg345
g1153
sS'trials_3.thisIndex'
p2146
g107
sS'trials_3.thisTrialN'
p2147
I0
sg332
g333
sg334
g419
sg49
g50
sa(dp2148
S'trials.thisIndex'
p2149
g38
(g76
S'\x1e\x00\x00\x00\x00\x00\x00\x00'
p2150
tp2151
Rp2152
sg31
F0.3858468532562256
sg35
g36
sg317
g1094
sg321
g1097
sS'trials.thisRepN'
p2153
I2
sS'trials_3.thisN'
p2154
I0
sg37
g47
sg30
S'z'
p2155
sS'trials.thisN'
p2156
I110
sS'trials_3.thisRepN'
p2157
I0
sg48
g12
sS'trials.thisTrialN'
p2158
I32
sg329
g132
sg325
g1104
sg345
g1107
sS'trials_3.thisIndex'
p2159
g107
sS'trials_3.thisTrialN'
p2160
I0
sg332
g333
sg334
g395
sg49
g50
sa(dp2161
S'trials.thisIndex'
p2162
g38
(g76
S'\x11\x00\x00\x00\x00\x00\x00\x00'
p2163
tp2164
Rp2165
sg31
F0.30064988136291504
sg35
g36
sg317
g1048
sg321
g1051
sS'trials.thisRepN'
p2166
I2
sS'trials_3.thisN'
p2167
I0
sg37
g47
sg30
S'slash'
p2168
sS'trials.thisN'
p2169
I111
sS'trials_3.thisRepN'
p2170
I0
sg48
g12
sS'trials.thisTrialN'
p2171
I33
sg329
g102
sg325
g1058
sg345
g1061
sS'trials_3.thisIndex'
p2172
g107
sS'trials_3.thisTrialN'
p2173
I0
sg332
g333
sg334
g395
sg49
g50
sa(dp2174
S'trials.thisIndex'
p2175
g38
(g76
S'\x15\x00\x00\x00\x00\x00\x00\x00'
p2176
tp2177
Rp2178
sg31
F0.38634705543518066
sg35
g36
sg317
g979
sg321
g982
sS'trials.thisRepN'
p2179
I2
sS'trials_3.thisN'
p2180
I0
sg37
g47
sg30
S'slash'
p2181
sS'trials.thisN'
p2182
I112
sS'trials_3.thisRepN'
p2183
I0
sg48
g12
sS'trials.thisTrialN'
p2184
I34
sg329
g102
sg325
g989
sg345
g992
sS'trials_3.thisIndex'
p2185
g107
sS'trials_3.thisTrialN'
p2186
I0
sg332
g333
sg334
g419
sg49
g50
sa(dp2187
S'trials.thisIndex'
p2188
g38
(g76
S'\x1b\x00\x00\x00\x00\x00\x00\x00'
p2189
tp2190
Rp2191
sg31
F0.4189019203186035
sg35
g36
sg317
g795
sg321
g798
sS'trials.thisRepN'
p2192
I2
sS'trials_3.thisN'
p2193
I0
sg37
g47
sg30
S'z'
p2194
sS'trials.thisN'
p2195
I113
sS'trials_3.thisRepN'
p2196
I0
sg48
g12
sS'trials.thisTrialN'
p2197
I35
sg329
g102
sg325
g805
sg345
g808
sS'trials_3.thisIndex'
p2198
g107
sS'trials_3.thisTrialN'
p2199
I0
sg332
g333
sg334
g419
sg49
g50
sa(dp2200
S'trials.thisIndex'
p2201
g38
(g76
S'\x04\x00\x00\x00\x00\x00\x00\x00'
p2202
tp2203
Rp2204
sg31
F0.5357639789581299
sg35
g36
sg317
g818
sg321
g821
sS'trials.thisRepN'
p2205
I2
sS'trials_3.thisN'
p2206
I0
sg37
g47
sg30
S'slash'
p2207
sS'trials.thisN'
p2208
I114
sS'trials_3.thisRepN'
p2209
I0
sg48
g12
sS'trials.thisTrialN'
p2210
I36
sg329
g158
sg325
g828
sg345
g831
sS'trials_3.thisIndex'
p2211
g107
sS'trials_3.thisTrialN'
p2212
I0
sg332
g333
sg334
g395
sg49
g50
sa(dp2213
S'trials.thisIndex'
p2214
g38
(g76
S'\x0c\x00\x00\x00\x00\x00\x00\x00'
p2215
tp2216
Rp2217
sg31
F0.3688359260559082
sg35
g36
sg317
g1163
sg321
g1166
sS'trials.thisRepN'
p2218
I2
sS'trials_3.thisN'
p2219
I0
sg37
g47
sg30
S'z'
p2220
sS'trials.thisN'
p2221
I115
sS'trials_3.thisRepN'
p2222
I0
sg48
g12
sS'trials.thisTrialN'
p2223
I37
sg329
g158
sg325
g1173
sg345
g1176
sS'trials_3.thisIndex'
p2224
g107
sS'trials_3.thisTrialN'
p2225
I0
sg332
g333
sg334
g419
sg49
g50
sa(dp2226
S'trials.thisIndex'
p2227
g38
(g76
S'\x1d\x00\x00\x00\x00\x00\x00\x00'
p2228
tp2229
Rp2230
sg31
F0.36897993087768555
sg35
g36
sg317
g565
sg321
g568
sS'trials.thisRepN'
p2231
I2
sS'trials_3.thisN'
p2232
I0
sg37
g47
sg30
S'z'
p2233
sS'trials.thisN'
p2234
I116
sS'trials_3.thisRepN'
p2235
I0
sg48
g12
sS'trials.thisTrialN'
p2236
I38
sg329
g132
sg325
g575
sg345
g578
sS'trials_3.thisIndex'
p2237
g107
sS'trials_3.thisTrialN'
p2238
I0
sg332
g333
sg334
g395
sg49
g50
sa(dp2239
S'trials.thisIndex'
p2240
g38
(g76
S'\n\x00\x00\x00\x00\x00\x00\x00'
p2241
tp2242
Rp2243
sg31
F0.7354528903961182
sg35
g36
sg317
g910
sg321
g913
sS'trials.thisRepN'
p2244
I3
sS'trials_3.thisN'
p2245
I0
sg37
g47
sg30
S'z'
p2246
sS'trials.thisN'
p2247
I117
sS'trials_3.thisRepN'
p2248
I0
sg48
g12
sS'trials.thisTrialN'
p2249
I0
sg329
g158
sg325
g920
sg345
g923
sS'trials_3.thisIndex'
p2250
g107
sS'trials_3.thisTrialN'
p2251
I0
sg332
g333
sg334
g419
sg49
g50
sa(dp2252
S'trials.thisIndex'
p2253
g38
(g76
S'\x16\x00\x00\x00\x00\x00\x00\x00'
p2254
tp2255
Rp2256
sg31
F0.38625311851501465
sg35
g36
sg317
g703
sg321
g706
sS'trials.thisRepN'
p2257
I3
sS'trials_3.thisN'
p2258
I0
sg37
g47
sg30
S'slash'
p2259
sS'trials.thisN'
p2260
I118
sS'trials_3.thisRepN'
p2261
I0
sg48
g12
sS'trials.thisTrialN'
p2262
I1
sg329
g102
sg325
g713
sg345
g716
sS'trials_3.thisIndex'
p2263
g107
sS'trials_3.thisTrialN'
p2264
I0
sg332
g333
sg334
g419
sg49
g50
sa(dp2265
S'trials.thisIndex'
p2266
g38
(g76
S'\x13\x00\x00\x00\x00\x00\x00\x00'
p2267
tp2268
Rp2269
sg31
F0.33581089973449707
sg35
g36
sg317
g1209
sg321
g1212
sS'trials.thisRepN'
p2270
I3
sS'trials_3.thisN'
p2271
I0
sg37
g47
sg30
S'slash'
p2272
sS'trials.thisN'
p2273
I119
sS'trials_3.thisRepN'
p2274
I0
sg48
g12
sS'trials.thisTrialN'
p2275
I2
sg329
g102
sg325
g1219
sg345
g1222
sS'trials_3.thisIndex'
p2276
g107
sS'trials_3.thisTrialN'
p2277
I0
sg332
g333
sg334
g395
sg49
g50
sa(dp2278
S'trials.thisIndex'
p2279
g38
(g76
S'\x12\x00\x00\x00\x00\x00\x00\x00'
p2280
tp2281
Rp2282
sg31
F0.35308003425598145
sg35
g36
sg317
g634
sg321
g637
sS'trials.thisRepN'
p2283
I3
sS'trials_3.thisN'
p2284
I0
sg37
g47
sg30
S'slash'
p2285
sS'trials.thisN'
p2286
I120
sS'trials_3.thisRepN'
p2287
I0
sg48
g12
sS'trials.thisTrialN'
p2288
I3
sg329
g102
sg325
g644
sg345
g647
sS'trials_3.thisIndex'
p2289
g107
sS'trials_3.thisTrialN'
p2290
I0
sg332
g333
sg334
g395
sg49
g50
sa(dp2291
S'trials.thisIndex'
p2292
g38
(g76
S'\x06\x00\x00\x00\x00\x00\x00\x00'
p2293
tp2294
Rp2295
sg31
F0.5522310733795166
sg35
g36
sg317
g450
sg321
g453
sS'trials.thisRepN'
p2296
I3
sS'trials_3.thisN'
p2297
I0
sg37
g47
sg30
S'slash'
p2298
sS'trials.thisN'
p2299
I121
sS'trials_3.thisRepN'
p2300
I0
sg48
g12
sS'trials.thisTrialN'
p2301
I4
sg329
g158
sg325
g460
sg345
g463
sS'trials_3.thisIndex'
p2302
g107
sS'trials_3.thisTrialN'
p2303
I0
sg332
g333
sg334
g395
sg49
g50
sa(dp2304
S'trials.thisIndex'
p2305
g38
(g76
S'\t\x00\x00\x00\x00\x00\x00\x00'
p2306
tp2307
Rp2308
sg31
F0.45046401023864746
sg35
g36
sg317
g933
sg321
g936
sS'trials.thisRepN'
p2309
I3
sS'trials_3.thisN'
p2310
I0
sg37
g47
sg30
S'slash'
p2311
sS'trials.thisN'
p2312
I122
sS'trials_3.thisRepN'
p2313
I0
sg48
g12
sS'trials.thisTrialN'
p2314
I5
sg329
g158
sg325
g943
sg345
g946
sS'trials_3.thisIndex'
p2315
g107
sS'trials_3.thisTrialN'
p2316
I0
sg332
g333
sg334
g419
sg49
g50
sa(dp2317
S'trials.thisIndex'
p2318
g38
(g76
S'\x1f\x00\x00\x00\x00\x00\x00\x00'
p2319
tp2320
Rp2321
sg31
F0.30257081985473633
sg35
g36
sg317
g841
sg321
g844
sS'trials.thisRepN'
p2322
I3
sS'trials_3.thisN'
p2323
I0
sg37
g47
sg30
S'z'
p2324
sS'trials.thisN'
p2325
I123
sS'trials_3.thisRepN'
p2326
I0
sg48
g12
sS'trials.thisTrialN'
p2327
I6
sg329
g132
sg325
g851
sg345
g854
sS'trials_3.thisIndex'
p2328
g107
sS'trials_3.thisTrialN'
p2329
I0
sg332
g333
sg334
g395
sg49
g50
sa(dp2330
S'trials.thisIndex'
p2331
g38
(g76
S'\x11\x00\x00\x00\x00\x00\x00\x00'
p2332
tp2333
Rp2334
sg31
F0.43641114234924316
sg35
g36
sg317
g1048
sg321
g1051
sS'trials.thisRepN'
p2335
I3
sS'trials_3.thisN'
p2336
I0
sg37
g47
sg30
S'slash'
p2337
sS'trials.thisN'
p2338
I124
sS'trials_3.thisRepN'
p2339
I0
sg48
g12
sS'trials.thisTrialN'
p2340
I7
sg329
g102
sg325
g1058
sg345
g1061
sS'trials_3.thisIndex'
p2341
g107
sS'trials_3.thisTrialN'
p2342
I0
sg332
g333
sg334
g395
sg49
g50
sa(dp2343
S'trials.thisIndex'
p2344
g38
(g76
S'\x1c\x00\x00\x00\x00\x00\x00\x00'
p2345
tp2346
Rp2347
sg31
F0.25281310081481934
sg35
g36
sg317
g356
sg321
g359
sS'trials.thisRepN'
p2348
I3
sS'trials_3.thisN'
p2349
I0
sg37
g47
sg30
S'z'
p2350
sS'trials.thisN'
p2351
I125
sS'trials_3.thisRepN'
p2352
I0
sg48
g12
sS'trials.thisTrialN'
p2353
I8
sg329
g132
sg325
g366
sg345
g369
sS'trials_3.thisIndex'
p2354
g107
sS'trials_3.thisTrialN'
p2355
I0
sg332
g333
sg334
g335
sg49
g50
sa(dp2356
S'trials.thisIndex'
p2357
g38
(g76
S'#\x00\x00\x00\x00\x00\x00\x00'
p2358
tp2359
Rp2360
sg31
F0.43634700775146484
sg35
g36
sg317
g749
sg321
g752
sS'trials.thisRepN'
p2361
I3
sS'trials_3.thisN'
p2362
I0
sg37
g47
sg30
S'slash'
p2363
sS'trials.thisN'
p2364
I126
sS'trials_3.thisRepN'
p2365
I0
sg48
g12
sS'trials.thisTrialN'
p2366
I9
sg329
g132
sg325
g759
sg345
g762
sS'trials_3.thisIndex'
p2367
g107
sS'trials_3.thisTrialN'
p2368
I0
sg332
g333
sg334
g419
sg49
g50
sa(dp2369
S'trials.thisIndex'
p2370
g38
(g76
S'!\x00\x00\x00\x00\x00\x00\x00'
p2371
tp2372
Rp2373
sg31
F0.3524010181427002
sg35
g36
sg317
g956
sg321
g959
sS'trials.thisRepN'
p2374
I3
sS'trials_3.thisN'
p2375
I0
sg37
g47
sg30
S'slash'
p2376
sS'trials.thisN'
p2377
I127
sS'trials_3.thisRepN'
p2378
I0
sg48
g12
sS'trials.thisTrialN'
p2379
I10
sg329
g132
sg325
g966
sg345
g969
sS'trials_3.thisIndex'
p2380
g107
sS'trials_3.thisTrialN'
p2381
I0
sg332
g333
sg334
g395
sg49
g50
sa(dp2382
S'trials.thisIndex'
p2383
g38
(g76
S'\x0e\x00\x00\x00\x00\x00\x00\x00'
p2384
tp2385
Rp2386
sg31
F0.3172910213470459
sg35
g36
sg317
g1117
sg321
g1120
sS'trials.thisRepN'
p2387
I3
sS'trials_3.thisN'
p2388
I0
sg37
g47
sg30
S'z'
p2389
sS'trials.thisN'
p2390
I128
sS'trials_3.thisRepN'
p2391
I0
sg48
g12
sS'trials.thisTrialN'
p2392
I11
sg329
g102
sg325
g1127
sg345
g1130
sS'trials_3.thisIndex'
p2393
g107
sS'trials_3.thisTrialN'
p2394
I0
sg332
g333
sg334
g335
sg49
g50
sa(dp2395
S'trials.thisIndex'
p2396
g38
(g76
S'$\x00\x00\x00\x00\x00\x00\x00'
p2397
tp2398
Rp2399
sg31
F0.6365611553192139
sg35
g36
sg317
g1140
sg321
g1143
sS'trials.thisRepN'
p2400
I3
sS'trials_3.thisN'
p2401
I0
sg37
g47
sg30
S'z'
p2402
sS'trials.thisN'
p2403
I129
sS'trials_3.thisRepN'
p2404
I0
sg48
g12
sS'trials.thisTrialN'
p2405
I12
sg329
g132
sg325
g1150
sg345
g1153
sS'trials_3.thisIndex'
p2406
g107
sS'trials_3.thisTrialN'
p2407
I0
sg332
g333
sg334
g419
sg49
g50
sa(dp2408
S'trials.thisIndex'
p2409
g38
(g76
S'\x1a\x00\x00\x00\x00\x00\x00\x00'
p2410
tp2411
Rp2412
sg31
F0.2694849967956543
sg35
g36
sg317
g403
sg321
g406
sS'trials.thisRepN'
p2413
I3
sS'trials_3.thisN'
p2414
I0
sg37
g47
sg30
S'z'
p2415
sS'trials.thisN'
p2416
I130
sS'trials_3.thisRepN'
p2417
I0
sg48
g12
sS'trials.thisTrialN'
p2418
I13
sg329
g102
sg325
g413
sg345
g416
sS'trials_3.thisIndex'
p2419
g107
sS'trials_3.thisTrialN'
p2420
I0
sg332
g333
sg334
g419
sg49
g50
sa(dp2421
S'trials.thisIndex'
p2422
g38
(g76
S'\x1e\x00\x00\x00\x00\x00\x00\x00'
p2423
tp2424
Rp2425
sg31
F0.43562984466552734
sg35
g36
sg317
g1094
sg321
g1097
sS'trials.thisRepN'
p2426
I3
sS'trials_3.thisN'
p2427
I0
sg37
g47
sg30
S'z'
p2428
sS'trials.thisN'
p2429
I131
sS'trials_3.thisRepN'
p2430
I0
sg48
g12
sS'trials.thisTrialN'
p2431
I14
sg329
g132
sg325
g1104
sg345
g1107
sS'trials_3.thisIndex'
p2432
g107
sS'trials_3.thisTrialN'
p2433
I0
sg332
g333
sg334
g395
sg49
g50
sa(dp2434
S'trials.thisIndex'
p2435
g38
(g76
S'\x1d\x00\x00\x00\x00\x00\x00\x00'
p2436
tp2437
Rp2438
sg31
F0.3690311908721924
sg35
g36
sg317
g565
sg321
g568
sS'trials.thisRepN'
p2439
I3
sS'trials_3.thisN'
p2440
I0
sg37
g47
sg30
S'z'
p2441
sS'trials.thisN'
p2442
I132
sS'trials_3.thisRepN'
p2443
I0
sg48
g12
sS'trials.thisTrialN'
p2444
I15
sg329
g132
sg325
g575
sg345
g578
sS'trials_3.thisIndex'
p2445
g107
sS'trials_3.thisTrialN'
p2446
I0
sg332
g333
sg334
g395
sg49
g50
sa(dp2447
S'trials.thisIndex'
p2448
g38
(g76
S'%\x00\x00\x00\x00\x00\x00\x00'
p2449
tp2450
Rp2451
sg31
F0.7531161308288574
sg35
g36
sg317
g542
sg321
g545
sS'trials.thisRepN'
p2452
I3
sS'trials_3.thisN'
p2453
I0
sg37
g47
sg30
S'z'
p2454
sS'trials.thisN'
p2455
I133
sS'trials_3.thisRepN'
p2456
I0
sg48
g12
sS'trials.thisTrialN'
p2457
I16
sg329
g132
sg325
g552
sg345
g555
sS'trials_3.thisIndex'
p2458
g107
sS'trials_3.thisTrialN'
p2459
I0
sg332
g333
sg334
g419
sg49
g50
sa(dp2460
S'trials.thisIndex'
p2461
g38
(g76
S'\x02\x00\x00\x00\x00\x00\x00\x00'
p2462
tp2463
Rp2464
sg31
F0.3187081813812256
sg35
g36
sg317
g473
sg321
g476
sS'trials.thisRepN'
p2465
I3
sS'trials_3.thisN'
p2466
I0
sg37
g47
sg30
S'slash'
p2467
sS'trials.thisN'
p2468
I134
sS'trials_3.thisRepN'
p2469
I0
sg48
g12
sS'trials.thisTrialN'
p2470
I17
sg329
g158
sg325
g483
sg345
g486
sS'trials_3.thisIndex'
p2471
g107
sS'trials_3.thisTrialN'
p2472
I0
sg332
g333
sg334
g395
sg49
g50
sa(dp2473
S'trials.thisIndex'
p2474
g38
(g76
S'\x01\x00\x00\x00\x00\x00\x00\x00'
p2475
tp2476
Rp2477
sg31
F0.7199070453643799
sg35
g36
sg317
g887
sg321
g890
sS'trials.thisRepN'
p2478
I3
sS'trials_3.thisN'
p2479
I0
sg37
g47
sg30
S'z'
p2480
sS'trials.thisN'
p2481
I135
sS'trials_3.thisRepN'
p2482
I0
sg48
g12
sS'trials.thisTrialN'
p2483
I18
sg329
g158
sg325
g897
sg345
g900
sS'trials_3.thisIndex'
p2484
g107
sS'trials_3.thisTrialN'
p2485
I0
sg332
g333
sg334
g395
sg49
g50
sa(dp2486
S'trials.thisIndex'
p2487
g38
(g76
S'\x07\x00\x00\x00\x00\x00\x00\x00'
p2488
tp2489
Rp2490
sg31
F0.4694812297821045
sg35
g36
sg317
g496
sg321
g499
sS'trials.thisRepN'
p2491
I3
sS'trials_3.thisN'
p2492
I0
sg37
g47
sg30
S'slash'
p2493
sS'trials.thisN'
p2494
I136
sS'trials_3.thisRepN'
p2495
I0
sg48
g12
sS'trials.thisTrialN'
p2496
I19
sg329
g158
sg325
g506
sg345
g509
sS'trials_3.thisIndex'
p2497
g107
sS'trials_3.thisTrialN'
p2498
I0
sg332
g333
sg334
g419
sg49
g50
sa(dp2499
S'trials.thisIndex'
p2500
g38
(g76
S'\x1b\x00\x00\x00\x00\x00\x00\x00'
p2501
tp2502
Rp2503
sg31
F0.3362109661102295
sg35
g36
sg317
g795
sg321
g798
sS'trials.thisRepN'
p2504
I3
sS'trials_3.thisN'
p2505
I0
sg37
g47
sg30
S'z'
p2506
sS'trials.thisN'
p2507
I137
sS'trials_3.thisRepN'
p2508
I0
sg48
g12
sS'trials.thisTrialN'
p2509
I20
sg329
g102
sg325
g805
sg345
g808
sS'trials_3.thisIndex'
p2510
g107
sS'trials_3.thisTrialN'
p2511
I0
sg332
g333
sg334
g419
sg49
g50
sa(dp2512
S'trials.thisIndex'
p2513
g38
(g76
S'\x0b\x00\x00\x00\x00\x00\x00\x00'
p2514
tp2515
Rp2516
sg31
F0.6361839771270752
sg35
g36
sg317
g864
sg321
g867
sS'trials.thisRepN'
p2517
I3
sS'trials_3.thisN'
p2518
I0
sg37
g47
sg30
S'z'
p2519
sS'trials.thisN'
p2520
I138
sS'trials_3.thisRepN'
p2521
I0
sg48
g12
sS'trials.thisTrialN'
p2522
I21
sg329
g158
sg325
g874
sg345
g877
sS'trials_3.thisIndex'
p2523
g107
sS'trials_3.thisTrialN'
p2524
I0
sg332
g333
sg334
g419
sg49
g50
sa(dp2525
S'trials.thisIndex'
p2526
g38
(g76
S'\x19\x00\x00\x00\x00\x00\x00\x00'
p2527
tp2528
Rp2529
sg31
F0.41969895362854004
sg35
g36
sg317
g519
sg321
g522
sS'trials.thisRepN'
p2530
I3
sS'trials_3.thisN'
p2531
I0
sg37
g47
sg30
S'z'
p2532
sS'trials.thisN'
p2533
I139
sS'trials_3.thisRepN'
p2534
I0
sg48
g12
sS'trials.thisTrialN'
p2535
I22
sg329
g102
sg325
g529
sg345
g532
sS'trials_3.thisIndex'
p2536
g107
sS'trials_3.thisTrialN'
p2537
I0
sg332
g333
sg334
g419
sg49
g50
sa(dp2538
S'trials.thisIndex'
p2539
g38
(g76
S'\x00\x00\x00\x00\x00\x00\x00\x00'
p2540
tp2541
Rp2542
sg31
F0.3863542079925537
sg35
g36
sg317
g320
sg321
g324
sS'trials.thisRepN'
p2543
I3
sS'trials_3.thisN'
p2544
I0
sg37
g47
sg30
S'z'
p2545
sS'trials.thisN'
p2546
I140
sS'trials_3.thisRepN'
p2547
I0
sg48
g12
sS'trials.thisTrialN'
p2548
I23
sg329
g158
sg325
g326
sg345
g348
sS'trials_3.thisIndex'
p2549
g107
sS'trials_3.thisTrialN'
p2550
I0
sg332
g333
sg334
g335
sg49
g50
sa(dp2551
S'trials.thisIndex'
p2552
g38
(g76
S'\x08\x00\x00\x00\x00\x00\x00\x00'
p2553
tp2554
Rp2555
sg31
F0.43384599685668945
sg35
g36
sg317
g657
sg321
g660
sS'trials.thisRepN'
p2556
I3
sS'trials_3.thisN'
p2557
I0
sg37
g47
sg30
S'slash'
p2558
sS'trials.thisN'
p2559
I141
sS'trials_3.thisRepN'
p2560
I0
sg48
g12
sS'trials.thisTrialN'
p2561
I24
sg329
g158
sg325
g667
sg345
g670
sS'trials_3.thisIndex'
p2562
g107
sS'trials_3.thisTrialN'
p2563
I0
sg332
g333
sg334
g419
sg49
g50
sa(dp2564
S'trials.thisIndex'
p2565
g38
(g76
S'\x14\x00\x00\x00\x00\x00\x00\x00'
p2566
tp2567
Rp2568
sg31
F0.43617796897888184
sg35
g36
sg317
g1002
sg321
g1005
sS'trials.thisRepN'
p2569
I3
sS'trials_3.thisN'
p2570
I0
sg37
g47
sg30
S'slash'
p2571
sS'trials.thisN'
p2572
I142
sS'trials_3.thisRepN'
p2573
I0
sg48
g12
sS'trials.thisTrialN'
p2574
I25
sg329
g102
sg325
g1012
sg345
g1015
sS'trials_3.thisIndex'
p2575
g107
sS'trials_3.thisTrialN'
p2576
I0
sg332
g333
sg334
g395
sg49
g50
sa(dp2577
S'trials.thisIndex'
p2578
g38
(g76
S'\x0c\x00\x00\x00\x00\x00\x00\x00'
p2579
tp2580
Rp2581
sg31
F0.45299315452575684
sg35
g36
sg317
g1163
sg321
g1166
sS'trials.thisRepN'
p2582
I3
sS'trials_3.thisN'
p2583
I0
sg37
g47
sg30
S'slash'
p2584
sS'trials.thisN'
p2585
I143
sS'trials_3.thisRepN'
p2586
I0
sg48
g12
sS'trials.thisTrialN'
p2587
I26
sg329
g158
sg325
g1173
sg345
g1176
sS'trials_3.thisIndex'
p2588
g107
sS'trials_3.thisTrialN'
p2589
I0
sg332
g333
sg334
g419
sg49
g50
sa(dp2590
S'trials.thisIndex'
p2591
g38
(g76
S'"\x00\x00\x00\x00\x00\x00\x00'
p2592
tp2593
Rp2594
sg31
F0.45301103591918945
sg35
g36
sg317
g1186
sg321
g1189
sS'trials.thisRepN'
p2595
I3
sS'trials_3.thisN'
p2596
I0
sg37
g47
sg30
S'z'
p2597
sS'trials.thisN'
p2598
I144
sS'trials_3.thisRepN'
p2599
I0
sg48
g12
sS'trials.thisTrialN'
p2600
I27
sg329
g132
sg325
g1196
sg345
g1199
sS'trials_3.thisIndex'
p2601
g107
sS'trials_3.thisTrialN'
p2602
I0
sg332
g333
sg334
g395
sg49
g50
sa(dp2603
S'trials.thisIndex'
p2604
g38
(g76
S'&\x00\x00\x00\x00\x00\x00\x00'
p2605
tp2606
Rp2607
sg31
F0.3355569839477539
sg35
g36
sg317
g1071
sg321
g1074
sS'trials.thisRepN'
p2608
I3
sS'trials_3.thisN'
p2609
I0
sg37
g47
sg30
S'z'
p2610
sS'trials.thisN'
p2611
I145
sS'trials_3.thisRepN'
p2612
I0
sg48
g12
sS'trials.thisTrialN'
p2613
I28
sg329
g132
sg325
g1081
sg345
g1084
sS'trials_3.thisIndex'
p2614
g107
sS'trials_3.thisTrialN'
p2615
I0
sg332
g333
sg334
g419
sg49
g50
sa(dp2616
S'trials.thisIndex'
p2617
g38
(g76
S'\x05\x00\x00\x00\x00\x00\x00\x00'
p2618
tp2619
Rp2620
sg31
F0.6198139190673828
sg35
g36
sg317
g379
sg321
g382
sS'trials.thisRepN'
p2621
I3
sS'trials_3.thisN'
p2622
I0
sg37
g47
sg30
S'slash'
p2623
sS'trials.thisN'
p2624
I146
sS'trials_3.thisRepN'
p2625
I0
sg48
g12
sS'trials.thisTrialN'
p2626
I29
sg329
g158
sg325
g389
sg345
g392
sS'trials_3.thisIndex'
p2627
g107
sS'trials_3.thisTrialN'
p2628
I0
sg332
g333
sg334
g395
sg49
g50
sa(dp2629
S'trials.thisIndex'
p2630
g38
(g76
S'\x15\x00\x00\x00\x00\x00\x00\x00'
p2631
tp2632
Rp2633
sg31
F0.31937098503112793
sg35
g36
sg317
g979
sg321
g982
sS'trials.thisRepN'
p2634
I3
sS'trials_3.thisN'
p2635
I0
sg37
g47
sg30
S'slash'
p2636
sS'trials.thisN'
p2637
I147
sS'trials_3.thisRepN'
p2638
I0
sg48
g12
sS'trials.thisTrialN'
p2639
I30
sg329
g102
sg325
g989
sg345
g992
sS'trials_3.thisIndex'
p2640
g107
sS'trials_3.thisTrialN'
p2641
I0
sg332
g333
sg334
g419
sg49
g50
sa(dp2642
S'trials.thisIndex'
p2643
g38
(g76
S'\x17\x00\x00\x00\x00\x00\x00\x00'
p2644
tp2645
Rp2646
sg31
F0.3866128921508789
sg35
g36
sg317
g588
sg321
g591
sS'trials.thisRepN'
p2647
I3
sS'trials_3.thisN'
p2648
I0
sg37
g47
sg30
S'slash'
p2649
sS'trials.thisN'
p2650
I148
sS'trials_3.thisRepN'
p2651
I0
sg48
g12
sS'trials.thisTrialN'
p2652
I31
sg329
g102
sg325
g598
sg345
g601
sS'trials_3.thisIndex'
p2653
g107
sS'trials_3.thisTrialN'
p2654
I0
sg332
g333
sg334
g419
sg49
g50
sa(dp2655
S'trials.thisIndex'
p2656
g38
(g76
S'\r\x00\x00\x00\x00\x00\x00\x00'
p2657
tp2658
Rp2659
sg31
F0.5532538890838623
sg35
g36
sg317
g1025
sg321
g1028
sS'trials.thisRepN'
p2660
I3
sS'trials_3.thisN'
p2661
I0
sg37
g47
sg30
S'z'
p2662
sS'trials.thisN'
p2663
I149
sS'trials_3.thisRepN'
p2664
I0
sg48
g12
sS'trials.thisTrialN'
p2665
I32
sg329
g158
sg325
g1035
sg345
g1038
sS'trials_3.thisIndex'
p2666
g107
sS'trials_3.thisTrialN'
p2667
I0
sg332
g333
sg334
g419
sg49
g50
sa(dp2668
S'trials.thisIndex'
p2669
g38
(g76
S'\x04\x00\x00\x00\x00\x00\x00\x00'
p2670
tp2671
Rp2672
sg31
F0.469135046005249
sg35
g36
sg317
g818
sg321
g821
sS'trials.thisRepN'
p2673
I3
sS'trials_3.thisN'
p2674
I0
sg37
g47
sg30
S'slash'
p2675
sS'trials.thisN'
p2676
I150
sS'trials_3.thisRepN'
p2677
I0
sg48
g12
sS'trials.thisTrialN'
p2678
I33
sg329
g158
sg325
g828
sg345
g831
sS'trials_3.thisIndex'
p2679
g107
sS'trials_3.thisTrialN'
p2680
I0
sg332
g333
sg334
g395
sg49
g50
sa(dp2681
S'trials.thisIndex'
p2682
g38
(g76
S' \x00\x00\x00\x00\x00\x00\x00'
p2683
tp2684
Rp2685
sg31
F0.5360739231109619
sg35
g36
sg317
g680
sg321
g683
sS'trials.thisRepN'
p2686
I3
sS'trials_3.thisN'
p2687
I0
sg37
g47
sg30
S'z'
p2688
sS'trials.thisN'
p2689
I151
sS'trials_3.thisRepN'
p2690
I0
sg48
g12
sS'trials.thisTrialN'
p2691
I34
sg329
g132
sg325
g690
sg345
g693
sS'trials_3.thisIndex'
p2692
g107
sS'trials_3.thisTrialN'
p2693
I0
sg332
g333
sg334
g395
sg49
g50
sa(dp2694
S'trials.thisIndex'
p2695
g38
(g76
S'\x0f\x00\x00\x00\x00\x00\x00\x00'
p2696
tp2697
Rp2698
sg31
F0.5697500705718994
sg35
g36
sg317
g726
sg321
g729
sS'trials.thisRepN'
p2699
I3
sS'trials_3.thisN'
p2700
I0
sg37
g47
sg30
S'z'
p2701
sS'trials.thisN'
p2702
I152
sS'trials_3.thisRepN'
p2703
I0
sg48
g12
sS'trials.thisTrialN'
p2704
I35
sg329
g102
sg325
g736
sg345
g739
sS'trials_3.thisIndex'
p2705
g107
sS'trials_3.thisTrialN'
p2706
I0
sg332
g333
sg334
g395
sg49
g50
sa(dp2707
S'trials.thisIndex'
p2708
g38
(g76
S'\x10\x00\x00\x00\x00\x00\x00\x00'
p2709
tp2710
Rp2711
sg31
F0.3361060619354248
sg35
g36
sg317
g772
sg321
g775
sS'trials.thisRepN'
p2712
I3
sS'trials_3.thisN'
p2713
I0
sg37
g47
sg30
S'z'
p2714
sS'trials.thisN'
p2715
I153
sS'trials_3.thisRepN'
p2716
I0
sg48
g12
sS'trials.thisTrialN'
p2717
I36
sg329
g102
sg325
g782
sg345
g785
sS'trials_3.thisIndex'
p2718
g107
sS'trials_3.thisTrialN'
p2719
I0
sg332
g333
sg334
g395
sg49
g50
sa(dp2720
S'trials.thisIndex'
p2721
g38
(g76
S'\x18\x00\x00\x00\x00\x00\x00\x00'
p2722
tp2723
Rp2724
sg31
F0.5190069675445557
sg35
g36
sg317
g611
sg321
g614
sS'trials.thisRepN'
p2725
I3
sS'trials_3.thisN'
p2726
I0
sg37
g47
sg30
S'slash'
p2727
sS'trials.thisN'
p2728
I154
sS'trials_3.thisRepN'
p2729
I0
sg48
g12
sS'trials.thisTrialN'
p2730
I37
sg329
g102
sg325
g621
sg345
g624
sS'trials_3.thisIndex'
p2731
g107
sS'trials_3.thisTrialN'
p2732
I0
sg332
g333
sg334
g419
sg49
g50
sa(dp2733
S'trials.thisIndex'
p2734
g38
(g76
S'\x03\x00\x00\x00\x00\x00\x00\x00'
p2735
tp2736
Rp2737
sg31
F0.3530280590057373
sg35
g36
sg317
g427
sg321
g430
sS'trials.thisRepN'
p2738
I3
sS'trials_3.thisN'
p2739
I0
sg37
g47
sg30
S'slash'
p2740
sS'trials.thisN'
p2741
I155
sS'trials_3.thisRepN'
p2742
I0
sg48
g12
sS'trials.thisTrialN'
p2743
I38
sg329
g158
sg325
g437
sg345
g440
sS'trials_3.thisIndex'
p2744
g107
sS'trials_3.thisTrialN'
p2745
I0
sg332
g333
sg334
g395
sg49
g50
sa(dp2746
S'trials.thisIndex'
p2747
g38
(g76
S'\x1e\x00\x00\x00\x00\x00\x00\x00'
p2748
tp2749
Rp2750
sg31
F0.41910719871520996
sg35
g36
sg317
g1094
sg321
g1097
sS'trials.thisRepN'
p2751
I4
sS'trials_3.thisN'
p2752
I0
sg37
g47
sg30
S'z'
p2753
sS'trials.thisN'
p2754
I156
sS'trials_3.thisRepN'
p2755
I0
sg48
g12
sS'trials.thisTrialN'
p2756
I0
sg329
g132
sg325
g1104
sg345
g1107
sS'trials_3.thisIndex'
p2757
g107
sS'trials_3.thisTrialN'
p2758
I0
sg332
g333
sg334
g395
sg49
g50
sa(dp2759
S'trials.thisIndex'
p2760
g38
(g76
S'\x0e\x00\x00\x00\x00\x00\x00\x00'
p2761
tp2762
Rp2763
sg31
F0.4364638328552246
sg35
g36
sg317
g1117
sg321
g1120
sS'trials.thisRepN'
p2764
I4
sS'trials_3.thisN'
p2765
I0
sg37
g47
sg30
S'z'
p2766
sS'trials.thisN'
p2767
I157
sS'trials_3.thisRepN'
p2768
I0
sg48
g12
sS'trials.thisTrialN'
p2769
I1
sg329
g102
sg325
g1127
sg345
g1130
sS'trials_3.thisIndex'
p2770
g107
sS'trials_3.thisTrialN'
p2771
I0
sg332
g333
sg334
g335
sg49
g50
sa(dp2772
S'trials.thisIndex'
p2773
g38
(g76
S'\x1c\x00\x00\x00\x00\x00\x00\x00'
p2774
tp2775
Rp2776
sg31
F0.28614091873168945
sg35
g36
sg317
g356
sg321
g359
sS'trials.thisRepN'
p2777
I4
sS'trials_3.thisN'
p2778
I0
sg37
g47
sg30
S'z'
p2779
sS'trials.thisN'
p2780
I158
sS'trials_3.thisRepN'
p2781
I0
sg48
g12
sS'trials.thisTrialN'
p2782
I2
sg329
g132
sg325
g366
sg345
g369
sS'trials_3.thisIndex'
p2783
g107
sS'trials_3.thisTrialN'
p2784
I0
sg332
g333
sg334
g335
sg49
g50
sa(dp2785
S'trials.thisIndex'
p2786
g38
(g76
S'\x13\x00\x00\x00\x00\x00\x00\x00'
p2787
tp2788
Rp2789
sg31
F0.35213398933410645
sg35
g36
sg317
g1209
sg321
g1212
sS'trials.thisRepN'
p2790
I4
sS'trials_3.thisN'
p2791
I0
sg37
g47
sg30
S'slash'
p2792
sS'trials.thisN'
p2793
I159
sS'trials_3.thisRepN'
p2794
I0
sg48
g12
sS'trials.thisTrialN'
p2795
I3
sg329
g102
sg325
g1219
sg345
g1222
sS'trials_3.thisIndex'
p2796
g107
sS'trials_3.thisTrialN'
p2797
I0
sg332
g333
sg334
g395
sg49
g50
sa(dp2798
S'trials.thisIndex'
p2799
g38
(g76
S'\x03\x00\x00\x00\x00\x00\x00\x00'
p2800
tp2801
Rp2802
sg31
F0.7868130207061768
sg35
g36
sg317
g427
sg321
g430
sS'trials.thisRepN'
p2803
I4
sS'trials_3.thisN'
p2804
I0
sg37
g47
sg30
S'slash'
p2805
sS'trials.thisN'
p2806
I160
sS'trials_3.thisRepN'
p2807
I0
sg48
g12
sS'trials.thisTrialN'
p2808
I4
sg329
g158
sg325
g437
sg345
g440
sS'trials_3.thisIndex'
p2809
g107
sS'trials_3.thisTrialN'
p2810
I0
sg332
g333
sg334
g395
sg49
g50
sa(dp2811
S'trials.thisIndex'
p2812
g38
(g76
S'\x00\x00\x00\x00\x00\x00\x00\x00'
p2813
tp2814
Rp2815
sg31
F0.3197190761566162
sg35
g36
sg317
g320
sg321
g324
sS'trials.thisRepN'
p2816
I4
sS'trials_3.thisN'
p2817
I0
sg37
g47
sg30
S'z'
p2818
sS'trials.thisN'
p2819
I161
sS'trials_3.thisRepN'
p2820
I0
sg48
g12
sS'trials.thisTrialN'
p2821
I5
sg329
g158
sg325
g326
sg345
g348
sS'trials_3.thisIndex'
p2822
g107
sS'trials_3.thisTrialN'
p2823
I0
sg332
g333
sg334
g335
sg49
g50
sa(dp2824
S'trials.thisIndex'
p2825
g38
(g76
S'#\x00\x00\x00\x00\x00\x00\x00'
p2826
tp2827
Rp2828
sg31
F0.6699810028076172
sg35
g36
sg317
g749
sg321
g752
sS'trials.thisRepN'
p2829
I4
sS'trials_3.thisN'
p2830
I0
sg37
g47
sg30
S'slash'
p2831
sS'trials.thisN'
p2832
I162
sS'trials_3.thisRepN'
p2833
I0
sg48
g12
sS'trials.thisTrialN'
p2834
I6
sg329
g132
sg325
g759
sg345
g762
sS'trials_3.thisIndex'
p2835
g107
sS'trials_3.thisTrialN'
p2836
I0
sg332
g333
sg334
g419
sg49
g50
sa(dp2837
S'trials.thisIndex'
p2838
g38
(g76
S'\x16\x00\x00\x00\x00\x00\x00\x00'
p2839
tp2840
Rp2841
sg31
F0.5365900993347168
sg35
g36
sg317
g703
sg321
g706
sS'trials.thisRepN'
p2842
I4
sS'trials_3.thisN'
p2843
I0
sg37
g47
sg30
S'slash'
p2844
sS'trials.thisN'
p2845
I163
sS'trials_3.thisRepN'
p2846
I0
sg48
g12
sS'trials.thisTrialN'
p2847
I7
sg329
g102
sg325
g713
sg345
g716
sS'trials_3.thisIndex'
p2848
g107
sS'trials_3.thisTrialN'
p2849
I0
sg332
g333
sg334
g419
sg49
g50
sa(dp2850
S'trials.thisIndex'
p2851
g38
(g76
S'\x15\x00\x00\x00\x00\x00\x00\x00'
p2852
tp2853
Rp2854
sg31
F0.3688230514526367
sg35
g36
sg317
g979
sg321
g982
sS'trials.thisRepN'
p2855
I4
sS'trials_3.thisN'
p2856
I0
sg37
g47
sg30
S'slash'
p2857
sS'trials.thisN'
p2858
I164
sS'trials_3.thisRepN'
p2859
I0
sg48
g12
sS'trials.thisTrialN'
p2860
I8
sg329
g102
sg325
g989
sg345
g992
sS'trials_3.thisIndex'
p2861
g107
sS'trials_3.thisTrialN'
p2862
I0
sg332
g333
sg334
g419
sg49
g50
sa(dp2863
S'trials.thisIndex'
p2864
g38
(g76
S' \x00\x00\x00\x00\x00\x00\x00'
p2865
tp2866
Rp2867
sg31
F0.3694601058959961
sg35
g36
sg317
g680
sg321
g683
sS'trials.thisRepN'
p2868
I4
sS'trials_3.thisN'
p2869
I0
sg37
g47
sg30
S'z'
p2870
sS'trials.thisN'
p2871
I165
sS'trials_3.thisRepN'
p2872
I0
sg48
g12
sS'trials.thisTrialN'
p2873
I9
sg329
g132
sg325
g690
sg345
g693
sS'trials_3.thisIndex'
p2874
g107
sS'trials_3.thisTrialN'
p2875
I0
sg332
g333
sg334
g395
sg49
g50
sa(dp2876
S'trials.thisIndex'
p2877
g38
(g76
S'\r\x00\x00\x00\x00\x00\x00\x00'
p2878
tp2879
Rp2880
sg31
F0.5862429141998291
sg35
g36
sg317
g1025
sg321
g1028
sS'trials.thisRepN'
p2881
I4
sS'trials_3.thisN'
p2882
I0
sg37
g47
sg30
S'z'
p2883
sS'trials.thisN'
p2884
I166
sS'trials_3.thisRepN'
p2885
I0
sg48
g12
sS'trials.thisTrialN'
p2886
I10
sg329
g158
sg325
g1035
sg345
g1038
sS'trials_3.thisIndex'
p2887
g107
sS'trials_3.thisTrialN'
p2888
I0
sg332
g333
sg334
g419
sg49
g50
sa(dp2889
S'trials.thisIndex'
p2890
g38
(g76
S'\t\x00\x00\x00\x00\x00\x00\x00'
p2891
tp2892
Rp2893
sg31
F0.5689959526062012
sg35
g36
sg317
g933
sg321
g936
sS'trials.thisRepN'
p2894
I4
sS'trials_3.thisN'
p2895
I0
sg37
g47
sg30
S'slash'
p2896
sS'trials.thisN'
p2897
I167
sS'trials_3.thisRepN'
p2898
I0
sg48
g12
sS'trials.thisTrialN'
p2899
I11
sg329
g158
sg325
g943
sg345
g946
sS'trials_3.thisIndex'
p2900
g107
sS'trials_3.thisTrialN'
p2901
I0
sg332
g333
sg334
g419
sg49
g50
sa(dp2902
S'trials.thisIndex'
p2903
g38
(g76
S'\x1b\x00\x00\x00\x00\x00\x00\x00'
p2904
tp2905
Rp2906
sg31
F0.32000088691711426
sg35
g36
sg317
g795
sg321
g798
sS'trials.thisRepN'
p2907
I4
sS'trials_3.thisN'
p2908
I0
sg37
g47
sg30
S'z'
p2909
sS'trials.thisN'
p2910
I168
sS'trials_3.thisRepN'
p2911
I0
sg48
g12
sS'trials.thisTrialN'
p2912
I12
sg329
g102
sg325
g805
sg345
g808
sS'trials_3.thisIndex'
p2913
g107
sS'trials_3.thisTrialN'
p2914
I0
sg332
g333
sg334
g419
sg49
g50
sa(dp2915
S'trials.thisIndex'
p2916
g38
(g76
S'\x19\x00\x00\x00\x00\x00\x00\x00'
p2917
tp2918
Rp2919
sg31
F0.41954684257507324
sg35
g36
sg317
g519
sg321
g522
sS'trials.thisRepN'
p2920
I4
sS'trials_3.thisN'
p2921
I0
sg37
g47
sg30
S'slash'
p2922
sS'trials.thisN'
p2923
I169
sS'trials_3.thisRepN'
p2924
I0
sg48
g12
sS'trials.thisTrialN'
p2925
I13
sg329
g102
sg325
g529
sg345
g532
sS'trials_3.thisIndex'
p2926
g107
sS'trials_3.thisTrialN'
p2927
I0
sg332
g333
sg334
g419
sg49
g50
sa(dp2928
S'trials.thisIndex'
p2929
g38
(g76
S'\x17\x00\x00\x00\x00\x00\x00\x00'
p2930
tp2931
Rp2932
sg31
F0.40235209465026855
sg35
g36
sg317
g588
sg321
g591
sS'trials.thisRepN'
p2933
I4
sS'trials_3.thisN'
p2934
I0
sg37
g47
sg30
S'slash'
p2935
sS'trials.thisN'
p2936
I170
sS'trials_3.thisRepN'
p2937
I0
sg48
g12
sS'trials.thisTrialN'
p2938
I14
sg329
g102
sg325
g598
sg345
g601
sS'trials_3.thisIndex'
p2939
g107
sS'trials_3.thisTrialN'
p2940
I0
sg332
g333
sg334
g419
sg49
g50
sa(dp2941
S'trials.thisIndex'
p2942
g38
(g76
S'\x01\x00\x00\x00\x00\x00\x00\x00'
p2943
tp2944
Rp2945
sg31
F0.4861128330230713
sg35
g36
sg317
g887
sg321
g890
sS'trials.thisRepN'
p2946
I4
sS'trials_3.thisN'
p2947
I0
sg37
g47
sg30
S'z'
p2948
sS'trials.thisN'
p2949
I171
sS'trials_3.thisRepN'
p2950
I0
sg48
g12
sS'trials.thisTrialN'
p2951
I15
sg329
g158
sg325
g897
sg345
g900
sS'trials_3.thisIndex'
p2952
g107
sS'trials_3.thisTrialN'
p2953
I0
sg332
g333
sg334
g395
sg49
g50
sa(dp2954
S'trials.thisIndex'
p2955
g38
(g76
S'\x02\x00\x00\x00\x00\x00\x00\x00'
p2956
tp2957
Rp2958
sg31
F0.2691371440887451
sg35
g36
sg317
g473
sg321
g476
sS'trials.thisRepN'
p2959
I4
sS'trials_3.thisN'
p2960
I0
sg37
g47
sg30
S'z'
p2961
sS'trials.thisN'
p2962
I172
sS'trials_3.thisRepN'
p2963
I0
sg48
g12
sS'trials.thisTrialN'
p2964
I16
sg329
g158
sg325
g483
sg345
g486
sS'trials_3.thisIndex'
p2965
g107
sS'trials_3.thisTrialN'
p2966
I0
sg332
g333
sg334
g395
sg49
g50
sa(dp2967
S'trials.thisIndex'
p2968
g38
(g76
S'%\x00\x00\x00\x00\x00\x00\x00'
p2969
tp2970
Rp2971
sg31
F0.25307488441467285
sg35
g36
sg317
g542
sg321
g545
sS'trials.thisRepN'
p2972
I4
sS'trials_3.thisN'
p2973
I0
sg37
g47
sg30
S'z'
p2974
sS'trials.thisN'
p2975
I173
sS'trials_3.thisRepN'
p2976
I0
sg48
g12
sS'trials.thisTrialN'
p2977
I17
sg329
g132
sg325
g552
sg345
g555
sS'trials_3.thisIndex'
p2978
g107
sS'trials_3.thisTrialN'
p2979
I0
sg332
g333
sg334
g419
sg49
g50
sa(dp2980
S'trials.thisIndex'
p2981
g38
(g76
S'\x12\x00\x00\x00\x00\x00\x00\x00'
p2982
tp2983
Rp2984
sg31
F0.35315394401550293
sg35
g36
sg317
g634
sg321
g637
sS'trials.thisRepN'
p2985
I4
sS'trials_3.thisN'
p2986
I0
sg37
g47
sg30
S'z'
p2987
sS'trials.thisN'
p2988
I174
sS'trials_3.thisRepN'
p2989
I0
sg48
g12
sS'trials.thisTrialN'
p2990
I18
sg329
g102
sg325
g644
sg345
g647
sS'trials_3.thisIndex'
p2991
g107
sS'trials_3.thisTrialN'
p2992
I0
sg332
g333
sg334
g395
sg49
g50
sa(dp2993
S'trials.thisIndex'
p2994
g38
(g76
S'\x0b\x00\x00\x00\x00\x00\x00\x00'
p2995
tp2996
Rp2997
sg31
F0.5017437934875488
sg35
g36
sg317
g864
sg321
g867
sS'trials.thisRepN'
p2998
I4
sS'trials_3.thisN'
p2999
I0
sg37
g47
sg30
S'z'
p3000
sS'trials.thisN'
p3001
I175
sS'trials_3.thisRepN'
p3002
I0
sg48
g12
sS'trials.thisTrialN'
p3003
I19
sg329
g158
sg325
g874
sg345
g877
sS'trials_3.thisIndex'
p3004
g107
sS'trials_3.thisTrialN'
p3005
I0
sg332
g333
sg334
g419
sg49
g50
sa(dp3006
S'trials.thisIndex'
p3007
g38
(g76
S'\x04\x00\x00\x00\x00\x00\x00\x00'
p3008
tp3009
Rp3010
sg31
F0.5529890060424805
sg35
g36
sg317
g818
sg321
g821
sS'trials.thisRepN'
p3011
I4
sS'trials_3.thisN'
p3012
I0
sg37
g47
sg30
S'slash'
p3013
sS'trials.thisN'
p3014
I176
sS'trials_3.thisRepN'
p3015
I0
sg48
g12
sS'trials.thisTrialN'
p3016
I20
sg329
g158
sg325
g828
sg345
g831
sS'trials_3.thisIndex'
p3017
g107
sS'trials_3.thisTrialN'
p3018
I0
sg332
g333
sg334
g395
sg49
g50
sa(dp3019
S'trials.thisIndex'
p3020
g38
(g76
S'&\x00\x00\x00\x00\x00\x00\x00'
p3021
tp3022
Rp3023
sg31
F0.35281896591186523
sg35
g36
sg317
g1071
sg321
g1074
sS'trials.thisRepN'
p3024
I4
sS'trials_3.thisN'
p3025
I0
sg37
g47
sg30
S'z'
p3026
sS'trials.thisN'
p3027
I177
sS'trials_3.thisRepN'
p3028
I0
sg48
g12
sS'trials.thisTrialN'
p3029
I21
sg329
g132
sg325
g1081
sg345
g1084
sS'trials_3.thisIndex'
p3030
g107
sS'trials_3.thisTrialN'
p3031
I0
sg332
g333
sg334
g419
sg49
g50
sa(dp3032
S'trials.thisIndex'
p3033
g38
(g76
S'\x08\x00\x00\x00\x00\x00\x00\x00'
p3034
tp3035
Rp3036
sg31
F0.3194730281829834
sg35
g36
sg317
g657
sg321
g660
sS'trials.thisRepN'
p3037
I4
sS'trials_3.thisN'
p3038
I0
sg37
g47
sg30
S'slash'
p3039
sS'trials.thisN'
p3040
I178
sS'trials_3.thisRepN'
p3041
I0
sg48
g12
sS'trials.thisTrialN'
p3042
I22
sg329
g158
sg325
g667
sg345
g670
sS'trials_3.thisIndex'
p3043
g107
sS'trials_3.thisTrialN'
p3044
I0
sg332
g333
sg334
g419
sg49
g50
sa(dp3045
S'trials.thisIndex'
p3046
g38
(g76
S'\x0f\x00\x00\x00\x00\x00\x00\x00'
p3047
tp3048
Rp3049
sg31
F0.2366800308227539
sg35
g36
sg317
g726
sg321
g729
sS'trials.thisRepN'
p3050
I4
sS'trials_3.thisN'
p3051
I0
sg37
g47
sg30
S'z'
p3052
sS'trials.thisN'
p3053
I179
sS'trials_3.thisRepN'
p3054
I0
sg48
g12
sS'trials.thisTrialN'
p3055
I23
sg329
g102
sg325
g736
sg345
g739
sS'trials_3.thisIndex'
p3056
g107
sS'trials_3.thisTrialN'
p3057
I0
sg332
g333
sg334
g395
sg49
g50
sa(dp3058
S'trials.thisIndex'
p3059
g38
(g76
S'\x11\x00\x00\x00\x00\x00\x00\x00'
p3060
tp3061
Rp3062
sg31
F0.18615984916687012
sg35
g36
sg317
g1048
sg321
g1051
sS'trials.thisRepN'
p3063
I4
sS'trials_3.thisN'
p3064
I0
sg37
g47
sg30
S'z'
p3065
sS'trials.thisN'
p3066
I180
sS'trials_3.thisRepN'
p3067
I0
sg48
g12
sS'trials.thisTrialN'
p3068
I24
sg329
g102
sg325
g1058
sg345
g1061
sS'trials_3.thisIndex'
p3069
g107
sS'trials_3.thisTrialN'
p3070
I0
sg332
g333
sg334
g395
sg49
g50
sa(dp3071
S'trials.thisIndex'
p3072
g38
(g76
S'\x18\x00\x00\x00\x00\x00\x00\x00'
p3073
tp3074
Rp3075
sg31
F0.35216188430786133
sg35
g36
sg317
g611
sg321
g614
sS'trials.thisRepN'
p3076
I4
sS'trials_3.thisN'
p3077
I0
sg37
g47
sg30
S'slash'
p3078
sS'trials.thisN'
p3079
I181
sS'trials_3.thisRepN'
p3080
I0
sg48
g12
sS'trials.thisTrialN'
p3081
I25
sg329
g102
sg325
g621
sg345
g624
sS'trials_3.thisIndex'
p3082
g107
sS'trials_3.thisTrialN'
p3083
I0
sg332
g333
sg334
g419
sg49
g50
sa(dp3084
S'trials.thisIndex'
p3085
g38
(g76
S'"\x00\x00\x00\x00\x00\x00\x00'
p3086
tp3087
Rp3088
sg31
F0.40247392654418945
sg35
g36
sg317
g1186
sg321
g1189
sS'trials.thisRepN'
p3089
I4
sS'trials_3.thisN'
p3090
I0
sg37
g47
sg30
S'z'
p3091
sS'trials.thisN'
p3092
I182
sS'trials_3.thisRepN'
p3093
I0
sg48
g12
sS'trials.thisTrialN'
p3094
I26
sg329
g132
sg325
g1196
sg345
g1199
sS'trials_3.thisIndex'
p3095
g107
sS'trials_3.thisTrialN'
p3096
I0
sg332
g333
sg334
g395
sg49
g50
sa(dp3097
S'trials.thisIndex'
p3098
g38
(g76
S'\x1d\x00\x00\x00\x00\x00\x00\x00'
p3099
tp3100
Rp3101
sg31
F0.2862999439239502
sg35
g36
sg317
g565
sg321
g568
sS'trials.thisRepN'
p3102
I4
sS'trials_3.thisN'
p3103
I0
sg37
g47
sg30
S'z'
p3104
sS'trials.thisN'
p3105
I183
sS'trials_3.thisRepN'
p3106
I0
sg48
g12
sS'trials.thisTrialN'
p3107
I27
sg329
g132
sg325
g575
sg345
g578
sS'trials_3.thisIndex'
p3108
g107
sS'trials_3.thisTrialN'
p3109
I0
sg332
g333
sg334
g395
sg49
g50
sa(dp3110
S'trials.thisIndex'
p3111
g38
(g76
S'!\x00\x00\x00\x00\x00\x00\x00'
p3112
tp3113
Rp3114
sg31
F0.5196549892425537
sg35
g36
sg317
g956
sg321
g959
sS'trials.thisRepN'
p3115
I4
sS'trials_3.thisN'
p3116
I0
sg37
g47
sg30
S'z'
p3117
sS'trials.thisN'
p3118
I184
sS'trials_3.thisRepN'
p3119
I0
sg48
g12
sS'trials.thisTrialN'
p3120
I28
sg329
g132
sg325
g966
sg345
g969
sS'trials_3.thisIndex'
p3121
g107
sS'trials_3.thisTrialN'
p3122
I0
sg332
g333
sg334
g395
sg49
g50
sa(dp3123
S'trials.thisIndex'
p3124
g38
(g76
S'\x07\x00\x00\x00\x00\x00\x00\x00'
p3125
tp3126
Rp3127
sg31
F0.35339784622192383
sg35
g36
sg317
g496
sg321
g499
sS'trials.thisRepN'
p3128
I4
sS'trials_3.thisN'
p3129
I0
sg37
g47
sg30
S'slash'
p3130
sS'trials.thisN'
p3131
I185
sS'trials_3.thisRepN'
p3132
I0
sg48
g12
sS'trials.thisTrialN'
p3133
I29
sg329
g158
sg325
g506
sg345
g509
sS'trials_3.thisIndex'
p3134
g107
sS'trials_3.thisTrialN'
p3135
I0
sg332
g333
sg334
g419
sg49
g50
sa(dp3136
S'trials.thisIndex'
p3137
g38
(g76
S'$\x00\x00\x00\x00\x00\x00\x00'
p3138
tp3139
Rp3140
sg31
F0.5030360221862793
sg35
g36
sg317
g1140
sg321
g1143
sS'trials.thisRepN'
p3141
I4
sS'trials_3.thisN'
p3142
I0
sg37
g47
sg30
S'z'
p3143
sS'trials.thisN'
p3144
I186
sS'trials_3.thisRepN'
p3145
I0
sg48
g12
sS'trials.thisTrialN'
p3146
I30
sg329
g132
sg325
g1150
sg345
g1153
sS'trials_3.thisIndex'
p3147
g107
sS'trials_3.thisTrialN'
p3148
I0
sg332
g333
sg334
g419
sg49
g50
sa(dp3149
S'trials.thisIndex'
p3150
g38
(g76
S'\x14\x00\x00\x00\x00\x00\x00\x00'
p3151
tp3152
Rp3153
sg31
F0.4689509868621826
sg35
g36
sg317
g1002
sg321
g1005
sS'trials.thisRepN'
p3154
I4
sS'trials_3.thisN'
p3155
I0
sg37
g47
sg30
S'slash'
p3156
sS'trials.thisN'
p3157
I187
sS'trials_3.thisRepN'
p3158
I0
sg48
g12
sS'trials.thisTrialN'
p3159
I31
sg329
g102
sg325
g1012
sg345
g1015
sS'trials_3.thisIndex'
p3160
g107
sS'trials_3.thisTrialN'
p3161
I0
sg332
g333
sg334
g395
sg49
g50
sa(dp3162
S'trials.thisIndex'
p3163
g38
(g76
S'\x05\x00\x00\x00\x00\x00\x00\x00'
p3164
tp3165
Rp3166
sg31
F0.46830081939697266
sg35
g36
sg317
g379
sg321
g382
sS'trials.thisRepN'
p3167
I4
sS'trials_3.thisN'
p3168
I0
sg37
g47
sg30
S'slash'
p3169
sS'trials.thisN'
p3170
I188
sS'trials_3.thisRepN'
p3171
I0
sg48
g12
sS'trials.thisTrialN'
p3172
I32
sg329
g158
sg325
g389
sg345
g392
sS'trials_3.thisIndex'
p3173
g107
sS'trials_3.thisTrialN'
p3174
I0
sg332
g333
sg334
g395
sg49
g50
sa(dp3175
S'trials.thisIndex'
p3176
g38
(g76
S'\x10\x00\x00\x00\x00\x00\x00\x00'
p3177
tp3178
Rp3179
sg31
F0.9199268817901611
sg35
g36
sg317
g772
sg321
g775
sS'trials.thisRepN'
p3180
I4
sS'trials_3.thisN'
p3181
I0
sg37
g47
sg30
S'slash'
p3182
sS'trials.thisN'
p3183
I189
sS'trials_3.thisRepN'
p3184
I0
sg48
g12
sS'trials.thisTrialN'
p3185
I33
sg329
g102
sg325
g782
sg345
g785
sS'trials_3.thisIndex'
p3186
g107
sS'trials_3.thisTrialN'
p3187
I0
sg332
g333
sg334
g395
sg49
g50
sa(dp3188
S'trials.thisIndex'
p3189
g38
(g76
S'\x06\x00\x00\x00\x00\x00\x00\x00'
p3190
tp3191
Rp3192
sg31
F0.3361649513244629
sg35
g36
sg317
g450
sg321
g453
sS'trials.thisRepN'
p3193
I4
sS'trials_3.thisN'
p3194
I0
sg37
g47
sg30
S'slash'
p3195
sS'trials.thisN'
p3196
I190
sS'trials_3.thisRepN'
p3197
I0
sg48
g12
sS'trials.thisTrialN'
p3198
I34
sg329
g158
sg325
g460
sg345
g463
sS'trials_3.thisIndex'
p3199
g107
sS'trials_3.thisTrialN'
p3200
I0
sg332
g333
sg334
g395
sg49
g50
sa(dp3201
S'trials.thisIndex'
p3202
g38
(g76
S'\x1a\x00\x00\x00\x00\x00\x00\x00'
p3203
tp3204
Rp3205
sg31
F0.6528329849243164
sg35
g36
sg317
g403
sg321
g406
sS'trials.thisRepN'
p3206
I4
sS'trials_3.thisN'
p3207
I0
sg37
g47
sg30
S'slash'
p3208
sS'trials.thisN'
p3209
I191
sS'trials_3.thisRepN'
p3210
I0
sg48
g12
sS'trials.thisTrialN'
p3211
I35
sg329
g102
sg325
g413
sg345
g416
sS'trials_3.thisIndex'
p3212
g107
sS'trials_3.thisTrialN'
p3213
I0
sg332
g333
sg334
g419
sg49
g50
sa(dp3214
S'trials.thisIndex'
p3215
g38
(g76
S'\n\x00\x00\x00\x00\x00\x00\x00'
p3216
tp3217
Rp3218
sg31
F0.5695979595184326
sg35
g36
sg317
g910
sg321
g913
sS'trials.thisRepN'
p3219
I4
sS'trials_3.thisN'
p3220
I0
sg37
g47
sg30
S'slash'
p3221
sS'trials.thisN'
p3222
I192
sS'trials_3.thisRepN'
p3223
I0
sg48
g12
sS'trials.thisTrialN'
p3224
I36
sg329
g158
sg325
g920
sg345
g923
sS'trials_3.thisIndex'
p3225
g107
sS'trials_3.thisTrialN'
p3226
I0
sg332
g333
sg334
g419
sg49
g50
sa(dp3227
S'trials.thisIndex'
p3228
g38
(g76
S'\x1f\x00\x00\x00\x00\x00\x00\x00'
p3229
tp3230
Rp3231
sg31
F0.43545007705688477
sg35
g36
sg317
g841
sg321
g844
sS'trials.thisRepN'
p3232
I4
sS'trials_3.thisN'
p3233
I0
sg37
g47
sg30
S'z'
p3234
sS'trials.thisN'
p3235
I193
sS'trials_3.thisRepN'
p3236
I0
sg48
g12
sS'trials.thisTrialN'
p3237
I37
sg329
g132
sg325
g851
sg345
g854
sS'trials_3.thisIndex'
p3238
g107
sS'trials_3.thisTrialN'
p3239
I0
sg332
g333
sg334
g395
sg49
g50
sa(dp3240
S'trials.thisIndex'
p3241
g38
(g76
S'\x0c\x00\x00\x00\x00\x00\x00\x00'
p3242
tp3243
Rp3244
sg31
F1.037018060684204
sg35
g36
sg317
g1163
sg321
g1166
sS'trials.thisRepN'
p3245
I4
sS'trials_3.thisN'
p3246
I0
sg37
g47
sg30
S'z'
p3247
sS'trials.thisN'
p3248
I194
sS'trials_3.thisRepN'
p3249
I0
sg48
g12
sS'trials.thisTrialN'
p3250
I38
sg329
g158
sg325
g1173
sg345
g1176
sS'trials_3.thisIndex'
p3251
g107
sS'trials_3.thisTrialN'
p3252
I0
sg332
g333
sg334
g419
sg49
g50
sa(dp3253
g49
g50
sS'trials_3.thisN'
p3254
I0
sg37
g47
sS'trials_3.thisRepN'
p3255
I0
sg48
g12
sg35
g36
sS'trials_3.thisIndex'
p3256
g107
sS'trials_3.thisTrialN'
p3257
I0
sasS'loops'
p3258
(lp3259
g0
(cpsychopy.data.trial
TrialHandler
p3260
g2
Ntp3261
Rp3262
(dp3263
S'origin'
p3264
NsS'thisTrial'
p3265
(lp3266
sS'_exp'
p3267
I4606987472
sg11
S'trials_7'
p3268
sg6
I-1
sS'thisRepN'
p3269
I1
sg32
I01
sg33
g34
sS'data'
p3270
g0
(cpsychopy.data.base
DataHandler
p3271
c__builtin__
dict
p3272
(dp3273
g21
cnumpy.core.multiarray
_reconstruct
p3274
(cnumpy
ndarray
p3275
(I0
tp3276
S'b'
p3277
tp3278
Rp3279
(I1
(I1
I1
tp3280
g39
(S'O8'
p3281
I0
I1
tp3282
Rp3283
(I3
S'|'
p3284
NNNI-1
I-1
I63
tp3285
bI00
(lp3286
g71
atp3287
bsS'ran'
p3288
cnumpy.ma.core
_mareconstruct
p3289
(cnumpy.ma.core
MaskedArray
p3290
g3275
(I0
tp3291
g3277
tp3292
Rp3293
(I1
(I1
I1
tp3294
g39
(S'f4'
p3295
I0
I1
tp3296
Rp3297
(I3
S'<'
p3298
NNNI-1
I-1
I0
tp3299
bI00
S'\x00\x00\x80?'
p3300
S'\x00'
p3301
Ntp3302
bsg18
g3289
(g3290
g3275
g3291
g3277
tp3303
Rp3304
(I1
(I1
I1
tp3305
g3297
I00
S'\xe0I\x8a@'
p3306
g3301
Ntp3307
bsg20
g3289
(g3290
g3275
g3291
g3277
tp3308
Rp3309
(I1
(I1
I1
tp3310
g3297
I00
S']\xd2\x9a@'
p3311
g3301
Ntp3312
bsg17
g3274
(g3275
(I0
tp3313
g3277
tp3314
Rp3315
(I1
(I1
I1
tp3316
g3283
I00
(lp3317
g82
atp3318
bsg15
g3274
(g3275
(I0
tp3319
g3277
tp3320
Rp3321
(I1
(I1
I1
tp3322
g3283
I00
(lp3323
g83
atp3324
bsg22
g3289
(g3290
g3275
g3291
g3277
tp3325
Rp3326
(I1
(I1
I1
tp3327
g3297
I00
S'\xd8\xe7\x9a>'
p3328
g3301
Ntp3329
bsg19
g3274
(g3275
(I0
tp3330
g3277
tp3331
Rp3332
(I1
(I1
I1
tp3333
g3283
I00
(lp3334
g86
atp3335
bsS'order'
p3336
g3289
(g3290
g3275
g3291
g3277
tp3337
Rp3338
(I1
(I1
I1
tp3339
g3297
I00
S'\x00\x00\x00\x00'
p3340
g3301
Ntp3341
bsg16
g3289
(g3290
g3275
g3291
g3277
tp3342
Rp3343
(I1
(I1
I1
tp3344
g3297
I00
S'\xa0Y\xdc?'
p3345
g3301
Ntp3346
bstp3347
Rp3348
(dp3349
S'isNumeric'
p3350
(dp3351
g21
I00
sg3288
I01
sg18
I01
sg20
I01
sg17
I00
sg15
I00
sg22
I01
sg19
I00
sg3336
I01
sg16
I01
ssS'trials'
p3352
g3262
sS'dataTypes'
p3353
(lp3354
g3288
ag3336
ag15
ag16
ag17
ag18
ag19
ag20
ag21
ag22
asS'dataShape'
p3355
(lp3356
I1
aI1
asbsS'method'
p3357
S'random'
p3358
sS'sequenceIndices'
p3359
g3274
(g3275
(I0
tp3360
g3277
tp3361
Rp3362
(I1
(I1
I1
tp3363
g76
I00
S'\x00\x00\x00\x00\x00\x00\x00\x00'
p3364
tp3365
bsS'finished'
p3366
I01
sS'nReps'
p3367
I1
sS'nRemaining'
p3368
I-1
sS'trialList'
p3369
(lp3370
NasS'seed'
p3371
NsS'thisIndex'
p3372
g81
sS'thisN'
p3373
I1
sS'thisTrialN'
p3374
I0
sS'nTotal'
p3375
I1
sbag0
(g3260
g2
Ntp3376
Rp3377
(dp3378
g3264
Nsg3265
(lp3379
sg3267
I4606987472
sg11
S'trials_3'
p3380
sg6
I-1
sg3269
I1
sg32
I01
sg33
g34
sg3270
g0
(g3271
g3272
(dp3381
g3288
g3289
(g3290
g3275
g3291
g3277
tp3382
Rp3383
(I1
(I1
I1
tp3384
g3297
I00
S'\x00\x00\x80?'
p3385
g3301
Ntp3386
bsg28
g3274
(g3275
(I0
tp3387
g3277
tp3388
Rp3389
(I1
(I1
I1
tp3390
g3283
I00
(lp3391
g340
atp3392
bsg29
g3289
(g3290
g3275
g3291
g3277
tp3393
Rp3394
(I1
(I1
I1
tp3395
g3297
I00
S'\xac^\x8b@'
p3396
g3301
Ntp3397
bsg3336
g3289
(g3290
g3275
g3291
g3277
tp3398
Rp3399
(I1
(I1
I1
tp3400
g3297
I00
S'\x00\x00\x00\x00'
p3401
g3301
Ntp3402
bstp3403
Rp3404
(dp3405
g3350
(dp3406
g3288
I01
sg28
I00
sg29
I01
sg3336
I01
ssg3352
g3377
sg3353
(lp3407
g3288
ag3336
ag28
ag29
asg3355
(lp3408
I1
aI1
asbsg3357
g3358
sg3359
g3274
(g3275
(I0
tp3409
g3277
tp3410
Rp3411
(I1
(I1
I1
tp3412
g76
I00
S'\x00\x00\x00\x00\x00\x00\x00\x00'
p3413
tp3414
bsg3366
I01
sg3367
I1
sg3368
I-1
sg3369
(lp3415
Nasg3371
Nsg3372
g107
sg3373
I1
sg3374
I0
sg3375
I1
sbag0
(g3260
g2
Ntp3416
Rp3417
(dp3418
g3264
Nsg3265
(lp3419
sg3267
I4606987472
sg11
S'trials_2'
p3420
sg6
I-1
sg3269
I2
sg32
I01
sg33
g34
sg3270
g0
(g3271
g3272
(dp3421
g3288
g3289
(g3290
g3275
g3291
g3277
tp3422
Rp3423
(I1
(I6
I2
tp3424
g3297
I00
S'\x00\x00\x80?\x00\x00\x80?\x00\x00\x80?\x00\x00\x80?\x00\x00\x80?\x00\x00\x80?\x00\x00\x80?\x00\x00\x80?\x00\x00\x80?\x00\x00\x80?\x00\x00\x80?\x00\x00\x80?'
p3425
S'\x00\x00\x00\x00\x00\x00\x00\x00\x00\x00\x00\x00'
p3426
Ntp3427
bsg25
g3274
(g3275
(I0
tp3428
g3277
tp3429
Rp3430
(I1
(I6
I2
tp3431
g3283
I00
(lp3432
g228
ag257
ag159
ag270
ag182
ag296
ag103
ag244
ag133
ag283
ag205
ag309
atp3433
bsg26
g3289
(g3290
g3275
g3291
g3277
tp3434
Rp3435
(I1
(I6
I2
tp3436
g3297
I00
S'\x00\x00\x80?\x00\x00\x80?\x00\x00\x80?\x00\x00\x80?\x00\x00\x80?\x00\x00\x80?\x00\x00\x80?\x00\x00\x80?\x00\x00\x80?\x00\x00\x80?\x00\x00\x80?\x00\x00\x80?'
p3437
S'\x00\x00\x00\x00\x00\x00\x00\x00\x00\x00\x00\x00'
p3438
Ntp3439
bsg3336
g3289
(g3290
g3275
g3291
g3277
tp3440
Rp3441
(I1
(I6
I2
tp3442
g3297
I00
S'\x00\x00\xa0@\x00\x00\xe0@\x00\x00\x00@\x00\x00\x00A\x00\x00@@\x00\x00 A\x00\x00\x00\x00\x00\x00\xc0@\x00\x00\x80?\x00\x00\x10A\x00\x00\x80@\x00\x000A'
p3443
S'\x00\x00\x00\x00\x00\x00\x00\x00\x00\x00\x00\x00'
p3444
Ntp3445
bsg27
g3289
(g3290
g3275
g3291
g3277
tp3446
Rp3447
(I1
(I6
I2
tp3448
g3297
I00
S'\x1cc+?\x10\xea&?\xe0Z\xbd>8\x0c\x12?\xb8o\xb4>\x98\xad\xd6>\xe0\x99\x00?\x088\xac>\x10\xbd\xc5>\xd8\xc5\x00?\x008->\xf0\x8d\r?'
p3449
S'\x00\x00\x00\x00\x00\x00\x00\x00\x00\x00\x00\x00'
p3450
Ntp3451
bstp3452
Rp3453
(dp3454
g3350
(dp3455
g3288
I01
sg25
I00
sg26
I01
sg3336
I01
sg27
I01
ssg3352
g3417
sg3353
(lp3456
g3288
ag3336
ag25
ag26
ag27
asg3355
(lp3457
I6
aI2
asbsg3357
g3358
sg3359
g3274
(g3275
(I0
tp3458
g3277
tp3459
Rp3460
(I1
(I6
I2
tp3461
g76
I01
S'\x03\x00\x00\x00\x00\x00\x00\x00\x04\x00\x00\x00\x00\x00\x00\x00\x01\x00\x00\x00\x00\x00\x00\x00\x02\x00\x00\x00\x00\x00\x00\x00\x05\x00\x00\x00\x00\x00\x00\x00\x00\x00\x00\x00\x00\x00\x00\x00\x03\x00\x00\x00\x00\x00\x00\x00\x00\x00\x00\x00\x00\x00\x00\x00\x01\x00\x00\x00\x00\x00\x00\x00\x04\x00\x00\x00\x00\x00\x00\x00\x02\x00\x00\x00\x00\x00\x00\x00\x05\x00\x00\x00\x00\x00\x00\x00'
p3462
tp3463
bsg3366
I01
sg3367
I2
sg3368
I-1
sg3369
(lp3464
g0
(cpsychopy.data.trial
TrialType
p3465
g3272
(dp3466
g60
g233
sg61
g218
sg62
g221
sg63
g222
sg64
g158
sg65
g143
sg66
g109
sg67
g136
stp3467
Rp3468
ag0
(g3465
g3272
(dp3469
g60
g164
sg61
g148
sg62
g151
sg63
g152
sg64
g158
sg65
g117
sg66
g109
sg67
g110
stp3470
Rp3471
ag0
(g3465
g3272
(dp3472
g60
g187
sg61
g172
sg62
g175
sg63
g176
sg64
g102
sg65
g143
sg66
g109
sg67
g136
stp3473
Rp3474
ag0
(g3465
g3272
(dp3475
g60
g113
sg61
g92
sg62
g95
sg63
g96
sg64
g102
sg65
g117
sg66
g109
sg67
g110
stp3476
Rp3477
ag0
(g3465
g3272
(dp3478
g60
g139
sg61
g122
sg62
g125
sg63
g126
sg64
g132
sg65
g143
sg66
g109
sg67
g136
stp3479
Rp3480
ag0
(g3465
g3272
(dp3481
g60
g210
sg61
g195
sg62
g198
sg63
g199
sg64
g132
sg65
g117
sg66
g109
sg67
g110
stp3482
Rp3483
asg3371
Nsg3372
g308
sg3373
I12
sg3374
I0
sg3375
I12
sbag0
(g3260
g2
Ntp3484
Rp3485
(dp3486
g3264
Nsg3265
(lp3487
sg3267
I4606987472
sg11
g3352
sg6
I-1
sg3269
I5
sg32
I01
sg33
g34
sg3270
g0
(g3271
g3272
(dp3488
g3288
g3289
(g3290
g3275
g3291
g3277
tp3489
Rp3490
(I1
(I39
I5
tp3491
g3297
I00
S'\x00\x00\x80?\x00\x00\x80?\x00\x00\x80?\x00\x00\x80?\x00\x00\x80?\x00\x00\x80?\x00\x00\x80?\x00\x00\x80?\x00\x00\x80?\x00\x00\x80?\x00\x00\x80?\x00\x00\x80?\x00\x00\x80?\x00\x00\x80?\x00\x00\x80?\x00\x00\x80?\x00\x00\x80?\x00\x00\x80?\x00\x00\x80?\x00\x00\x80?\x00\x00\x80?\x00\x00\x80?\x00\x00\x80?\x00\x00\x80?\x00\x00\x80?\x00\x00\x80?\x00\x00\x80?\x00\x00\x80?\x00\x00\x80?\x00\x00\x80?\x00\x00\x80?\x00\x00\x80?\x00\x00\x80?\x00\x00\x80?\x00\x00\x80?\x00\x00\x80?\x00\x00\x80?\x00\x00\x80?\x00\x00\x80?\x00\x00\x80?\x00\x00\x80?\x00\x00\x80?\x00\x00\x80?\x00\x00\x80?\x00\x00\x80?\x00\x00\x80?\x00\x00\x80?\x00\x00\x80?\x00\x00\x80?\x00\x00\x80?\x00\x00\x80?\x00\x00\x80?\x00\x00\x80?\x00\x00\x80?\x00\x00\x80?\x00\x00\x80?\x00\x00\x80?\x00\x00\x80?\x00\x00\x80?\x00\x00\x80?\x00\x00\x80?\x00\x00\x80?\x00\x00\x80?\x00\x00\x80?\x00\x00\x80?\x00\x00\x80?\x00\x00\x80?\x00\x00\x80?\x00\x00\x80?\x00\x00\x80?\x00\x00\x80?\x00\x00\x80?\x00\x00\x80?\x00\x00\x80?\x00\x00\x80?\x00\x00\x80?\x00\x00\x80?\x00\x00\x80?\x00\x00\x80?\x00\x00\x80?\x00\x00\x80?\x00\x00\x80?\x00\x00\x80?\x00\x00\x80?\x00\x00\x80?\x00\x00\x80?\x00\x00\x80?\x00\x00\x80?\x00\x00\x80?\x00\x00\x80?\x00\x00\x80?\x00\x00\x80?\x00\x00\x80?\x00\x00\x80?\x00\x00\x80?\x00\x00\x80?\x00\x00\x80?\x00\x00\x80?\x00\x00\x80?\x00\x00\x80?\x00\x00\x80?\x00\x00\x80?\x00\x00\x80?\x00\x00\x80?\x00\x00\x80?\x00\x00\x80?\x00\x00\x80?\x00\x00\x80?\x00\x00\x80?\x00\x00\x80?\x00\x00\x80?\x00\x00\x80?\x00\x00\x80?\x00\x00\x80?\x00\x00\x80?\x00\x00\x80?\x00\x00\x80?\x00\x00\x80?\x00\x00\x80?\x00\x00\x80?\x00\x00\x80?\x00\x00\x80?\x00\x00\x80?\x00\x00\x80?\x00\x00\x80?\x00\x00\x80?\x00\x00\x80?\x00\x00\x80?\x00\x00\x80?\x00\x00\x80?\x00\x00\x80?\x00\x00\x80?\x00\x00\x80?\x00\x00\x80?\x00\x00\x80?\x00\x00\x80?\x00\x00\x80?\x00\x00\x80?\x00\x00\x80?\x00\x00\x80?\x00\x00\x80?\x00\x00\x80?\x00\x00\x80?\x00\x00\x80?\x00\x00\x80?\x00\x00\x80?\x00\x00\x80?\x00\x00\x80?\x00\x00\x80?\x00\x00\x80?\x00\x00\x80?\x00\x00\x80?\x00\x00\x80?\x00\x00\x80?\x00\x00\x80?\x00\x00\x80?\x00\x00\x80?\x00\x00\x80?\x00\x00\x80?\x00\x00\x80?\x00\x00\x80?\x00\x00\x80?\x00\x00\x80?\x00\x00\x80?\x00\x00\x80?\x00\x00\x80?\x00\x00\x80?\x00\x00\x80?\x00\x00\x80?\x00\x00\x80?\x00\x00\x80?\x00\x00\x80?\x00\x00\x80?\x00\x00\x80?\x00\x00\x80?\x00\x00\x80?\x00\x00\x80?\x00\x00\x80?\x00\x00\x80?\x00\x00\x80?\x00\x00\x80?\x00\x00\x80?\x00\x00\x80?\x00\x00\x80?\x00\x00\x80?\x00\x00\x80?\x00\x00\x80?\x00\x00\x80?\x00\x00\x80?\x00\x00\x80?\x00\x00\x80?\x00\x00\x80?\x00\x00\x80?\x00\x00\x80?\x00\x00\x80?'
p3492
S'\x00\x00\x00\x00\x00\x00\x00\x00\x00\x00\x00\x00\x00\x00\x00\x00\x00\x00\x00\x00\x00\x00\x00\x00\x00\x00\x00\x00\x00\x00\x00\x00\x00\x00\x00\x00\x00\x00\x00\x00\x00\x00\x00\x00\x00\x00\x00\x00\x00\x00\x00\x00\x00\x00\x00\x00\x00\x00\x00\x00\x00\x00\x00\x00\x00\x00\x00\x00\x00\x00\x00\x00\x00\x00\x00\x00\x00\x00\x00\x00\x00\x00\x00\x00\x00\x00\x00\x00\x00\x00\x00\x00\x00\x00\x00\x00\x00\x00\x00\x00\x00\x00\x00\x00\x00\x00\x00\x00\x00\x00\x00\x00\x00\x00\x00\x00\x00\x00\x00\x00\x00\x00\x00\x00\x00\x00\x00\x00\x00\x00\x00\x00\x00\x00\x00\x00\x00\x00\x00\x00\x00\x00\x00\x00\x00\x00\x00\x00\x00\x00\x00\x00\x00\x00\x00\x00\x00\x00\x00\x00\x00\x00\x00\x00\x00\x00\x00\x00\x00\x00\x00\x00\x00\x00\x00\x00\x00\x00\x00\x00\x00\x00\x00\x00\x00\x00\x00\x00\x00\x00\x00\x00\x00\x00\x00'
p3493
Ntp3494
bsg31
g3289
(g3290
g3275
g3291
g3277
tp3495
Rp3496
(I1
(I39
I5
tp3497
g3297
I00
S'(\x0e\xe8>\xc0\xfdp>`\xdc\xd6>8\xd0\xc5>8\xb2\xa3>\xe0\xa9\xf8>8\x81\x89>\xe4\xda\x04?\xd4K8?\xc8\xe3\xf8>h\xd2\xe7>0\nr>\x80\xb2\xf8>\xb8-\xa3>X\xcc\x89>\x14\x99\r?\xa0\xad\x9a>\x00_\x92>\x18\xc0\xb4>\x94lI?\xa8{\xb4>\x18|\x9a>\xd4\'\t?x2\xf0>\xb0\x90\r?p\xf7`>lK\t?8?\xcd> \xac\x1e? \xc5\xef>\xa0\x06\xac>\xe0\xc3\xc5>8\xd4\xf8>\x04_\r?\xd0\x1d\xac>F&\xbc?\xc8^\xf0>\xa4\x90\x00?\xd8_\xf0>\x90\xf0\xb4>\xcc\xea\x19?\x80\x14\xbc>p\xa3\x11?\x10!\xde>\xf8\x91\xa3>\xc8\x12\xbd>\xe8k\xdf>\xc8C\xf0>8\xa3\xe6>\xb8\xa9\x11?\xc0\xdf\xe7>\x08\x04\x8a>\x80*\xbd>\xa4F<?,\xd1\x11?\x14HQ?\xa8\xae\x00?\x10J+?\xf4\xdc"?Hr\x00?X)\t?\xf8\xb1\xb3>\x10\xd8\xbc>\xb8\xee\xe7>\x02\xbd\x84?(\x17\x16? \xe2\xde>p\xf8\xd6>\x0c\xa2\r?\x04\x14\x16?\xe0\xe1\xe7>\xe0\xacO>\x10\\\xbd>\xf8s\xa2>0x\xdf>\x18+\x16?\xe0X<?\x18\xe1"?$\xdb\x11?@\\r>x\x92\xa3>\xd0:q>\x80\xe5q>\x18\x16\xac>T\x80k?\x00g\x81>\xc0t\x9b>\xc8\xee\x99>Hq\xdf>\xb0\xa0>>\x94\xce/?p\xefq> G\x1c>\xe8\xc6\xb4>\x98\xd0\xb4>`\xd5>>\x00\xb5\xf4=\xf0\xeb\xf8>h\xef\xab>\xe8J\xb4>0\xbe\x88>H.\x80>(A\xef>\xb8R\xdf>X\x1a\xf0>\xd8\x8f\xb4>\xc0\x8eO>H\xcf\xc5>\x98\x84\xa3>`\xd6\xbc> \xc1\xb4>`\xc5`> ?\xa3>\xf8\xc2\xc5>\xf8]\t?\x10\xf9\xc5>`\xd3\xbc>\xb0\xfd;> \xf2\xc5>\x18\x01\xce>\xc0\x17\xcd>xh\x81>`\xe8\x11?\xa4\xdd\x04?\x90N\xb4>\x90\x01\x05?x\xa5\xb4>\xac\x0b\'?\xc8\xe2\xd6>\xd8\xce\xd6>@$\xac> \xef\xb4>\x80\xea\xf8>\xf0\xf9\x89>\x10 \'?\xe8t\xdf>\xec\x02\x05?Pz\xd6>\xd8#\xac>(\xd7\xa3>\x90\xd8\xd6>05\x8a>\xb0\xdd\xcd>\xb8p\x81>\x10\x81\x92>\x88w\xf0>x\xa4\x9a>\xf0\xea\xbc>\xa8\xf1\xbc>\xe8\x95\x92>\x14\xe7\x04?\x80\x16\x9b>\xb8\x8d\xc5>\xe0\n\xdf>8\x95\xd6><\x7f\x1a?\xb0\xb9q>\xb0\x0f\x16?\x90\xea\x9a>P\xf3\xde>\x10\xb6\xf8>8O\xce>0o\r?$<\t?\xe0)\xbd>x\xc0\xc5>\xb8\x15\x8a>L\xb9"?\xe8m\xb4>\x1c\x08\x05?8u\xc5>\xc0\xec\xd6>\x08|\xd6>\x10\xf1\xe7>\x10\x11\xce>p\xb8\xd6>\x90/a>t\xa5\x11?\xe0h\xdf>\xe0\x83+?X\xc8\x00?p\xe8O>\xa0\xbd\x81>\xac\xf5"?\xf8\xc6\x00?\xd0\xc7\x19?\xe0\xf2\xf8>\xf0\x88\x92>8\xcc@?\x08\x93\x81>0\x9b\x89>\x80\xc6\xc5>\xc0\x7f\x92> \xce\xab>\xb0\xa4\xb4>'
p3498
S'\x00\x00\x00\x00\x00\x00\x00\x00\x00\x00\x00\x00\x00\x00\x00\x00\x00\x00\x00\x00\x00\x00\x00\x00\x00\x00\x00\x00\x00\x00\x00\x00\x00\x00\x00\x00\x00\x00\x00\x00\x00\x00\x00\x00\x00\x00\x00\x00\x00\x00\x00\x00\x00\x00\x00\x00\x00\x00\x00\x00\x00\x00\x00\x00\x00\x00\x00\x00\x00\x00\x00\x00\x00\x00\x00\x00\x00\x00\x00\x00\x00\x00\x00\x00\x00\x00\x00\x00\x00\x00\x00\x00\x00\x00\x00\x00\x00\x00\x00\x00\x00\x00\x00\x00\x00\x00\x00\x00\x00\x00\x00\x00\x00\x00\x00\x00\x00\x00\x00\x00\x00\x00\x00\x00\x00\x00\x00\x00\x00\x00\x00\x00\x00\x00\x00\x00\x00\x00\x00\x00\x00\x00\x00\x00\x00\x00\x00\x00\x00\x00\x00\x00\x00\x00\x00\x00\x00\x00\x00\x00\x00\x00\x00\x00\x00\x00\x00\x00\x00\x00\x00\x00\x00\x00\x00\x00\x00\x00\x00\x00\x00\x00\x00\x00\x00\x00\x00\x00\x00\x00\x00\x00\x00\x00\x00'
p3499
Ntp3500
bsg3336
g3289
(g3290
g3275
g3291
g3277
tp3501
Rp3502
(I1
(I39
I5
tp3503
g3297
I00
S'\x00\x00\x00\x00\x00\x00dB\x00\x00\xd4B\x00\x00\x0cC\x00\x00!C\x00\x00\xc0A\x00\x00\x90B\x00\x00\xaaB\x00\x00\x07C\x00\x00+C\x00\x00\xc0@\x00\x00<B\x00\x00\x9eB\x00\x00\x06C\x00\x00,C\x00\x00\x80@\x00\x00$B\x00\x00\xb6B\x00\x00\x1bC\x00\x00 C\x00\x00\xa8A\x00\x00\x1cB\x00\x00\xe4B\x00\x00\x16C\x00\x000C\x00\x00\x00@\x00\x00`B\x00\x00\xc6B\x00\x00\x12C\x00\x00<C\x00\x00\xa0@\x00\x008B\x00\x00\xa4B\x00\x00\xf2B\x00\x00>C\x00\x00\xe0@\x00\x00\x94B\x00\x00\xc4B\x00\x00\x08C\x00\x009C\x00\x00`A\x00\x00tB\x00\x00\xc0B\x00\x00\rC\x00\x002C\x00\x00\xd0A\x00\x00\x9aB\x00\x00\xa6B\x00\x00\xf4B\x00\x00\'C\x00\x00\xc8A\x00\x000B\x00\x00\xa8B\x00\x00\xeaB\x00\x00@C\x00\x00\xb8A\x00\x00\x98B\x00\x00\xccB\x00\x00\nC\x00\x00/C\x00\x00\x10B\x00\x00\x88B\x00\x00\xe6B\x00\x00\x0fC\x00\x00BC\x00\x00\xf0A\x00\x00xB\x00\x00\xb4B\x00\x00\x15C\x00\x00&C\x00\x00\x08B\x00\x00hB\x00\x00\xcaB\x00\x00\x00C\x00\x00\x1dC\x00\x00\x88A\x00\x004B\x00\x00\xceB\x00\x00\x18C\x00\x003C\x00\x00\x98A\x00\x00DB\x00\x00\xbaB\x00\x00\x19C\x00\x00=C\x00\x00\xf8A\x00\x00\\B\x00\x00\xdeB\x00\x00\xf8B\x00\x004C\x00\x00PA\x00\x00\x80B\x00\x00\xd2B\x00\x00\xf0B\x00\x00.C\x00\x00\x18B\x00\x00\x86B\x00\x00\xaeB\x00\x00\xeeB\x00\x00\x1fC\x00\x00\xe8A\x00\x00\x84B\x00\x00\xc2B\x00\x00\x0eC\x00\x00;C\x00\x00\xe0A\x00\x00lB\x00\x00\xe0B\x00\x00\x13C\x00\x00$C\x00\x00\x80A\x00\x00|B\x00\x00\xd6B\x00\x00\xecB\x00\x00#C\x00\x000A\x00\x00\x96B\x00\x00\xd0B\x00\x00\x14C\x00\x00*C\x00\x00@A\x00\x00(B\x00\x00\xb8B\x00\x00\x1aC\x00\x005C\x00\x00\x00A\x00\x00pB\x00\x00\xbcB\x00\x00\x0bC\x00\x00)C\x00\x00@@\x00\x00PB\x00\x00\xc8B\x00\x00\x02C\x00\x00?C\x00\x00\xa0A\x00\x00\x8aB\x00\x00\xe2B\x00\x00\tC\x00\x00(C\x00\x00\x80?\x00\x00TB\x00\x00\xbeB\x00\x00\xfaB\x00\x00\x1eC\x00\x00 A\x00\x00XB\x00\x00\xe8B\x00\x00\x04C\x00\x007C\x00\x00\x04B\x00\x00\x8cB\x00\x00\xdcB\x00\x00\x03C\x00\x00\x1cC\x00\x00\xb0A\x00\x00\x82B\x00\x00\x9cB\x00\x00\xf6B\x00\x00AC\x00\x00pA\x00\x00 B\x00\x00\xa0B\x00\x00\x17C\x00\x00%C\x00\x00\xd8A\x00\x00LB\x00\x00\xb0B\x00\x00\xfeB\x00\x008C\x00\x00\x14B\x00\x00\x92B\x00\x00\xd8B\x00\x00\x10C\x00\x006C\x00\x00\x90A\x00\x00HB\x00\x00\xacB\x00\x00\xfcB\x00\x00"C\x00\x00\x0cB\x00\x00\x8eB\x00\x00\xdaB\x00\x00\x01C\x00\x00:C\x00\x00\x10A\x00\x00,B\x00\x00\xa2B\x00\x00\x05C\x00\x00-C\x00\x00\x00B\x00\x00@B\x00\x00\xb2B\x00\x00\x11C\x00\x001C'
p3504
S'\x00\x00\x00\x00\x00\x00\x00\x00\x00\x00\x00\x00\x00\x00\x00\x00\x00\x00\x00\x00\x00\x00\x00\x00\x00\x00\x00\x00\x00\x00\x00\x00\x00\x00\x00\x00\x00\x00\x00\x00\x00\x00\x00\x00\x00\x00\x00\x00\x00\x00\x00\x00\x00\x00\x00\x00\x00\x00\x00\x00\x00\x00\x00\x00\x00\x00\x00\x00\x00\x00\x00\x00\x00\x00\x00\x00\x00\x00\x00\x00\x00\x00\x00\x00\x00\x00\x00\x00\x00\x00\x00\x00\x00\x00\x00\x00\x00\x00\x00\x00\x00\x00\x00\x00\x00\x00\x00\x00\x00\x00\x00\x00\x00\x00\x00\x00\x00\x00\x00\x00\x00\x00\x00\x00\x00\x00\x00\x00\x00\x00\x00\x00\x00\x00\x00\x00\x00\x00\x00\x00\x00\x00\x00\x00\x00\x00\x00\x00\x00\x00\x00\x00\x00\x00\x00\x00\x00\x00\x00\x00\x00\x00\x00\x00\x00\x00\x00\x00\x00\x00\x00\x00\x00\x00\x00\x00\x00\x00\x00\x00\x00\x00\x00\x00\x00\x00\x00\x00\x00\x00\x00\x00\x00\x00\x00'
p3505
Ntp3506
bsg30
g3274
(g3275
(I0
tp3507
g3277
tp3508
Rp3509
(I1
(I39
I5
tp3510
g3283
I00
(lp3511
g327
ag1466
ag2103
ag2545
ag2818
ag893
ag1661
ag1830
ag2480
ag2948
ag479
ag1336
ag1752
ag2467
ag2961
ag433
ag1258
ag1908
ag2740
ag2805
ag824
ag1232
ag2207
ag2675
ag3013
ag385
ag1453
ag2012
ag2623
ag3169
ag456
ag1323
ag1791
ag2298
ag3195
ag502
ag1687
ag1999
ag2493
ag3130
ag663
ag1518
ag1973
ag2558
ag3039
ag939
ag1726
ag1804
ag2311
ag2896
ag916
ag1297
ag1817
ag2246
ag3221
ag870
ag1713
ag2051
ag2519
ag3000
ag1169
ag1609
ag2220
ag2584
ag3247
ag1031
ag1531
ag1895
ag2662
ag2883
ag1123
ag1479
ag2038
ag2389
ag2766
ag732
ag1310
ag2064
ag2701
ag3052
ag778
ag1362
ag1934
ag2714
ag3182
ag1054
ag1440
ag2168
ag2337
ag3065
ag640
ag1557
ag2090
ag2285
ag2987
ag1215
ag1596
ag1856
ag2272
ag2792
ag1008
ag1583
ag1986
ag2571
ag3156
ag985
ag1492
ag2181
ag2636
ag2857
ag709
ag1544
ag2116
ag2259
ag2844
ag594
ag1700
ag2077
ag2649
ag2935
ag617
ag1271
ag1921
ag2727
ag3078
ag525
ag1505
ag1947
ag2532
ag2922
ag409
ag1401
ag2025
ag2415
ag3208
ag801
ag1622
ag2194
ag2506
ag2909
ag362
ag1414
ag1960
ag2350
ag2779
ag571
ag1427
ag2233
ag2441
ag3104
ag1100
ag1635
ag2155
ag2428
ag2753
ag847
ag1570
ag1739
ag2324
ag3234
ag686
ag1245
ag1765
ag2688
ag2870
ag962
ag1388
ag1869
ag2376
ag3117
ag1192
ag1674
ag2129
ag2597
ag3091
ag755
ag1375
ag1843
ag2363
ag2831
ag1146
ag1648
ag2142
ag2402
ag3143
ag548
ag1284
ag1778
ag2454
ag2974
ag1077
ag1349
ag1882
ag2610
ag3026
atp3512
bstp3513
Rp3514
(dp3515
g3350
(dp3516
g3288
I01
sg31
I01
sg3336
I01
sg30
I00
ssg3352
g3485
sg3353
(lp3517
g3288
ag3336
ag30
ag31
asg3355
(lp3518
I39
aI5
asbsg3357
g3358
sg3359
g3274
(g3275
(I0
tp3519
g3277
tp3520
Rp3521
(I1
(I39
I5
tp3522
g76
I01
S'\x00\x00\x00\x00\x00\x00\x00\x00\x1c\x00\x00\x00\x00\x00\x00\x00\x05\x00\x00\x00\x00\x00\x00\x00\x1a\x00\x00\x00\x00\x00\x00\x00\x03\x00\x00\x00\x00\x00\x00\x00\x06\x00\x00\x00\x00\x00\x00\x00\x02\x00\x00\x00\x00\x00\x00\x00\x07\x00\x00\x00\x00\x00\x00\x00\x19\x00\x00\x00\x00\x00\x00\x00%\x00\x00\x00\x00\x00\x00\x00\x1d\x00\x00\x00\x00\x00\x00\x00\x17\x00\x00\x00\x00\x00\x00\x00\x18\x00\x00\x00\x00\x00\x00\x00\x12\x00\x00\x00\x00\x00\x00\x00\x08\x00\x00\x00\x00\x00\x00\x00 \x00\x00\x00\x00\x00\x00\x00\x16\x00\x00\x00\x00\x00\x00\x00\x0f\x00\x00\x00\x00\x00\x00\x00#\x00\x00\x00\x00\x00\x00\x00\x10\x00\x00\x00\x00\x00\x00\x00\x1b\x00\x00\x00\x00\x00\x00\x00\x04\x00\x00\x00\x00\x00\x00\x00\x1f\x00\x00\x00\x00\x00\x00\x00\x0b\x00\x00\x00\x00\x00\x00\x00\x01\x00\x00\x00\x00\x00\x00\x00\n\x00\x00\x00\x00\x00\x00\x00\t\x00\x00\x00\x00\x00\x00\x00!\x00\x00\x00\x00\x00\x00\x00\x15\x00\x00\x00\x00\x00\x00\x00\x14\x00\x00\x00\x00\x00\x00\x00\r\x00\x00\x00\x00\x00\x00\x00\x11\x00\x00\x00\x00\x00\x00\x00&\x00\x00\x00\x00\x00\x00\x00\x1e\x00\x00\x00\x00\x00\x00\x00\x0e\x00\x00\x00\x00\x00\x00\x00$\x00\x00\x00\x00\x00\x00\x00\x0c\x00\x00\x00\x00\x00\x00\x00"\x00\x00\x00\x00\x00\x00\x00\x13\x00\x00\x00\x00\x00\x00\x00\x04\x00\x00\x00\x00\x00\x00\x00 \x00\x00\x00\x00\x00\x00\x00\x03\x00\x00\x00\x00\x00\x00\x00\x18\x00\x00\x00\x00\x00\x00\x00%\x00\x00\x00\x00\x00\x00\x00\n\x00\x00\x00\x00\x00\x00\x00\x0f\x00\x00\x00\x00\x00\x00\x00\x06\x00\x00\x00\x00\x00\x00\x00\x02\x00\x00\x00\x00\x00\x00\x00&\x00\x00\x00\x00\x00\x00\x00\x10\x00\x00\x00\x00\x00\x00\x00#\x00\x00\x00\x00\x00\x00\x00!\x00\x00\x00\x00\x00\x00\x00\x1a\x00\x00\x00\x00\x00\x00\x00\x1c\x00\x00\x00\x00\x00\x00\x00\x1d\x00\x00\x00\x00\x00\x00\x00\x11\x00\x00\x00\x00\x00\x00\x00\x05\x00\x00\x00\x00\x00\x00\x00\x00\x00\x00\x00\x00\x00\x00\x00\x0e\x00\x00\x00\x00\x00\x00\x00\x15\x00\x00\x00\x00\x00\x00\x00\x19\x00\x00\x00\x00\x00\x00\x00\x08\x00\x00\x00\x00\x00\x00\x00\r\x00\x00\x00\x00\x00\x00\x00\x16\x00\x00\x00\x00\x00\x00\x00\x12\x00\x00\x00\x00\x00\x00\x00\x1f\x00\x00\x00\x00\x00\x00\x00\x14\x00\x00\x00\x00\x00\x00\x00\x13\x00\x00\x00\x00\x00\x00\x00\x0c\x00\x00\x00\x00\x00\x00\x00\x1b\x00\x00\x00\x00\x00\x00\x00\x1e\x00\x00\x00\x00\x00\x00\x00$\x00\x00\x00\x00\x00\x00\x00\x01\x00\x00\x00\x00\x00\x00\x00"\x00\x00\x00\x00\x00\x00\x00\x07\x00\x00\x00\x00\x00\x00\x00\x17\x00\x00\x00\x00\x00\x00\x00\x0b\x00\x00\x00\x00\x00\x00\x00\t\x00\x00\x00\x00\x00\x00\x00\x1f\x00\x00\x00\x00\x00\x00\x00\x02\x00\x00\x00\x00\x00\x00\x00 \x00\x00\x00\x00\x00\x00\x00%\x00\x00\x00\x00\x00\x00\x00\x06\x00\x00\x00\x00\x00\x00\x00\t\x00\x00\x00\x00\x00\x00\x00\n\x00\x00\x00\x00\x00\x00\x00\x01\x00\x00\x00\x00\x00\x00\x00#\x00\x00\x00\x00\x00\x00\x00\x13\x00\x00\x00\x00\x00\x00\x00!\x00\x00\x00\x00\x00\x00\x00&\x00\x00\x00\x00\x00\x00\x00\r\x00\x00\x00\x00\x00\x00\x00\x03\x00\x00\x00\x00\x00\x00\x00\x18\x00\x00\x00\x00\x00\x00\x00\x10\x00\x00\x00\x00\x00\x00\x00\x19\x00\x00\x00\x00\x00\x00\x00\x1c\x00\x00\x00\x00\x00\x00\x00\x08\x00\x00\x00\x00\x00\x00\x00\x14\x00\x00\x00\x00\x00\x00\x00\x07\x00\x00\x00\x00\x00\x00\x00\x05\x00\x00\x00\x00\x00\x00\x00\x1a\x00\x00\x00\x00\x00\x00\x00\x0e\x00\x00\x00\x00\x00\x00\x00\x0b\x00\x00\x00\x00\x00\x00\x00\x0f\x00\x00\x00\x00\x00\x00\x00\x17\x00\x00\x00\x00\x00\x00\x00\x12\x00\x00\x00\x00\x00\x00\x00\x00\x00\x00\x00\x00\x00\x00\x00\x16\x00\x00\x00\x00\x00\x00\x00"\x00\x00\x00\x00\x00\x00\x00$\x00\x00\x00\x00\x00\x00\x00\x1e\x00\x00\x00\x00\x00\x00\x00\x11\x00\x00\x00\x00\x00\x00\x00\x15\x00\x00\x00\x00\x00\x00\x00\x1b\x00\x00\x00\x00\x00\x00\x00\x04\x00\x00\x00\x00\x00\x00\x00\x0c\x00\x00\x00\x00\x00\x00\x00\x1d\x00\x00\x00\x00\x00\x00\x00\n\x00\x00\x00\x00\x00\x00\x00\x16\x00\x00\x00\x00\x00\x00\x00\x13\x00\x00\x00\x00\x00\x00\x00\x12\x00\x00\x00\x00\x00\x00\x00\x06\x00\x00\x00\x00\x00\x00\x00\t\x00\x00\x00\x00\x00\x00\x00\x1f\x00\x00\x00\x00\x00\x00\x00\x11\x00\x00\x00\x00\x00\x00\x00\x1c\x00\x00\x00\x00\x00\x00\x00#\x00\x00\x00\x00\x00\x00\x00!\x00\x00\x00\x00\x00\x00\x00\x0e\x00\x00\x00\x00\x00\x00\x00$\x00\x00\x00\x00\x00\x00\x00\x1a\x00\x00\x00\x00\x00\x00\x00\x1e\x00\x00\x00\x00\x00\x00\x00\x1d\x00\x00\x00\x00\x00\x00\x00%\x00\x00\x00\x00\x00\x00\x00\x02\x00\x00\x00\x00\x00\x00\x00\x01\x00\x00\x00\x00\x00\x00\x00\x07\x00\x00\x00\x00\x00\x00\x00\x1b\x00\x00\x00\x00\x00\x00\x00\x0b\x00\x00\x00\x00\x00\x00\x00\x19\x00\x00\x00\x00\x00\x00\x00\x00\x00\x00\x00\x00\x00\x00\x00\x08\x00\x00\x00\x00\x00\x00\x00\x14\x00\x00\x00\x00\x00\x00\x00\x0c\x00\x00\x00\x00\x00\x00\x00"\x00\x00\x00\x00\x00\x00\x00&\x00\x00\x00\x00\x00\x00\x00\x05\x00\x00\x00\x00\x00\x00\x00\x15\x00\x00\x00\x00\x00\x00\x00\x17\x00\x00\x00\x00\x00\x00\x00\r\x00\x00\x00\x00\x00\x00\x00\x04\x00\x00\x00\x00\x00\x00\x00 \x00\x00\x00\x00\x00\x00\x00\x0f\x00\x00\x00\x00\x00\x00\x00\x10\x00\x00\x00\x00\x00\x00\x00\x18\x00\x00\x00\x00\x00\x00\x00\x03\x00\x00\x00\x00\x00\x00\x00\x1e\x00\x00\x00\x00\x00\x00\x00\x0e\x00\x00\x00\x00\x00\x00\x00\x1c\x00\x00\x00\x00\x00\x00\x00\x13\x00\x00\x00\x00\x00\x00\x00\x03\x00\x00\x00\x00\x00\x00\x00\x00\x00\x00\x00\x00\x00\x00\x00#\x00\x00\x00\x00\x00\x00\x00\x16\x00\x00\x00\x00\x00\x00\x00\x15\x00\x00\x00\x00\x00\x00\x00 \x00\x00\x00\x00\x00\x00\x00\r\x00\x00\x00\x00\x00\x00\x00\t\x00\x00\x00\x00\x00\x00\x00\x1b\x00\x00\x00\x00\x00\x00\x00\x19\x00\x00\x00\x00\x00\x00\x00\x17\x00\x00\x00\x00\x00\x00\x00\x01\x00\x00\x00\x00\x00\x00\x00\x02\x00\x00\x00\x00\x00\x00\x00%\x00\x00\x00\x00\x00\x00\x00\x12\x00\x00\x00\x00\x00\x00\x00\x0b\x00\x00\x00\x00\x00\x00\x00\x04\x00\x00\x00\x00\x00\x00\x00&\x00\x00\x00\x00\x00\x00\x00\x08\x00\x00\x00\x00\x00\x00\x00\x0f\x00\x00\x00\x00\x00\x00\x00\x11\x00\x00\x00\x00\x00\x00\x00\x18\x00\x00\x00\x00\x00\x00\x00"\x00\x00\x00\x00\x00\x00\x00\x1d\x00\x00\x00\x00\x00\x00\x00!\x00\x00\x00\x00\x00\x00\x00\x07\x00\x00\x00\x00\x00\x00\x00$\x00\x00\x00\x00\x00\x00\x00\x14\x00\x00\x00\x00\x00\x00\x00\x05\x00\x00\x00\x00\x00\x00\x00\x10\x00\x00\x00\x00\x00\x00\x00\x06\x00\x00\x00\x00\x00\x00\x00\x1a\x00\x00\x00\x00\x00\x00\x00\n\x00\x00\x00\x00\x00\x00\x00\x1f\x00\x00\x00\x00\x00\x00\x00\x0c\x00\x00\x00\x00\x00\x00\x00'
p3523
tp3524
bsg3366
I01
sg3367
I5
sg3368
I-1
sg3369
(lp3525
g0
(g3465
g3272
(dp3526
g317
g320
sg329
g158
sg345
g348
sg321
g324
sg325
g326
sg332
g333
sg334
g335
stp3527
Rp3528
ag0
(g3465
g3272
(dp3529
g317
g887
sg329
g158
sg345
g900
sg321
g890
sg325
g897
sg332
g333
sg334
g395
stp3530
Rp3531
ag0
(g3465
g3272
(dp3532
g317
g473
sg329
g158
sg345
g486
sg321
g476
sg325
g483
sg332
g333
sg334
g395
stp3533
Rp3534
ag0
(g3465
g3272
(dp3535
g317
g427
sg329
g158
sg345
g440
sg321
g430
sg325
g437
sg332
g333
sg334
g395
stp3536
Rp3537
ag0
(g3465
g3272
(dp3538
g317
g818
sg329
g158
sg345
g831
sg321
g821
sg325
g828
sg332
g333
sg334
g395
stp3539
Rp3540
ag0
(g3465
g3272
(dp3541
g317
g379
sg329
g158
sg345
g392
sg321
g382
sg325
g389
sg332
g333
sg334
g395
stp3542
Rp3543
ag0
(g3465
g3272
(dp3544
g317
g450
sg329
g158
sg345
g463
sg321
g453
sg325
g460
sg332
g333
sg334
g395
stp3545
Rp3546
ag0
(g3465
g3272
(dp3547
g317
g496
sg329
g158
sg345
g509
sg321
g499
sg325
g506
sg332
g333
sg334
g419
stp3548
Rp3549
ag0
(g3465
g3272
(dp3550
g317
g657
sg329
g158
sg345
g670
sg321
g660
sg325
g667
sg332
g333
sg334
g419
stp3551
Rp3552
ag0
(g3465
g3272
(dp3553
g317
g933
sg329
g158
sg345
g946
sg321
g936
sg325
g943
sg332
g333
sg334
g419
stp3554
Rp3555
ag0
(g3465
g3272
(dp3556
g317
g910
sg329
g158
sg345
g923
sg321
g913
sg325
g920
sg332
g333
sg334
g419
stp3557
Rp3558
ag0
(g3465
g3272
(dp3559
g317
g864
sg329
g158
sg345
g877
sg321
g867
sg325
g874
sg332
g333
sg334
g419
stp3560
Rp3561
ag0
(g3465
g3272
(dp3562
g317
g1163
sg329
g158
sg345
g1176
sg321
g1166
sg325
g1173
sg332
g333
sg334
g419
stp3563
Rp3564
ag0
(g3465
g3272
(dp3565
g317
g1025
sg329
g158
sg345
g1038
sg321
g1028
sg325
g1035
sg332
g333
sg334
g419
stp3566
Rp3567
ag0
(g3465
g3272
(dp3568
g317
g1117
sg329
g102
sg345
g1130
sg321
g1120
sg325
g1127
sg332
g333
sg334
g335
stp3569
Rp3570
ag0
(g3465
g3272
(dp3571
g317
g726
sg329
g102
sg345
g739
sg321
g729
sg325
g736
sg332
g333
sg334
g395
stp3572
Rp3573
ag0
(g3465
g3272
(dp3574
g317
g772
sg329
g102
sg345
g785
sg321
g775
sg325
g782
sg332
g333
sg334
g395
stp3575
Rp3576
ag0
(g3465
g3272
(dp3577
g317
g1048
sg329
g102
sg345
g1061
sg321
g1051
sg325
g1058
sg332
g333
sg334
g395
stp3578
Rp3579
ag0
(g3465
g3272
(dp3580
g317
g634
sg329
g102
sg345
g647
sg321
g637
sg325
g644
sg332
g333
sg334
g395
stp3581
Rp3582
ag0
(g3465
g3272
(dp3583
g317
g1209
sg329
g102
sg345
g1222
sg321
g1212
sg325
g1219
sg332
g333
sg334
g395
stp3584
Rp3585
ag0
(g3465
g3272
(dp3586
g317
g1002
sg329
g102
sg345
g1015
sg321
g1005
sg325
g1012
sg332
g333
sg334
g395
stp3587
Rp3588
ag0
(g3465
g3272
(dp3589
g317
g979
sg329
g102
sg345
g992
sg321
g982
sg325
g989
sg332
g333
sg334
g419
stp3590
Rp3591
ag0
(g3465
g3272
(dp3592
g317
g703
sg329
g102
sg345
g716
sg321
g706
sg325
g713
sg332
g333
sg334
g419
stp3593
Rp3594
ag0
(g3465
g3272
(dp3595
g317
g588
sg329
g102
sg345
g601
sg321
g591
sg325
g598
sg332
g333
sg334
g419
stp3596
Rp3597
ag0
(g3465
g3272
(dp3598
g317
g611
sg329
g102
sg345
g624
sg321
g614
sg325
g621
sg332
g333
sg334
g419
stp3599
Rp3600
ag0
(g3465
g3272
(dp3601
g317
g519
sg329
g102
sg345
g532
sg321
g522
sg325
g529
sg332
g333
sg334
g419
stp3602
Rp3603
ag0
(g3465
g3272
(dp3604
g317
g403
sg329
g102
sg345
g416
sg321
g406
sg325
g413
sg332
g333
sg334
g419
stp3605
Rp3606
ag0
(g3465
g3272
(dp3607
g317
g795
sg329
g102
sg345
g808
sg321
g798
sg325
g805
sg332
g333
sg334
g419
stp3608
Rp3609
ag0
(g3465
g3272
(dp3610
g317
g356
sg329
g132
sg345
g369
sg321
g359
sg325
g366
sg332
g333
sg334
g335
stp3611
Rp3612
ag0
(g3465
g3272
(dp3613
g317
g565
sg329
g132
sg345
g578
sg321
g568
sg325
g575
sg332
g333
sg334
g395
stp3614
Rp3615
ag0
(g3465
g3272
(dp3616
g317
g1094
sg329
g132
sg345
g1107
sg321
g1097
sg325
g1104
sg332
g333
sg334
g395
stp3617
Rp3618
ag0
(g3465
g3272
(dp3619
g317
g841
sg329
g132
sg345
g854
sg321
g844
sg325
g851
sg332
g333
sg334
g395
stp3620
Rp3621
ag0
(g3465
g3272
(dp3622
g317
g680
sg329
g132
sg345
g693
sg321
g683
sg325
g690
sg332
g333
sg334
g395
stp3623
Rp3624
ag0
(g3465
g3272
(dp3625
g317
g956
sg329
g132
sg345
g969
sg321
g959
sg325
g966
sg332
g333
sg334
g395
stp3626
Rp3627
ag0
(g3465
g3272
(dp3628
g317
g1186
sg329
g132
sg345
g1199
sg321
g1189
sg325
g1196
sg332
g333
sg334
g395
stp3629
Rp3630
ag0
(g3465
g3272
(dp3631
g317
g749
sg329
g132
sg345
g762
sg321
g752
sg325
g759
sg332
g333
sg334
g419
stp3632
Rp3633
ag0
(g3465
g3272
(dp3634
g317
g1140
sg329
g132
sg345
g1153
sg321
g1143
sg325
g1150
sg332
g333
sg334
g419
stp3635
Rp3636
ag0
(g3465
g3272
(dp3637
g317
g542
sg329
g132
sg345
g555
sg321
g545
sg325
g552
sg332
g333
sg334
g419
stp3638
Rp3639
ag0
(g3465
g3272
(dp3640
g317
g1071
sg329
g132
sg345
g1084
sg321
g1074
sg325
g1081
sg332
g333
sg334
g419
stp3641
Rp3642
asg3371
Nsg3372
g3244
sg3373
I195
sg3374
I0
sg3375
I195
sbag0
(g3260
g2
Ntp3643
Rp3644
(dp3645
g3264
Nsg3265
(lp3646
sg3267
I4606987472
sg11
S'trials_4'
p3647
sg6
I-1
sg3269
I0
sg32
I01
sg33
g34
sg3270
g0
(g3271
g3272
(dp3648
g3288
g3289
(g3290
g3275
g3291
g3277
tp3649
Rp3650
(I1
(I1
I0
tp3651
g3297
I00
g57
g57
Ntp3652
bsg3336
g3289
(g3290
g3275
g3291
g3277
tp3653
Rp3654
(I1
(I1
I0
tp3655
g3297
I00
g57
g57
Ntp3656
bstp3657
Rp3658
(dp3659
g3350
(dp3660
g3288
I01
sg3336
I01
ssg3352
g3644
sg3353
(lp3661
g3288
ag3336
asg3355
(lp3662
I1
aI0
asbsg3357
g3358
sg3359
g3274
(g3275
(I0
tp3663
g3277
tp3664
Rp3665
(I1
(I0
tp3666
g42
I00
g57
tp3667
bsg3366
I01
sg3367
I0
sg3368
I-1
sg3369
(lp3668
Nasg3371
Nsg3372
I0
sg3373
I0
sg3374
I0
sg3375
I0
sbasS'savePickle'
p3669
I00
sb.