ccopy_reg
_reconstructor
p0
(cpsychopy.data.experiment
ExperimentHandler
p1
c__builtin__
object
p2
Ntp3
Rp4
(dp5
S'originPath'
p6
V/Users/Stefano/GitHub/phd-project/perceptual-pilot/experiment/perceptual-pilot.psyexp
p7
sS'dataFileName'
p8
V/Users/Stefano/GitHub/phd-project/perceptual-pilot/experiment/results/m004_perceptual-pilot_2018_Feb_01_1112
p9
sS'runtimeInfo'
p10
NsS'name'
p11
S'perceptual-pilot'
p12
sS'dataNames'
p13
(lp14
S'key_resp_5.keys'
p15
aS'key_resp_5.rt'
p16
aS'key_resp_9.keys'
p17
aS'key_resp_9.rt'
p18
aS'key_resp_10.keys'
p19
aS'key_resp_10.rt'
p20
aS'key_resp_11.keys'
p21
aS'key_resp_11.rt'
p22
aS'key_resp_12.keys'
p23
aS'key_resp_12.rt'
p24
aS'key_resp_6.keys'
p25
aS'key_resp_6.corr'
p26
aS'key_resp_6.rt'
p27
aS'key_resp_7.keys'
p28
aS'key_resp_7.rt'
p29
aS'key_resp_8.keys'
p30
aS'key_resp_8.rt'
p31
asS'autoLog'
p32
I01
sS'extraInfo'
p33
(dp34
S'date'
p35
S'2018_Feb_01_1112'
p36
sS'frameRate'
p37
cnumpy.core.multiarray
scalar
p38
(cnumpy
dtype
p39
(S'f8'
p40
I0
I1
tp41
Rp42
(I3
S'<'
p43
NNNI-1
I-1
I0
tp44
bS'$\xdf\x04\xf1\xe0\xfbM@'
p45
tp46
Rp47
sS'expName'
p48
g12
sVparticipant
p49
Vm004
p50
ssS'loopsUnfinished'
p51
(lp52
sS'saveWideText'
p53
I00
sS'thisEntry'
p54
(dp55
sS'version'
p56
S''
p57
sS'_paramNamesSoFar'
p58
(lp59
S'index'
p60
aS'burst'
p61
aS'voicing'
p62
aS'file_name'
p63
aS'vowel'
p64
aS'correct_answer'
p65
aS'side_condition'
p66
aS'condition'
p67
asS'entries'
p68
(lp69
(dp70
g48
g12
sg49
g50
sg21
S'space'
p71
sg37
g47
sS'trials_7.thisN'
p72
I0
sg18
F0.9339179992675781
sg20
F3.2878241539001465
sS'trials_7.thisIndex'
p73
g38
(g39
(S'i8'
p74
I0
I1
tp75
Rp76
(I3
S'<'
p77
NNNI-1
I-1
I0
tp78
bS'\x00\x00\x00\x00\x00\x00\x00\x00'
p79
tp80
Rp81
sg17
S'space'
p82
sg35
g36
sg15
S'space'
p83
sS'trials_7.thisRepN'
p84
I0
sg22
F4.304877996444702
sS'trials_7.thisTrialN'
p85
I0
sg19
S'space'
p86
sg16
F15.895065784454346
sa(dp87
g48
g12
sg49
g50
sg35
g36
sg23
S'space'
p88
sg37
g47
sg24
F0.318709135055542
sa(dp89
g60
g38
(g76
S'\x02\x00\x00\x00\x00\x00\x00\x00'
p90
tp91
Rp92
sg62
g38
(g76
S'\x00\x00\x00\x00\x00\x00\x00\x00'
p93
tp94
Rp95
sg63
V../data/raw/stimuli/pata0.wav
p96
sg25
S'z'
p97
sg37
g47
sS'trials_5.thisRepN'
p98
I0
sg26
I1
sg64
Va
p99
sg35
g36
sS'trials_5.thisTrialN'
p100
I0
sg66
Vt_left
p101
sg67
Vvoicing
p102
sS'trials_5.thisN'
p103
I0
sg49
g50
sS'trials_4.thisRepN'
p104
I0
sS'trials_4.thisIndex'
p105
g38
(g76
S'\x00\x00\x00\x00\x00\x00\x00\x00'
p106
tp107
Rp108
sg61
g38
(g76
S'\x05\x00\x00\x00\x00\x00\x00\x00'
p109
tp110
Rp111
sS'trials_5.thisIndex'
p112
g38
(g76
S'\x01\x00\x00\x00\x00\x00\x00\x00'
p113
tp114
Rp115
sg48
g12
sg65
Vz
p116
sS'trials_4.thisN'
p117
I0
sS'trials_4.thisTrialN'
p118
I0
sg27
F0.6364829540252686
sa(dp119
g60
g38
(g76
S'\x06\x00\x00\x00\x00\x00\x00\x00'
p120
tp121
Rp122
sg62
g38
(g76
S'\x00\x00\x00\x00\x00\x00\x00\x00'
p123
tp124
Rp125
sg63
V../data/raw/stimuli/putu0.wav
p126
sg25
S'z'
p127
sg37
g47
sS'trials_5.thisRepN'
p128
I0
sg26
I1
sg64
Vu
p129
sg35
g36
sS'trials_5.thisTrialN'
p130
I1
sg66
g101
sg67
g102
sS'trials_5.thisN'
p131
I1
sg49
g50
sS'trials_4.thisRepN'
p132
I0
sS'trials_4.thisIndex'
p133
g108
sg61
g38
(g76
S'\x05\x00\x00\x00\x00\x00\x00\x00'
p134
tp135
Rp136
sS'trials_5.thisIndex'
p137
g38
(g76
S'\x05\x00\x00\x00\x00\x00\x00\x00'
p138
tp139
Rp140
sg48
g12
sg65
g116
sS'trials_4.thisN'
p141
I0
sS'trials_4.thisTrialN'
p142
I0
sg27
F0.6358661651611328
sa(dp143
g60
g38
(g76
S'\x03\x00\x00\x00\x00\x00\x00\x00'
p144
tp145
Rp146
sg62
g38
(g76
S'\x05\x00\x00\x00\x00\x00\x00\x00'
p147
tp148
Rp149
sg63
V../data/raw/stimuli/pidi.wav
p150
sg25
S'slash'
p151
sg37
g47
sS'trials_5.thisRepN'
p152
I0
sg26
I1
sg64
Vi
p153
sg35
g36
sS'trials_5.thisTrialN'
p154
I2
sg66
g101
sg67
Vconfound
p155
sS'trials_5.thisN'
p156
I2
sg49
g50
sS'trials_4.thisRepN'
p157
I0
sS'trials_4.thisIndex'
p158
g108
sg61
g38
(g76
S'\x00\x00\x00\x00\x00\x00\x00\x00'
p159
tp160
Rp161
sS'trials_5.thisIndex'
p162
g38
(g76
S'\x02\x00\x00\x00\x00\x00\x00\x00'
p163
tp164
Rp165
sg48
g12
sg65
Vslash
p166
sS'trials_4.thisN'
p167
I0
sS'trials_4.thisTrialN'
p168
I0
sg27
F0.5842390060424805
sa(dp169
g60
g38
(g76
S'\x05\x00\x00\x00\x00\x00\x00\x00'
p170
tp171
Rp172
sg62
g38
(g76
S'\x05\x00\x00\x00\x00\x00\x00\x00'
p173
tp174
Rp175
sg63
V../data/raw/stimuli/pudu.wav
p176
sg25
S'slash'
p177
sg37
g47
sS'trials_5.thisRepN'
p178
I0
sg26
I1
sg64
g129
sg35
g36
sS'trials_5.thisTrialN'
p179
I3
sg66
g101
sg67
g155
sS'trials_5.thisN'
p180
I3
sg49
g50
sS'trials_4.thisRepN'
p181
I0
sS'trials_4.thisIndex'
p182
g108
sg61
g38
(g76
S'\x00\x00\x00\x00\x00\x00\x00\x00'
p183
tp184
Rp185
sS'trials_5.thisIndex'
p186
g38
(g76
S'\x04\x00\x00\x00\x00\x00\x00\x00'
p187
tp188
Rp189
sg48
g12
sg65
g166
sS'trials_4.thisN'
p190
I0
sS'trials_4.thisTrialN'
p191
I0
sg27
F0.46712183952331543
sa(dp192
g60
g38
(g76
S'\x01\x00\x00\x00\x00\x00\x00\x00'
p193
tp194
Rp195
sg62
g38
(g76
S'\x05\x00\x00\x00\x00\x00\x00\x00'
p196
tp197
Rp198
sg63
V../data/raw/stimuli/pada.wav
p199
sg25
S'slash'
p200
sg37
g47
sS'trials_5.thisRepN'
p201
I0
sg26
I1
sg64
g99
sg35
g36
sS'trials_5.thisTrialN'
p202
I4
sg66
g101
sg67
g155
sS'trials_5.thisN'
p203
I4
sg49
g50
sS'trials_4.thisRepN'
p204
I0
sS'trials_4.thisIndex'
p205
g108
sg61
g38
(g76
S'\x00\x00\x00\x00\x00\x00\x00\x00'
p206
tp207
Rp208
sS'trials_5.thisIndex'
p209
g38
(g76
S'\x00\x00\x00\x00\x00\x00\x00\x00'
p210
tp211
Rp212
sg48
g12
sg65
g166
sS'trials_4.thisN'
p213
I0
sS'trials_4.thisTrialN'
p214
I0
sg27
F0.43523597717285156
sa(dp215
g60
g38
(g76
S'\x04\x00\x00\x00\x00\x00\x00\x00'
p216
tp217
Rp218
sg62
g38
(g76
S'\x00\x00\x00\x00\x00\x00\x00\x00'
p219
tp220
Rp221
sg63
V../data/raw/stimuli/piti0.wav
p222
sg25
S'z'
p223
sg37
g47
sS'trials_5.thisRepN'
p224
I0
sg26
I1
sg64
g153
sg35
g36
sS'trials_5.thisTrialN'
p225
I5
sg66
g101
sg67
g102
sS'trials_5.thisN'
p226
I5
sg49
g50
sS'trials_4.thisRepN'
p227
I0
sS'trials_4.thisIndex'
p228
g108
sg61
g38
(g76
S'\x05\x00\x00\x00\x00\x00\x00\x00'
p229
tp230
Rp231
sS'trials_5.thisIndex'
p232
g38
(g76
S'\x03\x00\x00\x00\x00\x00\x00\x00'
p233
tp234
Rp235
sg48
g12
sg65
g116
sS'trials_4.thisN'
p236
I0
sS'trials_4.thisTrialN'
p237
I0
sg27
F0.43599390983581543
sa(dp238
g60
g122
sg62
g125
sg63
g126
sg25
S'z'
p239
sg37
g47
sS'trials_5.thisRepN'
p240
I1
sg26
I1
sg64
g129
sg35
g36
sS'trials_5.thisTrialN'
p241
I0
sg66
g101
sg67
g102
sS'trials_5.thisN'
p242
I6
sg49
g50
sS'trials_4.thisRepN'
p243
I0
sS'trials_4.thisIndex'
p244
g108
sg61
g136
sS'trials_5.thisIndex'
p245
g38
(g76
S'\x05\x00\x00\x00\x00\x00\x00\x00'
p246
tp247
Rp248
sg48
g12
sg65
g116
sS'trials_4.thisN'
p249
I0
sS'trials_4.thisTrialN'
p250
I0
sg27
F0.4363980293273926
sa(dp251
g60
g195
sg62
g198
sg63
g199
sg25
S'slash'
p252
sg37
g47
sS'trials_5.thisRepN'
p253
I1
sg26
I1
sg64
g99
sg35
g36
sS'trials_5.thisTrialN'
p254
I1
sg66
g101
sg67
g155
sS'trials_5.thisN'
p255
I7
sg49
g50
sS'trials_4.thisRepN'
p256
I0
sS'trials_4.thisIndex'
p257
g108
sg61
g208
sS'trials_5.thisIndex'
p258
g38
(g76
S'\x00\x00\x00\x00\x00\x00\x00\x00'
p259
tp260
Rp261
sg48
g12
sg65
g166
sS'trials_4.thisN'
p262
I0
sS'trials_4.thisTrialN'
p263
I0
sg27
F0.40294599533081055
sa(dp264
g60
g172
sg62
g175
sg63
g176
sg25
S'slash'
p265
sg37
g47
sS'trials_5.thisRepN'
p266
I1
sg26
I1
sg64
g129
sg35
g36
sS'trials_5.thisTrialN'
p267
I2
sg66
g101
sg67
g155
sS'trials_5.thisN'
p268
I8
sg49
g50
sS'trials_4.thisRepN'
p269
I0
sS'trials_4.thisIndex'
p270
g108
sg61
g185
sS'trials_5.thisIndex'
p271
g38
(g76
S'\x04\x00\x00\x00\x00\x00\x00\x00'
p272
tp273
Rp274
sg48
g12
sg65
g166
sS'trials_4.thisN'
p275
I0
sS'trials_4.thisTrialN'
p276
I0
sg27
F0.4031097888946533
sa(dp277
g60
g146
sg62
g149
sg63
g150
sg25
S'slash'
p278
sg37
g47
sS'trials_5.thisRepN'
p279
I1
sg26
I1
sg64
g153
sg35
g36
sS'trials_5.thisTrialN'
p280
I3
sg66
g101
sg67
g155
sS'trials_5.thisN'
p281
I9
sg49
g50
sS'trials_4.thisRepN'
p282
I0
sS'trials_4.thisIndex'
p283
g108
sg61
g161
sS'trials_5.thisIndex'
p284
g38
(g76
S'\x02\x00\x00\x00\x00\x00\x00\x00'
p285
tp286
Rp287
sg48
g12
sg65
g166
sS'trials_4.thisN'
p288
I0
sS'trials_4.thisTrialN'
p289
I0
sg27
F0.30236387252807617
sa(dp290
g60
g218
sg62
g221
sg63
g222
sg25
S'z'
p291
sg37
g47
sS'trials_5.thisRepN'
p292
I1
sg26
I1
sg64
g153
sg35
g36
sS'trials_5.thisTrialN'
p293
I4
sg66
g101
sg67
g102
sS'trials_5.thisN'
p294
I10
sg49
g50
sS'trials_4.thisRepN'
p295
I0
sS'trials_4.thisIndex'
p296
g108
sg61
g231
sS'trials_5.thisIndex'
p297
g38
(g76
S'\x03\x00\x00\x00\x00\x00\x00\x00'
p298
tp299
Rp300
sg48
g12
sg65
g116
sS'trials_4.thisN'
p301
I0
sS'trials_4.thisTrialN'
p302
I0
sg27
F0.31954193115234375
sa(dp303
g60
g92
sg62
g95
sg63
g96
sg25
S'z'
p304
sg37
g47
sS'trials_5.thisRepN'
p305
I1
sg26
I1
sg64
g99
sg35
g36
sS'trials_5.thisTrialN'
p306
I5
sg66
g101
sg67
g102
sS'trials_5.thisN'
p307
I11
sg49
g50
sS'trials_4.thisRepN'
p308
I0
sS'trials_4.thisIndex'
p309
g108
sg61
g111
sS'trials_5.thisIndex'
p310
g38
(g76
S'\x01\x00\x00\x00\x00\x00\x00\x00'
p311
tp312
Rp313
sg48
g12
sg65
g116
sS'trials_4.thisN'
p314
I0
sS'trials_4.thisTrialN'
p315
I0
sg27
F0.4196028709411621
sa(dp316
g60
g195
sg62
g198
sg63
g199
sg25
S'slash'
p317
sg37
g47
sS'trials_5.thisRepN'
p318
I2
sg26
I1
sg64
g99
sg35
g36
sS'trials_5.thisTrialN'
p319
I0
sg66
g101
sg67
g155
sS'trials_5.thisN'
p320
I12
sg49
g50
sS'trials_4.thisRepN'
p321
I0
sS'trials_4.thisIndex'
p322
g108
sg61
g208
sS'trials_5.thisIndex'
p323
g38
(g76
S'\x00\x00\x00\x00\x00\x00\x00\x00'
p324
tp325
Rp326
sg48
g12
sg65
g166
sS'trials_4.thisN'
p327
I0
sS'trials_4.thisTrialN'
p328
I0
sg27
F0.318695068359375
sa(dp329
g60
g146
sg62
g149
sg63
g150
sg25
S'slash'
p330
sg37
g47
sS'trials_5.thisRepN'
p331
I2
sg26
I1
sg64
g153
sg35
g36
sS'trials_5.thisTrialN'
p332
I1
sg66
g101
sg67
g155
sS'trials_5.thisN'
p333
I13
sg49
g50
sS'trials_4.thisRepN'
p334
I0
sS'trials_4.thisIndex'
p335
g108
sg61
g161
sS'trials_5.thisIndex'
p336
g38
(g76
S'\x02\x00\x00\x00\x00\x00\x00\x00'
p337
tp338
Rp339
sg48
g12
sg65
g166
sS'trials_4.thisN'
p340
I0
sS'trials_4.thisTrialN'
p341
I0
sg27
F0.5864038467407227
sa(dp342
g60
g122
sg62
g125
sg63
g126
sg25
S'z'
p343
sg37
g47
sS'trials_5.thisRepN'
p344
I2
sg26
I1
sg64
g129
sg35
g36
sS'trials_5.thisTrialN'
p345
I2
sg66
g101
sg67
g102
sS'trials_5.thisN'
p346
I14
sg49
g50
sS'trials_4.thisRepN'
p347
I0
sS'trials_4.thisIndex'
p348
g108
sg61
g136
sS'trials_5.thisIndex'
p349
g38
(g76
S'\x05\x00\x00\x00\x00\x00\x00\x00'
p350
tp351
Rp352
sg48
g12
sg65
g116
sS'trials_4.thisN'
p353
I0
sS'trials_4.thisTrialN'
p354
I0
sg27
F0.18683695793151855
sa(dp355
g60
g92
sg62
g95
sg63
g96
sg25
S'z'
p356
sg37
g47
sS'trials_5.thisRepN'
p357
I2
sg26
I1
sg64
g99
sg35
g36
sS'trials_5.thisTrialN'
p358
I3
sg66
g101
sg67
g102
sS'trials_5.thisN'
p359
I15
sg49
g50
sS'trials_4.thisRepN'
p360
I0
sS'trials_4.thisIndex'
p361
g108
sg61
g111
sS'trials_5.thisIndex'
p362
g38
(g76
S'\x01\x00\x00\x00\x00\x00\x00\x00'
p363
tp364
Rp365
sg48
g12
sg65
g116
sS'trials_4.thisN'
p366
I0
sS'trials_4.thisTrialN'
p367
I0
sg27
F0.40268707275390625
sa(dp368
g60
g218
sg62
g221
sg63
g222
sg25
S'z'
p369
sg37
g47
sS'trials_5.thisRepN'
p370
I2
sg26
I1
sg64
g153
sg35
g36
sS'trials_5.thisTrialN'
p371
I4
sg66
g101
sg67
g102
sS'trials_5.thisN'
p372
I16
sg49
g50
sS'trials_4.thisRepN'
p373
I0
sS'trials_4.thisIndex'
p374
g108
sg61
g231
sS'trials_5.thisIndex'
p375
g38
(g76
S'\x03\x00\x00\x00\x00\x00\x00\x00'
p376
tp377
Rp378
sg48
g12
sg65
g116
sS'trials_4.thisN'
p379
I0
sS'trials_4.thisTrialN'
p380
I0
sg27
F0.2519569396972656
sa(dp381
g60
g172
sg62
g175
sg63
g176
sg25
S'slash'
p382
sg37
g47
sS'trials_5.thisRepN'
p383
I2
sg26
I1
sg64
g129
sg35
g36
sS'trials_5.thisTrialN'
p384
I5
sg66
g101
sg67
g155
sS'trials_5.thisN'
p385
I17
sg49
g50
sS'trials_4.thisRepN'
p386
I0
sS'trials_4.thisIndex'
p387
g108
sg61
g185
sS'trials_5.thisIndex'
p388
g38
(g76
S'\x04\x00\x00\x00\x00\x00\x00\x00'
p389
tp390
Rp391
sg48
g12
sg65
g166
sS'trials_4.thisN'
p392
I0
sS'trials_4.thisTrialN'
p393
I0
sg27
F0.21947383880615234
sa(dp394
g60
g195
sg62
g198
sg63
g199
sg25
S'slash'
p395
sg37
g47
sS'trials_5.thisRepN'
p396
I3
sg26
I1
sg64
g99
sg35
g36
sS'trials_5.thisTrialN'
p397
I0
sg66
g101
sg67
g155
sS'trials_5.thisN'
p398
I18
sg49
g50
sS'trials_4.thisRepN'
p399
I0
sS'trials_4.thisIndex'
p400
g108
sg61
g208
sS'trials_5.thisIndex'
p401
g38
(g76
S'\x00\x00\x00\x00\x00\x00\x00\x00'
p402
tp403
Rp404
sg48
g12
sg65
g166
sS'trials_4.thisN'
p405
I0
sS'trials_4.thisTrialN'
p406
I0
sg27
F0.4689791202545166
sa(dp407
g60
g92
sg62
g95
sg63
g96
sg25
S'z'
p408
sg37
g47
sS'trials_5.thisRepN'
p409
I3
sg26
I1
sg64
g99
sg35
g36
sS'trials_5.thisTrialN'
p410
I1
sg66
g101
sg67
g102
sS'trials_5.thisN'
p411
I19
sg49
g50
sS'trials_4.thisRepN'
p412
I0
sS'trials_4.thisIndex'
p413
g108
sg61
g111
sS'trials_5.thisIndex'
p414
g38
(g76
S'\x01\x00\x00\x00\x00\x00\x00\x00'
p415
tp416
Rp417
sg48
g12
sg65
g116
sS'trials_4.thisN'
p418
I0
sS'trials_4.thisTrialN'
p419
I0
sg27
F0.2519540786743164
sa(dp420
g60
g218
sg62
g221
sg63
g222
sg25
S'z'
p421
sg37
g47
sS'trials_5.thisRepN'
p422
I3
sg26
I1
sg64
g153
sg35
g36
sS'trials_5.thisTrialN'
p423
I2
sg66
g101
sg67
g102
sS'trials_5.thisN'
p424
I20
sg49
g50
sS'trials_4.thisRepN'
p425
I0
sS'trials_4.thisIndex'
p426
g108
sg61
g231
sS'trials_5.thisIndex'
p427
g38
(g76
S'\x03\x00\x00\x00\x00\x00\x00\x00'
p428
tp429
Rp430
sg48
g12
sg65
g116
sS'trials_4.thisN'
p431
I0
sS'trials_4.thisTrialN'
p432
I0
sg27
F0.32016897201538086
sa(dp433
g60
g172
sg62
g175
sg63
g176
sg25
S'slash'
p434
sg37
g47
sS'trials_5.thisRepN'
p435
I3
sg26
I1
sg64
g129
sg35
g36
sS'trials_5.thisTrialN'
p436
I3
sg66
g101
sg67
g155
sS'trials_5.thisN'
p437
I21
sg49
g50
sS'trials_4.thisRepN'
p438
I0
sS'trials_4.thisIndex'
p439
g108
sg61
g185
sS'trials_5.thisIndex'
p440
g38
(g76
S'\x04\x00\x00\x00\x00\x00\x00\x00'
p441
tp442
Rp443
sg48
g12
sg65
g166
sS'trials_4.thisN'
p444
I0
sS'trials_4.thisTrialN'
p445
I0
sg27
F0.36965298652648926
sa(dp446
g60
g122
sg62
g125
sg63
g126
sg25
S'z'
p447
sg37
g47
sS'trials_5.thisRepN'
p448
I3
sg26
I1
sg64
g129
sg35
g36
sS'trials_5.thisTrialN'
p449
I4
sg66
g101
sg67
g102
sS'trials_5.thisN'
p450
I22
sg49
g50
sS'trials_4.thisRepN'
p451
I0
sS'trials_4.thisIndex'
p452
g108
sg61
g136
sS'trials_5.thisIndex'
p453
g38
(g76
S'\x05\x00\x00\x00\x00\x00\x00\x00'
p454
tp455
Rp456
sg48
g12
sg65
g116
sS'trials_4.thisN'
p457
I0
sS'trials_4.thisTrialN'
p458
I0
sg27
F0.617285966873169
sa(dp459
g60
g146
sg62
g149
sg63
g150
sg25
S'slash'
p460
sg37
g47
sS'trials_5.thisRepN'
p461
I3
sg26
I1
sg64
g153
sg35
g36
sS'trials_5.thisTrialN'
p462
I5
sg66
g101
sg67
g155
sS'trials_5.thisN'
p463
I23
sg49
g50
sS'trials_4.thisRepN'
p464
I0
sS'trials_4.thisIndex'
p465
g108
sg61
g161
sS'trials_5.thisIndex'
p466
g38
(g76
S'\x02\x00\x00\x00\x00\x00\x00\x00'
p467
tp468
Rp469
sg48
g12
sg65
g166
sS'trials_4.thisN'
p470
I0
sS'trials_4.thisTrialN'
p471
I0
sg27
F0.2694230079650879
sa(dp472
g60
g218
sg62
g221
sg63
g222
sg25
S'z'
p473
sg37
g47
sS'trials_5.thisRepN'
p474
I4
sg26
I1
sg64
g153
sg35
g36
sS'trials_5.thisTrialN'
p475
I0
sg66
g101
sg67
g102
sS'trials_5.thisN'
p476
I24
sg49
g50
sS'trials_4.thisRepN'
p477
I0
sS'trials_4.thisIndex'
p478
g108
sg61
g231
sS'trials_5.thisIndex'
p479
g38
(g76
S'\x03\x00\x00\x00\x00\x00\x00\x00'
p480
tp481
Rp482
sg48
g12
sg65
g116
sS'trials_4.thisN'
p483
I0
sS'trials_4.thisTrialN'
p484
I0
sg27
F0.3362751007080078
sa(dp485
g60
g92
sg62
g95
sg63
g96
sg25
S'z'
p486
sg37
g47
sS'trials_5.thisRepN'
p487
I4
sg26
I1
sg64
g99
sg35
g36
sS'trials_5.thisTrialN'
p488
I1
sg66
g101
sg67
g102
sS'trials_5.thisN'
p489
I25
sg49
g50
sS'trials_4.thisRepN'
p490
I0
sS'trials_4.thisIndex'
p491
g108
sg61
g111
sS'trials_5.thisIndex'
p492
g38
(g76
S'\x01\x00\x00\x00\x00\x00\x00\x00'
p493
tp494
Rp495
sg48
g12
sg65
g116
sS'trials_4.thisN'
p496
I0
sS'trials_4.thisTrialN'
p497
I0
sg27
F0.26944899559020996
sa(dp498
g60
g172
sg62
g175
sg63
g176
sg25
S'slash'
p499
sg37
g47
sS'trials_5.thisRepN'
p500
I4
sg26
I1
sg64
g129
sg35
g36
sS'trials_5.thisTrialN'
p501
I2
sg66
g101
sg67
g155
sS'trials_5.thisN'
p502
I26
sg49
g50
sS'trials_4.thisRepN'
p503
I0
sS'trials_4.thisIndex'
p504
g108
sg61
g185
sS'trials_5.thisIndex'
p505
g38
(g76
S'\x04\x00\x00\x00\x00\x00\x00\x00'
p506
tp507
Rp508
sg48
g12
sg65
g166
sS'trials_4.thisN'
p509
I0
sS'trials_4.thisTrialN'
p510
I0
sg27
F0.2857818603515625
sa(dp511
g60
g195
sg62
g198
sg63
g199
sg25
S'slash'
p512
sg37
g47
sS'trials_5.thisRepN'
p513
I4
sg26
I1
sg64
g99
sg35
g36
sS'trials_5.thisTrialN'
p514
I3
sg66
g101
sg67
g155
sS'trials_5.thisN'
p515
I27
sg49
g50
sS'trials_4.thisRepN'
p516
I0
sS'trials_4.thisIndex'
p517
g108
sg61
g208
sS'trials_5.thisIndex'
p518
g38
(g76
S'\x00\x00\x00\x00\x00\x00\x00\x00'
p519
tp520
Rp521
sg48
g12
sg65
g166
sS'trials_4.thisN'
p522
I0
sS'trials_4.thisTrialN'
p523
I0
sg27
F0.4524979591369629
sa(dp524
g60
g122
sg62
g125
sg63
g126
sg25
S'z'
p525
sg37
g47
sS'trials_5.thisRepN'
p526
I4
sg26
I1
sg64
g129
sg35
g36
sS'trials_5.thisTrialN'
p527
I4
sg66
g101
sg67
g102
sS'trials_5.thisN'
p528
I28
sg49
g50
sS'trials_4.thisRepN'
p529
I0
sS'trials_4.thisIndex'
p530
g108
sg61
g136
sS'trials_5.thisIndex'
p531
g38
(g76
S'\x05\x00\x00\x00\x00\x00\x00\x00'
p532
tp533
Rp534
sg48
g12
sg65
g116
sS'trials_4.thisN'
p535
I0
sS'trials_4.thisTrialN'
p536
I0
sg27
F0.35294485092163086
sa(dp537
g60
g146
sg62
g149
sg63
g150
sg25
S'slash'
p538
sg37
g47
sS'trials_5.thisRepN'
p539
I4
sg26
I1
sg64
g153
sg35
g36
sS'trials_5.thisTrialN'
p540
I5
sg66
g101
sg67
g155
sS'trials_5.thisN'
p541
I29
sg49
g50
sS'trials_4.thisRepN'
p542
I0
sS'trials_4.thisIndex'
p543
g108
sg61
g161
sS'trials_5.thisIndex'
p544
g38
(g76
S'\x02\x00\x00\x00\x00\x00\x00\x00'
p545
tp546
Rp547
sg48
g12
sg65
g166
sS'trials_4.thisN'
p548
I0
sS'trials_4.thisTrialN'
p549
I0
sg27
F0.2673149108886719
sa(dp550
S'burst'
p551
g38
(g76
S'\x02\x00\x00\x00\x00\x00\x00\x00'
p552
tp553
Rp554
sS'voicing'
p555
g38
(g76
S'\x00\x00\x00\x00\x00\x00\x00\x00'
p556
tp557
Rp558
sg29
F7.2398200035095215
sS'trials_6.thisN'
p559
I0
sg37
g47
sS'trials_6.thisTrialN'
p560
I0
sg30
S'z'
p561
sS'vowel'
p562
g153
sg35
g36
sS'side_condition'
p563
Vt_right
p564
sS'condition'
p565
Vburst
p566
sS'index'
p567
g38
(g76
S'\x12\x00\x00\x00\x00\x00\x00\x00'
p568
tp569
Rp570
sg49
g50
sS'trials_4.thisRepN'
p571
I0
sS'trials_4.thisIndex'
p572
g108
sg31
F0.5526070594787598
sS'trials_6.thisIndex'
p573
g38
(g76
S'\x11\x00\x00\x00\x00\x00\x00\x00'
p574
tp575
Rp576
sg48
g12
sg28
S'space'
p577
sS'file_name'
p578
V../data/raw/stimuli/pidi2.wav
p579
sS'trials_6.thisRepN'
p580
I0
sS'trials_4.thisN'
p581
I0
sS'trials_4.thisTrialN'
p582
I0
sa(dp583
g567
g38
(g76
S'\x01\x00\x00\x00\x00\x00\x00\x00'
p584
tp585
Rp586
sg48
g12
sg35
g36
sg551
g38
(g76
S'\x00\x00\x00\x00\x00\x00\x00\x00'
p587
tp588
Rp589
sS'trials_4.thisRepN'
p590
I0
sg578
V../data/raw/stimuli/pada.wav
p591
sS'trials_4.thisIndex'
p592
g108
sg37
g47
sS'trials_6.thisN'
p593
I1
sg563
g564
sg31
F0.652292013168335
sS'trials_6.thisIndex'
p594
g38
(g76
S'\x00\x00\x00\x00\x00\x00\x00\x00'
p595
tp596
Rp597
sS'trials_6.thisTrialN'
p598
I1
sg30
S'slash'
p599
sg562
g99
sg555
g38
(g76
S'\x05\x00\x00\x00\x00\x00\x00\x00'
p600
tp601
Rp602
sg49
g50
sS'trials_6.thisRepN'
p603
I0
sS'trials_4.thisN'
p604
I0
sS'trials_4.thisTrialN'
p605
I0
sg565
Vconfound
p606
sa(dp607
g567
g38
(g76
S'\x0e\x00\x00\x00\x00\x00\x00\x00'
p608
tp609
Rp610
sg48
g12
sg35
g36
sg551
g38
(g76
S'\x05\x00\x00\x00\x00\x00\x00\x00'
p611
tp612
Rp613
sS'trials_4.thisRepN'
p614
I0
sg578
V../data/raw/stimuli/pata6.wav
p615
sS'trials_4.thisIndex'
p616
g108
sg37
g47
sS'trials_6.thisN'
p617
I2
sg563
g564
sg31
F0.5522730350494385
sS'trials_6.thisIndex'
p618
g38
(g76
S'\r\x00\x00\x00\x00\x00\x00\x00'
p619
tp620
Rp621
sS'trials_6.thisTrialN'
p622
I2
sg30
S'slash'
p623
sg562
g99
sg555
g38
(g76
S'\x06\x00\x00\x00\x00\x00\x00\x00'
p624
tp625
Rp626
sg49
g50
sS'trials_6.thisRepN'
p627
I0
sS'trials_4.thisN'
p628
I0
sS'trials_4.thisTrialN'
p629
I0
sg565
Vvoicing
p630
sa(dp631
g567
g38
(g76
S'\x1f\x00\x00\x00\x00\x00\x00\x00'
p632
tp633
Rp634
sg48
g12
sg35
g36
sg551
g38
(g76
S'\x01\x00\x00\x00\x00\x00\x00\x00'
p635
tp636
Rp637
sS'trials_4.thisRepN'
p638
I0
sg578
V../data/raw/stimuli/pudu1.wav
p639
sS'trials_4.thisIndex'
p640
g108
sg37
g47
sS'trials_6.thisN'
p641
I3
sg563
g564
sg31
F0.43615198135375977
sS'trials_6.thisIndex'
p642
g38
(g76
S'\x1e\x00\x00\x00\x00\x00\x00\x00'
p643
tp644
Rp645
sS'trials_6.thisTrialN'
p646
I3
sg30
S'z'
p647
sg562
g129
sg555
g38
(g76
S'\x00\x00\x00\x00\x00\x00\x00\x00'
p648
tp649
Rp650
sg49
g50
sS'trials_6.thisRepN'
p651
I0
sS'trials_4.thisN'
p652
I0
sS'trials_4.thisTrialN'
p653
I0
sg565
g566
sa(dp654
g567
g38
(g76
S'\x0c\x00\x00\x00\x00\x00\x00\x00'
p655
tp656
Rp657
sg48
g12
sg35
g36
sg551
g38
(g76
S'\x05\x00\x00\x00\x00\x00\x00\x00'
p658
tp659
Rp660
sS'trials_4.thisRepN'
p661
I0
sg578
V../data/raw/stimuli/pata4.wav
p662
sS'trials_4.thisIndex'
p663
g108
sg37
g47
sS'trials_6.thisN'
p664
I4
sg563
g564
sg31
F0.9176619052886963
sS'trials_6.thisIndex'
p665
g38
(g76
S'\x0b\x00\x00\x00\x00\x00\x00\x00'
p666
tp667
Rp668
sS'trials_6.thisTrialN'
p669
I4
sg30
S'z'
p670
sg562
g99
sg555
g38
(g76
S'\x04\x00\x00\x00\x00\x00\x00\x00'
p671
tp672
Rp673
sg49
g50
sS'trials_6.thisRepN'
p674
I0
sS'trials_4.thisN'
p675
I0
sS'trials_4.thisTrialN'
p676
I0
sg565
g630
sa(dp677
g567
g38
(g76
S'\n\x00\x00\x00\x00\x00\x00\x00'
p678
tp679
Rp680
sg48
g12
sg35
g36
sg551
g38
(g76
S'\x05\x00\x00\x00\x00\x00\x00\x00'
p681
tp682
Rp683
sS'trials_4.thisRepN'
p684
I0
sg578
V../data/raw/stimuli/pata2.wav
p685
sS'trials_4.thisIndex'
p686
g108
sg37
g47
sS'trials_6.thisN'
p687
I5
sg563
g564
sg31
F0.4026210308074951
sS'trials_6.thisIndex'
p688
g38
(g76
S'\t\x00\x00\x00\x00\x00\x00\x00'
p689
tp690
Rp691
sS'trials_6.thisTrialN'
p692
I5
sg30
S'z'
p693
sg562
g99
sg555
g38
(g76
S'\x02\x00\x00\x00\x00\x00\x00\x00'
p694
tp695
Rp696
sg49
g50
sS'trials_6.thisRepN'
p697
I0
sS'trials_4.thisN'
p698
I0
sS'trials_4.thisTrialN'
p699
I0
sg565
g630
sa(dp700
g567
g38
(g76
S'\x1a\x00\x00\x00\x00\x00\x00\x00'
p701
tp702
Rp703
sg48
g12
sg35
g36
sg551
g38
(g76
S'\x05\x00\x00\x00\x00\x00\x00\x00'
p704
tp705
Rp706
sS'trials_4.thisRepN'
p707
I0
sg578
V../data/raw/stimuli/piti4.wav
p708
sS'trials_4.thisIndex'
p709
g108
sg37
g47
sS'trials_6.thisN'
p710
I6
sg563
g564
sg31
F0.6696670055389404
sS'trials_6.thisIndex'
p711
g38
(g76
S'\x19\x00\x00\x00\x00\x00\x00\x00'
p712
tp713
Rp714
sS'trials_6.thisTrialN'
p715
I6
sg30
S'slash'
p716
sg562
g153
sg555
g38
(g76
S'\x04\x00\x00\x00\x00\x00\x00\x00'
p717
tp718
Rp719
sg49
g50
sS'trials_6.thisRepN'
p720
I0
sS'trials_4.thisN'
p721
I0
sS'trials_4.thisTrialN'
p722
I0
sg565
g630
sa(dp723
g567
g38
(g76
S'\x0b\x00\x00\x00\x00\x00\x00\x00'
p724
tp725
Rp726
sg48
g12
sg35
g36
sg551
g38
(g76
S'\x05\x00\x00\x00\x00\x00\x00\x00'
p727
tp728
Rp729
sS'trials_4.thisRepN'
p730
I0
sg578
V../data/raw/stimuli/pata3.wav
p731
sS'trials_4.thisIndex'
p732
g108
sg37
g47
sS'trials_6.thisN'
p733
I7
sg563
g564
sg31
F1.269153118133545
sS'trials_6.thisIndex'
p734
g38
(g76
S'\n\x00\x00\x00\x00\x00\x00\x00'
p735
tp736
Rp737
sS'trials_6.thisTrialN'
p738
I7
sg30
S'z'
p739
sg562
g99
sg555
g38
(g76
S'\x03\x00\x00\x00\x00\x00\x00\x00'
p740
tp741
Rp742
sg49
g50
sS'trials_6.thisRepN'
p743
I0
sS'trials_4.thisN'
p744
I0
sS'trials_4.thisTrialN'
p745
I0
sg565
g630
sa(dp746
g567
g38
(g76
S'\x19\x00\x00\x00\x00\x00\x00\x00'
p747
tp748
Rp749
sg48
g12
sg35
g36
sg551
g38
(g76
S'\x05\x00\x00\x00\x00\x00\x00\x00'
p750
tp751
Rp752
sS'trials_4.thisRepN'
p753
I0
sg578
V../data/raw/stimuli/piti3.wav
p754
sS'trials_4.thisIndex'
p755
g108
sg37
g47
sS'trials_6.thisN'
p756
I8
sg563
g564
sg31
F1.0190210342407227
sS'trials_6.thisIndex'
p757
g38
(g76
S'\x18\x00\x00\x00\x00\x00\x00\x00'
p758
tp759
Rp760
sS'trials_6.thisTrialN'
p761
I8
sg30
S'z'
p762
sg562
g153
sg555
g38
(g76
S'\x03\x00\x00\x00\x00\x00\x00\x00'
p763
tp764
Rp765
sg49
g50
sS'trials_6.thisRepN'
p766
I0
sS'trials_4.thisN'
p767
I0
sS'trials_4.thisTrialN'
p768
I0
sg565
g630
sa(dp769
g567
g38
(g76
S"'\x00\x00\x00\x00\x00\x00\x00"
p770
tp771
Rp772
sg48
g12
sg35
g36
sg551
g38
(g76
S'\x05\x00\x00\x00\x00\x00\x00\x00'
p773
tp774
Rp775
sS'trials_4.thisRepN'
p776
I0
sg578
V../data/raw/stimuli/putu3.wav
p777
sS'trials_4.thisIndex'
p778
g108
sg37
g47
sS'trials_6.thisN'
p779
I9
sg563
g564
sg31
F0.9676220417022705
sS'trials_6.thisIndex'
p780
g38
(g76
S'&\x00\x00\x00\x00\x00\x00\x00'
p781
tp782
Rp783
sS'trials_6.thisTrialN'
p784
I9
sg30
S'slash'
p785
sg562
g129
sg555
g38
(g76
S'\x03\x00\x00\x00\x00\x00\x00\x00'
p786
tp787
Rp788
sg49
g50
sS'trials_6.thisRepN'
p789
I0
sS'trials_4.thisN'
p790
I0
sS'trials_4.thisTrialN'
p791
I0
sg565
g630
sa(dp792
g567
g38
(g76
S'\x18\x00\x00\x00\x00\x00\x00\x00'
p793
tp794
Rp795
sg48
g12
sg35
g36
sg551
g38
(g76
S'\x05\x00\x00\x00\x00\x00\x00\x00'
p796
tp797
Rp798
sS'trials_4.thisRepN'
p799
I0
sg578
V../data/raw/stimuli/piti2.wav
p800
sS'trials_4.thisIndex'
p801
g108
sg37
g47
sS'trials_6.thisN'
p802
I10
sg563
g564
sg31
F0.5695052146911621
sS'trials_6.thisIndex'
p803
g38
(g76
S'\x17\x00\x00\x00\x00\x00\x00\x00'
p804
tp805
Rp806
sS'trials_6.thisTrialN'
p807
I10
sg30
S'z'
p808
sg562
g153
sg555
g38
(g76
S'\x02\x00\x00\x00\x00\x00\x00\x00'
p809
tp810
Rp811
sg49
g50
sS'trials_6.thisRepN'
p812
I0
sS'trials_4.thisN'
p813
I0
sS'trials_4.thisTrialN'
p814
I0
sg565
g630
sa(dp815
g567
g38
(g76
S'\t\x00\x00\x00\x00\x00\x00\x00'
p816
tp817
Rp818
sg48
g12
sg35
g36
sg551
g38
(g76
S'\x05\x00\x00\x00\x00\x00\x00\x00'
p819
tp820
Rp821
sS'trials_4.thisRepN'
p822
I0
sg578
V../data/raw/stimuli/pata1.wav
p823
sS'trials_4.thisIndex'
p824
g108
sg37
g47
sS'trials_6.thisN'
p825
I11
sg563
g564
sg31
F0.7198479175567627
sS'trials_6.thisIndex'
p826
g38
(g76
S'\x08\x00\x00\x00\x00\x00\x00\x00'
p827
tp828
Rp829
sS'trials_6.thisTrialN'
p830
I11
sg30
S'z'
p831
sg562
g99
sg555
g38
(g76
S'\x01\x00\x00\x00\x00\x00\x00\x00'
p832
tp833
Rp834
sg49
g50
sS'trials_6.thisRepN'
p835
I0
sS'trials_4.thisN'
p836
I0
sS'trials_4.thisTrialN'
p837
I0
sg565
g630
sa(dp838
g567
g38
(g76
S'!\x00\x00\x00\x00\x00\x00\x00'
p839
tp840
Rp841
sg48
g12
sg35
g36
sg551
g38
(g76
S'\x03\x00\x00\x00\x00\x00\x00\x00'
p842
tp843
Rp844
sS'trials_4.thisRepN'
p845
I0
sg578
V../data/raw/stimuli/pudu3.wav
p846
sS'trials_4.thisIndex'
p847
g108
sg37
g47
sS'trials_6.thisN'
p848
I12
sg563
g564
sg31
F0.9840610027313232
sS'trials_6.thisIndex'
p849
g38
(g76
S' \x00\x00\x00\x00\x00\x00\x00'
p850
tp851
Rp852
sS'trials_6.thisTrialN'
p853
I12
sg30
S'z'
p854
sg562
g129
sg555
g38
(g76
S'\x00\x00\x00\x00\x00\x00\x00\x00'
p855
tp856
Rp857
sg49
g50
sS'trials_6.thisRepN'
p858
I0
sS'trials_4.thisN'
p859
I0
sS'trials_4.thisTrialN'
p860
I0
sg565
g566
sa(dp861
g567
g38
(g76
S'\x1b\x00\x00\x00\x00\x00\x00\x00'
p862
tp863
Rp864
sg48
g12
sg35
g36
sg551
g38
(g76
S'\x05\x00\x00\x00\x00\x00\x00\x00'
p865
tp866
Rp867
sS'trials_4.thisRepN'
p868
I0
sg578
V../data/raw/stimuli/piti5.wav
p869
sS'trials_4.thisIndex'
p870
g108
sg37
g47
sS'trials_6.thisN'
p871
I13
sg563
g564
sg31
F1.3533880710601807
sS'trials_6.thisIndex'
p872
g38
(g76
S'\x1a\x00\x00\x00\x00\x00\x00\x00'
p873
tp874
Rp875
sS'trials_6.thisTrialN'
p876
I13
sg30
S'z'
p877
sg562
g153
sg555
g38
(g76
S'\x05\x00\x00\x00\x00\x00\x00\x00'
p878
tp879
Rp880
sg49
g50
sS'trials_6.thisRepN'
p881
I0
sS'trials_4.thisN'
p882
I0
sS'trials_4.thisTrialN'
p883
I0
sg565
g630
sa(dp884
g567
g38
(g76
S'\x02\x00\x00\x00\x00\x00\x00\x00'
p885
tp886
Rp887
sg48
g12
sg35
g36
sg551
g38
(g76
S'\x00\x00\x00\x00\x00\x00\x00\x00'
p888
tp889
Rp890
sS'trials_4.thisRepN'
p891
I0
sg578
V../data/raw/stimuli/pada0.wav
p892
sS'trials_4.thisIndex'
p893
g108
sg37
g47
sS'trials_6.thisN'
p894
I14
sg563
g564
sg31
F1.2701690196990967
sS'trials_6.thisIndex'
p895
g38
(g76
S'\x01\x00\x00\x00\x00\x00\x00\x00'
p896
tp897
Rp898
sS'trials_6.thisTrialN'
p899
I14
sg30
S'slash'
p900
sg562
g99
sg555
g38
(g76
S'\x00\x00\x00\x00\x00\x00\x00\x00'
p901
tp902
Rp903
sg49
g50
sS'trials_6.thisRepN'
p904
I0
sS'trials_4.thisN'
p905
I0
sS'trials_4.thisTrialN'
p906
I0
sg565
g566
sa(dp907
g567
g38
(g76
S'\r\x00\x00\x00\x00\x00\x00\x00'
p908
tp909
Rp910
sg48
g12
sg35
g36
sg551
g38
(g76
S'\x05\x00\x00\x00\x00\x00\x00\x00'
p911
tp912
Rp913
sS'trials_4.thisRepN'
p914
I0
sg578
V../data/raw/stimuli/pata5.wav
p915
sS'trials_4.thisIndex'
p916
g108
sg37
g47
sS'trials_6.thisN'
p917
I15
sg563
g564
sg31
F0.46964597702026367
sS'trials_6.thisIndex'
p918
g38
(g76
S'\x0c\x00\x00\x00\x00\x00\x00\x00'
p919
tp920
Rp921
sS'trials_6.thisTrialN'
p922
I15
sg30
S'slash'
p923
sg562
g99
sg555
g38
(g76
S'\x05\x00\x00\x00\x00\x00\x00\x00'
p924
tp925
Rp926
sg49
g50
sS'trials_6.thisRepN'
p927
I0
sS'trials_4.thisN'
p928
I0
sS'trials_4.thisTrialN'
p929
I0
sg565
g630
sa(dp930
g567
g38
(g76
S'\x08\x00\x00\x00\x00\x00\x00\x00'
p931
tp932
Rp933
sg48
g12
sg35
g36
sg551
g38
(g76
S'\x05\x00\x00\x00\x00\x00\x00\x00'
p934
tp935
Rp936
sS'trials_4.thisRepN'
p937
I0
sg578
V../data/raw/stimuli/pata0.wav
p938
sS'trials_4.thisIndex'
p939
g108
sg37
g47
sS'trials_6.thisN'
p940
I16
sg563
g564
sg31
F0.9196031093597412
sS'trials_6.thisIndex'
p941
g38
(g76
S'\x07\x00\x00\x00\x00\x00\x00\x00'
p942
tp943
Rp944
sS'trials_6.thisTrialN'
p945
I16
sg30
S'z'
p946
sg562
g99
sg555
g38
(g76
S'\x00\x00\x00\x00\x00\x00\x00\x00'
p947
tp948
Rp949
sg49
g50
sS'trials_6.thisRepN'
p950
I0
sS'trials_4.thisN'
p951
I0
sS'trials_4.thisTrialN'
p952
I0
sg565
g630
sa(dp953
g567
g38
(g76
S'\x06\x00\x00\x00\x00\x00\x00\x00'
p954
tp955
Rp956
sg48
g12
sg35
g36
sg551
g38
(g76
S'\x04\x00\x00\x00\x00\x00\x00\x00'
p957
tp958
Rp959
sS'trials_4.thisRepN'
p960
I0
sg578
V../data/raw/stimuli/pada4.wav
p961
sS'trials_4.thisIndex'
p962
g108
sg37
g47
sS'trials_6.thisN'
p963
I17
sg563
g564
sg31
F0.6840980052947998
sS'trials_6.thisIndex'
p964
g38
(g76
S'\x05\x00\x00\x00\x00\x00\x00\x00'
p965
tp966
Rp967
sS'trials_6.thisTrialN'
p968
I17
sg30
S'z'
p969
sg562
g99
sg555
g38
(g76
S'\x00\x00\x00\x00\x00\x00\x00\x00'
p970
tp971
Rp972
sg49
g50
sS'trials_6.thisRepN'
p973
I0
sS'trials_4.thisN'
p974
I0
sS'trials_4.thisTrialN'
p975
I0
sg565
g566
sa(dp976
g567
g38
(g76
S'\x07\x00\x00\x00\x00\x00\x00\x00'
p977
tp978
Rp979
sg48
g12
sg35
g36
sg551
g38
(g76
S'\x05\x00\x00\x00\x00\x00\x00\x00'
p980
tp981
Rp982
sS'trials_4.thisRepN'
p983
I0
sg578
V../data/raw/stimuli/pada5.wav
p984
sS'trials_4.thisIndex'
p985
g108
sg37
g47
sS'trials_6.thisN'
p986
I18
sg563
g564
sg31
F0.40270400047302246
sS'trials_6.thisIndex'
p987
g38
(g76
S'\x06\x00\x00\x00\x00\x00\x00\x00'
p988
tp989
Rp990
sS'trials_6.thisTrialN'
p991
I18
sg30
S'z'
p992
sg562
g99
sg555
g38
(g76
S'\x00\x00\x00\x00\x00\x00\x00\x00'
p993
tp994
Rp995
sg49
g50
sS'trials_6.thisRepN'
p996
I0
sS'trials_4.thisN'
p997
I0
sS'trials_4.thisTrialN'
p998
I0
sg565
g566
sa(dp999
g567
g38
(g76
S'\x1c\x00\x00\x00\x00\x00\x00\x00'
p1000
tp1001
Rp1002
sg48
g12
sg35
g36
sg551
g38
(g76
S'\x05\x00\x00\x00\x00\x00\x00\x00'
p1003
tp1004
Rp1005
sS'trials_4.thisRepN'
p1006
I0
sg578
V../data/raw/stimuli/piti6.wav
p1007
sS'trials_4.thisIndex'
p1008
g108
sg37
g47
sS'trials_6.thisN'
p1009
I19
sg563
g564
sg31
F0.8194661140441895
sS'trials_6.thisIndex'
p1010
g38
(g76
S'\x1b\x00\x00\x00\x00\x00\x00\x00'
p1011
tp1012
Rp1013
sS'trials_6.thisTrialN'
p1014
I19
sg30
S'z'
p1015
sg562
g153
sg555
g38
(g76
S'\x06\x00\x00\x00\x00\x00\x00\x00'
p1016
tp1017
Rp1018
sg49
g50
sS'trials_6.thisRepN'
p1019
I0
sS'trials_4.thisN'
p1020
I0
sS'trials_4.thisTrialN'
p1021
I0
sg565
g630
sa(dp1022
g567
g38
(g76
S'\x15\x00\x00\x00\x00\x00\x00\x00'
p1023
tp1024
Rp1025
sg48
g12
sg35
g36
sg551
g38
(g76
S'\x05\x00\x00\x00\x00\x00\x00\x00'
p1026
tp1027
Rp1028
sS'trials_4.thisRepN'
p1029
I0
sg578
V../data/raw/stimuli/pidi5.wav
p1030
sS'trials_4.thisIndex'
p1031
g108
sg37
g47
sS'trials_6.thisN'
p1032
I20
sg563
g564
sg31
F0.6197938919067383
sS'trials_6.thisIndex'
p1033
g38
(g76
S'\x14\x00\x00\x00\x00\x00\x00\x00'
p1034
tp1035
Rp1036
sS'trials_6.thisTrialN'
p1037
I20
sg30
S'z'
p1038
sg562
g153
sg555
g38
(g76
S'\x00\x00\x00\x00\x00\x00\x00\x00'
p1039
tp1040
Rp1041
sg49
g50
sS'trials_6.thisRepN'
p1042
I0
sS'trials_4.thisN'
p1043
I0
sS'trials_4.thisTrialN'
p1044
I0
sg565
g566
sa(dp1045
g567
g38
(g76
S'\x10\x00\x00\x00\x00\x00\x00\x00'
p1046
tp1047
Rp1048
sg48
g12
sg35
g36
sg551
g38
(g76
S'\x00\x00\x00\x00\x00\x00\x00\x00'
p1049
tp1050
Rp1051
sS'trials_4.thisRepN'
p1052
I0
sg578
V../data/raw/stimuli/pidi0.wav
p1053
sS'trials_4.thisIndex'
p1054
g108
sg37
g47
sS'trials_6.thisN'
p1055
I21
sg563
g564
sg31
F1.6694231033325195
sS'trials_6.thisIndex'
p1056
g38
(g76
S'\x0f\x00\x00\x00\x00\x00\x00\x00'
p1057
tp1058
Rp1059
sS'trials_6.thisTrialN'
p1060
I21
sg30
S'slash'
p1061
sg562
g153
sg555
g38
(g76
S'\x00\x00\x00\x00\x00\x00\x00\x00'
p1062
tp1063
Rp1064
sg49
g50
sS'trials_6.thisRepN'
p1065
I0
sS'trials_4.thisN'
p1066
I0
sS'trials_4.thisTrialN'
p1067
I0
sg565
g566
sa(dp1068
g567
g38
(g76
S'\x11\x00\x00\x00\x00\x00\x00\x00'
p1069
tp1070
Rp1071
sg48
g12
sg35
g36
sg551
g38
(g76
S'\x01\x00\x00\x00\x00\x00\x00\x00'
p1072
tp1073
Rp1074
sS'trials_4.thisRepN'
p1075
I0
sg578
V../data/raw/stimuli/pidi1.wav
p1076
sS'trials_4.thisIndex'
p1077
g108
sg37
g47
sS'trials_6.thisN'
p1078
I22
sg563
g564
sg31
F1.8349800109863281
sS'trials_6.thisIndex'
p1079
g38
(g76
S'\x10\x00\x00\x00\x00\x00\x00\x00'
p1080
tp1081
Rp1082
sS'trials_6.thisTrialN'
p1083
I22
sg30
S'slash'
p1084
sg562
g153
sg555
g38
(g76
S'\x00\x00\x00\x00\x00\x00\x00\x00'
p1085
tp1086
Rp1087
sg49
g50
sS'trials_6.thisRepN'
p1088
I0
sS'trials_4.thisN'
p1089
I0
sS'trials_4.thisTrialN'
p1090
I0
sg565
g566
sa(dp1091
g567
g38
(g76
S'\x0f\x00\x00\x00\x00\x00\x00\x00'
p1092
tp1093
Rp1094
sg48
g12
sg35
g36
sg551
g38
(g76
S'\x00\x00\x00\x00\x00\x00\x00\x00'
p1095
tp1096
Rp1097
sS'trials_4.thisRepN'
p1098
I0
sg578
V../data/raw/stimuli/pidi.wav
p1099
sS'trials_4.thisIndex'
p1100
g108
sg37
g47
sS'trials_6.thisN'
p1101
I23
sg563
g564
sg31
F0.48644280433654785
sS'trials_6.thisIndex'
p1102
g38
(g76
S'\x0e\x00\x00\x00\x00\x00\x00\x00'
p1103
tp1104
Rp1105
sS'trials_6.thisTrialN'
p1106
I23
sg30
S'slash'
p1107
sg562
g153
sg555
g38
(g76
S'\x05\x00\x00\x00\x00\x00\x00\x00'
p1108
tp1109
Rp1110
sg49
g50
sS'trials_6.thisRepN'
p1111
I0
sS'trials_4.thisN'
p1112
I0
sS'trials_4.thisTrialN'
p1113
I0
sg565
g606
sa(dp1114
g567
g38
(g76
S'\x04\x00\x00\x00\x00\x00\x00\x00'
p1115
tp1116
Rp1117
sg48
g12
sg35
g36
sg551
g38
(g76
S'\x02\x00\x00\x00\x00\x00\x00\x00'
p1118
tp1119
Rp1120
sS'trials_4.thisRepN'
p1121
I0
sg578
V../data/raw/stimuli/pada2.wav
p1122
sS'trials_4.thisIndex'
p1123
g108
sg37
g47
sS'trials_6.thisN'
p1124
I24
sg563
g564
sg31
F0.7208130359649658
sS'trials_6.thisIndex'
p1125
g38
(g76
S'\x03\x00\x00\x00\x00\x00\x00\x00'
p1126
tp1127
Rp1128
sS'trials_6.thisTrialN'
p1129
I24
sg30
S'z'
p1130
sg562
g99
sg555
g38
(g76
S'\x00\x00\x00\x00\x00\x00\x00\x00'
p1131
tp1132
Rp1133
sg49
g50
sS'trials_6.thisRepN'
p1134
I0
sS'trials_4.thisN'
p1135
I0
sS'trials_4.thisTrialN'
p1136
I0
sg565
g566
sa(dp1137
g567
g38
(g76
S'"\x00\x00\x00\x00\x00\x00\x00'
p1138
tp1139
Rp1140
sg48
g12
sg35
g36
sg551
g38
(g76
S'\x04\x00\x00\x00\x00\x00\x00\x00'
p1141
tp1142
Rp1143
sS'trials_4.thisRepN'
p1144
I0
sg578
V../data/raw/stimuli/pudu4.wav
p1145
sS'trials_4.thisIndex'
p1146
g108
sg37
g47
sS'trials_6.thisN'
p1147
I25
sg563
g564
sg31
F0.969372034072876
sS'trials_6.thisIndex'
p1148
g38
(g76
S'!\x00\x00\x00\x00\x00\x00\x00'
p1149
tp1150
Rp1151
sS'trials_6.thisTrialN'
p1152
I25
sg30
S'z'
p1153
sg562
g129
sg555
g38
(g76
S'\x00\x00\x00\x00\x00\x00\x00\x00'
p1154
tp1155
Rp1156
sg49
g50
sS'trials_6.thisRepN'
p1157
I0
sS'trials_4.thisN'
p1158
I0
sS'trials_4.thisTrialN'
p1159
I0
sg565
g566
sa(dp1160
g567
g38
(g76
S'\x13\x00\x00\x00\x00\x00\x00\x00'
p1161
tp1162
Rp1163
sg48
g12
sg35
g36
sg551
g38
(g76
S'\x03\x00\x00\x00\x00\x00\x00\x00'
p1164
tp1165
Rp1166
sS'trials_4.thisRepN'
p1167
I0
sg578
V../data/raw/stimuli/pidi3.wav
p1168
sS'trials_4.thisIndex'
p1169
g108
sg37
g47
sS'trials_6.thisN'
p1170
I26
sg563
g564
sg31
F0.4362020492553711
sS'trials_6.thisIndex'
p1171
g38
(g76
S'\x12\x00\x00\x00\x00\x00\x00\x00'
p1172
tp1173
Rp1174
sS'trials_6.thisTrialN'
p1175
I26
sg30
S'z'
p1176
sg562
g153
sg555
g38
(g76
S'\x00\x00\x00\x00\x00\x00\x00\x00'
p1177
tp1178
Rp1179
sg49
g50
sS'trials_6.thisRepN'
p1180
I0
sS'trials_4.thisN'
p1181
I0
sS'trials_4.thisTrialN'
p1182
I0
sg565
g566
sa(dp1183
g567
g38
(g76
S'&\x00\x00\x00\x00\x00\x00\x00'
p1184
tp1185
Rp1186
sg48
g12
sg35
g36
sg551
g38
(g76
S'\x05\x00\x00\x00\x00\x00\x00\x00'
p1187
tp1188
Rp1189
sS'trials_4.thisRepN'
p1190
I0
sg578
V../data/raw/stimuli/putu2.wav
p1191
sS'trials_4.thisIndex'
p1192
g108
sg37
g47
sS'trials_6.thisN'
p1193
I27
sg563
g564
sg31
F0.46915698051452637
sS'trials_6.thisIndex'
p1194
g38
(g76
S'%\x00\x00\x00\x00\x00\x00\x00'
p1195
tp1196
Rp1197
sS'trials_6.thisTrialN'
p1198
I27
sg30
S'z'
p1199
sg562
g129
sg555
g38
(g76
S'\x02\x00\x00\x00\x00\x00\x00\x00'
p1200
tp1201
Rp1202
sg49
g50
sS'trials_6.thisRepN'
p1203
I0
sS'trials_4.thisN'
p1204
I0
sS'trials_4.thisTrialN'
p1205
I0
sg565
g630
sa(dp1206
g567
g38
(g76
S'%\x00\x00\x00\x00\x00\x00\x00'
p1207
tp1208
Rp1209
sg48
g12
sg35
g36
sg551
g38
(g76
S'\x05\x00\x00\x00\x00\x00\x00\x00'
p1210
tp1211
Rp1212
sS'trials_4.thisRepN'
p1213
I0
sg578
V../data/raw/stimuli/putu1.wav
p1214
sS'trials_4.thisIndex'
p1215
g108
sg37
g47
sS'trials_6.thisN'
p1216
I28
sg563
g564
sg31
F0.40004491806030273
sS'trials_6.thisIndex'
p1217
g38
(g76
S'$\x00\x00\x00\x00\x00\x00\x00'
p1218
tp1219
Rp1220
sS'trials_6.thisTrialN'
p1221
I28
sg30
S'z'
p1222
sg562
g129
sg555
g38
(g76
S'\x01\x00\x00\x00\x00\x00\x00\x00'
p1223
tp1224
Rp1225
sg49
g50
sS'trials_6.thisRepN'
p1226
I0
sS'trials_4.thisN'
p1227
I0
sS'trials_4.thisTrialN'
p1228
I0
sg565
g630
sa(dp1229
g567
g38
(g76
S'\x14\x00\x00\x00\x00\x00\x00\x00'
p1230
tp1231
Rp1232
sg48
g12
sg35
g36
sg551
g38
(g76
S'\x04\x00\x00\x00\x00\x00\x00\x00'
p1233
tp1234
Rp1235
sS'trials_4.thisRepN'
p1236
I0
sg578
V../data/raw/stimuli/pidi4.wav
p1237
sS'trials_4.thisIndex'
p1238
g108
sg37
g47
sS'trials_6.thisN'
p1239
I29
sg563
g564
sg31
F1.1506130695343018
sS'trials_6.thisIndex'
p1240
g38
(g76
S'\x13\x00\x00\x00\x00\x00\x00\x00'
p1241
tp1242
Rp1243
sS'trials_6.thisTrialN'
p1244
I29
sg30
S'z'
p1245
sg562
g153
sg555
g38
(g76
S'\x00\x00\x00\x00\x00\x00\x00\x00'
p1246
tp1247
Rp1248
sg49
g50
sS'trials_6.thisRepN'
p1249
I0
sS'trials_4.thisN'
p1250
I0
sS'trials_4.thisTrialN'
p1251
I0
sg565
g566
sa(dp1252
g567
g38
(g76
S'\x1d\x00\x00\x00\x00\x00\x00\x00'
p1253
tp1254
Rp1255
sg48
g12
sg35
g36
sg551
g38
(g76
S'\x00\x00\x00\x00\x00\x00\x00\x00'
p1256
tp1257
Rp1258
sS'trials_4.thisRepN'
p1259
I0
sg578
V../data/raw/stimuli/pudu.wav
p1260
sS'trials_4.thisIndex'
p1261
g108
sg37
g47
sS'trials_6.thisN'
p1262
I30
sg563
g564
sg31
F0.369067907333374
sS'trials_6.thisIndex'
p1263
g38
(g76
S'\x1c\x00\x00\x00\x00\x00\x00\x00'
p1264
tp1265
Rp1266
sS'trials_6.thisTrialN'
p1267
I30
sg30
S'slash'
p1268
sg562
g129
sg555
g38
(g76
S'\x05\x00\x00\x00\x00\x00\x00\x00'
p1269
tp1270
Rp1271
sg49
g50
sS'trials_6.thisRepN'
p1272
I0
sS'trials_4.thisN'
p1273
I0
sS'trials_4.thisTrialN'
p1274
I0
sg565
g606
sa(dp1275
g567
g38
(g76
S'\x1e\x00\x00\x00\x00\x00\x00\x00'
p1276
tp1277
Rp1278
sg48
g12
sg35
g36
sg551
g38
(g76
S'\x00\x00\x00\x00\x00\x00\x00\x00'
p1279
tp1280
Rp1281
sS'trials_4.thisRepN'
p1282
I0
sg578
V../data/raw/stimuli/pudu0.wav
p1283
sS'trials_4.thisIndex'
p1284
g108
sg37
g47
sS'trials_6.thisN'
p1285
I31
sg563
g564
sg31
F0.2353348731994629
sS'trials_6.thisIndex'
p1286
g38
(g76
S'\x1d\x00\x00\x00\x00\x00\x00\x00'
p1287
tp1288
Rp1289
sS'trials_6.thisTrialN'
p1290
I31
sg30
S'slash'
p1291
sg562
g129
sg555
g38
(g76
S'\x00\x00\x00\x00\x00\x00\x00\x00'
p1292
tp1293
Rp1294
sg49
g50
sS'trials_6.thisRepN'
p1295
I0
sS'trials_4.thisN'
p1296
I0
sS'trials_4.thisTrialN'
p1297
I0
sg565
g566
sa(dp1298
g567
g38
(g76
S'$\x00\x00\x00\x00\x00\x00\x00'
p1299
tp1300
Rp1301
sg48
g12
sg35
g36
sg551
g38
(g76
S'\x05\x00\x00\x00\x00\x00\x00\x00'
p1302
tp1303
Rp1304
sS'trials_4.thisRepN'
p1305
I0
sg578
V../data/raw/stimuli/putu0.wav
p1306
sS'trials_4.thisIndex'
p1307
g108
sg37
g47
sS'trials_6.thisN'
p1308
I32
sg563
g564
sg31
F0.6029961109161377
sS'trials_6.thisIndex'
p1309
g38
(g76
S'#\x00\x00\x00\x00\x00\x00\x00'
p1310
tp1311
Rp1312
sS'trials_6.thisTrialN'
p1313
I32
sg30
S'z'
p1314
sg562
g129
sg555
g38
(g76
S'\x00\x00\x00\x00\x00\x00\x00\x00'
p1315
tp1316
Rp1317
sg49
g50
sS'trials_6.thisRepN'
p1318
I0
sS'trials_4.thisN'
p1319
I0
sS'trials_4.thisTrialN'
p1320
I0
sg565
g630
sa(dp1321
g567
g38
(g76
S'\x03\x00\x00\x00\x00\x00\x00\x00'
p1322
tp1323
Rp1324
sg48
g12
sg35
g36
sg551
g38
(g76
S'\x01\x00\x00\x00\x00\x00\x00\x00'
p1325
tp1326
Rp1327
sS'trials_4.thisRepN'
p1328
I0
sg578
V../data/raw/stimuli/pada1.wav
p1329
sS'trials_4.thisIndex'
p1330
g108
sg37
g47
sS'trials_6.thisN'
p1331
I33
sg563
g564
sg31
F0.5858938694000244
sS'trials_6.thisIndex'
p1332
g38
(g76
S'\x02\x00\x00\x00\x00\x00\x00\x00'
p1333
tp1334
Rp1335
sS'trials_6.thisTrialN'
p1336
I33
sg30
S'z'
p1337
sg562
g99
sg555
g38
(g76
S'\x00\x00\x00\x00\x00\x00\x00\x00'
p1338
tp1339
Rp1340
sg49
g50
sS'trials_6.thisRepN'
p1341
I0
sS'trials_4.thisN'
p1342
I0
sS'trials_4.thisTrialN'
p1343
I0
sg565
g566
sa(dp1344
g567
g38
(g76
S'\x17\x00\x00\x00\x00\x00\x00\x00'
p1345
tp1346
Rp1347
sg48
g12
sg35
g36
sg551
g38
(g76
S'\x05\x00\x00\x00\x00\x00\x00\x00'
p1348
tp1349
Rp1350
sS'trials_4.thisRepN'
p1351
I0
sg578
V../data/raw/stimuli/piti1.wav
p1352
sS'trials_4.thisIndex'
p1353
g108
sg37
g47
sS'trials_6.thisN'
p1354
I34
sg563
g564
sg31
F0.48587703704833984
sS'trials_6.thisIndex'
p1355
g38
(g76
S'\x16\x00\x00\x00\x00\x00\x00\x00'
p1356
tp1357
Rp1358
sS'trials_6.thisTrialN'
p1359
I34
sg30
S'z'
p1360
sg562
g153
sg555
g38
(g76
S'\x01\x00\x00\x00\x00\x00\x00\x00'
p1361
tp1362
Rp1363
sg49
g50
sS'trials_6.thisRepN'
p1364
I0
sS'trials_4.thisN'
p1365
I0
sS'trials_4.thisTrialN'
p1366
I0
sg565
g630
sa(dp1367
g567
g38
(g76
S' \x00\x00\x00\x00\x00\x00\x00'
p1368
tp1369
Rp1370
sg48
g12
sg35
g36
sg551
g38
(g76
S'\x02\x00\x00\x00\x00\x00\x00\x00'
p1371
tp1372
Rp1373
sS'trials_4.thisRepN'
p1374
I0
sg578
V../data/raw/stimuli/pudu2.wav
p1375
sS'trials_4.thisIndex'
p1376
g108
sg37
g47
sS'trials_6.thisN'
p1377
I35
sg563
g564
sg31
F0.4340360164642334
sS'trials_6.thisIndex'
p1378
g38
(g76
S'\x1f\x00\x00\x00\x00\x00\x00\x00'
p1379
tp1380
Rp1381
sS'trials_6.thisTrialN'
p1382
I35
sg30
S'z'
p1383
sg562
g129
sg555
g38
(g76
S'\x00\x00\x00\x00\x00\x00\x00\x00'
p1384
tp1385
Rp1386
sg49
g50
sS'trials_6.thisRepN'
p1387
I0
sS'trials_4.thisN'
p1388
I0
sS'trials_4.thisTrialN'
p1389
I0
sg565
g566
sa(dp1390
g567
g38
(g76
S'\x16\x00\x00\x00\x00\x00\x00\x00'
p1391
tp1392
Rp1393
sg48
g12
sg35
g36
sg551
g38
(g76
S'\x05\x00\x00\x00\x00\x00\x00\x00'
p1394
tp1395
Rp1396
sS'trials_4.thisRepN'
p1397
I0
sg578
V../data/raw/stimuli/piti0.wav
p1398
sS'trials_4.thisIndex'
p1399
g108
sg37
g47
sS'trials_6.thisN'
p1400
I36
sg563
g564
sg31
F0.18616795539855957
sS'trials_6.thisIndex'
p1401
g38
(g76
S'\x15\x00\x00\x00\x00\x00\x00\x00'
p1402
tp1403
Rp1404
sS'trials_6.thisTrialN'
p1405
I36
sg30
S'z'
p1406
sg562
g153
sg555
g38
(g76
S'\x00\x00\x00\x00\x00\x00\x00\x00'
p1407
tp1408
Rp1409
sg49
g50
sS'trials_6.thisRepN'
p1410
I0
sS'trials_4.thisN'
p1411
I0
sS'trials_4.thisTrialN'
p1412
I0
sg565
g630
sa(dp1413
g567
g38
(g76
S'#\x00\x00\x00\x00\x00\x00\x00'
p1414
tp1415
Rp1416
sg48
g12
sg35
g36
sg551
g38
(g76
S'\x05\x00\x00\x00\x00\x00\x00\x00'
p1417
tp1418
Rp1419
sS'trials_4.thisRepN'
p1420
I0
sg578
V../data/raw/stimuli/pudu5.wav
p1421
sS'trials_4.thisIndex'
p1422
g108
sg37
g47
sS'trials_6.thisN'
p1423
I37
sg563
g564
sg31
F0.17009711265563965
sS'trials_6.thisIndex'
p1424
g38
(g76
S'"\x00\x00\x00\x00\x00\x00\x00'
p1425
tp1426
Rp1427
sS'trials_6.thisTrialN'
p1428
I37
sg30
S'z'
p1429
sg562
g129
sg555
g38
(g76
S'\x00\x00\x00\x00\x00\x00\x00\x00'
p1430
tp1431
Rp1432
sg49
g50
sS'trials_6.thisRepN'
p1433
I0
sS'trials_4.thisN'
p1434
I0
sS'trials_4.thisTrialN'
p1435
I0
sg565
g566
sa(dp1436
g567
g38
(g76
S'\x05\x00\x00\x00\x00\x00\x00\x00'
p1437
tp1438
Rp1439
sg48
g12
sg35
g36
sg551
g38
(g76
S'\x03\x00\x00\x00\x00\x00\x00\x00'
p1440
tp1441
Rp1442
sS'trials_4.thisRepN'
p1443
I0
sg578
V../data/raw/stimuli/pada3.wav
p1444
sS'trials_4.thisIndex'
p1445
g108
sg37
g47
sS'trials_6.thisN'
p1446
I38
sg563
g564
sg31
F1.102903127670288
sS'trials_6.thisIndex'
p1447
g38
(g76
S'\x04\x00\x00\x00\x00\x00\x00\x00'
p1448
tp1449
Rp1450
sS'trials_6.thisTrialN'
p1451
I38
sg30
S'z'
p1452
sg562
g99
sg555
g38
(g76
S'\x00\x00\x00\x00\x00\x00\x00\x00'
p1453
tp1454
Rp1455
sg49
g50
sS'trials_6.thisRepN'
p1456
I0
sS'trials_4.thisN'
p1457
I0
sS'trials_4.thisTrialN'
p1458
I0
sg565
g566
sa(dp1459
g567
g1025
sg48
g12
sg35
g36
sg551
g1028
sS'trials_4.thisRepN'
p1460
I0
sg578
g1030
sS'trials_4.thisIndex'
p1461
g108
sg37
g47
sS'trials_6.thisN'
p1462
I39
sg563
g564
sg31
F0.3357419967651367
sS'trials_6.thisIndex'
p1463
g38
(g76
S'\x14\x00\x00\x00\x00\x00\x00\x00'
p1464
tp1465
Rp1466
sS'trials_6.thisTrialN'
p1467
I0
sg30
S'z'
p1468
sg562
g153
sg555
g1041
sg49
g50
sS'trials_6.thisRepN'
p1469
I1
sS'trials_4.thisN'
p1470
I0
sS'trials_4.thisTrialN'
p1471
I0
sg565
g566
sa(dp1472
g567
g1324
sg48
g12
sg35
g36
sg551
g1327
sS'trials_4.thisRepN'
p1473
I0
sg578
g1329
sS'trials_4.thisIndex'
p1474
g108
sg37
g47
sS'trials_6.thisN'
p1475
I40
sg563
g564
sg31
F1.8544340133666992
sS'trials_6.thisIndex'
p1476
g38
(g76
S'\x02\x00\x00\x00\x00\x00\x00\x00'
p1477
tp1478
Rp1479
sS'trials_6.thisTrialN'
p1480
I1
sg30
S'z'
p1481
sg562
g99
sg555
g1340
sg49
g50
sS'trials_6.thisRepN'
p1482
I1
sS'trials_4.thisN'
p1483
I0
sS'trials_4.thisTrialN'
p1484
I0
sg565
g566
sa(dp1485
g567
g634
sg48
g12
sg35
g36
sg551
g637
sS'trials_4.thisRepN'
p1486
I0
sg578
g639
sS'trials_4.thisIndex'
p1487
g108
sg37
g47
sS'trials_6.thisN'
p1488
I41
sg563
g564
sg31
F1.2531309127807617
sS'trials_6.thisIndex'
p1489
g38
(g76
S'\x1e\x00\x00\x00\x00\x00\x00\x00'
p1490
tp1491
Rp1492
sS'trials_6.thisTrialN'
p1493
I2
sg30
S'slash'
p1494
sg562
g129
sg555
g650
sg49
g50
sS'trials_6.thisRepN'
p1495
I1
sS'trials_4.thisN'
p1496
I0
sS'trials_4.thisTrialN'
p1497
I0
sg565
g566
sa(dp1498
g567
g1255
sg48
g12
sg35
g36
sg551
g1258
sS'trials_4.thisRepN'
p1499
I0
sg578
g1260
sS'trials_4.thisIndex'
p1500
g108
sg37
g47
sS'trials_6.thisN'
p1501
I42
sg563
g564
sg31
F0.3528158664703369
sS'trials_6.thisIndex'
p1502
g38
(g76
S'\x1c\x00\x00\x00\x00\x00\x00\x00'
p1503
tp1504
Rp1505
sS'trials_6.thisTrialN'
p1506
I3
sg30
S'slash'
p1507
sg562
g129
sg555
g1271
sg49
g50
sS'trials_6.thisRepN'
p1508
I1
sS'trials_4.thisN'
p1509
I0
sS'trials_4.thisTrialN'
p1510
I0
sg565
g606
sa(dp1511
g567
g749
sg48
g12
sg35
g36
sg551
g752
sS'trials_4.thisRepN'
p1512
I0
sg578
g754
sS'trials_4.thisIndex'
p1513
g108
sg37
g47
sS'trials_6.thisN'
p1514
I43
sg563
g564
sg31
F1.2024130821228027
sS'trials_6.thisIndex'
p1515
g38
(g76
S'\x18\x00\x00\x00\x00\x00\x00\x00'
p1516
tp1517
Rp1518
sS'trials_6.thisTrialN'
p1519
I4
sg30
S'z'
p1520
sg562
g153
sg555
g765
sg49
g50
sS'trials_6.thisRepN'
p1521
I1
sS'trials_4.thisN'
p1522
I0
sS'trials_4.thisTrialN'
p1523
I0
sg565
g630
sa(dp1524
g567
g841
sg48
g12
sg35
g36
sg551
g844
sS'trials_4.thisRepN'
p1525
I0
sg578
g846
sS'trials_4.thisIndex'
p1526
g108
sg37
g47
sS'trials_6.thisN'
p1527
I44
sg563
g564
sg31
F1.1192700862884521
sS'trials_6.thisIndex'
p1528
g38
(g76
S' \x00\x00\x00\x00\x00\x00\x00'
p1529
tp1530
Rp1531
sS'trials_6.thisTrialN'
p1532
I5
sg30
S'z'
p1533
sg562
g129
sg555
g857
sg49
g50
sS'trials_6.thisRepN'
p1534
I1
sS'trials_4.thisN'
p1535
I0
sS'trials_4.thisTrialN'
p1536
I0
sg565
g566
sa(dp1537
g567
g726
sg48
g12
sg35
g36
sg551
g729
sS'trials_4.thisRepN'
p1538
I0
sg578
g731
sS'trials_4.thisIndex'
p1539
g108
sg37
g47
sS'trials_6.thisN'
p1540
I45
sg563
g564
sg31
F0.7192649841308594
sS'trials_6.thisIndex'
p1541
g38
(g76
S'\n\x00\x00\x00\x00\x00\x00\x00'
p1542
tp1543
Rp1544
sS'trials_6.thisTrialN'
p1545
I6
sg30
S'z'
p1546
sg562
g99
sg555
g742
sg49
g50
sS'trials_6.thisRepN'
p1547
I1
sS'trials_4.thisN'
p1548
I0
sS'trials_4.thisTrialN'
p1549
I0
sg565
g630
sa(dp1550
g567
g1232
sg48
g12
sg35
g36
sg551
g1235
sS'trials_4.thisRepN'
p1551
I0
sg578
g1237
sS'trials_4.thisIndex'
p1552
g108
sg37
g47
sS'trials_6.thisN'
p1553
I46
sg563
g564
sg31
F0.4530220031738281
sS'trials_6.thisIndex'
p1554
g38
(g76
S'\x13\x00\x00\x00\x00\x00\x00\x00'
p1555
tp1556
Rp1557
sS'trials_6.thisTrialN'
p1558
I7
sg30
S'z'
p1559
sg562
g153
sg555
g1248
sg49
g50
sS'trials_6.thisRepN'
p1560
I1
sS'trials_4.thisN'
p1561
I0
sS'trials_4.thisTrialN'
p1562
I0
sg565
g566
sa(dp1563
g567
g1140
sg48
g12
sg35
g36
sg551
g1143
sS'trials_4.thisRepN'
p1564
I0
sg578
g1145
sS'trials_4.thisIndex'
p1565
g108
sg37
g47
sS'trials_6.thisN'
p1566
I47
sg563
g564
sg31
F1.8704771995544434
sS'trials_6.thisIndex'
p1567
g38
(g76
S'!\x00\x00\x00\x00\x00\x00\x00'
p1568
tp1569
Rp1570
sS'trials_6.thisTrialN'
p1571
I8
sg30
S'z'
p1572
sg562
g129
sg555
g1156
sg49
g50
sS'trials_6.thisRepN'
p1573
I1
sS'trials_4.thisN'
p1574
I0
sS'trials_4.thisTrialN'
p1575
I0
sg565
g566
sa(dp1576
g567
g1278
sg48
g12
sg35
g36
sg551
g1281
sS'trials_4.thisRepN'
p1577
I0
sg578
g1283
sS'trials_4.thisIndex'
p1578
g108
sg37
g47
sS'trials_6.thisN'
p1579
I48
sg563
g564
sg31
F0.3863809108734131
sS'trials_6.thisIndex'
p1580
g38
(g76
S'\x1d\x00\x00\x00\x00\x00\x00\x00'
p1581
tp1582
Rp1583
sS'trials_6.thisTrialN'
p1584
I9
sg30
S'slash'
p1585
sg562
g129
sg555
g1294
sg49
g50
sS'trials_6.thisRepN'
p1586
I1
sS'trials_4.thisN'
p1587
I0
sS'trials_4.thisTrialN'
p1588
I0
sg565
g566
sa(dp1589
g567
g933
sg48
g12
sg35
g36
sg551
g936
sS'trials_4.thisRepN'
p1590
I0
sg578
g938
sS'trials_4.thisIndex'
p1591
g108
sg37
g47
sS'trials_6.thisN'
p1592
I49
sg563
g564
sg31
F0.4362630844116211
sS'trials_6.thisIndex'
p1593
g38
(g76
S'\x07\x00\x00\x00\x00\x00\x00\x00'
p1594
tp1595
Rp1596
sS'trials_6.thisTrialN'
p1597
I10
sg30
S'z'
p1598
sg562
g99
sg555
g949
sg49
g50
sS'trials_6.thisRepN'
p1599
I1
sS'trials_4.thisN'
p1600
I0
sS'trials_4.thisTrialN'
p1601
I0
sg565
g630
sa(dp1602
g567
g1393
sg48
g12
sg35
g36
sg551
g1396
sS'trials_4.thisRepN'
p1603
I0
sg578
g1398
sS'trials_4.thisIndex'
p1604
g108
sg37
g47
sS'trials_6.thisN'
p1605
I50
sg563
g564
sg31
F0.4531710147857666
sS'trials_6.thisIndex'
p1606
g38
(g76
S'\x15\x00\x00\x00\x00\x00\x00\x00'
p1607
tp1608
Rp1609
sS'trials_6.thisTrialN'
p1610
I11
sg30
S'z'
p1611
sg562
g153
sg555
g1409
sg49
g50
sS'trials_6.thisRepN'
p1612
I1
sS'trials_4.thisN'
p1613
I0
sS'trials_4.thisTrialN'
p1614
I0
sg565
g630
sa(dp1615
g567
g818
sg48
g12
sg35
g36
sg551
g821
sS'trials_4.thisRepN'
p1616
I0
sg578
g823
sS'trials_4.thisIndex'
p1617
g108
sg37
g47
sS'trials_6.thisN'
p1618
I51
sg563
g564
sg31
F0.8359379768371582
sS'trials_6.thisIndex'
p1619
g38
(g76
S'\x08\x00\x00\x00\x00\x00\x00\x00'
p1620
tp1621
Rp1622
sS'trials_6.thisTrialN'
p1623
I12
sg30
S'z'
p1624
sg562
g99
sg555
g834
sg49
g50
sS'trials_6.thisRepN'
p1625
I1
sS'trials_4.thisN'
p1626
I0
sS'trials_4.thisTrialN'
p1627
I0
sg565
g630
sa(dp1628
g567
g1416
sg48
g12
sg35
g36
sg551
g1419
sS'trials_4.thisRepN'
p1629
I0
sg578
g1421
sS'trials_4.thisIndex'
p1630
g108
sg37
g47
sS'trials_6.thisN'
p1631
I52
sg563
g564
sg31
F1.4529290199279785
sS'trials_6.thisIndex'
p1632
g38
(g76
S'"\x00\x00\x00\x00\x00\x00\x00'
p1633
tp1634
Rp1635
sS'trials_6.thisTrialN'
p1636
I13
sg30
S'z'
p1637
sg562
g129
sg555
g1432
sg49
g50
sS'trials_6.thisRepN'
p1638
I1
sS'trials_4.thisN'
p1639
I0
sS'trials_4.thisTrialN'
p1640
I0
sg565
g566
sa(dp1641
g567
g1163
sg48
g12
sg35
g36
sg551
g1166
sS'trials_4.thisRepN'
p1642
I0
sg578
g1168
sS'trials_4.thisIndex'
p1643
g108
sg37
g47
sS'trials_6.thisN'
p1644
I53
sg563
g564
sg31
F0.3865687847137451
sS'trials_6.thisIndex'
p1645
g38
(g76
S'\x12\x00\x00\x00\x00\x00\x00\x00'
p1646
tp1647
Rp1648
sS'trials_6.thisTrialN'
p1649
I14
sg30
S'z'
p1650
sg562
g153
sg555
g1179
sg49
g50
sS'trials_6.thisRepN'
p1651
I1
sS'trials_4.thisN'
p1652
I0
sS'trials_4.thisTrialN'
p1653
I0
sg565
g566
sa(dp1654
g567
g979
sg48
g12
sg35
g36
sg551
g982
sS'trials_4.thisRepN'
p1655
I0
sg578
g984
sS'trials_4.thisIndex'
p1656
g108
sg37
g47
sS'trials_6.thisN'
p1657
I54
sg563
g564
sg31
F1.0364758968353271
sS'trials_6.thisIndex'
p1658
g38
(g76
S'\x06\x00\x00\x00\x00\x00\x00\x00'
p1659
tp1660
Rp1661
sS'trials_6.thisTrialN'
p1662
I15
sg30
S'z'
p1663
sg562
g99
sg555
g995
sg49
g50
sS'trials_6.thisRepN'
p1664
I1
sS'trials_4.thisN'
p1665
I0
sS'trials_4.thisTrialN'
p1666
I0
sg565
g566
sa(dp1667
g567
g1370
sg48
g12
sg35
g36
sg551
g1373
sS'trials_4.thisRepN'
p1668
I0
sg578
g1375
sS'trials_4.thisIndex'
p1669
g108
sg37
g47
sS'trials_6.thisN'
p1670
I55
sg563
g564
sg31
F0.7345950603485107
sS'trials_6.thisIndex'
p1671
g38
(g76
S'\x1f\x00\x00\x00\x00\x00\x00\x00'
p1672
tp1673
Rp1674
sS'trials_6.thisTrialN'
p1675
I16
sg30
S'slash'
p1676
sg562
g129
sg555
g1386
sg49
g50
sS'trials_6.thisRepN'
p1677
I1
sS'trials_4.thisN'
p1678
I0
sS'trials_4.thisTrialN'
p1679
I0
sg565
g566
sa(dp1680
g567
g1439
sg48
g12
sg35
g36
sg551
g1442
sS'trials_4.thisRepN'
p1681
I0
sg578
g1444
sS'trials_4.thisIndex'
p1682
g108
sg37
g47
sS'trials_6.thisN'
p1683
I56
sg563
g564
sg31
F0.5673360824584961
sS'trials_6.thisIndex'
p1684
g38
(g76
S'\x04\x00\x00\x00\x00\x00\x00\x00'
p1685
tp1686
Rp1687
sS'trials_6.thisTrialN'
p1688
I17
sg30
S'z'
p1689
sg562
g99
sg555
g1455
sg49
g50
sS'trials_6.thisRepN'
p1690
I1
sS'trials_4.thisN'
p1691
I0
sS'trials_4.thisTrialN'
p1692
I0
sg565
g566
sa(dp1693
g567
g910
sg48
g12
sg35
g36
sg551
g913
sS'trials_4.thisRepN'
p1694
I0
sg578
g915
sS'trials_4.thisIndex'
p1695
g108
sg37
g47
sS'trials_6.thisN'
p1696
I57
sg563
g564
sg31
F0.45330810546875
sS'trials_6.thisIndex'
p1697
g38
(g76
S'\x0c\x00\x00\x00\x00\x00\x00\x00'
p1698
tp1699
Rp1700
sS'trials_6.thisTrialN'
p1701
I18
sg30
S'slash'
p1702
sg562
g99
sg555
g926
sg49
g50
sS'trials_6.thisRepN'
p1703
I1
sS'trials_4.thisN'
p1704
I0
sS'trials_4.thisTrialN'
p1705
I0
sg565
g630
sa(dp1706
g567
g1048
sg48
g12
sg35
g36
sg551
g1051
sS'trials_4.thisRepN'
p1707
I0
sg578
g1053
sS'trials_4.thisIndex'
p1708
g108
sg37
g47
sS'trials_6.thisN'
p1709
I58
sg563
g564
sg31
F0.8693830966949463
sS'trials_6.thisIndex'
p1710
g38
(g76
S'\x0f\x00\x00\x00\x00\x00\x00\x00'
p1711
tp1712
Rp1713
sS'trials_6.thisTrialN'
p1714
I19
sg30
S'z'
p1715
sg562
g153
sg555
g1064
sg49
g50
sS'trials_6.thisRepN'
p1716
I1
sS'trials_4.thisN'
p1717
I0
sS'trials_4.thisTrialN'
p1718
I0
sg565
g566
sa(dp1719
g567
g1117
sg48
g12
sg35
g36
sg551
g1120
sS'trials_4.thisRepN'
p1720
I0
sg578
g1122
sS'trials_4.thisIndex'
p1721
g108
sg37
g47
sS'trials_6.thisN'
p1722
I59
sg563
g564
sg31
F0.6529898643493652
sS'trials_6.thisIndex'
p1723
g38
(g76
S'\x03\x00\x00\x00\x00\x00\x00\x00'
p1724
tp1725
Rp1726
sS'trials_6.thisTrialN'
p1727
I20
sg30
S'z'
p1728
sg562
g99
sg555
g1133
sg49
g50
sS'trials_6.thisRepN'
p1729
I1
sS'trials_4.thisN'
p1730
I0
sS'trials_4.thisTrialN'
p1731
I0
sg565
g566
sa(dp1732
g567
g703
sg48
g12
sg35
g36
sg551
g706
sS'trials_4.thisRepN'
p1733
I0
sg578
g708
sS'trials_4.thisIndex'
p1734
g108
sg37
g47
sS'trials_6.thisN'
p1735
I60
sg563
g564
sg31
F1.0010709762573242
sS'trials_6.thisIndex'
p1736
g38
(g76
S'\x19\x00\x00\x00\x00\x00\x00\x00'
p1737
tp1738
Rp1739
sS'trials_6.thisTrialN'
p1740
I21
sg30
S'z'
p1741
sg562
g153
sg555
g719
sg49
g50
sS'trials_6.thisRepN'
p1742
I1
sS'trials_4.thisN'
p1743
I0
sS'trials_4.thisTrialN'
p1744
I0
sg565
g630
sa(dp1745
g567
g1347
sg48
g12
sg35
g36
sg551
g1350
sS'trials_4.thisRepN'
p1746
I0
sg578
g1352
sS'trials_4.thisIndex'
p1747
g108
sg37
g47
sS'trials_6.thisN'
p1748
I61
sg563
g564
sg31
F0.7530961036682129
sS'trials_6.thisIndex'
p1749
g38
(g76
S'\x16\x00\x00\x00\x00\x00\x00\x00'
p1750
tp1751
Rp1752
sS'trials_6.thisTrialN'
p1753
I22
sg30
S'z'
p1754
sg562
g153
sg555
g1363
sg49
g50
sS'trials_6.thisRepN'
p1755
I1
sS'trials_4.thisN'
p1756
I0
sS'trials_4.thisTrialN'
p1757
I0
sg565
g630
sa(dp1758
g567
g680
sg48
g12
sg35
g36
sg551
g683
sS'trials_4.thisRepN'
p1759
I0
sg578
g685
sS'trials_4.thisIndex'
p1760
g108
sg37
g47
sS'trials_6.thisN'
p1761
I62
sg563
g564
sg31
F0.4026010036468506
sS'trials_6.thisIndex'
p1762
g38
(g76
S'\t\x00\x00\x00\x00\x00\x00\x00'
p1763
tp1764
Rp1765
sS'trials_6.thisTrialN'
p1766
I23
sg30
S'z'
p1767
sg562
g99
sg555
g696
sg49
g50
sS'trials_6.thisRepN'
p1768
I1
sS'trials_4.thisN'
p1769
I0
sS'trials_4.thisTrialN'
p1770
I0
sg565
g630
sa(dp1771
g567
g1301
sg48
g12
sg35
g36
sg551
g1304
sS'trials_4.thisRepN'
p1772
I0
sg578
g1306
sS'trials_4.thisIndex'
p1773
g108
sg37
g47
sS'trials_6.thisN'
p1774
I63
sg563
g564
sg31
F0.7857038974761963
sS'trials_6.thisIndex'
p1775
g38
(g76
S'#\x00\x00\x00\x00\x00\x00\x00'
p1776
tp1777
Rp1778
sS'trials_6.thisTrialN'
p1779
I24
sg30
S'z'
p1780
sg562
g129
sg555
g1317
sg49
g50
sS'trials_6.thisRepN'
p1781
I1
sS'trials_4.thisN'
p1782
I0
sS'trials_4.thisTrialN'
p1783
I0
sg565
g630
sa(dp1784
g567
g1071
sg48
g12
sg35
g36
sg551
g1074
sS'trials_4.thisRepN'
p1785
I0
sg578
g1076
sS'trials_4.thisIndex'
p1786
g108
sg37
g47
sS'trials_6.thisN'
p1787
I64
sg563
g564
sg31
F0.9024770259857178
sS'trials_6.thisIndex'
p1788
g38
(g76
S'\x10\x00\x00\x00\x00\x00\x00\x00'
p1789
tp1790
Rp1791
sS'trials_6.thisTrialN'
p1792
I25
sg30
S'slash'
p1793
sg562
g153
sg555
g1087
sg49
g50
sS'trials_6.thisRepN'
p1794
I1
sS'trials_4.thisN'
p1795
I0
sS'trials_4.thisTrialN'
p1796
I0
sg565
g566
sa(dp1797
g567
g586
sg48
g12
sg35
g36
sg551
g589
sS'trials_4.thisRepN'
p1798
I0
sg578
g591
sS'trials_4.thisIndex'
p1799
g108
sg37
g47
sS'trials_6.thisN'
p1800
I65
sg563
g564
sg31
F0.5006349086761475
sS'trials_6.thisIndex'
p1801
g38
(g76
S'\x00\x00\x00\x00\x00\x00\x00\x00'
p1802
tp1803
Rp1804
sS'trials_6.thisTrialN'
p1805
I26
sg30
S'slash'
p1806
sg562
g99
sg555
g602
sg49
g50
sS'trials_6.thisRepN'
p1807
I1
sS'trials_4.thisN'
p1808
I0
sS'trials_4.thisTrialN'
p1809
I0
sg565
g606
sa(dp1810
g567
g1186
sg48
g12
sg35
g36
sg551
g1189
sS'trials_4.thisRepN'
p1811
I0
sg578
g1191
sS'trials_4.thisIndex'
p1812
g108
sg37
g47
sS'trials_6.thisN'
p1813
I66
sg563
g564
sg31
F1.2861180305480957
sS'trials_6.thisIndex'
p1814
g38
(g76
S'%\x00\x00\x00\x00\x00\x00\x00'
p1815
tp1816
Rp1817
sS'trials_6.thisTrialN'
p1818
I27
sg30
S'slash'
p1819
sg562
g129
sg555
g1202
sg49
g50
sS'trials_6.thisRepN'
p1820
I1
sS'trials_4.thisN'
p1821
I0
sS'trials_4.thisTrialN'
p1822
I0
sg565
g630
sa(dp1823
g567
g887
sg48
g12
sg35
g36
sg551
g890
sS'trials_4.thisRepN'
p1824
I0
sg578
g892
sS'trials_4.thisIndex'
p1825
g108
sg37
g47
sS'trials_6.thisN'
p1826
I67
sg563
g564
sg31
F1.937026023864746
sS'trials_6.thisIndex'
p1827
g38
(g76
S'\x01\x00\x00\x00\x00\x00\x00\x00'
p1828
tp1829
Rp1830
sS'trials_6.thisTrialN'
p1831
I28
sg30
S'slash'
p1832
sg562
g99
sg555
g903
sg49
g50
sS'trials_6.thisRepN'
p1833
I1
sS'trials_4.thisN'
p1834
I0
sS'trials_4.thisTrialN'
p1835
I0
sg565
g566
sa(dp1836
g567
g1094
sg48
g12
sg35
g36
sg551
g1097
sS'trials_4.thisRepN'
p1837
I0
sg578
g1099
sS'trials_4.thisIndex'
p1838
g108
sg37
g47
sS'trials_6.thisN'
p1839
I68
sg563
g564
sg31
F0.6006360054016113
sS'trials_6.thisIndex'
p1840
g38
(g76
S'\x0e\x00\x00\x00\x00\x00\x00\x00'
p1841
tp1842
Rp1843
sS'trials_6.thisTrialN'
p1844
I29
sg30
S'slash'
p1845
sg562
g153
sg555
g1110
sg49
g50
sS'trials_6.thisRepN'
p1846
I1
sS'trials_4.thisN'
p1847
I0
sS'trials_4.thisTrialN'
p1848
I0
sg565
g606
sa(dp1849
g567
g1002
sg48
g12
sg35
g36
sg551
g1005
sS'trials_4.thisRepN'
p1850
I0
sg578
g1007
sS'trials_4.thisIndex'
p1851
g108
sg37
g47
sS'trials_6.thisN'
p1852
I69
sg563
g564
sg31
F0.919780969619751
sS'trials_6.thisIndex'
p1853
g38
(g76
S'\x1b\x00\x00\x00\x00\x00\x00\x00'
p1854
tp1855
Rp1856
sS'trials_6.thisTrialN'
p1857
I30
sg30
S'slash'
p1858
sg562
g153
sg555
g1018
sg49
g50
sS'trials_6.thisRepN'
p1859
I1
sS'trials_4.thisN'
p1860
I0
sS'trials_4.thisTrialN'
p1861
I0
sg565
g630
sa(dp1862
g567
g795
sg48
g12
sg35
g36
sg551
g798
sS'trials_4.thisRepN'
p1863
I0
sg578
g800
sS'trials_4.thisIndex'
p1864
g108
sg37
g47
sS'trials_6.thisN'
p1865
I70
sg563
g564
sg31
F0.7029979228973389
sS'trials_6.thisIndex'
p1866
g38
(g76
S'\x17\x00\x00\x00\x00\x00\x00\x00'
p1867
tp1868
Rp1869
sS'trials_6.thisTrialN'
p1870
I31
sg30
S'z'
p1871
sg562
g153
sg555
g811
sg49
g50
sS'trials_6.thisRepN'
p1872
I1
sS'trials_4.thisN'
p1873
I0
sS'trials_4.thisTrialN'
p1874
I0
sg565
g630
sa(dp1875
g567
g772
sg48
g12
sg35
g36
sg551
g775
sS'trials_4.thisRepN'
p1876
I0
sg578
g777
sS'trials_4.thisIndex'
p1877
g108
sg37
g47
sS'trials_6.thisN'
p1878
I71
sg563
g564
sg31
F0.9198281764984131
sS'trials_6.thisIndex'
p1879
g38
(g76
S'&\x00\x00\x00\x00\x00\x00\x00'
p1880
tp1881
Rp1882
sS'trials_6.thisTrialN'
p1883
I32
sg30
S'slash'
p1884
sg562
g129
sg555
g788
sg49
g50
sS'trials_6.thisRepN'
p1885
I1
sS'trials_4.thisN'
p1886
I0
sS'trials_4.thisTrialN'
p1887
I0
sg565
g630
sa(dp1888
g567
g610
sg48
g12
sg35
g36
sg551
g613
sS'trials_4.thisRepN'
p1889
I0
sg578
g615
sS'trials_4.thisIndex'
p1890
g108
sg37
g47
sS'trials_6.thisN'
p1891
I72
sg563
g564
sg31
F0.9523959159851074
sS'trials_6.thisIndex'
p1892
g38
(g76
S'\r\x00\x00\x00\x00\x00\x00\x00'
p1893
tp1894
Rp1895
sS'trials_6.thisTrialN'
p1896
I33
sg30
S'z'
p1897
sg562
g99
sg555
g626
sg49
g50
sS'trials_6.thisRepN'
p1898
I1
sS'trials_4.thisN'
p1899
I0
sS'trials_4.thisTrialN'
p1900
I0
sg565
g630
sa(dp1901
g567
g864
sg48
g12
sg35
g36
sg551
g867
sS'trials_4.thisRepN'
p1902
I0
sg578
g869
sS'trials_4.thisIndex'
p1903
g108
sg37
g47
sS'trials_6.thisN'
p1904
I73
sg563
g564
sg31
F0.7198019027709961
sS'trials_6.thisIndex'
p1905
g38
(g76
S'\x1a\x00\x00\x00\x00\x00\x00\x00'
p1906
tp1907
Rp1908
sS'trials_6.thisTrialN'
p1909
I34
sg30
S'z'
p1910
sg562
g153
sg555
g880
sg49
g50
sS'trials_6.thisRepN'
p1911
I1
sS'trials_4.thisN'
p1912
I0
sS'trials_4.thisTrialN'
p1913
I0
sg565
g630
sa(dp1914
g567
g956
sg48
g12
sg35
g36
sg551
g959
sS'trials_4.thisRepN'
p1915
I0
sg578
g961
sS'trials_4.thisIndex'
p1916
g108
sg37
g47
sS'trials_6.thisN'
p1917
I74
sg563
g564
sg31
F0.6199369430541992
sS'trials_6.thisIndex'
p1918
g38
(g76
S'\x05\x00\x00\x00\x00\x00\x00\x00'
p1919
tp1920
Rp1921
sS'trials_6.thisTrialN'
p1922
I35
sg30
S'z'
p1923
sg562
g99
sg555
g972
sg49
g50
sS'trials_6.thisRepN'
p1924
I1
sS'trials_4.thisN'
p1925
I0
sS'trials_4.thisTrialN'
p1926
I0
sg565
g566
sa(dp1927
g567
g1209
sg48
g12
sg35
g36
sg551
g1212
sS'trials_4.thisRepN'
p1928
I0
sg578
g1214
sS'trials_4.thisIndex'
p1929
g108
sg37
g47
sS'trials_6.thisN'
p1930
I75
sg563
g564
sg31
F0.9357399940490723
sS'trials_6.thisIndex'
p1931
g38
(g76
S'$\x00\x00\x00\x00\x00\x00\x00'
p1932
tp1933
Rp1934
sS'trials_6.thisTrialN'
p1935
I36
sg30
S'z'
p1936
sg562
g129
sg555
g1225
sg49
g50
sS'trials_6.thisRepN'
p1937
I1
sS'trials_4.thisN'
p1938
I0
sS'trials_4.thisTrialN'
p1939
I0
sg565
g630
sa(dp1940
g567
g657
sg48
g12
sg35
g36
sg551
g660
sS'trials_4.thisRepN'
p1941
I0
sg578
g662
sS'trials_4.thisIndex'
p1942
g108
sg37
g47
sS'trials_6.thisN'
p1943
I76
sg563
g564
sg31
F0.8359019756317139
sS'trials_6.thisIndex'
p1944
g38
(g76
S'\x0b\x00\x00\x00\x00\x00\x00\x00'
p1945
tp1946
Rp1947
sS'trials_6.thisTrialN'
p1948
I37
sg30
S'z'
p1949
sg562
g99
sg555
g673
sg49
g50
sS'trials_6.thisRepN'
p1950
I1
sS'trials_4.thisN'
p1951
I0
sS'trials_4.thisTrialN'
p1952
I0
sg565
g630
sa(dp1953
g567
g570
sg48
g12
sg35
g36
sg551
g554
sS'trials_4.thisRepN'
p1954
I0
sg578
g579
sS'trials_4.thisIndex'
p1955
g108
sg37
g47
sS'trials_6.thisN'
p1956
I77
sg563
g564
sg31
F0.786736011505127
sS'trials_6.thisIndex'
p1957
g38
(g76
S'\x11\x00\x00\x00\x00\x00\x00\x00'
p1958
tp1959
Rp1960
sS'trials_6.thisTrialN'
p1961
I38
sg30
S'z'
p1962
sg562
g153
sg555
g558
sg49
g50
sS'trials_6.thisRepN'
p1963
I1
sS'trials_4.thisN'
p1964
I0
sS'trials_4.thisTrialN'
p1965
I0
sg565
g566
sa(dp1966
g567
g1209
sg48
g12
sg35
g36
sg551
g1212
sS'trials_4.thisRepN'
p1967
I0
sg578
g1214
sS'trials_4.thisIndex'
p1968
g108
sg37
g47
sS'trials_6.thisN'
p1969
I78
sg563
g564
sg31
F2.1032910346984863
sS'trials_6.thisIndex'
p1970
g38
(g76
S'$\x00\x00\x00\x00\x00\x00\x00'
p1971
tp1972
Rp1973
sS'trials_6.thisTrialN'
p1974
I0
sg30
S'slash'
p1975
sg562
g129
sg555
g1225
sg49
g50
sS'trials_6.thisRepN'
p1976
I2
sS'trials_4.thisN'
p1977
I0
sS'trials_4.thisTrialN'
p1978
I0
sg565
g630
sa(dp1979
g567
g887
sg48
g12
sg35
g36
sg551
g890
sS'trials_4.thisRepN'
p1980
I0
sg578
g892
sS'trials_4.thisIndex'
p1981
g108
sg37
g47
sS'trials_6.thisN'
p1982
I79
sg563
g564
sg31
F0.6348750591278076
sS'trials_6.thisIndex'
p1983
g38
(g76
S'\x01\x00\x00\x00\x00\x00\x00\x00'
p1984
tp1985
Rp1986
sS'trials_6.thisTrialN'
p1987
I1
sg30
S'z'
p1988
sg562
g99
sg555
g903
sg49
g50
sS'trials_6.thisRepN'
p1989
I2
sS'trials_4.thisN'
p1990
I0
sS'trials_4.thisTrialN'
p1991
I0
sg565
g566
sa(dp1992
g567
g1163
sg48
g12
sg35
g36
sg551
g1166
sS'trials_4.thisRepN'
p1993
I0
sg578
g1168
sS'trials_4.thisIndex'
p1994
g108
sg37
g47
sS'trials_6.thisN'
p1995
I80
sg563
g564
sg31
F1.1703240871429443
sS'trials_6.thisIndex'
p1996
g38
(g76
S'\x12\x00\x00\x00\x00\x00\x00\x00'
p1997
tp1998
Rp1999
sS'trials_6.thisTrialN'
p2000
I2
sg30
S'z'
p2001
sg562
g153
sg555
g1179
sg49
g50
sS'trials_6.thisRepN'
p2002
I2
sS'trials_4.thisN'
p2003
I0
sS'trials_4.thisTrialN'
p2004
I0
sg565
g566
sa(dp2005
g567
g795
sg48
g12
sg35
g36
sg551
g798
sS'trials_4.thisRepN'
p2006
I0
sg578
g800
sS'trials_4.thisIndex'
p2007
g108
sg37
g47
sS'trials_6.thisN'
p2008
I81
sg563
g564
sg31
F0.7532219886779785
sS'trials_6.thisIndex'
p2009
g38
(g76
S'\x17\x00\x00\x00\x00\x00\x00\x00'
p2010
tp2011
Rp2012
sS'trials_6.thisTrialN'
p2013
I3
sg30
S'z'
p2014
sg562
g153
sg555
g811
sg49
g50
sS'trials_6.thisRepN'
p2015
I2
sS'trials_4.thisN'
p2016
I0
sS'trials_4.thisTrialN'
p2017
I0
sg565
g630
sa(dp2018
g567
g1140
sg48
g12
sg35
g36
sg551
g1143
sS'trials_4.thisRepN'
p2019
I0
sg578
g1145
sS'trials_4.thisIndex'
p2020
g108
sg37
g47
sS'trials_6.thisN'
p2021
I82
sg563
g564
sg31
F0.4191009998321533
sS'trials_6.thisIndex'
p2022
g38
(g76
S'!\x00\x00\x00\x00\x00\x00\x00'
p2023
tp2024
Rp2025
sS'trials_6.thisTrialN'
p2026
I4
sg30
S'slash'
p2027
sg562
g129
sg555
g1156
sg49
g50
sS'trials_6.thisRepN'
p2028
I2
sS'trials_4.thisN'
p2029
I0
sS'trials_4.thisTrialN'
p2030
I0
sg565
g566
sa(dp2031
g567
g634
sg48
g12
sg35
g36
sg551
g637
sS'trials_4.thisRepN'
p2032
I0
sg578
g639
sS'trials_4.thisIndex'
p2033
g108
sg37
g47
sS'trials_6.thisN'
p2034
I83
sg563
g564
sg31
F0.45281505584716797
sS'trials_6.thisIndex'
p2035
g38
(g76
S'\x1e\x00\x00\x00\x00\x00\x00\x00'
p2036
tp2037
Rp2038
sS'trials_6.thisTrialN'
p2039
I5
sg30
S'slash'
p2040
sg562
g129
sg555
g650
sg49
g50
sS'trials_6.thisRepN'
p2041
I2
sS'trials_4.thisN'
p2042
I0
sS'trials_4.thisTrialN'
p2043
I0
sg565
g566
sa(dp2044
g567
g1002
sg48
g12
sg35
g36
sg551
g1005
sS'trials_4.thisRepN'
p2045
I0
sg578
g1007
sS'trials_4.thisIndex'
p2046
g108
sg37
g47
sS'trials_6.thisN'
p2047
I84
sg563
g564
sg31
F0.6192209720611572
sS'trials_6.thisIndex'
p2048
g38
(g76
S'\x1b\x00\x00\x00\x00\x00\x00\x00'
p2049
tp2050
Rp2051
sS'trials_6.thisTrialN'
p2052
I6
sg30
S'z'
p2053
sg562
g153
sg555
g1018
sg49
g50
sS'trials_6.thisRepN'
p2054
I2
sS'trials_4.thisN'
p2055
I0
sS'trials_4.thisTrialN'
p2056
I0
sg565
g630
sa(dp2057
g567
g749
sg48
g12
sg35
g36
sg551
g752
sS'trials_4.thisRepN'
p2058
I0
sg578
g754
sS'trials_4.thisIndex'
p2059
g108
sg37
g47
sS'trials_6.thisN'
p2060
I85
sg563
g564
sg31
F0.46960997581481934
sS'trials_6.thisIndex'
p2061
g38
(g76
S'\x18\x00\x00\x00\x00\x00\x00\x00'
p2062
tp2063
Rp2064
sS'trials_6.thisTrialN'
p2065
I7
sg30
S'z'
p2066
sg562
g153
sg555
g765
sg49
g50
sS'trials_6.thisRepN'
p2067
I2
sS'trials_4.thisN'
p2068
I0
sS'trials_4.thisTrialN'
p2069
I0
sg565
g630
sa(dp2070
g567
g956
sg48
g12
sg35
g36
sg551
g959
sS'trials_4.thisRepN'
p2071
I0
sg578
g961
sS'trials_4.thisIndex'
p2072
g108
sg37
g47
sS'trials_6.thisN'
p2073
I86
sg563
g564
sg31
F0.5352530479431152
sS'trials_6.thisIndex'
p2074
g38
(g76
S'\x05\x00\x00\x00\x00\x00\x00\x00'
p2075
tp2076
Rp2077
sS'trials_6.thisTrialN'
p2078
I8
sg30
S'z'
p2079
sg562
g99
sg555
g972
sg49
g50
sS'trials_6.thisRepN'
p2080
I2
sS'trials_4.thisN'
p2081
I0
sS'trials_4.thisTrialN'
p2082
I0
sg565
g566
sa(dp2083
g567
g657
sg48
g12
sg35
g36
sg551
g660
sS'trials_4.thisRepN'
p2084
I0
sg578
g662
sS'trials_4.thisIndex'
p2085
g108
sg37
g47
sS'trials_6.thisN'
p2086
I87
sg563
g564
sg31
F0.26943087577819824
sS'trials_6.thisIndex'
p2087
g38
(g76
S'\x0b\x00\x00\x00\x00\x00\x00\x00'
p2088
tp2089
Rp2090
sS'trials_6.thisTrialN'
p2091
I9
sg30
S'z'
p2092
sg562
g99
sg555
g673
sg49
g50
sS'trials_6.thisRepN'
p2093
I2
sS'trials_4.thisN'
p2094
I0
sS'trials_4.thisTrialN'
p2095
I0
sg565
g630
sa(dp2096
g567
g1117
sg48
g12
sg35
g36
sg551
g1120
sS'trials_4.thisRepN'
p2097
I0
sg578
g1122
sS'trials_4.thisIndex'
p2098
g108
sg37
g47
sS'trials_6.thisN'
p2099
I88
sg563
g564
sg31
F0.3499491214752197
sS'trials_6.thisIndex'
p2100
g38
(g76
S'\x03\x00\x00\x00\x00\x00\x00\x00'
p2101
tp2102
Rp2103
sS'trials_6.thisTrialN'
p2104
I10
sg30
S'slash'
p2105
sg562
g99
sg555
g1133
sg49
g50
sS'trials_6.thisRepN'
p2106
I2
sS'trials_4.thisN'
p2107
I0
sS'trials_4.thisTrialN'
p2108
I0
sg565
g566
sa(dp2109
g567
g726
sg48
g12
sg35
g36
sg551
g729
sS'trials_4.thisRepN'
p2110
I0
sg578
g731
sS'trials_4.thisIndex'
p2111
g108
sg37
g47
sS'trials_6.thisN'
p2112
I89
sg563
g564
sg31
F0.21890592575073242
sS'trials_6.thisIndex'
p2113
g38
(g76
S'\n\x00\x00\x00\x00\x00\x00\x00'
p2114
tp2115
Rp2116
sS'trials_6.thisTrialN'
p2117
I11
sg30
S'slash'
p2118
sg562
g99
sg555
g742
sg49
g50
sS'trials_6.thisRepN'
p2119
I2
sS'trials_4.thisN'
p2120
I0
sS'trials_4.thisTrialN'
p2121
I0
sg565
g630
sa(dp2122
g567
g1278
sg48
g12
sg35
g36
sg551
g1281
sS'trials_4.thisRepN'
p2123
I0
sg578
g1283
sS'trials_4.thisIndex'
p2124
g108
sg37
g47
sS'trials_6.thisN'
p2125
I90
sg563
g564
sg31
F0.7193257808685303
sS'trials_6.thisIndex'
p2126
g38
(g76
S'\x1d\x00\x00\x00\x00\x00\x00\x00'
p2127
tp2128
Rp2129
sS'trials_6.thisTrialN'
p2130
I12
sg30
S'slash'
p2131
sg562
g129
sg555
g1294
sg49
g50
sS'trials_6.thisRepN'
p2132
I2
sS'trials_4.thisN'
p2133
I0
sS'trials_4.thisTrialN'
p2134
I0
sg565
g566
sa(dp2135
g567
g610
sg48
g12
sg35
g36
sg551
g613
sS'trials_4.thisRepN'
p2136
I0
sg578
g615
sS'trials_4.thisIndex'
p2137
g108
sg37
g47
sS'trials_6.thisN'
p2138
I91
sg563
g564
sg31
F1.5189549922943115
sS'trials_6.thisIndex'
p2139
g38
(g76
S'\r\x00\x00\x00\x00\x00\x00\x00'
p2140
tp2141
Rp2142
sS'trials_6.thisTrialN'
p2143
I13
sg30
S'slash'
p2144
sg562
g99
sg555
g626
sg49
g50
sS'trials_6.thisRepN'
p2145
I2
sS'trials_4.thisN'
p2146
I0
sS'trials_4.thisTrialN'
p2147
I0
sg565
g630
sa(dp2148
g567
g586
sg48
g12
sg35
g36
sg551
g589
sS'trials_4.thisRepN'
p2149
I0
sg578
g591
sS'trials_4.thisIndex'
p2150
g108
sg37
g47
sS'trials_6.thisN'
p2151
I92
sg563
g564
sg31
F0.33617091178894043
sS'trials_6.thisIndex'
p2152
g38
(g76
S'\x00\x00\x00\x00\x00\x00\x00\x00'
p2153
tp2154
Rp2155
sS'trials_6.thisTrialN'
p2156
I14
sg30
S'slash'
p2157
sg562
g99
sg555
g602
sg49
g50
sS'trials_6.thisRepN'
p2158
I2
sS'trials_4.thisN'
p2159
I0
sS'trials_4.thisTrialN'
p2160
I0
sg565
g606
sa(dp2161
g567
g1301
sg48
g12
sg35
g36
sg551
g1304
sS'trials_4.thisRepN'
p2162
I0
sg578
g1306
sS'trials_4.thisIndex'
p2163
g108
sg37
g47
sS'trials_6.thisN'
p2164
I93
sg563
g564
sg31
F0.5693228244781494
sS'trials_6.thisIndex'
p2165
g38
(g76
S'#\x00\x00\x00\x00\x00\x00\x00'
p2166
tp2167
Rp2168
sS'trials_6.thisTrialN'
p2169
I15
sg30
S'z'
p2170
sg562
g129
sg555
g1317
sg49
g50
sS'trials_6.thisRepN'
p2171
I2
sS'trials_4.thisN'
p2172
I0
sS'trials_4.thisTrialN'
p2173
I0
sg565
g630
sa(dp2174
g567
g818
sg48
g12
sg35
g36
sg551
g821
sS'trials_4.thisRepN'
p2175
I0
sg578
g823
sS'trials_4.thisIndex'
p2176
g108
sg37
g47
sS'trials_6.thisN'
p2177
I94
sg563
g564
sg31
F0.6700358390808105
sS'trials_6.thisIndex'
p2178
g38
(g76
S'\x08\x00\x00\x00\x00\x00\x00\x00'
p2179
tp2180
Rp2181
sS'trials_6.thisTrialN'
p2182
I16
sg30
S'z'
p2183
sg562
g99
sg555
g834
sg49
g50
sS'trials_6.thisRepN'
p2184
I2
sS'trials_4.thisN'
p2185
I0
sS'trials_4.thisTrialN'
p2186
I0
sg565
g630
sa(dp2187
g567
g864
sg48
g12
sg35
g36
sg551
g867
sS'trials_4.thisRepN'
p2188
I0
sg578
g869
sS'trials_4.thisIndex'
p2189
g108
sg37
g47
sS'trials_6.thisN'
p2190
I95
sg563
g564
sg31
F0.4525868892669678
sS'trials_6.thisIndex'
p2191
g38
(g76
S'\x1a\x00\x00\x00\x00\x00\x00\x00'
p2192
tp2193
Rp2194
sS'trials_6.thisTrialN'
p2195
I17
sg30
S'z'
p2196
sg562
g153
sg555
g880
sg49
g50
sS'trials_6.thisRepN'
p2197
I2
sS'trials_4.thisN'
p2198
I0
sS'trials_4.thisTrialN'
p2199
I0
sg565
g630
sa(dp2200
g567
g1393
sg48
g12
sg35
g36
sg551
g1396
sS'trials_4.thisRepN'
p2201
I0
sg578
g1398
sS'trials_4.thisIndex'
p2202
g108
sg37
g47
sS'trials_6.thisN'
p2203
I96
sg563
g564
sg31
F0.1340949535369873
sS'trials_6.thisIndex'
p2204
g38
(g76
S'\x15\x00\x00\x00\x00\x00\x00\x00'
p2205
tp2206
Rp2207
sS'trials_6.thisTrialN'
p2208
I18
sg30
S'z'
p2209
sg562
g153
sg555
g1409
sg49
g50
sS'trials_6.thisRepN'
p2210
I2
sS'trials_4.thisN'
p2211
I0
sS'trials_4.thisTrialN'
p2212
I0
sg565
g630
sa(dp2213
g567
g933
sg48
g12
sg35
g36
sg551
g936
sS'trials_4.thisRepN'
p2214
I0
sg578
g938
sS'trials_4.thisIndex'
p2215
g108
sg37
g47
sS'trials_6.thisN'
p2216
I97
sg563
g564
sg31
F0.40293407440185547
sS'trials_6.thisIndex'
p2217
g38
(g76
S'\x07\x00\x00\x00\x00\x00\x00\x00'
p2218
tp2219
Rp2220
sS'trials_6.thisTrialN'
p2221
I19
sg30
S'z'
p2222
sg562
g99
sg555
g949
sg49
g50
sS'trials_6.thisRepN'
p2223
I2
sS'trials_4.thisN'
p2224
I0
sS'trials_4.thisTrialN'
p2225
I0
sg565
g630
sa(dp2226
g567
g703
sg48
g12
sg35
g36
sg551
g706
sS'trials_4.thisRepN'
p2227
I0
sg578
g708
sS'trials_4.thisIndex'
p2228
g108
sg37
g47
sS'trials_6.thisN'
p2229
I98
sg563
g564
sg31
F1.1872169971466064
sS'trials_6.thisIndex'
p2230
g38
(g76
S'\x19\x00\x00\x00\x00\x00\x00\x00'
p2231
tp2232
Rp2233
sS'trials_6.thisTrialN'
p2234
I20
sg30
S'slash'
p2235
sg562
g153
sg555
g719
sg49
g50
sS'trials_6.thisRepN'
p2236
I2
sS'trials_4.thisN'
p2237
I0
sS'trials_4.thisTrialN'
p2238
I0
sg565
g630
sa(dp2239
g567
g841
sg48
g12
sg35
g36
sg551
g844
sS'trials_4.thisRepN'
p2240
I0
sg578
g846
sS'trials_4.thisIndex'
p2241
g108
sg37
g47
sS'trials_6.thisN'
p2242
I99
sg563
g564
sg31
F0.5355548858642578
sS'trials_6.thisIndex'
p2243
g38
(g76
S' \x00\x00\x00\x00\x00\x00\x00'
p2244
tp2245
Rp2246
sS'trials_6.thisTrialN'
p2247
I21
sg30
S'slash'
p2248
sg562
g129
sg555
g857
sg49
g50
sS'trials_6.thisRepN'
p2249
I2
sS'trials_4.thisN'
p2250
I0
sS'trials_4.thisTrialN'
p2251
I0
sg565
g566
sa(dp2252
g567
g680
sg48
g12
sg35
g36
sg551
g683
sS'trials_4.thisRepN'
p2253
I0
sg578
g685
sS'trials_4.thisIndex'
p2254
g108
sg37
g47
sS'trials_6.thisN'
p2255
I100
sg563
g564
sg31
F0.5524561405181885
sS'trials_6.thisIndex'
p2256
g38
(g76
S'\t\x00\x00\x00\x00\x00\x00\x00'
p2257
tp2258
Rp2259
sS'trials_6.thisTrialN'
p2260
I22
sg30
S'z'
p2261
sg562
g99
sg555
g696
sg49
g50
sS'trials_6.thisRepN'
p2262
I2
sS'trials_4.thisN'
p2263
I0
sS'trials_4.thisTrialN'
p2264
I0
sg565
g630
sa(dp2265
g567
g1186
sg48
g12
sg35
g36
sg551
g1189
sS'trials_4.thisRepN'
p2266
I0
sg578
g1191
sS'trials_4.thisIndex'
p2267
g108
sg37
g47
sS'trials_6.thisN'
p2268
I101
sg563
g564
sg31
F0.28664612770080566
sS'trials_6.thisIndex'
p2269
g38
(g76
S'%\x00\x00\x00\x00\x00\x00\x00'
p2270
tp2271
Rp2272
sS'trials_6.thisTrialN'
p2273
I23
sg30
S'slash'
p2274
sg562
g129
sg555
g1202
sg49
g50
sS'trials_6.thisRepN'
p2275
I2
sS'trials_4.thisN'
p2276
I0
sS'trials_4.thisTrialN'
p2277
I0
sg565
g630
sa(dp2278
g567
g1094
sg48
g12
sg35
g36
sg551
g1097
sS'trials_4.thisRepN'
p2279
I0
sg578
g1099
sS'trials_4.thisIndex'
p2280
g108
sg37
g47
sS'trials_6.thisN'
p2281
I102
sg563
g564
sg31
F0.5199859142303467
sS'trials_6.thisIndex'
p2282
g38
(g76
S'\x0e\x00\x00\x00\x00\x00\x00\x00'
p2283
tp2284
Rp2285
sS'trials_6.thisTrialN'
p2286
I24
sg30
S'slash'
p2287
sg562
g153
sg555
g1110
sg49
g50
sS'trials_6.thisRepN'
p2288
I2
sS'trials_4.thisN'
p2289
I0
sS'trials_4.thisTrialN'
p2290
I0
sg565
g606
sa(dp2291
g567
g1439
sg48
g12
sg35
g36
sg551
g1442
sS'trials_4.thisRepN'
p2292
I0
sg578
g1444
sS'trials_4.thisIndex'
p2293
g108
sg37
g47
sS'trials_6.thisN'
p2294
I103
sg563
g564
sg31
F0.40282607078552246
sS'trials_6.thisIndex'
p2295
g38
(g76
S'\x04\x00\x00\x00\x00\x00\x00\x00'
p2296
tp2297
Rp2298
sS'trials_6.thisTrialN'
p2299
I25
sg30
S'z'
p2300
sg562
g99
sg555
g1455
sg49
g50
sS'trials_6.thisRepN'
p2301
I2
sS'trials_4.thisN'
p2302
I0
sS'trials_4.thisTrialN'
p2303
I0
sg565
g566
sa(dp2304
g567
g910
sg48
g12
sg35
g36
sg551
g913
sS'trials_4.thisRepN'
p2305
I0
sg578
g915
sS'trials_4.thisIndex'
p2306
g108
sg37
g47
sS'trials_6.thisN'
p2307
I104
sg563
g564
sg31
F0.8199710845947266
sS'trials_6.thisIndex'
p2308
g38
(g76
S'\x0c\x00\x00\x00\x00\x00\x00\x00'
p2309
tp2310
Rp2311
sS'trials_6.thisTrialN'
p2312
I26
sg30
S'slash'
p2313
sg562
g99
sg555
g926
sg49
g50
sS'trials_6.thisRepN'
p2314
I2
sS'trials_4.thisN'
p2315
I0
sS'trials_4.thisTrialN'
p2316
I0
sg565
g630
sa(dp2317
g567
g1370
sg48
g12
sg35
g36
sg551
g1373
sS'trials_4.thisRepN'
p2318
I0
sg578
g1375
sS'trials_4.thisIndex'
p2319
g108
sg37
g47
sS'trials_6.thisN'
p2320
I105
sg563
g564
sg31
F0.6697590351104736
sS'trials_6.thisIndex'
p2321
g38
(g76
S'\x1f\x00\x00\x00\x00\x00\x00\x00'
p2322
tp2323
Rp2324
sS'trials_6.thisTrialN'
p2325
I27
sg30
S'slash'
p2326
sg562
g129
sg555
g1386
sg49
g50
sS'trials_6.thisRepN'
p2327
I2
sS'trials_4.thisN'
p2328
I0
sS'trials_4.thisTrialN'
p2329
I0
sg565
g566
sa(dp2330
g567
g1324
sg48
g12
sg35
g36
sg551
g1327
sS'trials_4.thisRepN'
p2331
I0
sg578
g1329
sS'trials_4.thisIndex'
p2332
g108
sg37
g47
sS'trials_6.thisN'
p2333
I106
sg563
g564
sg31
F0.9532878398895264
sS'trials_6.thisIndex'
p2334
g38
(g76
S'\x02\x00\x00\x00\x00\x00\x00\x00'
p2335
tp2336
Rp2337
sS'trials_6.thisTrialN'
p2338
I28
sg30
S'slash'
p2339
sg562
g99
sg555
g1340
sg49
g50
sS'trials_6.thisRepN'
p2340
I2
sS'trials_4.thisN'
p2341
I0
sS'trials_4.thisTrialN'
p2342
I0
sg565
g566
sa(dp2343
g567
g1071
sg48
g12
sg35
g36
sg551
g1074
sS'trials_4.thisRepN'
p2344
I0
sg578
g1076
sS'trials_4.thisIndex'
p2345
g108
sg37
g47
sS'trials_6.thisN'
p2346
I107
sg563
g564
sg31
F2.0540108680725098
sS'trials_6.thisIndex'
p2347
g38
(g76
S'\x10\x00\x00\x00\x00\x00\x00\x00'
p2348
tp2349
Rp2350
sS'trials_6.thisTrialN'
p2351
I29
sg30
S'z'
p2352
sg562
g153
sg555
g1087
sg49
g50
sS'trials_6.thisRepN'
p2353
I2
sS'trials_4.thisN'
p2354
I0
sS'trials_4.thisTrialN'
p2355
I0
sg565
g566
sa(dp2356
g567
g1416
sg48
g12
sg35
g36
sg551
g1419
sS'trials_4.thisRepN'
p2357
I0
sg578
g1421
sS'trials_4.thisIndex'
p2358
g108
sg37
g47
sS'trials_6.thisN'
p2359
I108
sg563
g564
sg31
F1.3511180877685547
sS'trials_6.thisIndex'
p2360
g38
(g76
S'"\x00\x00\x00\x00\x00\x00\x00'
p2361
tp2362
Rp2363
sS'trials_6.thisTrialN'
p2364
I30
sg30
S'z'
p2365
sg562
g129
sg555
g1432
sg49
g50
sS'trials_6.thisRepN'
p2366
I2
sS'trials_4.thisN'
p2367
I0
sS'trials_4.thisTrialN'
p2368
I0
sg565
g566
sa(dp2369
g567
g1347
sg48
g12
sg35
g36
sg551
g1350
sS'trials_4.thisRepN'
p2370
I0
sg578
g1352
sS'trials_4.thisIndex'
p2371
g108
sg37
g47
sS'trials_6.thisN'
p2372
I109
sg563
g564
sg31
F1.5035550594329834
sS'trials_6.thisIndex'
p2373
g38
(g76
S'\x16\x00\x00\x00\x00\x00\x00\x00'
p2374
tp2375
Rp2376
sS'trials_6.thisTrialN'
p2377
I31
sg30
S'z'
p2378
sg562
g153
sg555
g1363
sg49
g50
sS'trials_6.thisRepN'
p2379
I2
sS'trials_4.thisN'
p2380
I0
sS'trials_4.thisTrialN'
p2381
I0
sg565
g630
sa(dp2382
g567
g772
sg48
g12
sg35
g36
sg551
g775
sS'trials_4.thisRepN'
p2383
I0
sg578
g777
sS'trials_4.thisIndex'
p2384
g108
sg37
g47
sS'trials_6.thisN'
p2385
I110
sg563
g564
sg31
F1.0851240158081055
sS'trials_6.thisIndex'
p2386
g38
(g76
S'&\x00\x00\x00\x00\x00\x00\x00'
p2387
tp2388
Rp2389
sS'trials_6.thisTrialN'
p2390
I32
sg30
S'slash'
p2391
sg562
g129
sg555
g788
sg49
g50
sS'trials_6.thisRepN'
p2392
I2
sS'trials_4.thisN'
p2393
I0
sS'trials_4.thisTrialN'
p2394
I0
sg565
g630
sa(dp2395
g567
g1025
sg48
g12
sg35
g36
sg551
g1028
sS'trials_4.thisRepN'
p2396
I0
sg578
g1030
sS'trials_4.thisIndex'
p2397
g108
sg37
g47
sS'trials_6.thisN'
p2398
I111
sg563
g564
sg31
F0.35279417037963867
sS'trials_6.thisIndex'
p2399
g38
(g76
S'\x14\x00\x00\x00\x00\x00\x00\x00'
p2400
tp2401
Rp2402
sS'trials_6.thisTrialN'
p2403
I33
sg30
S'z'
p2404
sg562
g153
sg555
g1041
sg49
g50
sS'trials_6.thisRepN'
p2405
I2
sS'trials_4.thisN'
p2406
I0
sS'trials_4.thisTrialN'
p2407
I0
sg565
g566
sa(dp2408
g567
g570
sg48
g12
sg35
g36
sg551
g554
sS'trials_4.thisRepN'
p2409
I0
sg578
g579
sS'trials_4.thisIndex'
p2410
g108
sg37
g47
sS'trials_6.thisN'
p2411
I112
sg563
g564
sg31
F0.6196770668029785
sS'trials_6.thisIndex'
p2412
g38
(g76
S'\x11\x00\x00\x00\x00\x00\x00\x00'
p2413
tp2414
Rp2415
sS'trials_6.thisTrialN'
p2416
I34
sg30
S'slash'
p2417
sg562
g153
sg555
g558
sg49
g50
sS'trials_6.thisRepN'
p2418
I2
sS'trials_4.thisN'
p2419
I0
sS'trials_4.thisTrialN'
p2420
I0
sg565
g566
sa(dp2421
g567
g1232
sg48
g12
sg35
g36
sg551
g1235
sS'trials_4.thisRepN'
p2422
I0
sg578
g1237
sS'trials_4.thisIndex'
p2423
g108
sg37
g47
sS'trials_6.thisN'
p2424
I113
sg563
g564
sg31
F0.5033838748931885
sS'trials_6.thisIndex'
p2425
g38
(g76
S'\x13\x00\x00\x00\x00\x00\x00\x00'
p2426
tp2427
Rp2428
sS'trials_6.thisTrialN'
p2429
I35
sg30
S'slash'
p2430
sg562
g153
sg555
g1248
sg49
g50
sS'trials_6.thisRepN'
p2431
I2
sS'trials_4.thisN'
p2432
I0
sS'trials_4.thisTrialN'
p2433
I0
sg565
g566
sa(dp2434
g567
g1048
sg48
g12
sg35
g36
sg551
g1051
sS'trials_4.thisRepN'
p2435
I0
sg578
g1053
sS'trials_4.thisIndex'
p2436
g108
sg37
g47
sS'trials_6.thisN'
p2437
I114
sg563
g564
sg31
F0.4526400566101074
sS'trials_6.thisIndex'
p2438
g38
(g76
S'\x0f\x00\x00\x00\x00\x00\x00\x00'
p2439
tp2440
Rp2441
sS'trials_6.thisTrialN'
p2442
I36
sg30
S'slash'
p2443
sg562
g153
sg555
g1064
sg49
g50
sS'trials_6.thisRepN'
p2444
I2
sS'trials_4.thisN'
p2445
I0
sS'trials_4.thisTrialN'
p2446
I0
sg565
g566
sa(dp2447
g567
g979
sg48
g12
sg35
g36
sg551
g982
sS'trials_4.thisRepN'
p2448
I0
sg578
g984
sS'trials_4.thisIndex'
p2449
g108
sg37
g47
sS'trials_6.thisN'
p2450
I115
sg563
g564
sg31
F1.019942045211792
sS'trials_6.thisIndex'
p2451
g38
(g76
S'\x06\x00\x00\x00\x00\x00\x00\x00'
p2452
tp2453
Rp2454
sS'trials_6.thisTrialN'
p2455
I37
sg30
S'z'
p2456
sg562
g99
sg555
g995
sg49
g50
sS'trials_6.thisRepN'
p2457
I2
sS'trials_4.thisN'
p2458
I0
sS'trials_4.thisTrialN'
p2459
I0
sg565
g566
sa(dp2460
g567
g1255
sg48
g12
sg35
g36
sg551
g1258
sS'trials_4.thisRepN'
p2461
I0
sg578
g1260
sS'trials_4.thisIndex'
p2462
g108
sg37
g47
sS'trials_6.thisN'
p2463
I116
sg563
g564
sg31
F0.619394063949585
sS'trials_6.thisIndex'
p2464
g38
(g76
S'\x1c\x00\x00\x00\x00\x00\x00\x00'
p2465
tp2466
Rp2467
sS'trials_6.thisTrialN'
p2468
I38
sg30
S'slash'
p2469
sg562
g129
sg555
g1271
sg49
g50
sS'trials_6.thisRepN'
p2470
I2
sS'trials_4.thisN'
p2471
I0
sS'trials_4.thisTrialN'
p2472
I0
sg565
g606
sa(dp2473
g567
g1071
sg48
g12
sg35
g36
sg551
g1074
sS'trials_4.thisRepN'
p2474
I0
sg578
g1076
sS'trials_4.thisIndex'
p2475
g108
sg37
g47
sS'trials_6.thisN'
p2476
I117
sg563
g564
sg31
F1.019550085067749
sS'trials_6.thisIndex'
p2477
g38
(g76
S'\x10\x00\x00\x00\x00\x00\x00\x00'
p2478
tp2479
Rp2480
sS'trials_6.thisTrialN'
p2481
I0
sg30
S'z'
p2482
sg562
g153
sg555
g1087
sg49
g50
sS'trials_6.thisRepN'
p2483
I3
sS'trials_4.thisN'
p2484
I0
sS'trials_4.thisTrialN'
p2485
I0
sg565
g566
sa(dp2486
g567
g1002
sg48
g12
sg35
g36
sg551
g1005
sS'trials_4.thisRepN'
p2487
I0
sg578
g1007
sS'trials_4.thisIndex'
p2488
g108
sg37
g47
sS'trials_6.thisN'
p2489
I118
sg563
g564
sg31
F0.6188180446624756
sS'trials_6.thisIndex'
p2490
g38
(g76
S'\x1b\x00\x00\x00\x00\x00\x00\x00'
p2491
tp2492
Rp2493
sS'trials_6.thisTrialN'
p2494
I1
sg30
S'slash'
p2495
sg562
g153
sg555
g1018
sg49
g50
sS'trials_6.thisRepN'
p2496
I3
sS'trials_4.thisN'
p2497
I0
sS'trials_4.thisTrialN'
p2498
I0
sg565
g630
sa(dp2499
g567
g910
sg48
g12
sg35
g36
sg551
g913
sS'trials_4.thisRepN'
p2500
I0
sg578
g915
sS'trials_4.thisIndex'
p2501
g108
sg37
g47
sS'trials_6.thisN'
p2502
I119
sg563
g564
sg31
F1.4040000438690186
sS'trials_6.thisIndex'
p2503
g38
(g76
S'\x0c\x00\x00\x00\x00\x00\x00\x00'
p2504
tp2505
Rp2506
sS'trials_6.thisTrialN'
p2507
I2
sg30
S'slash'
p2508
sg562
g99
sg555
g926
sg49
g50
sS'trials_6.thisRepN'
p2509
I3
sS'trials_4.thisN'
p2510
I0
sS'trials_4.thisTrialN'
p2511
I0
sg565
g630
sa(dp2512
g567
g1439
sg48
g12
sg35
g36
sg551
g1442
sS'trials_4.thisRepN'
p2513
I0
sg578
g1444
sS'trials_4.thisIndex'
p2514
g108
sg37
g47
sS'trials_6.thisN'
p2515
I120
sg563
g564
sg31
F0.36720991134643555
sS'trials_6.thisIndex'
p2516
g38
(g76
S'\x04\x00\x00\x00\x00\x00\x00\x00'
p2517
tp2518
Rp2519
sS'trials_6.thisTrialN'
p2520
I3
sg30
S'slash'
p2521
sg562
g99
sg555
g1455
sg49
g50
sS'trials_6.thisRepN'
p2522
I3
sS'trials_4.thisN'
p2523
I0
sS'trials_4.thisTrialN'
p2524
I0
sg565
g566
sa(dp2525
g567
g979
sg48
g12
sg35
g36
sg551
g982
sS'trials_4.thisRepN'
p2526
I0
sg578
g984
sS'trials_4.thisIndex'
p2527
g108
sg37
g47
sS'trials_6.thisN'
p2528
I121
sg563
g564
sg31
F0.3027839660644531
sS'trials_6.thisIndex'
p2529
g38
(g76
S'\x06\x00\x00\x00\x00\x00\x00\x00'
p2530
tp2531
Rp2532
sS'trials_6.thisTrialN'
p2533
I4
sg30
S'slash'
p2534
sg562
g99
sg555
g995
sg49
g50
sS'trials_6.thisRepN'
p2535
I3
sS'trials_4.thisN'
p2536
I0
sS'trials_4.thisTrialN'
p2537
I0
sg565
g566
sa(dp2538
g567
g1209
sg48
g12
sg35
g36
sg551
g1212
sS'trials_4.thisRepN'
p2539
I0
sg578
g1214
sS'trials_4.thisIndex'
p2540
g108
sg37
g47
sS'trials_6.thisN'
p2541
I122
sg563
g564
sg31
F0.6530709266662598
sS'trials_6.thisIndex'
p2542
g38
(g76
S'$\x00\x00\x00\x00\x00\x00\x00'
p2543
tp2544
Rp2545
sS'trials_6.thisTrialN'
p2546
I5
sg30
S'slash'
p2547
sg562
g129
sg555
g1225
sg49
g50
sS'trials_6.thisRepN'
p2548
I3
sS'trials_4.thisN'
p2549
I0
sS'trials_4.thisTrialN'
p2550
I0
sg565
g630
sa(dp2551
g567
g1025
sg48
g12
sg35
g36
sg551
g1028
sS'trials_4.thisRepN'
p2552
I0
sg578
g1030
sS'trials_4.thisIndex'
p2553
g108
sg37
g47
sS'trials_6.thisN'
p2554
I123
sg563
g564
sg31
F1.302812099456787
sS'trials_6.thisIndex'
p2555
g38
(g76
S'\x14\x00\x00\x00\x00\x00\x00\x00'
p2556
tp2557
Rp2558
sS'trials_6.thisTrialN'
p2559
I6
sg30
S'slash'
p2560
sg562
g153
sg555
g1041
sg49
g50
sS'trials_6.thisRepN'
p2561
I3
sS'trials_4.thisN'
p2562
I0
sS'trials_4.thisTrialN'
p2563
I0
sg565
g566
sa(dp2564
g567
g680
sg48
g12
sg35
g36
sg551
g683
sS'trials_4.thisRepN'
p2565
I0
sg578
g685
sS'trials_4.thisIndex'
p2566
g108
sg37
g47
sS'trials_6.thisN'
p2567
I124
sg563
g564
sg31
F0.48586297035217285
sS'trials_6.thisIndex'
p2568
g38
(g76
S'\t\x00\x00\x00\x00\x00\x00\x00'
p2569
tp2570
Rp2571
sS'trials_6.thisTrialN'
p2572
I7
sg30
S'z'
p2573
sg562
g99
sg555
g696
sg49
g50
sS'trials_6.thisRepN'
p2574
I3
sS'trials_4.thisN'
p2575
I0
sS'trials_4.thisTrialN'
p2576
I0
sg565
g630
sa(dp2577
g567
g1347
sg48
g12
sg35
g36
sg551
g1350
sS'trials_4.thisRepN'
p2578
I0
sg578
g1352
sS'trials_4.thisIndex'
p2579
g108
sg37
g47
sS'trials_6.thisN'
p2580
I125
sg563
g564
sg31
F1.0334839820861816
sS'trials_6.thisIndex'
p2581
g38
(g76
S'\x16\x00\x00\x00\x00\x00\x00\x00'
p2582
tp2583
Rp2584
sS'trials_6.thisTrialN'
p2585
I8
sg30
S'z'
p2586
sg562
g153
sg555
g1363
sg49
g50
sS'trials_6.thisRepN'
p2587
I3
sS'trials_4.thisN'
p2588
I0
sS'trials_4.thisTrialN'
p2589
I0
sg565
g630
sa(dp2590
g567
g818
sg48
g12
sg35
g36
sg551
g821
sS'trials_4.thisRepN'
p2591
I0
sg578
g823
sS'trials_4.thisIndex'
p2592
g108
sg37
g47
sS'trials_6.thisN'
p2593
I126
sg563
g564
sg31
F2.0371060371398926
sS'trials_6.thisIndex'
p2594
g38
(g76
S'\x08\x00\x00\x00\x00\x00\x00\x00'
p2595
tp2596
Rp2597
sS'trials_6.thisTrialN'
p2598
I9
sg30
S'z'
p2599
sg562
g99
sg555
g834
sg49
g50
sS'trials_6.thisRepN'
p2600
I3
sS'trials_4.thisN'
p2601
I0
sS'trials_4.thisTrialN'
p2602
I0
sg565
g630
sa(dp2603
g567
g772
sg48
g12
sg35
g36
sg551
g775
sS'trials_4.thisRepN'
p2604
I0
sg578
g777
sS'trials_4.thisIndex'
p2605
g108
sg37
g47
sS'trials_6.thisN'
p2606
I127
sg563
g564
sg31
F0.46952295303344727
sS'trials_6.thisIndex'
p2607
g38
(g76
S'&\x00\x00\x00\x00\x00\x00\x00'
p2608
tp2609
Rp2610
sS'trials_6.thisTrialN'
p2611
I10
sg30
S'slash'
p2612
sg562
g129
sg555
g788
sg49
g50
sS'trials_6.thisRepN'
p2613
I3
sS'trials_4.thisN'
p2614
I0
sS'trials_4.thisTrialN'
p2615
I0
sg565
g630
sa(dp2616
g567
g1094
sg48
g12
sg35
g36
sg551
g1097
sS'trials_4.thisRepN'
p2617
I0
sg578
g1099
sS'trials_4.thisIndex'
p2618
g108
sg37
g47
sS'trials_6.thisN'
p2619
I128
sg563
g564
sg31
F0.5697710514068604
sS'trials_6.thisIndex'
p2620
g38
(g76
S'\x0e\x00\x00\x00\x00\x00\x00\x00'
p2621
tp2622
Rp2623
sS'trials_6.thisTrialN'
p2624
I11
sg30
S'slash'
p2625
sg562
g153
sg555
g1110
sg49
g50
sS'trials_6.thisRepN'
p2626
I3
sS'trials_4.thisN'
p2627
I0
sS'trials_4.thisTrialN'
p2628
I0
sg565
g606
sa(dp2629
g567
g841
sg48
g12
sg35
g36
sg551
g844
sS'trials_4.thisRepN'
p2630
I0
sg578
g846
sS'trials_4.thisIndex'
p2631
g108
sg37
g47
sS'trials_6.thisN'
p2632
I129
sg563
g564
sg31
F1.2032670974731445
sS'trials_6.thisIndex'
p2633
g38
(g76
S' \x00\x00\x00\x00\x00\x00\x00'
p2634
tp2635
Rp2636
sS'trials_6.thisTrialN'
p2637
I12
sg30
S'slash'
p2638
sg562
g129
sg555
g857
sg49
g50
sS'trials_6.thisRepN'
p2639
I3
sS'trials_4.thisN'
p2640
I0
sS'trials_4.thisTrialN'
p2641
I0
sg565
g566
sa(dp2642
g567
g703
sg48
g12
sg35
g36
sg551
g706
sS'trials_4.thisRepN'
p2643
I0
sg578
g708
sS'trials_4.thisIndex'
p2644
g108
sg37
g47
sS'trials_6.thisN'
p2645
I130
sg563
g564
sg31
F0.6866040229797363
sS'trials_6.thisIndex'
p2646
g38
(g76
S'\x19\x00\x00\x00\x00\x00\x00\x00'
p2647
tp2648
Rp2649
sS'trials_6.thisTrialN'
p2650
I13
sg30
S'z'
p2651
sg562
g153
sg555
g719
sg49
g50
sS'trials_6.thisRepN'
p2652
I3
sS'trials_4.thisN'
p2653
I0
sS'trials_4.thisTrialN'
p2654
I0
sg565
g630
sa(dp2655
g567
g657
sg48
g12
sg35
g36
sg551
g660
sS'trials_4.thisRepN'
p2656
I0
sg578
g662
sS'trials_4.thisIndex'
p2657
g108
sg37
g47
sS'trials_6.thisN'
p2658
I131
sg563
g564
sg31
F1.2035329341888428
sS'trials_6.thisIndex'
p2659
g38
(g76
S'\x0b\x00\x00\x00\x00\x00\x00\x00'
p2660
tp2661
Rp2662
sS'trials_6.thisTrialN'
p2663
I14
sg30
S'slash'
p2664
sg562
g99
sg555
g673
sg49
g50
sS'trials_6.thisRepN'
p2665
I3
sS'trials_4.thisN'
p2666
I0
sS'trials_4.thisTrialN'
p2667
I0
sg565
g630
sa(dp2668
g567
g1278
sg48
g12
sg35
g36
sg551
g1281
sS'trials_4.thisRepN'
p2669
I0
sg578
g1283
sS'trials_4.thisIndex'
p2670
g108
sg37
g47
sS'trials_6.thisN'
p2671
I132
sg563
g564
sg31
F0.6022751331329346
sS'trials_6.thisIndex'
p2672
g38
(g76
S'\x1d\x00\x00\x00\x00\x00\x00\x00'
p2673
tp2674
Rp2675
sS'trials_6.thisTrialN'
p2676
I15
sg30
S'slash'
p2677
sg562
g129
sg555
g1294
sg49
g50
sS'trials_6.thisRepN'
p2678
I3
sS'trials_4.thisN'
p2679
I0
sS'trials_4.thisTrialN'
p2680
I0
sg565
g566
sa(dp2681
g567
g1232
sg48
g12
sg35
g36
sg551
g1235
sS'trials_4.thisRepN'
p2682
I0
sg578
g1237
sS'trials_4.thisIndex'
p2683
g108
sg37
g47
sS'trials_6.thisN'
p2684
I133
sg563
g564
sg31
F0.6697502136230469
sS'trials_6.thisIndex'
p2685
g38
(g76
S'\x13\x00\x00\x00\x00\x00\x00\x00'
p2686
tp2687
Rp2688
sS'trials_6.thisTrialN'
p2689
I16
sg30
S'slash'
p2690
sg562
g153
sg555
g1248
sg49
g50
sS'trials_6.thisRepN'
p2691
I3
sS'trials_4.thisN'
p2692
I0
sS'trials_4.thisTrialN'
p2693
I0
sg565
g566
sa(dp2694
g567
g1324
sg48
g12
sg35
g36
sg551
g1327
sS'trials_4.thisRepN'
p2695
I0
sg578
g1329
sS'trials_4.thisIndex'
p2696
g108
sg37
g47
sS'trials_6.thisN'
p2697
I134
sg563
g564
sg31
F0.2523469924926758
sS'trials_6.thisIndex'
p2698
g38
(g76
S'\x02\x00\x00\x00\x00\x00\x00\x00'
p2699
tp2700
Rp2701
sS'trials_6.thisTrialN'
p2702
I17
sg30
S'slash'
p2703
sg562
g99
sg555
g1340
sg49
g50
sS'trials_6.thisRepN'
p2704
I3
sS'trials_4.thisN'
p2705
I0
sS'trials_4.thisTrialN'
p2706
I0
sg565
g566
sa(dp2707
g567
g570
sg48
g12
sg35
g36
sg551
g554
sS'trials_4.thisRepN'
p2708
I0
sg578
g579
sS'trials_4.thisIndex'
p2709
g108
sg37
g47
sS'trials_6.thisN'
p2710
I135
sg563
g564
sg31
F0.8521509170532227
sS'trials_6.thisIndex'
p2711
g38
(g76
S'\x11\x00\x00\x00\x00\x00\x00\x00'
p2712
tp2713
Rp2714
sS'trials_6.thisTrialN'
p2715
I18
sg30
S'slash'
p2716
sg562
g153
sg555
g558
sg49
g50
sS'trials_6.thisRepN'
p2717
I3
sS'trials_4.thisN'
p2718
I0
sS'trials_4.thisTrialN'
p2719
I0
sg565
g566
sa(dp2720
g567
g1301
sg48
g12
sg35
g36
sg551
g1304
sS'trials_4.thisRepN'
p2721
I0
sg578
g1306
sS'trials_4.thisIndex'
p2722
g108
sg37
g47
sS'trials_6.thisN'
p2723
I136
sg563
g564
sg31
F2.636608839035034
sS'trials_6.thisIndex'
p2724
g38
(g76
S'#\x00\x00\x00\x00\x00\x00\x00'
p2725
tp2726
Rp2727
sS'trials_6.thisTrialN'
p2728
I19
sg30
S'z'
p2729
sg562
g129
sg555
g1317
sg49
g50
sS'trials_6.thisRepN'
p2730
I3
sS'trials_4.thisN'
p2731
I0
sS'trials_4.thisTrialN'
p2732
I0
sg565
g630
sa(dp2733
g567
g610
sg48
g12
sg35
g36
sg551
g613
sS'trials_4.thisRepN'
p2734
I0
sg578
g615
sS'trials_4.thisIndex'
p2735
g108
sg37
g47
sS'trials_6.thisN'
p2736
I137
sg563
g564
sg31
F0.46938419342041016
sS'trials_6.thisIndex'
p2737
g38
(g76
S'\r\x00\x00\x00\x00\x00\x00\x00'
p2738
tp2739
Rp2740
sS'trials_6.thisTrialN'
p2741
I20
sg30
S'slash'
p2742
sg562
g99
sg555
g626
sg49
g50
sS'trials_6.thisRepN'
p2743
I3
sS'trials_4.thisN'
p2744
I0
sS'trials_4.thisTrialN'
p2745
I0
sg565
g630
sa(dp2746
g567
g933
sg48
g12
sg35
g36
sg551
g936
sS'trials_4.thisRepN'
p2747
I0
sg578
g938
sS'trials_4.thisIndex'
p2748
g108
sg37
g47
sS'trials_6.thisN'
p2749
I138
sg563
g564
sg31
F1.1193089485168457
sS'trials_6.thisIndex'
p2750
g38
(g76
S'\x07\x00\x00\x00\x00\x00\x00\x00'
p2751
tp2752
Rp2753
sS'trials_6.thisTrialN'
p2754
I21
sg30
S'z'
p2755
sg562
g99
sg555
g949
sg49
g50
sS'trials_6.thisRepN'
p2756
I3
sS'trials_4.thisN'
p2757
I0
sS'trials_4.thisTrialN'
p2758
I0
sg565
g630
sa(dp2759
g567
g1393
sg48
g12
sg35
g36
sg551
g1396
sS'trials_4.thisRepN'
p2760
I0
sg578
g1398
sS'trials_4.thisIndex'
p2761
g108
sg37
g47
sS'trials_6.thisN'
p2762
I139
sg563
g564
sg31
F0.419421911239624
sS'trials_6.thisIndex'
p2763
g38
(g76
S'\x15\x00\x00\x00\x00\x00\x00\x00'
p2764
tp2765
Rp2766
sS'trials_6.thisTrialN'
p2767
I22
sg30
S'z'
p2768
sg562
g153
sg555
g1409
sg49
g50
sS'trials_6.thisRepN'
p2769
I3
sS'trials_4.thisN'
p2770
I0
sS'trials_4.thisTrialN'
p2771
I0
sg565
g630
sa(dp2772
g567
g749
sg48
g12
sg35
g36
sg551
g752
sS'trials_4.thisRepN'
p2773
I0
sg578
g754
sS'trials_4.thisIndex'
p2774
g108
sg37
g47
sS'trials_6.thisN'
p2775
I140
sg563
g564
sg31
F0.5193240642547607
sS'trials_6.thisIndex'
p2776
g38
(g76
S'\x18\x00\x00\x00\x00\x00\x00\x00'
p2777
tp2778
Rp2779
sS'trials_6.thisTrialN'
p2780
I23
sg30
S'slash'
p2781
sg562
g153
sg555
g765
sg49
g50
sS'trials_6.thisRepN'
p2782
I3
sS'trials_4.thisN'
p2783
I0
sS'trials_4.thisTrialN'
p2784
I0
sg565
g630
sa(dp2785
g567
g1117
sg48
g12
sg35
g36
sg551
g1120
sS'trials_4.thisRepN'
p2786
I0
sg578
g1122
sS'trials_4.thisIndex'
p2787
g108
sg37
g47
sS'trials_6.thisN'
p2788
I141
sg563
g564
sg31
F0.8024029731750488
sS'trials_6.thisIndex'
p2789
g38
(g76
S'\x03\x00\x00\x00\x00\x00\x00\x00'
p2790
tp2791
Rp2792
sS'trials_6.thisTrialN'
p2793
I24
sg30
S'slash'
p2794
sg562
g99
sg555
g1133
sg49
g50
sS'trials_6.thisRepN'
p2795
I3
sS'trials_4.thisN'
p2796
I0
sS'trials_4.thisTrialN'
p2797
I0
sg565
g566
sa(dp2798
g567
g864
sg48
g12
sg35
g36
sg551
g867
sS'trials_4.thisRepN'
p2799
I0
sg578
g869
sS'trials_4.thisIndex'
p2800
g108
sg37
g47
sS'trials_6.thisN'
p2801
I142
sg563
g564
sg31
F1.2675189971923828
sS'trials_6.thisIndex'
p2802
g38
(g76
S'\x1a\x00\x00\x00\x00\x00\x00\x00'
p2803
tp2804
Rp2805
sS'trials_6.thisTrialN'
p2806
I25
sg30
S'slash'
p2807
sg562
g153
sg555
g880
sg49
g50
sS'trials_6.thisRepN'
p2808
I3
sS'trials_4.thisN'
p2809
I0
sS'trials_4.thisTrialN'
p2810
I0
sg565
g630
sa(dp2811
g567
g1163
sg48
g12
sg35
g36
sg551
g1166
sS'trials_4.thisRepN'
p2812
I0
sg578
g1168
sS'trials_4.thisIndex'
p2813
g108
sg37
g47
sS'trials_6.thisN'
p2814
I143
sg563
g564
sg31
F0.6864490509033203
sS'trials_6.thisIndex'
p2815
g38
(g76
S'\x12\x00\x00\x00\x00\x00\x00\x00'
p2816
tp2817
Rp2818
sS'trials_6.thisTrialN'
p2819
I26
sg30
S'slash'
p2820
sg562
g153
sg555
g1179
sg49
g50
sS'trials_6.thisRepN'
p2821
I3
sS'trials_4.thisN'
p2822
I0
sS'trials_4.thisTrialN'
p2823
I0
sg565
g566
sa(dp2824
g567
g726
sg48
g12
sg35
g36
sg551
g729
sS'trials_4.thisRepN'
p2825
I0
sg578
g731
sS'trials_4.thisIndex'
p2826
g108
sg37
g47
sS'trials_6.thisN'
p2827
I144
sg563
g564
sg31
F0.8201549053192139
sS'trials_6.thisIndex'
p2828
g38
(g76
S'\n\x00\x00\x00\x00\x00\x00\x00'
p2829
tp2830
Rp2831
sS'trials_6.thisTrialN'
p2832
I27
sg30
S'z'
p2833
sg562
g99
sg555
g742
sg49
g50
sS'trials_6.thisRepN'
p2834
I3
sS'trials_4.thisN'
p2835
I0
sS'trials_4.thisTrialN'
p2836
I0
sg565
g630
sa(dp2837
g567
g1048
sg48
g12
sg35
g36
sg551
g1051
sS'trials_4.thisRepN'
p2838
I0
sg578
g1053
sS'trials_4.thisIndex'
p2839
g108
sg37
g47
sS'trials_6.thisN'
p2840
I145
sg563
g564
sg31
F1.1701910495758057
sS'trials_6.thisIndex'
p2841
g38
(g76
S'\x0f\x00\x00\x00\x00\x00\x00\x00'
p2842
tp2843
Rp2844
sS'trials_6.thisTrialN'
p2845
I28
sg30
S'slash'
p2846
sg562
g153
sg555
g1064
sg49
g50
sS'trials_6.thisRepN'
p2847
I3
sS'trials_4.thisN'
p2848
I0
sS'trials_4.thisTrialN'
p2849
I0
sg565
g566
sa(dp2850
g567
g634
sg48
g12
sg35
g36
sg551
g637
sS'trials_4.thisRepN'
p2851
I0
sg578
g639
sS'trials_4.thisIndex'
p2852
g108
sg37
g47
sS'trials_6.thisN'
p2853
I146
sg563
g564
sg31
F0.4517641067504883
sS'trials_6.thisIndex'
p2854
g38
(g76
S'\x1e\x00\x00\x00\x00\x00\x00\x00'
p2855
tp2856
Rp2857
sS'trials_6.thisTrialN'
p2858
I29
sg30
S'slash'
p2859
sg562
g129
sg555
g650
sg49
g50
sS'trials_6.thisRepN'
p2860
I3
sS'trials_4.thisN'
p2861
I0
sS'trials_4.thisTrialN'
p2862
I0
sg565
g566
sa(dp2863
g567
g887
sg48
g12
sg35
g36
sg551
g890
sS'trials_4.thisRepN'
p2864
I0
sg578
g892
sS'trials_4.thisIndex'
p2865
g108
sg37
g47
sS'trials_6.thisN'
p2866
I147
sg563
g564
sg31
F1.3024170398712158
sS'trials_6.thisIndex'
p2867
g38
(g76
S'\x01\x00\x00\x00\x00\x00\x00\x00'
p2868
tp2869
Rp2870
sS'trials_6.thisTrialN'
p2871
I30
sg30
S'slash'
p2872
sg562
g99
sg555
g903
sg49
g50
sS'trials_6.thisRepN'
p2873
I3
sS'trials_4.thisN'
p2874
I0
sS'trials_4.thisTrialN'
p2875
I0
sg565
g566
sa(dp2876
g567
g795
sg48
g12
sg35
g36
sg551
g798
sS'trials_4.thisRepN'
p2877
I0
sg578
g800
sS'trials_4.thisIndex'
p2878
g108
sg37
g47
sS'trials_6.thisN'
p2879
I148
sg563
g564
sg31
F0.5195810794830322
sS'trials_6.thisIndex'
p2880
g38
(g76
S'\x17\x00\x00\x00\x00\x00\x00\x00'
p2881
tp2882
Rp2883
sS'trials_6.thisTrialN'
p2884
I31
sg30
S'z'
p2885
sg562
g153
sg555
g811
sg49
g50
sS'trials_6.thisRepN'
p2886
I3
sS'trials_4.thisN'
p2887
I0
sS'trials_4.thisTrialN'
p2888
I0
sg565
g630
sa(dp2889
g567
g1416
sg48
g12
sg35
g36
sg551
g1419
sS'trials_4.thisRepN'
p2890
I0
sg578
g1421
sS'trials_4.thisIndex'
p2891
g108
sg37
g47
sS'trials_6.thisN'
p2892
I149
sg563
g564
sg31
F0.41994404792785645
sS'trials_6.thisIndex'
p2893
g38
(g76
S'"\x00\x00\x00\x00\x00\x00\x00'
p2894
tp2895
Rp2896
sS'trials_6.thisTrialN'
p2897
I32
sg30
S'slash'
p2898
sg562
g129
sg555
g1432
sg49
g50
sS'trials_6.thisRepN'
p2899
I3
sS'trials_4.thisN'
p2900
I0
sS'trials_4.thisTrialN'
p2901
I0
sg565
g566
sa(dp2902
g567
g956
sg48
g12
sg35
g36
sg551
g959
sS'trials_4.thisRepN'
p2903
I0
sg578
g961
sS'trials_4.thisIndex'
p2904
g108
sg37
g47
sS'trials_6.thisN'
p2905
I150
sg563
g564
sg31
F0.7843799591064453
sS'trials_6.thisIndex'
p2906
g38
(g76
S'\x05\x00\x00\x00\x00\x00\x00\x00'
p2907
tp2908
Rp2909
sS'trials_6.thisTrialN'
p2910
I33
sg30
S'z'
p2911
sg562
g99
sg555
g972
sg49
g50
sS'trials_6.thisRepN'
p2912
I3
sS'trials_4.thisN'
p2913
I0
sS'trials_4.thisTrialN'
p2914
I0
sg565
g566
sa(dp2915
g567
g1255
sg48
g12
sg35
g36
sg551
g1258
sS'trials_4.thisRepN'
p2916
I0
sg578
g1260
sS'trials_4.thisIndex'
p2917
g108
sg37
g47
sS'trials_6.thisN'
p2918
I151
sg563
g564
sg31
F0.48624610900878906
sS'trials_6.thisIndex'
p2919
g38
(g76
S'\x1c\x00\x00\x00\x00\x00\x00\x00'
p2920
tp2921
Rp2922
sS'trials_6.thisTrialN'
p2923
I34
sg30
S'slash'
p2924
sg562
g129
sg555
g1271
sg49
g50
sS'trials_6.thisRepN'
p2925
I3
sS'trials_4.thisN'
p2926
I0
sS'trials_4.thisTrialN'
p2927
I0
sg565
g606
sa(dp2928
g567
g1370
sg48
g12
sg35
g36
sg551
g1373
sS'trials_4.thisRepN'
p2929
I0
sg578
g1375
sS'trials_4.thisIndex'
p2930
g108
sg37
g47
sS'trials_6.thisN'
p2931
I152
sg563
g564
sg31
F0.3355259895324707
sS'trials_6.thisIndex'
p2932
g38
(g76
S'\x1f\x00\x00\x00\x00\x00\x00\x00'
p2933
tp2934
Rp2935
sS'trials_6.thisTrialN'
p2936
I35
sg30
S'slash'
p2937
sg562
g129
sg555
g1386
sg49
g50
sS'trials_6.thisRepN'
p2938
I3
sS'trials_4.thisN'
p2939
I0
sS'trials_4.thisTrialN'
p2940
I0
sg565
g566
sa(dp2941
g567
g586
sg48
g12
sg35
g36
sg551
g589
sS'trials_4.thisRepN'
p2942
I0
sg578
g591
sS'trials_4.thisIndex'
p2943
g108
sg37
g47
sS'trials_6.thisN'
p2944
I153
sg563
g564
sg31
F0.6695549488067627
sS'trials_6.thisIndex'
p2945
g38
(g76
S'\x00\x00\x00\x00\x00\x00\x00\x00'
p2946
tp2947
Rp2948
sS'trials_6.thisTrialN'
p2949
I36
sg30
S'slash'
p2950
sg562
g99
sg555
g602
sg49
g50
sS'trials_6.thisRepN'
p2951
I3
sS'trials_4.thisN'
p2952
I0
sS'trials_4.thisTrialN'
p2953
I0
sg565
g606
sa(dp2954
g567
g1140
sg48
g12
sg35
g36
sg551
g1143
sS'trials_4.thisRepN'
p2955
I0
sg578
g1145
sS'trials_4.thisIndex'
p2956
g108
sg37
g47
sS'trials_6.thisN'
p2957
I154
sg563
g564
sg31
F0.8032269477844238
sS'trials_6.thisIndex'
p2958
g38
(g76
S'!\x00\x00\x00\x00\x00\x00\x00'
p2959
tp2960
Rp2961
sS'trials_6.thisTrialN'
p2962
I37
sg30
S'slash'
p2963
sg562
g129
sg555
g1156
sg49
g50
sS'trials_6.thisRepN'
p2964
I3
sS'trials_4.thisN'
p2965
I0
sS'trials_4.thisTrialN'
p2966
I0
sg565
g566
sa(dp2967
g567
g1186
sg48
g12
sg35
g36
sg551
g1189
sS'trials_4.thisRepN'
p2968
I0
sg578
g1191
sS'trials_4.thisIndex'
p2969
g108
sg37
g47
sS'trials_6.thisN'
p2970
I155
sg563
g564
sg31
F0.2358090877532959
sS'trials_6.thisIndex'
p2971
g38
(g76
S'%\x00\x00\x00\x00\x00\x00\x00'
p2972
tp2973
Rp2974
sS'trials_6.thisTrialN'
p2975
I38
sg30
S'slash'
p2976
sg562
g129
sg555
g1202
sg49
g50
sS'trials_6.thisRepN'
p2977
I3
sS'trials_4.thisN'
p2978
I0
sS'trials_4.thisTrialN'
p2979
I0
sg565
g630
sa(dp2980
g567
g864
sg48
g12
sg35
g36
sg551
g867
sS'trials_4.thisRepN'
p2981
I0
sg578
g869
sS'trials_4.thisIndex'
p2982
g108
sg37
g47
sS'trials_6.thisN'
p2983
I156
sg563
g564
sg31
F0.6029729843139648
sS'trials_6.thisIndex'
p2984
g38
(g76
S'\x1a\x00\x00\x00\x00\x00\x00\x00'
p2985
tp2986
Rp2987
sS'trials_6.thisTrialN'
p2988
I0
sg30
S'slash'
p2989
sg562
g153
sg555
g880
sg49
g50
sS'trials_6.thisRepN'
p2990
I4
sS'trials_4.thisN'
p2991
I0
sS'trials_4.thisTrialN'
p2992
I0
sg565
g630
sa(dp2993
g567
g1163
sg48
g12
sg35
g36
sg551
g1166
sS'trials_4.thisRepN'
p2994
I0
sg578
g1168
sS'trials_4.thisIndex'
p2995
g108
sg37
g47
sS'trials_6.thisN'
p2996
I157
sg563
g564
sg31
F0.4192628860473633
sS'trials_6.thisIndex'
p2997
g38
(g76
S'\x12\x00\x00\x00\x00\x00\x00\x00'
p2998
tp2999
Rp3000
sS'trials_6.thisTrialN'
p3001
I1
sg30
S'slash'
p3002
sg562
g153
sg555
g1179
sg49
g50
sS'trials_6.thisRepN'
p3003
I4
sS'trials_4.thisN'
p3004
I0
sS'trials_4.thisTrialN'
p3005
I0
sg565
g566
sa(dp3006
g567
g1209
sg48
g12
sg35
g36
sg551
g1212
sS'trials_4.thisRepN'
p3007
I0
sg578
g1214
sS'trials_4.thisIndex'
p3008
g108
sg37
g47
sS'trials_6.thisN'
p3009
I158
sg563
g564
sg31
F0.18565893173217773
sS'trials_6.thisIndex'
p3010
g38
(g76
S'$\x00\x00\x00\x00\x00\x00\x00'
p3011
tp3012
Rp3013
sS'trials_6.thisTrialN'
p3014
I2
sg30
S'slash'
p3015
sg562
g129
sg555
g1225
sg49
g50
sS'trials_6.thisRepN'
p3016
I4
sS'trials_4.thisN'
p3017
I0
sS'trials_4.thisTrialN'
p3018
I0
sg565
g630
sa(dp3019
g567
g586
sg48
g12
sg35
g36
sg551
g589
sS'trials_4.thisRepN'
p3020
I0
sg578
g591
sS'trials_4.thisIndex'
p3021
g108
sg37
g47
sS'trials_6.thisN'
p3022
I159
sg563
g564
sg31
F0.2674698829650879
sS'trials_6.thisIndex'
p3023
g38
(g76
S'\x00\x00\x00\x00\x00\x00\x00\x00'
p3024
tp3025
Rp3026
sS'trials_6.thisTrialN'
p3027
I3
sg30
S'slash'
p3028
sg562
g99
sg555
g602
sg49
g50
sS'trials_6.thisRepN'
p3029
I4
sS'trials_4.thisN'
p3030
I0
sS'trials_4.thisTrialN'
p3031
I0
sg565
g606
sa(dp3032
g567
g1278
sg48
g12
sg35
g36
sg551
g1281
sS'trials_4.thisRepN'
p3033
I0
sg578
g1283
sS'trials_4.thisIndex'
p3034
g108
sg37
g47
sS'trials_6.thisN'
p3035
I160
sg563
g564
sg31
F0.16944599151611328
sS'trials_6.thisIndex'
p3036
g38
(g76
S'\x1d\x00\x00\x00\x00\x00\x00\x00'
p3037
tp3038
Rp3039
sS'trials_6.thisTrialN'
p3040
I4
sg30
S'slash'
p3041
sg562
g129
sg555
g1294
sg49
g50
sS'trials_6.thisRepN'
p3042
I4
sS'trials_4.thisN'
p3043
I0
sS'trials_4.thisTrialN'
p3044
I0
sg565
g566
sa(dp3045
g567
g1048
sg48
g12
sg35
g36
sg551
g1051
sS'trials_4.thisRepN'
p3046
I0
sg578
g1053
sS'trials_4.thisIndex'
p3047
g108
sg37
g47
sS'trials_6.thisN'
p3048
I161
sg563
g564
sg31
F0.6362841129302979
sS'trials_6.thisIndex'
p3049
g38
(g76
S'\x0f\x00\x00\x00\x00\x00\x00\x00'
p3050
tp3051
Rp3052
sS'trials_6.thisTrialN'
p3053
I5
sg30
S'slash'
p3054
sg562
g153
sg555
g1064
sg49
g50
sS'trials_6.thisRepN'
p3055
I4
sS'trials_4.thisN'
p3056
I0
sS'trials_4.thisTrialN'
p3057
I0
sg565
g566
sa(dp3058
g567
g979
sg48
g12
sg35
g36
sg551
g982
sS'trials_4.thisRepN'
p3059
I0
sg578
g984
sS'trials_4.thisIndex'
p3060
g108
sg37
g47
sS'trials_6.thisN'
p3061
I162
sg563
g564
sg31
F1.1527471542358398
sS'trials_6.thisIndex'
p3062
g38
(g76
S'\x06\x00\x00\x00\x00\x00\x00\x00'
p3063
tp3064
Rp3065
sS'trials_6.thisTrialN'
p3066
I6
sg30
S'z'
p3067
sg562
g99
sg555
g995
sg49
g50
sS'trials_6.thisRepN'
p3068
I4
sS'trials_4.thisN'
p3069
I0
sS'trials_4.thisTrialN'
p3070
I0
sg565
g566
sa(dp3071
g567
g1071
sg48
g12
sg35
g36
sg551
g1074
sS'trials_4.thisRepN'
p3072
I0
sg578
g1076
sS'trials_4.thisIndex'
p3073
g108
sg37
g47
sS'trials_6.thisN'
p3074
I163
sg563
g564
sg31
F3.104369878768921
sS'trials_6.thisIndex'
p3075
g38
(g76
S'\x10\x00\x00\x00\x00\x00\x00\x00'
p3076
tp3077
Rp3078
sS'trials_6.thisTrialN'
p3079
I7
sg30
S'slash'
p3080
sg562
g153
sg555
g1087
sg49
g50
sS'trials_6.thisRepN'
p3081
I4
sS'trials_4.thisN'
p3082
I0
sS'trials_4.thisTrialN'
p3083
I0
sg565
g566
sa(dp3084
g567
g933
sg48
g12
sg35
g36
sg551
g936
sS'trials_4.thisRepN'
p3085
I0
sg578
g938
sS'trials_4.thisIndex'
p3086
g108
sg37
g47
sS'trials_6.thisN'
p3087
I164
sg563
g564
sg31
F0.6197199821472168
sS'trials_6.thisIndex'
p3088
g38
(g76
S'\x07\x00\x00\x00\x00\x00\x00\x00'
p3089
tp3090
Rp3091
sS'trials_6.thisTrialN'
p3092
I8
sg30
S'z'
p3093
sg562
g99
sg555
g949
sg49
g50
sS'trials_6.thisRepN'
p3094
I4
sS'trials_4.thisN'
p3095
I0
sS'trials_4.thisTrialN'
p3096
I0
sg565
g630
sa(dp3097
g567
g1347
sg48
g12
sg35
g36
sg551
g1350
sS'trials_4.thisRepN'
p3098
I0
sg578
g1352
sS'trials_4.thisIndex'
p3099
g108
sg37
g47
sS'trials_6.thisN'
p3100
I165
sg563
g564
sg31
F0.6509149074554443
sS'trials_6.thisIndex'
p3101
g38
(g76
S'\x16\x00\x00\x00\x00\x00\x00\x00'
p3102
tp3103
Rp3104
sS'trials_6.thisTrialN'
p3105
I9
sg30
S'z'
p3106
sg562
g153
sg555
g1363
sg49
g50
sS'trials_6.thisRepN'
p3107
I4
sS'trials_4.thisN'
p3108
I0
sS'trials_4.thisTrialN'
p3109
I0
sg565
g630
sa(dp3110
g567
g1393
sg48
g12
sg35
g36
sg551
g1396
sS'trials_4.thisRepN'
p3111
I0
sg578
g1398
sS'trials_4.thisIndex'
p3112
g108
sg37
g47
sS'trials_6.thisN'
p3113
I166
sg563
g564
sg31
F0.6028661727905273
sS'trials_6.thisIndex'
p3114
g38
(g76
S'\x15\x00\x00\x00\x00\x00\x00\x00'
p3115
tp3116
Rp3117
sS'trials_6.thisTrialN'
p3118
I10
sg30
S'z'
p3119
sg562
g153
sg555
g1409
sg49
g50
sS'trials_6.thisRepN'
p3120
I4
sS'trials_4.thisN'
p3121
I0
sS'trials_4.thisTrialN'
p3122
I0
sg565
g630
sa(dp3123
g567
g680
sg48
g12
sg35
g36
sg551
g683
sS'trials_4.thisRepN'
p3124
I0
sg578
g685
sS'trials_4.thisIndex'
p3125
g108
sg37
g47
sS'trials_6.thisN'
p3126
I167
sg563
g564
sg31
F1.3189518451690674
sS'trials_6.thisIndex'
p3127
g38
(g76
S'\t\x00\x00\x00\x00\x00\x00\x00'
p3128
tp3129
Rp3130
sS'trials_6.thisTrialN'
p3131
I11
sg30
S'z'
p3132
sg562
g99
sg555
g696
sg49
g50
sS'trials_6.thisRepN'
p3133
I4
sS'trials_4.thisN'
p3134
I0
sS'trials_4.thisTrialN'
p3135
I0
sg565
g630
sa(dp3136
g567
g1002
sg48
g12
sg35
g36
sg551
g1005
sS'trials_4.thisRepN'
p3137
I0
sg578
g1007
sS'trials_4.thisIndex'
p3138
g108
sg37
g47
sS'trials_6.thisN'
p3139
I168
sg563
g564
sg31
F0.43671607971191406
sS'trials_6.thisIndex'
p3140
g38
(g76
S'\x1b\x00\x00\x00\x00\x00\x00\x00'
p3141
tp3142
Rp3143
sS'trials_6.thisTrialN'
p3144
I12
sg30
S'slash'
p3145
sg562
g153
sg555
g1018
sg49
g50
sS'trials_6.thisRepN'
p3146
I4
sS'trials_4.thisN'
p3147
I0
sS'trials_4.thisTrialN'
p3148
I0
sg565
g630
sa(dp3149
g567
g1324
sg48
g12
sg35
g36
sg551
g1327
sS'trials_4.thisRepN'
p3150
I0
sg578
g1329
sS'trials_4.thisIndex'
p3151
g108
sg37
g47
sS'trials_6.thisN'
p3152
I169
sg563
g564
sg31
F0.5864028930664062
sS'trials_6.thisIndex'
p3153
g38
(g76
S'\x02\x00\x00\x00\x00\x00\x00\x00'
p3154
tp3155
Rp3156
sS'trials_6.thisTrialN'
p3157
I13
sg30
S'slash'
p3158
sg562
g99
sg555
g1340
sg49
g50
sS'trials_6.thisRepN'
p3159
I4
sS'trials_4.thisN'
p3160
I0
sS'trials_4.thisTrialN'
p3161
I0
sg565
g566
sa(dp3162
g567
g570
sg48
g12
sg35
g36
sg551
g554
sS'trials_4.thisRepN'
p3163
I0
sg578
g579
sS'trials_4.thisIndex'
p3164
g108
sg37
g47
sS'trials_6.thisN'
p3165
I170
sg563
g564
sg31
F1.9045698642730713
sS'trials_6.thisIndex'
p3166
g38
(g76
S'\x11\x00\x00\x00\x00\x00\x00\x00'
p3167
tp3168
Rp3169
sS'trials_6.thisTrialN'
p3170
I14
sg30
S'slash'
p3171
sg562
g153
sg555
g558
sg49
g50
sS'trials_6.thisRepN'
p3172
I4
sS'trials_4.thisN'
p3173
I0
sS'trials_4.thisTrialN'
p3174
I0
sg565
g566
sa(dp3175
g567
g1094
sg48
g12
sg35
g36
sg551
g1097
sS'trials_4.thisRepN'
p3176
I0
sg578
g1099
sS'trials_4.thisIndex'
p3177
g108
sg37
g47
sS'trials_6.thisN'
p3178
I171
sg563
g564
sg31
F0.5195329189300537
sS'trials_6.thisIndex'
p3179
g38
(g76
S'\x0e\x00\x00\x00\x00\x00\x00\x00'
p3180
tp3181
Rp3182
sS'trials_6.thisTrialN'
p3183
I15
sg30
S'slash'
p3184
sg562
g153
sg555
g1110
sg49
g50
sS'trials_6.thisRepN'
p3185
I4
sS'trials_4.thisN'
p3186
I0
sS'trials_4.thisTrialN'
p3187
I0
sg565
g606
sa(dp3188
g567
g887
sg48
g12
sg35
g36
sg551
g890
sS'trials_4.thisRepN'
p3189
I0
sg578
g892
sS'trials_4.thisIndex'
p3190
g108
sg37
g47
sS'trials_6.thisN'
p3191
I172
sg563
g564
sg31
F0.886577844619751
sS'trials_6.thisIndex'
p3192
g38
(g76
S'\x01\x00\x00\x00\x00\x00\x00\x00'
p3193
tp3194
Rp3195
sS'trials_6.thisTrialN'
p3196
I16
sg30
S'slash'
p3197
sg562
g99
sg555
g903
sg49
g50
sS'trials_6.thisRepN'
p3198
I4
sS'trials_4.thisN'
p3199
I0
sS'trials_4.thisTrialN'
p3200
I0
sg565
g566
sa(dp3201
g567
g910
sg48
g12
sg35
g36
sg551
g913
sS'trials_4.thisRepN'
p3202
I0
sg578
g915
sS'trials_4.thisIndex'
p3203
g108
sg37
g47
sS'trials_6.thisN'
p3204
I173
sg563
g564
sg31
F0.18576407432556152
sS'trials_6.thisIndex'
p3205
g38
(g76
S'\x0c\x00\x00\x00\x00\x00\x00\x00'
p3206
tp3207
Rp3208
sS'trials_6.thisTrialN'
p3209
I17
sg30
S'slash'
p3210
sg562
g99
sg555
g926
sg49
g50
sS'trials_6.thisRepN'
p3211
I4
sS'trials_4.thisN'
p3212
I0
sS'trials_4.thisTrialN'
p3213
I0
sg565
g630
sa(dp3214
g567
g703
sg48
g12
sg35
g36
sg551
g706
sS'trials_4.thisRepN'
p3215
I0
sg578
g708
sS'trials_4.thisIndex'
p3216
g108
sg37
g47
sS'trials_6.thisN'
p3217
I174
sg563
g564
sg31
F0.3198261260986328
sS'trials_6.thisIndex'
p3218
g38
(g76
S'\x19\x00\x00\x00\x00\x00\x00\x00'
p3219
tp3220
Rp3221
sS'trials_6.thisTrialN'
p3222
I18
sg30
S'slash'
p3223
sg562
g153
sg555
g719
sg49
g50
sS'trials_6.thisRepN'
p3224
I4
sS'trials_4.thisN'
p3225
I0
sS'trials_4.thisTrialN'
p3226
I0
sg565
g630
sa(dp3227
g567
g956
sg48
g12
sg35
g36
sg551
g959
sS'trials_4.thisRepN'
p3228
I0
sg578
g961
sS'trials_4.thisIndex'
p3229
g108
sg37
g47
sS'trials_6.thisN'
p3230
I175
sg563
g564
sg31
F1.0533738136291504
sS'trials_6.thisIndex'
p3231
g38
(g76
S'\x05\x00\x00\x00\x00\x00\x00\x00'
p3232
tp3233
Rp3234
sS'trials_6.thisTrialN'
p3235
I19
sg30
S'z'
p3236
sg562
g99
sg555
g972
sg49
g50
sS'trials_6.thisRepN'
p3237
I4
sS'trials_4.thisN'
p3238
I0
sS'trials_4.thisTrialN'
p3239
I0
sg565
g566
sa(dp3240
g567
g795
sg48
g12
sg35
g36
sg551
g798
sS'trials_4.thisRepN'
p3241
I0
sg578
g800
sS'trials_4.thisIndex'
p3242
g108
sg37
g47
sS'trials_6.thisN'
p3243
I176
sg563
g564
sg31
F0.5029590129852295
sS'trials_6.thisIndex'
p3244
g38
(g76
S'\x17\x00\x00\x00\x00\x00\x00\x00'
p3245
tp3246
Rp3247
sS'trials_6.thisTrialN'
p3248
I20
sg30
S'slash'
p3249
sg562
g153
sg555
g811
sg49
g50
sS'trials_6.thisRepN'
p3250
I4
sS'trials_4.thisN'
p3251
I0
sS'trials_4.thisTrialN'
p3252
I0
sg565
g630
sa(dp3253
g567
g772
sg48
g12
sg35
g36
sg551
g775
sS'trials_4.thisRepN'
p3254
I0
sg578
g777
sS'trials_4.thisIndex'
p3255
g108
sg37
g47
sS'trials_6.thisN'
p3256
I177
sg563
g564
sg31
F0.536431074142456
sS'trials_6.thisIndex'
p3257
g38
(g76
S'&\x00\x00\x00\x00\x00\x00\x00'
p3258
tp3259
Rp3260
sS'trials_6.thisTrialN'
p3261
I21
sg30
S'slash'
p3262
sg562
g129
sg555
g788
sg49
g50
sS'trials_6.thisRepN'
p3263
I4
sS'trials_4.thisN'
p3264
I0
sS'trials_4.thisTrialN'
p3265
I0
sg565
g630
sa(dp3266
g567
g749
sg48
g12
sg35
g36
sg551
g752
sS'trials_4.thisRepN'
p3267
I0
sg578
g754
sS'trials_4.thisIndex'
p3268
g108
sg37
g47
sS'trials_6.thisN'
p3269
I178
sg563
g564
sg31
F0.5698981285095215
sS'trials_6.thisIndex'
p3270
g38
(g76
S'\x18\x00\x00\x00\x00\x00\x00\x00'
p3271
tp3272
Rp3273
sS'trials_6.thisTrialN'
p3274
I22
sg30
S'z'
p3275
sg562
g153
sg555
g765
sg49
g50
sS'trials_6.thisRepN'
p3276
I4
sS'trials_4.thisN'
p3277
I0
sS'trials_4.thisTrialN'
p3278
I0
sg565
g630
sa(dp3279
g567
g1140
sg48
g12
sg35
g36
sg551
g1143
sS'trials_4.thisRepN'
p3280
I0
sg578
g1145
sS'trials_4.thisIndex'
p3281
g108
sg37
g47
sS'trials_6.thisN'
p3282
I179
sg563
g564
sg31
F0.3865039348602295
sS'trials_6.thisIndex'
p3283
g38
(g76
S'!\x00\x00\x00\x00\x00\x00\x00'
p3284
tp3285
Rp3286
sS'trials_6.thisTrialN'
p3287
I23
sg30
S'slash'
p3288
sg562
g129
sg555
g1156
sg49
g50
sS'trials_6.thisRepN'
p3289
I4
sS'trials_4.thisN'
p3290
I0
sS'trials_4.thisTrialN'
p3291
I0
sg565
g566
sa(dp3292
g567
g726
sg48
g12
sg35
g36
sg551
g729
sS'trials_4.thisRepN'
p3293
I0
sg578
g731
sS'trials_4.thisIndex'
p3294
g108
sg37
g47
sS'trials_6.thisN'
p3295
I180
sg563
g564
sg31
F0.9684810638427734
sS'trials_6.thisIndex'
p3296
g38
(g76
S'\n\x00\x00\x00\x00\x00\x00\x00'
p3297
tp3298
Rp3299
sS'trials_6.thisTrialN'
p3300
I24
sg30
S'z'
p3301
sg562
g99
sg555
g742
sg49
g50
sS'trials_6.thisRepN'
p3302
I4
sS'trials_4.thisN'
p3303
I0
sS'trials_4.thisTrialN'
p3304
I0
sg565
g630
sa(dp3305
g567
g1232
sg48
g12
sg35
g36
sg551
g1235
sS'trials_4.thisRepN'
p3306
I0
sg578
g1237
sS'trials_4.thisIndex'
p3307
g108
sg37
g47
sS'trials_6.thisN'
p3308
I181
sg563
g564
sg31
F0.868865966796875
sS'trials_6.thisIndex'
p3309
g38
(g76
S'\x13\x00\x00\x00\x00\x00\x00\x00'
p3310
tp3311
Rp3312
sS'trials_6.thisTrialN'
p3313
I25
sg30
S'slash'
p3314
sg562
g153
sg555
g1248
sg49
g50
sS'trials_6.thisRepN'
p3315
I4
sS'trials_4.thisN'
p3316
I0
sS'trials_4.thisTrialN'
p3317
I0
sg565
g566
sa(dp3318
g567
g818
sg48
g12
sg35
g36
sg551
g821
sS'trials_4.thisRepN'
p3319
I0
sg578
g823
sS'trials_4.thisIndex'
p3320
g108
sg37
g47
sS'trials_6.thisN'
p3321
I182
sg563
g564
sg31
F0.3862318992614746
sS'trials_6.thisIndex'
p3322
g38
(g76
S'\x08\x00\x00\x00\x00\x00\x00\x00'
p3323
tp3324
Rp3325
sS'trials_6.thisTrialN'
p3326
I26
sg30
S'z'
p3327
sg562
g99
sg555
g834
sg49
g50
sS'trials_6.thisRepN'
p3328
I4
sS'trials_4.thisN'
p3329
I0
sS'trials_4.thisTrialN'
p3330
I0
sg565
g630
sa(dp3331
g567
g610
sg48
g12
sg35
g36
sg551
g613
sS'trials_4.thisRepN'
p3332
I0
sg578
g615
sS'trials_4.thisIndex'
p3333
g108
sg37
g47
sS'trials_6.thisN'
p3334
I183
sg563
g564
sg31
F0.3364849090576172
sS'trials_6.thisIndex'
p3335
g38
(g76
S'\r\x00\x00\x00\x00\x00\x00\x00'
p3336
tp3337
Rp3338
sS'trials_6.thisTrialN'
p3339
I27
sg30
S'slash'
p3340
sg562
g99
sg555
g626
sg49
g50
sS'trials_6.thisRepN'
p3341
I4
sS'trials_4.thisN'
p3342
I0
sS'trials_4.thisTrialN'
p3343
I0
sg565
g630
sa(dp3344
g567
g841
sg48
g12
sg35
g36
sg551
g844
sS'trials_4.thisRepN'
p3345
I0
sg578
g846
sS'trials_4.thisIndex'
p3346
g108
sg37
g47
sS'trials_6.thisN'
p3347
I184
sg563
g564
sg31
F0.33594298362731934
sS'trials_6.thisIndex'
p3348
g38
(g76
S' \x00\x00\x00\x00\x00\x00\x00'
p3349
tp3350
Rp3351
sS'trials_6.thisTrialN'
p3352
I28
sg30
S'slash'
p3353
sg562
g129
sg555
g857
sg49
g50
sS'trials_6.thisRepN'
p3354
I4
sS'trials_4.thisN'
p3355
I0
sS'trials_4.thisTrialN'
p3356
I0
sg565
g566
sa(dp3357
g567
g1439
sg48
g12
sg35
g36
sg551
g1442
sS'trials_4.thisRepN'
p3358
I0
sg578
g1444
sS'trials_4.thisIndex'
p3359
g108
sg37
g47
sS'trials_6.thisN'
p3360
I185
sg563
g564
sg31
F0.8696689605712891
sS'trials_6.thisIndex'
p3361
g38
(g76
S'\x04\x00\x00\x00\x00\x00\x00\x00'
p3362
tp3363
Rp3364
sS'trials_6.thisTrialN'
p3365
I29
sg30
S'slash'
p3366
sg562
g99
sg555
g1455
sg49
g50
sS'trials_6.thisRepN'
p3367
I4
sS'trials_4.thisN'
p3368
I0
sS'trials_4.thisTrialN'
p3369
I0
sg565
g566
sa(dp3370
g567
g1025
sg48
g12
sg35
g36
sg551
g1028
sS'trials_4.thisRepN'
p3371
I0
sg578
g1030
sS'trials_4.thisIndex'
p3372
g108
sg37
g47
sS'trials_6.thisN'
p3373
I186
sg563
g564
sg31
F0.9527411460876465
sS'trials_6.thisIndex'
p3374
g38
(g76
S'\x14\x00\x00\x00\x00\x00\x00\x00'
p3375
tp3376
Rp3377
sS'trials_6.thisTrialN'
p3378
I30
sg30
S'slash'
p3379
sg562
g153
sg555
g1041
sg49
g50
sS'trials_6.thisRepN'
p3380
I4
sS'trials_4.thisN'
p3381
I0
sS'trials_4.thisTrialN'
p3382
I0
sg565
g566
sa(dp3383
g567
g1370
sg48
g12
sg35
g36
sg551
g1373
sS'trials_4.thisRepN'
p3384
I0
sg578
g1375
sS'trials_4.thisIndex'
p3385
g108
sg37
g47
sS'trials_6.thisN'
p3386
I187
sg563
g564
sg31
F0.4185600280761719
sS'trials_6.thisIndex'
p3387
g38
(g76
S'\x1f\x00\x00\x00\x00\x00\x00\x00'
p3388
tp3389
Rp3390
sS'trials_6.thisTrialN'
p3391
I31
sg30
S'slash'
p3392
sg562
g129
sg555
g1386
sg49
g50
sS'trials_6.thisRepN'
p3393
I4
sS'trials_4.thisN'
p3394
I0
sS'trials_4.thisTrialN'
p3395
I0
sg565
g566
sa(dp3396
g567
g634
sg48
g12
sg35
g36
sg551
g637
sS'trials_4.thisRepN'
p3397
I0
sg578
g639
sS'trials_4.thisIndex'
p3398
g108
sg37
g47
sS'trials_6.thisN'
p3399
I188
sg563
g564
sg31
F0.13601112365722656
sS'trials_6.thisIndex'
p3400
g38
(g76
S'\x1e\x00\x00\x00\x00\x00\x00\x00'
p3401
tp3402
Rp3403
sS'trials_6.thisTrialN'
p3404
I32
sg30
S'slash'
p3405
sg562
g129
sg555
g650
sg49
g50
sS'trials_6.thisRepN'
p3406
I4
sS'trials_4.thisN'
p3407
I0
sS'trials_4.thisTrialN'
p3408
I0
sg565
g566
sa(dp3409
g567
g1186
sg48
g12
sg35
g36
sg551
g1189
sS'trials_4.thisRepN'
p3410
I0
sg578
g1191
sS'trials_4.thisIndex'
p3411
g108
sg37
g47
sS'trials_6.thisN'
p3412
I189
sg563
g564
sg31
F0.11934900283813477
sS'trials_6.thisIndex'
p3413
g38
(g76
S'%\x00\x00\x00\x00\x00\x00\x00'
p3414
tp3415
Rp3416
sS'trials_6.thisTrialN'
p3417
I33
sg30
S'slash'
p3418
sg562
g129
sg555
g1202
sg49
g50
sS'trials_6.thisRepN'
p3419
I4
sS'trials_4.thisN'
p3420
I0
sS'trials_4.thisTrialN'
p3421
I0
sg565
g630
sa(dp3422
g567
g1255
sg48
g12
sg35
g36
sg551
g1258
sS'trials_4.thisRepN'
p3423
I0
sg578
g1260
sS'trials_4.thisIndex'
p3424
g108
sg37
g47
sS'trials_6.thisN'
p3425
I190
sg563
g564
sg31
F0.3339829444885254
sS'trials_6.thisIndex'
p3426
g38
(g76
S'\x1c\x00\x00\x00\x00\x00\x00\x00'
p3427
tp3428
Rp3429
sS'trials_6.thisTrialN'
p3430
I34
sg30
S'slash'
p3431
sg562
g129
sg555
g1271
sg49
g50
sS'trials_6.thisRepN'
p3432
I4
sS'trials_4.thisN'
p3433
I0
sS'trials_4.thisTrialN'
p3434
I0
sg565
g606
sa(dp3435
g567
g1416
sg48
g12
sg35
g36
sg551
g1419
sS'trials_4.thisRepN'
p3436
I0
sg578
g1421
sS'trials_4.thisIndex'
p3437
g108
sg37
g47
sS'trials_6.thisN'
p3438
I191
sg563
g564
sg31
F0.30297112464904785
sS'trials_6.thisIndex'
p3439
g38
(g76
S'"\x00\x00\x00\x00\x00\x00\x00'
p3440
tp3441
Rp3442
sS'trials_6.thisTrialN'
p3443
I35
sg30
S'slash'
p3444
sg562
g129
sg555
g1432
sg49
g50
sS'trials_6.thisRepN'
p3445
I4
sS'trials_4.thisN'
p3446
I0
sS'trials_4.thisTrialN'
p3447
I0
sg565
g566
sa(dp3448
g567
g1117
sg48
g12
sg35
g36
sg551
g1120
sS'trials_4.thisRepN'
p3449
I0
sg578
g1122
sS'trials_4.thisIndex'
p3450
g108
sg37
g47
sS'trials_6.thisN'
p3451
I192
sg563
g564
sg31
F1.3363850116729736
sS'trials_6.thisIndex'
p3452
g38
(g76
S'\x03\x00\x00\x00\x00\x00\x00\x00'
p3453
tp3454
Rp3455
sS'trials_6.thisTrialN'
p3456
I36
sg30
S'slash'
p3457
sg562
g99
sg555
g1133
sg49
g50
sS'trials_6.thisRepN'
p3458
I4
sS'trials_4.thisN'
p3459
I0
sS'trials_4.thisTrialN'
p3460
I0
sg565
g566
sa(dp3461
g567
g1301
sg48
g12
sg35
g36
sg551
g1304
sS'trials_4.thisRepN'
p3462
I0
sg578
g1306
sS'trials_4.thisIndex'
p3463
g108
sg37
g47
sS'trials_6.thisN'
p3464
I193
sg563
g564
sg31
F0.4025278091430664
sS'trials_6.thisIndex'
p3465
g38
(g76
S'#\x00\x00\x00\x00\x00\x00\x00'
p3466
tp3467
Rp3468
sS'trials_6.thisTrialN'
p3469
I37
sg30
S'z'
p3470
sg562
g129
sg555
g1317
sg49
g50
sS'trials_6.thisRepN'
p3471
I4
sS'trials_4.thisN'
p3472
I0
sS'trials_4.thisTrialN'
p3473
I0
sg565
g630
sa(dp3474
g567
g657
sg48
g12
sg35
g36
sg551
g660
sS'trials_4.thisRepN'
p3475
I0
sg578
g662
sS'trials_4.thisIndex'
p3476
g108
sg37
g47
sS'trials_6.thisN'
p3477
I194
sg563
g564
sg31
F0.7026867866516113
sS'trials_6.thisIndex'
p3478
g38
(g76
S'\x0b\x00\x00\x00\x00\x00\x00\x00'
p3479
tp3480
Rp3481
sS'trials_6.thisTrialN'
p3482
I38
sg30
S'slash'
p3483
sg562
g99
sg555
g673
sg49
g50
sS'trials_6.thisRepN'
p3484
I4
sS'trials_4.thisN'
p3485
I0
sS'trials_4.thisTrialN'
p3486
I0
sg565
g630
sa(dp3487
g49
g50
sS'trials_4.thisRepN'
p3488
I0
sS'trials_4.thisIndex'
p3489
g108
sg37
g47
sg48
g12
sg35
g36
sS'trials_4.thisN'
p3490
I0
sS'trials_4.thisTrialN'
p3491
I0
sasS'loops'
p3492
(lp3493
g0
(cpsychopy.data.trial
TrialHandler
p3494
g2
Ntp3495
Rp3496
(dp3497
S'origin'
p3498
NsS'thisTrial'
p3499
(lp3500
sS'_exp'
p3501
I4575251664
sg11
S'trials_7'
p3502
sg6
I-1
sS'thisRepN'
p3503
I1
sg32
I01
sg33
g34
sS'data'
p3504
g0
(cpsychopy.data.base
DataHandler
p3505
c__builtin__
dict
p3506
(dp3507
g21
cnumpy.core.multiarray
_reconstruct
p3508
(cnumpy
ndarray
p3509
(I0
tp3510
S'b'
p3511
tp3512
Rp3513
(I1
(I1
I1
tp3514
g39
(S'O8'
p3515
I0
I1
tp3516
Rp3517
(I3
S'|'
p3518
NNNI-1
I-1
I63
tp3519
bI00
(lp3520
g71
atp3521
bsS'ran'
p3522
cnumpy.ma.core
_mareconstruct
p3523
(cnumpy.ma.core
MaskedArray
p3524
g3509
(I0
tp3525
g3511
tp3526
Rp3527
(I1
(I1
I1
tp3528
g39
(S'f4'
p3529
I0
I1
tp3530
Rp3531
(I3
S'<'
p3532
NNNI-1
I-1
I0
tp3533
bI00
S'\x00\x00\x80?'
p3534
S'\x00'
p3535
Ntp3536
bsg18
g3523
(g3524
g3509
g3525
g3511
tp3537
Rp3538
(I1
(I1
I1
tp3539
g3531
I00
S'@\x15o?'
p3540
g3535
Ntp3541
bsg20
g3523
(g3524
g3509
g3525
g3511
tp3542
Rp3543
(I1
(I1
I1
tp3544
g3531
I00
S'\xb6kR@'
p3545
g3535
Ntp3546
bsg17
g3508
(g3509
(I0
tp3547
g3511
tp3548
Rp3549
(I1
(I1
I1
tp3550
g3517
I00
(lp3551
g82
atp3552
bsg15
g3508
(g3509
(I0
tp3553
g3511
tp3554
Rp3555
(I1
(I1
I1
tp3556
g3517
I00
(lp3557
g83
atp3558
bsg22
g3523
(g3524
g3509
g3525
g3511
tp3559
Rp3560
(I1
(I1
I1
tp3561
g3531
I00
S'\x90\xc1\x89@'
p3562
g3535
Ntp3563
bsg19
g3508
(g3509
(I0
tp3564
g3511
tp3565
Rp3566
(I1
(I1
I1
tp3567
g3517
I00
(lp3568
g86
atp3569
bsS'order'
p3570
g3523
(g3524
g3509
g3525
g3511
tp3571
Rp3572
(I1
(I1
I1
tp3573
g3531
I00
S'\x00\x00\x00\x00'
p3574
g3535
Ntp3575
bsg16
g3523
(g3524
g3509
g3525
g3511
tp3576
Rp3577
(I1
(I1
I1
tp3578
g3531
I00
S'0R~A'
p3579
g3535
Ntp3580
bstp3581
Rp3582
(dp3583
S'isNumeric'
p3584
(dp3585
g21
I00
sg3522
I01
sg18
I01
sg20
I01
sg17
I00
sg15
I00
sg22
I01
sg19
I00
sg3570
I01
sg16
I01
ssS'trials'
p3586
g3496
sS'dataTypes'
p3587
(lp3588
g3522
ag3570
ag15
ag16
ag17
ag18
ag19
ag20
ag21
ag22
asS'dataShape'
p3589
(lp3590
I1
aI1
asbsS'method'
p3591
S'random'
p3592
sS'sequenceIndices'
p3593
g3508
(g3509
(I0
tp3594
g3511
tp3595
Rp3596
(I1
(I1
I1
tp3597
g76
I00
S'\x00\x00\x00\x00\x00\x00\x00\x00'
p3598
tp3599
bsS'finished'
p3600
I01
sS'nReps'
p3601
I1
sS'nRemaining'
p3602
I-1
sS'trialList'
p3603
(lp3604
NasS'seed'
p3605
NsS'thisIndex'
p3606
g81
sS'thisN'
p3607
I1
sS'thisTrialN'
p3608
I0
sS'nTotal'
p3609
I1
sbag0
(g3494
g2
Ntp3610
Rp3611
(dp3612
g3498
Nsg3499
(lp3613
sg3501
I4575251664
sg11
S'trials_3'
p3614
sg6
I-1
sg3503
I0
sg32
I01
sg33
g34
sg3504
g0
(g3505
g3506
(dp3615
g3522
g3523
(g3524
g3509
g3525
g3511
tp3616
Rp3617
(I1
(I1
I0
tp3618
g3531
I00
g57
g57
Ntp3619
bsg3570
g3523
(g3524
g3509
g3525
g3511
tp3620
Rp3621
(I1
(I1
I0
tp3622
g3531
I00
g57
g57
Ntp3623
bstp3624
Rp3625
(dp3626
g3584
(dp3627
g3522
I01
sg3570
I01
ssg3586
g3611
sg3587
(lp3628
g3522
ag3570
asg3589
(lp3629
I1
aI0
asbsg3591
g3592
sg3593
g3508
(g3509
(I0
tp3630
g3511
tp3631
Rp3632
(I1
(I0
tp3633
g42
I00
g57
tp3634
bsg3600
I01
sg3601
I0
sg3602
I-1
sg3603
(lp3635
Nasg3605
Nsg3606
I0
sg3607
I0
sg3608
I0
sg3609
I0
sbag0
(g3494
g2
Ntp3636
Rp3637
(dp3638
g3498
Nsg3499
(lp3639
sg3501
I4575251664
sg11
S'trials_4'
p3640
sg6
I-1
sg3503
I1
sg32
I01
sg33
g34
sg3504
g0
(g3505
g3506
(dp3641
g3522
g3523
(g3524
g3509
g3525
g3511
tp3642
Rp3643
(I1
(I1
I1
tp3644
g3531
I00
S'\x00\x00\x80?'
p3645
g3535
Ntp3646
bsg29
g3523
(g3524
g3509
g3525
g3511
tp3647
Rp3648
(I1
(I1
I1
tp3649
g3531
I00
S'\x9b\xac\xe7@'
p3650
g3535
Ntp3651
bsg3570
g3523
(g3524
g3509
g3525
g3511
tp3652
Rp3653
(I1
(I1
I1
tp3654
g3531
I00
S'\x00\x00\x00\x00'
p3655
g3535
Ntp3656
bsg28
g3508
(g3509
(I0
tp3657
g3511
tp3658
Rp3659
(I1
(I1
I1
tp3660
g3517
I00
(lp3661
g577
atp3662
bstp3663
Rp3664
(dp3665
g3584
(dp3666
g3522
I01
sg29
I01
sg3570
I01
sg28
I00
ssg3586
g3637
sg3587
(lp3667
g3522
ag3570
ag28
ag29
asg3589
(lp3668
I1
aI1
asbsg3591
g3592
sg3593
g3508
(g3509
(I0
tp3669
g3511
tp3670
Rp3671
(I1
(I1
I1
tp3672
g76
I00
S'\x00\x00\x00\x00\x00\x00\x00\x00'
p3673
tp3674
bsg3600
I01
sg3601
I1
sg3602
I-1
sg3603
(lp3675
Nasg3605
Nsg3606
g108
sg3607
I1
sg3608
I0
sg3609
I1
sbag0
(g3494
g2
Ntp3676
Rp3677
(dp3678
g3498
Nsg3499
(lp3679
sg3501
I4575251664
sg11
S'trials_5'
p3680
sg6
I-1
sg3503
I5
sg32
I01
sg33
g34
sg3504
g0
(g3505
g3506
(dp3681
g3522
g3523
(g3524
g3509
g3525
g3511
tp3682
Rp3683
(I1
(I6
I5
tp3684
g3531
I00
S'\x00\x00\x80?\x00\x00\x80?\x00\x00\x80?\x00\x00\x80?\x00\x00\x80?\x00\x00\x80?\x00\x00\x80?\x00\x00\x80?\x00\x00\x80?\x00\x00\x80?\x00\x00\x80?\x00\x00\x80?\x00\x00\x80?\x00\x00\x80?\x00\x00\x80?\x00\x00\x80?\x00\x00\x80?\x00\x00\x80?\x00\x00\x80?\x00\x00\x80?\x00\x00\x80?\x00\x00\x80?\x00\x00\x80?\x00\x00\x80?\x00\x00\x80?\x00\x00\x80?\x00\x00\x80?\x00\x00\x80?\x00\x00\x80?\x00\x00\x80?'
p3685
S'\x00\x00\x00\x00\x00\x00\x00\x00\x00\x00\x00\x00\x00\x00\x00\x00\x00\x00\x00\x00\x00\x00\x00\x00\x00\x00\x00\x00\x00\x00'
p3686
Ntp3687
bsg25
g3508
(g3509
(I0
tp3688
g3511
tp3689
Rp3690
(I1
(I6
I5
tp3691
g3517
I00
(lp3692
g200
ag252
ag317
ag395
ag512
ag97
ag304
ag356
ag408
ag486
ag151
ag278
ag330
ag460
ag538
ag223
ag291
ag369
ag421
ag473
ag177
ag265
ag382
ag434
ag499
ag127
ag239
ag343
ag447
ag525
atp3693
bsg26
g3523
(g3524
g3509
g3525
g3511
tp3694
Rp3695
(I1
(I6
I5
tp3696
g3531
I00
S'\x00\x00\x80?\x00\x00\x80?\x00\x00\x80?\x00\x00\x80?\x00\x00\x80?\x00\x00\x80?\x00\x00\x80?\x00\x00\x80?\x00\x00\x80?\x00\x00\x80?\x00\x00\x80?\x00\x00\x80?\x00\x00\x80?\x00\x00\x80?\x00\x00\x80?\x00\x00\x80?\x00\x00\x80?\x00\x00\x80?\x00\x00\x80?\x00\x00\x80?\x00\x00\x80?\x00\x00\x80?\x00\x00\x80?\x00\x00\x80?\x00\x00\x80?\x00\x00\x80?\x00\x00\x80?\x00\x00\x80?\x00\x00\x80?\x00\x00\x80?'
p3697
S'\x00\x00\x00\x00\x00\x00\x00\x00\x00\x00\x00\x00\x00\x00\x00\x00\x00\x00\x00\x00\x00\x00\x00\x00\x00\x00\x00\x00\x00\x00'
p3698
Ntp3699
bsg3570
g3523
(g3524
g3509
g3525
g3511
tp3700
Rp3701
(I1
(I6
I5
tp3702
g3531
I00
S'\x00\x00\x80@\x00\x00\xe0@\x00\x00@A\x00\x00\x90A\x00\x00\xd8A\x00\x00\x00\x00\x00\x000A\x00\x00pA\x00\x00\x98A\x00\x00\xc8A\x00\x00\x00@\x00\x00\x10A\x00\x00PA\x00\x00\xb8A\x00\x00\xe8A\x00\x00\xa0@\x00\x00 A\x00\x00\x80A\x00\x00\xa0A\x00\x00\xc0A\x00\x00@@\x00\x00\x00A\x00\x00\x88A\x00\x00\xa8A\x00\x00\xd0A\x00\x00\x80?\x00\x00\xc0@\x00\x00`A\x00\x00\xb0A\x00\x00\xe0A'
p3703
S'\x00\x00\x00\x00\x00\x00\x00\x00\x00\x00\x00\x00\x00\x00\x00\x00\x00\x00\x00\x00\x00\x00\x00\x00\x00\x00\x00\x00\x00\x00'
p3704
Ntp3705
bsg27
g3523
(g3524
g3509
g3525
g3511
tp3706
Rp3707
(I1
(I6
I5
tp3708
g3531
I00
S'@\xd7\xde>\xf0N\xce>\x00,\xa3>\x08\x1e\xf0>\xd0\xad\xe7>\x8c\xf0"?0\xd6\xd6>\x00-\xce> \x00\x81>8\xf5\x89>\xb0\x90\x15?p\xcf\x9a>\x90\x1e\x16?\xd0\xf1\x89>\x80\xdd\x88>\x98:\xdf>\x00\x9b\xa3>\x80\x00\x81>0\xed\xa3>@,\xac>\x98*\xef>hd\xce>\xc0\xbd`>(C\xbd>\x00R\x92> \xc8"?\x90o\xdf>0R?>t\x06\x1e?0\xb5\xb4>'
p3709
S'\x00\x00\x00\x00\x00\x00\x00\x00\x00\x00\x00\x00\x00\x00\x00\x00\x00\x00\x00\x00\x00\x00\x00\x00\x00\x00\x00\x00\x00\x00'
p3710
Ntp3711
bstp3712
Rp3713
(dp3714
g3584
(dp3715
g3522
I01
sg25
I00
sg26
I01
sg3570
I01
sg27
I01
ssg3586
g3677
sg3587
(lp3716
g3522
ag3570
ag25
ag26
ag27
asg3589
(lp3717
I6
aI5
asbsg3591
g3592
sg3593
g3508
(g3509
(I0
tp3718
g3511
tp3719
Rp3720
(I1
(I6
I5
tp3721
g76
I01
S'\x01\x00\x00\x00\x00\x00\x00\x00\x05\x00\x00\x00\x00\x00\x00\x00\x02\x00\x00\x00\x00\x00\x00\x00\x04\x00\x00\x00\x00\x00\x00\x00\x00\x00\x00\x00\x00\x00\x00\x00\x03\x00\x00\x00\x00\x00\x00\x00\x05\x00\x00\x00\x00\x00\x00\x00\x00\x00\x00\x00\x00\x00\x00\x00\x04\x00\x00\x00\x00\x00\x00\x00\x02\x00\x00\x00\x00\x00\x00\x00\x03\x00\x00\x00\x00\x00\x00\x00\x01\x00\x00\x00\x00\x00\x00\x00\x00\x00\x00\x00\x00\x00\x00\x00\x02\x00\x00\x00\x00\x00\x00\x00\x05\x00\x00\x00\x00\x00\x00\x00\x01\x00\x00\x00\x00\x00\x00\x00\x03\x00\x00\x00\x00\x00\x00\x00\x04\x00\x00\x00\x00\x00\x00\x00\x00\x00\x00\x00\x00\x00\x00\x00\x01\x00\x00\x00\x00\x00\x00\x00\x03\x00\x00\x00\x00\x00\x00\x00\x04\x00\x00\x00\x00\x00\x00\x00\x05\x00\x00\x00\x00\x00\x00\x00\x02\x00\x00\x00\x00\x00\x00\x00\x03\x00\x00\x00\x00\x00\x00\x00\x01\x00\x00\x00\x00\x00\x00\x00\x04\x00\x00\x00\x00\x00\x00\x00\x00\x00\x00\x00\x00\x00\x00\x00\x05\x00\x00\x00\x00\x00\x00\x00\x02\x00\x00\x00\x00\x00\x00\x00'
p3722
tp3723
bsg3600
I01
sg3601
I5
sg3602
I-1
sg3603
(lp3724
g0
(cpsychopy.data.trial
TrialType
p3725
g3506
(dp3726
g60
g195
sg61
g208
sg62
g198
sg63
g199
sg64
g99
sg65
g166
sg66
g101
sg67
g155
stp3727
Rp3728
ag0
(g3725
g3506
(dp3729
g60
g92
sg61
g111
sg62
g95
sg63
g96
sg64
g99
sg65
g116
sg66
g101
sg67
g102
stp3730
Rp3731
ag0
(g3725
g3506
(dp3732
g60
g146
sg61
g161
sg62
g149
sg63
g150
sg64
g153
sg65
g166
sg66
g101
sg67
g155
stp3733
Rp3734
ag0
(g3725
g3506
(dp3735
g60
g218
sg61
g231
sg62
g221
sg63
g222
sg64
g153
sg65
g116
sg66
g101
sg67
g102
stp3736
Rp3737
ag0
(g3725
g3506
(dp3738
g60
g172
sg61
g185
sg62
g175
sg63
g176
sg64
g129
sg65
g166
sg66
g101
sg67
g155
stp3739
Rp3740
ag0
(g3725
g3506
(dp3741
g60
g122
sg61
g136
sg62
g125
sg63
g126
sg64
g129
sg65
g116
sg66
g101
sg67
g102
stp3742
Rp3743
asg3605
Nsg3606
g547
sg3607
I30
sg3608
I0
sg3609
I30
sbag0
(g3494
g2
Ntp3744
Rp3745
(dp3746
g3498
Nsg3499
(lp3747
sg3501
I4575251664
sg11
S'trials_6'
p3748
sg6
I-1
sg3503
I5
sg32
I01
sg33
g34
sg3504
g0
(g3505
g3506
(dp3749
g3522
g3523
(g3524
g3509
g3525
g3511
tp3750
Rp3751
(I1
(I39
I5
tp3752
g3531
I00
S'\x00\x00\x80?\x00\x00\x80?\x00\x00\x80?\x00\x00\x80?\x00\x00\x80?\x00\x00\x80?\x00\x00\x80?\x00\x00\x80?\x00\x00\x80?\x00\x00\x80?\x00\x00\x80?\x00\x00\x80?\x00\x00\x80?\x00\x00\x80?\x00\x00\x80?\x00\x00\x80?\x00\x00\x80?\x00\x00\x80?\x00\x00\x80?\x00\x00\x80?\x00\x00\x80?\x00\x00\x80?\x00\x00\x80?\x00\x00\x80?\x00\x00\x80?\x00\x00\x80?\x00\x00\x80?\x00\x00\x80?\x00\x00\x80?\x00\x00\x80?\x00\x00\x80?\x00\x00\x80?\x00\x00\x80?\x00\x00\x80?\x00\x00\x80?\x00\x00\x80?\x00\x00\x80?\x00\x00\x80?\x00\x00\x80?\x00\x00\x80?\x00\x00\x80?\x00\x00\x80?\x00\x00\x80?\x00\x00\x80?\x00\x00\x80?\x00\x00\x80?\x00\x00\x80?\x00\x00\x80?\x00\x00\x80?\x00\x00\x80?\x00\x00\x80?\x00\x00\x80?\x00\x00\x80?\x00\x00\x80?\x00\x00\x80?\x00\x00\x80?\x00\x00\x80?\x00\x00\x80?\x00\x00\x80?\x00\x00\x80?\x00\x00\x80?\x00\x00\x80?\x00\x00\x80?\x00\x00\x80?\x00\x00\x80?\x00\x00\x80?\x00\x00\x80?\x00\x00\x80?\x00\x00\x80?\x00\x00\x80?\x00\x00\x80?\x00\x00\x80?\x00\x00\x80?\x00\x00\x80?\x00\x00\x80?\x00\x00\x80?\x00\x00\x80?\x00\x00\x80?\x00\x00\x80?\x00\x00\x80?\x00\x00\x80?\x00\x00\x80?\x00\x00\x80?\x00\x00\x80?\x00\x00\x80?\x00\x00\x80?\x00\x00\x80?\x00\x00\x80?\x00\x00\x80?\x00\x00\x80?\x00\x00\x80?\x00\x00\x80?\x00\x00\x80?\x00\x00\x80?\x00\x00\x80?\x00\x00\x80?\x00\x00\x80?\x00\x00\x80?\x00\x00\x80?\x00\x00\x80?\x00\x00\x80?\x00\x00\x80?\x00\x00\x80?\x00\x00\x80?\x00\x00\x80?\x00\x00\x80?\x00\x00\x80?\x00\x00\x80?\x00\x00\x80?\x00\x00\x80?\x00\x00\x80?\x00\x00\x80?\x00\x00\x80?\x00\x00\x80?\x00\x00\x80?\x00\x00\x80?\x00\x00\x80?\x00\x00\x80?\x00\x00\x80?\x00\x00\x80?\x00\x00\x80?\x00\x00\x80?\x00\x00\x80?\x00\x00\x80?\x00\x00\x80?\x00\x00\x80?\x00\x00\x80?\x00\x00\x80?\x00\x00\x80?\x00\x00\x80?\x00\x00\x80?\x00\x00\x80?\x00\x00\x80?\x00\x00\x80?\x00\x00\x80?\x00\x00\x80?\x00\x00\x80?\x00\x00\x80?\x00\x00\x80?\x00\x00\x80?\x00\x00\x80?\x00\x00\x80?\x00\x00\x80?\x00\x00\x80?\x00\x00\x80?\x00\x00\x80?\x00\x00\x80?\x00\x00\x80?\x00\x00\x80?\x00\x00\x80?\x00\x00\x80?\x00\x00\x80?\x00\x00\x80?\x00\x00\x80?\x00\x00\x80?\x00\x00\x80?\x00\x00\x80?\x00\x00\x80?\x00\x00\x80?\x00\x00\x80?\x00\x00\x80?\x00\x00\x80?\x00\x00\x80?\x00\x00\x80?\x00\x00\x80?\x00\x00\x80?\x00\x00\x80?\x00\x00\x80?\x00\x00\x80?\x00\x00\x80?\x00\x00\x80?\x00\x00\x80?\x00\x00\x80?\x00\x00\x80?\x00\x00\x80?\x00\x00\x80?\x00\x00\x80?\x00\x00\x80?\x00\x00\x80?\x00\x00\x80?\x00\x00\x80?\x00\x00\x80?\x00\x00\x80?\x00\x00\x80?\x00\x00\x80?\x00\x00\x80?\x00\x00\x80?\x00\x00\x80?\x00\x00\x80?\x00\x00\x80?\x00\x00\x80?\x00\x00\x80?\x00\x00\x80?\x00\x00\x80?\x00\x00\x80?'
p3753
S'\x00\x00\x00\x00\x00\x00\x00\x00\x00\x00\x00\x00\x00\x00\x00\x00\x00\x00\x00\x00\x00\x00\x00\x00\x00\x00\x00\x00\x00\x00\x00\x00\x00\x00\x00\x00\x00\x00\x00\x00\x00\x00\x00\x00\x00\x00\x00\x00\x00\x00\x00\x00\x00\x00\x00\x00\x00\x00\x00\x00\x00\x00\x00\x00\x00\x00\x00\x00\x00\x00\x00\x00\x00\x00\x00\x00\x00\x00\x00\x00\x00\x00\x00\x00\x00\x00\x00\x00\x00\x00\x00\x00\x00\x00\x00\x00\x00\x00\x00\x00\x00\x00\x00\x00\x00\x00\x00\x00\x00\x00\x00\x00\x00\x00\x00\x00\x00\x00\x00\x00\x00\x00\x00\x00\x00\x00\x00\x00\x00\x00\x00\x00\x00\x00\x00\x00\x00\x00\x00\x00\x00\x00\x00\x00\x00\x00\x00\x00\x00\x00\x00\x00\x00\x00\x00\x00\x00\x00\x00\x00\x00\x00\x00\x00\x00\x00\x00\x00\x00\x00\x00\x00\x00\x00\x00\x00\x00\x00\x00\x00\x00\x00\x00\x00\x00\x00\x00\x00\x00\x00\x00\x00\x00\x00\x00'
p3754
Ntp3755
bsg31
g3523
(g3524
g3509
g3525
g3511
tp3756
Rp3757
(I1
(I39
I5
tp3758
g3531
I00
S'\x9c\xfc&?\x9c)\x00?\x98\x1e\xac>\xf4g+?\xd0\xf1\x88>\xe6\x94\xa2?x\xf0\xf7?,\x87"?\x9a\xb5\xa6?\xc4\xf6b?$\xfd\x15?\x18^\xed?\xac\nt?\xa03\x81>\x80\x1e\x16?4\x878?X*\'?\x88,\xb3>HjM?\xaa\x0e\xab?\xee+\x8d?\xf0<\x11?8?\xce>\xf0\x02\xbc>\xa0\xa2^?\x0c!/?0\xb4\x1e?X\x06\t? \xcdH?\xf4\xd4\x86?8/\xce>>\xab\x84?v\x8d\x82?\x80\x06\x9b>8\x8d\x93?\x1ckk?\xe0]\xdf>`M\xce>\x84E\x8f?\xf8\xa5\x1e?\xf4G8?\x08\x00V?x\x87+?\xf2_\x02@0\xc0\xc5>X$\xce>\xb8!\xce>\xc4m\r?\x08\xc3\xf8>j\xd3\xa8?\x9cs\xa2?\xc0!8?\xe0(`>\xac\xf5Q?`\xeew?\xe4\xebj?\xac\xfdU?\xd8\xf2\x89>^\r\x9a?H\xe33?pu\xf0>\x00\x18\xe8>\xa0\xe9Q?F\xb6\xb3?\xf08>>\xc4a\r?8\xd0s?\x1em\xc2? S\xf0>\xc0G\xac>\x08\x0f\xf9>H\xc3\x19?\xcc\x1d\x05?\x84\xdc\x11?\x1c\x00\x05?\xa8\xaf\xd5?\xe4\x8f^?p\xc0\xe7>\xd2\xc8\x95?\x84\xe3"?\xa0\xe0\xea?\xbc\x08g?\xeat\x03@\x9e\x80\x82?\xff\xadF@\xa8w\r?\x88gI?(\xa3\x1e?\x90&Z?\xf2\xc8\xf3?\xe0U\xdf>X\xec\xc5>.\xcd\x95? \xbb/?\xa0\xa9\xd6>JG\x93?\x80\xf2\xe7>\xc4\xdd\x00?\xc0t+?\x00n^?\xd0\xaa\x1e?`\xe6\xab>p\xa1\xb4>\x8c\xc2\xa6?\xd8\xe6s?\xd0\xa2>>\x08\x06\xe8>0P\t>x\xbe\xd6>pU\x1a?\xe0\xc4\xf8>\xe8\xca@?~t\xc0?4I\x84?\\\xa2&?\x18\xcb\x11?\xac\xf73?(\xd3@?D\x03\x05?\xec\xc1\x00?Ho\x82?\xac\xe8\x99?\xb8p\xf0>l\xf2\x04?\xd8\xe4\x11?Lo+?\x18#\x80?\xba\xf6\x97?H\xc5/?@\xc0\xa3>\xd2;\xad?\xf0D8?x\xb9\xe7>\x10>\xa2?p\\\x1a?\x88\xc8Q?\xc4vk?D\x85\x1e?\xdcj\x1e?@\x99\xdf>x\xf6\xbc>H\xa4\xb4>\x9c\x90\x1e?@\xf5\xf8>\xd0\xff\xaa>\xa0\xfbp>\xb8\xd3\xc5>\xbc%8?\xb4.\x1a?@\x83->PO\xdf>\x98f\xa0?`\xd7\xe7>\xa0M\xe7>\x80F\x0b>\xf89\xde>l\x0e<?Tu+?\x10\xca\xab>\x80M\xd6>l\xeb{?>D\x8f? \x1a\t?\xa8\x04\x9a?\xb8\x00\xac>\xc4(x?\xcck\xef?h\x94\xd6>H\xa0M?\xd8\xe3\xc5>\xf0-.>\x94\xf9\xb9?p\xf1\xac?\xe8\x02\xd7>\x08\x1f\x9b>\xf4]\x1a?\xe4#I?$\xbf\x11?3\xbe(@ \x18\xce>\xb0\xd2\xcc>\xa8\x8co?R\x9c\x06@\xa8/\'?`\x1d>>X5\xf0>\x84\x9f\xa4?H\xc3\x92>\xf0wq>@m\xf4=\x14\xb6w?\xdcyk?X\xe5\x8a?Pe\xf0>\x8cS\t?'
p3759
S'\x00\x00\x00\x00\x00\x00\x00\x00\x00\x00\x00\x00\x00\x00\x00\x00\x00\x00\x00\x00\x00\x00\x00\x00\x00\x00\x00\x00\x00\x00\x00\x00\x00\x00\x00\x00\x00\x00\x00\x00\x00\x00\x00\x00\x00\x00\x00\x00\x00\x00\x00\x00\x00\x00\x00\x00\x00\x00\x00\x00\x00\x00\x00\x00\x00\x00\x00\x00\x00\x00\x00\x00\x00\x00\x00\x00\x00\x00\x00\x00\x00\x00\x00\x00\x00\x00\x00\x00\x00\x00\x00\x00\x00\x00\x00\x00\x00\x00\x00\x00\x00\x00\x00\x00\x00\x00\x00\x00\x00\x00\x00\x00\x00\x00\x00\x00\x00\x00\x00\x00\x00\x00\x00\x00\x00\x00\x00\x00\x00\x00\x00\x00\x00\x00\x00\x00\x00\x00\x00\x00\x00\x00\x00\x00\x00\x00\x00\x00\x00\x00\x00\x00\x00\x00\x00\x00\x00\x00\x00\x00\x00\x00\x00\x00\x00\x00\x00\x00\x00\x00\x00\x00\x00\x00\x00\x00\x00\x00\x00\x00\x00\x00\x00\x00\x00\x00\x00\x00\x00\x00\x00\x00\x00\x00\x00'
p3760
Ntp3761
bsg30
g3508
(g3509
(I0
tp3762
g3511
tp3763
Rp3764
(I1
(I39
I5
tp3765
g3517
I00
(lp3766
g599
ag1806
ag2157
ag2950
ag3028
ag900
ag1832
ag1988
ag2872
ag3197
ag1337
ag1481
ag2339
ag2703
ag3158
ag1130
ag1728
ag2105
ag2794
ag3457
ag1452
ag1689
ag2300
ag2521
ag3366
ag969
ag1923
ag2079
ag2911
ag3236
ag992
ag1663
ag2456
ag2534
ag3067
ag946
ag1598
ag2222
ag2755
ag3093
ag831
ag1624
ag2183
ag2599
ag3327
ag693
ag1767
ag2261
ag2573
ag3132
ag739
ag1546
ag2118
ag2833
ag3301
ag670
ag1949
ag2092
ag2664
ag3483
ag923
ag1702
ag2313
ag2508
ag3210
ag623
ag1897
ag2144
ag2742
ag3340
ag1107
ag1845
ag2287
ag2625
ag3184
ag1061
ag1715
ag2443
ag2846
ag3054
ag1084
ag1793
ag2352
ag2482
ag3080
ag561
ag1962
ag2417
ag2716
ag3171
ag1176
ag1650
ag2001
ag2820
ag3002
ag1245
ag1559
ag2430
ag2690
ag3314
ag1038
ag1468
ag2404
ag2560
ag3379
ag1406
ag1611
ag2209
ag2768
ag3119
ag1360
ag1754
ag2378
ag2586
ag3106
ag808
ag1871
ag2014
ag2885
ag3249
ag762
ag1520
ag2066
ag2781
ag3275
ag716
ag1741
ag2235
ag2651
ag3223
ag877
ag1910
ag2196
ag2807
ag2989
ag1015
ag1858
ag2053
ag2495
ag3145
ag1268
ag1507
ag2469
ag2924
ag3431
ag1291
ag1585
ag2131
ag2677
ag3041
ag647
ag1494
ag2040
ag2859
ag3405
ag1383
ag1676
ag2326
ag2937
ag3392
ag854
ag1533
ag2248
ag2638
ag3353
ag1153
ag1572
ag2027
ag2963
ag3288
ag1429
ag1637
ag2365
ag2898
ag3444
ag1314
ag1780
ag2170
ag2729
ag3470
ag1222
ag1936
ag1975
ag2547
ag3015
ag1199
ag1819
ag2274
ag2976
ag3418
ag785
ag1884
ag2391
ag2612
ag3262
atp3767
bsg3570
g3523
(g3524
g3509
g3525
g3511
tp3768
Rp3769
(I1
(I39
I5
tp3770
g3531
I00
S'\x00\x00\x80?\x00\x00\x82B\x00\x00\xb8B\x00\x00\x19C\x00\x00\x1fC\x00\x00`A\x00\x00\x86B\x00\x00\x9eB\x00\x00\x13C\x00\x00,C\x00\x00\x04B\x00\x00 B\x00\x00\xd4B\x00\x00\x06C\x00\x00)C\x00\x00\xc0A\x00\x00lB\x00\x00\xb0B\x00\x00\rC\x00\x00@C\x00\x00\x18B\x00\x00`B\x00\x00\xceB\x00\x00\xf0B\x00\x009C\x00\x00\x88A\x00\x00\x94B\x00\x00\xacB\x00\x00\x16C\x00\x00/C\x00\x00\x90A\x00\x00XB\x00\x00\xe6B\x00\x00\xf2B\x00\x00"C\x00\x00\x80A\x00\x00DB\x00\x00\xc2B\x00\x00\nC\x00\x00$C\x00\x000A\x00\x00LB\x00\x00\xbcB\x00\x00\xfcB\x00\x006C\x00\x00\xa0@\x00\x00xB\x00\x00\xc8B\x00\x00\xf8B\x00\x00\'C\x00\x00\xe0@\x00\x004B\x00\x00\xb2B\x00\x00\x10C\x00\x004C\x00\x00\x80@\x00\x00\x98B\x00\x00\xaeB\x00\x00\x03C\x00\x00BC\x00\x00pA\x00\x00dB\x00\x00\xd0B\x00\x00\xeeB\x00\x00-C\x00\x00\x00@\x00\x00\x90B\x00\x00\xb6B\x00\x00\tC\x00\x007C\x00\x00\xb8A\x00\x00\x88B\x00\x00\xccB\x00\x00\x00C\x00\x00+C\x00\x00\xa8A\x00\x00hB\x00\x00\xe4B\x00\x00\x11C\x00\x00!C\x00\x00\xb0A\x00\x00\x80B\x00\x00\xd6B\x00\x00\xeaB\x00\x00#C\x00\x00\x00\x00\x00\x00\x9aB\x00\x00\xe0B\x00\x00\x07C\x00\x00*C\x00\x00\xd0A\x00\x00TB\x00\x00\xa0B\x00\x00\x0fC\x00\x00\x1dC\x00\x00\xe8A\x00\x008B\x00\x00\xe2B\x00\x00\x05C\x00\x005C\x00\x00\xa0A\x00\x00\x1cB\x00\x00\xdeB\x00\x00\xf6B\x00\x00:C\x00\x00\x10B\x00\x00HB\x00\x00\xc0B\x00\x00\x0bC\x00\x00&C\x00\x00\x08B\x00\x00tB\x00\x00\xdaB\x00\x00\xfaB\x00\x00%C\x00\x00 A\x00\x00\x8cB\x00\x00\xa2B\x00\x00\x14C\x00\x000C\x00\x00\x00A\x00\x00,B\x00\x00\xaaB\x00\x00\x0cC\x00\x002C\x00\x00\xc0@\x00\x00pB\x00\x00\xc4B\x00\x00\x02C\x00\x00.C\x00\x00PA\x00\x00\x92B\x00\x00\xbeB\x00\x00\x0eC\x00\x00\x1cC\x00\x00\x98A\x00\x00\x8aB\x00\x00\xa8B\x00\x00\xecB\x00\x00(C\x00\x00\xf0A\x00\x00(B\x00\x00\xe8B\x00\x00\x17C\x00\x00>C\x00\x00\xf8A\x00\x00@B\x00\x00\xb4B\x00\x00\x04C\x00\x00 C\x00\x00@@\x00\x00$B\x00\x00\xa6B\x00\x00\x12C\x00\x00<C\x00\x00\x0cB\x00\x00\\B\x00\x00\xd2B\x00\x00\x18C\x00\x00;C\x00\x00@A\x00\x000B\x00\x00\xc6B\x00\x00\x01C\x00\x008C\x00\x00\xc8A\x00\x00<B\x00\x00\xa4B\x00\x00\x1aC\x00\x003C\x00\x00\x14B\x00\x00PB\x00\x00\xd8B\x00\x00\x15C\x00\x00?C\x00\x00\x00B\x00\x00|B\x00\x00\xbaB\x00\x00\x08C\x00\x00AC\x00\x00\xe0A\x00\x00\x96B\x00\x00\x9cB\x00\x00\xf4B\x00\x00\x1eC\x00\x00\xd8A\x00\x00\x84B\x00\x00\xcaB\x00\x00\x1bC\x00\x00=C\x00\x00\x10A\x00\x00\x8eB\x00\x00\xdcB\x00\x00\xfeB\x00\x001C'
p3771
S'\x00\x00\x00\x00\x00\x00\x00\x00\x00\x00\x00\x00\x00\x00\x00\x00\x00\x00\x00\x00\x00\x00\x00\x00\x00\x00\x00\x00\x00\x00\x00\x00\x00\x00\x00\x00\x00\x00\x00\x00\x00\x00\x00\x00\x00\x00\x00\x00\x00\x00\x00\x00\x00\x00\x00\x00\x00\x00\x00\x00\x00\x00\x00\x00\x00\x00\x00\x00\x00\x00\x00\x00\x00\x00\x00\x00\x00\x00\x00\x00\x00\x00\x00\x00\x00\x00\x00\x00\x00\x00\x00\x00\x00\x00\x00\x00\x00\x00\x00\x00\x00\x00\x00\x00\x00\x00\x00\x00\x00\x00\x00\x00\x00\x00\x00\x00\x00\x00\x00\x00\x00\x00\x00\x00\x00\x00\x00\x00\x00\x00\x00\x00\x00\x00\x00\x00\x00\x00\x00\x00\x00\x00\x00\x00\x00\x00\x00\x00\x00\x00\x00\x00\x00\x00\x00\x00\x00\x00\x00\x00\x00\x00\x00\x00\x00\x00\x00\x00\x00\x00\x00\x00\x00\x00\x00\x00\x00\x00\x00\x00\x00\x00\x00\x00\x00\x00\x00\x00\x00\x00\x00\x00\x00\x00\x00'
p3772
Ntp3773
bstp3774
Rp3775
(dp3776
g3584
(dp3777
g3522
I01
sg31
I01
sg30
I00
sg3570
I01
ssg3586
g3745
sg3587
(lp3778
g3522
ag3570
ag30
ag31
asg3589
(lp3779
I39
aI5
asbsg3591
g3592
sg3593
g3508
(g3509
(I0
tp3780
g3511
tp3781
Rp3782
(I1
(I39
I5
tp3783
g76
I01
S'\x11\x00\x00\x00\x00\x00\x00\x00\x00\x00\x00\x00\x00\x00\x00\x00\r\x00\x00\x00\x00\x00\x00\x00\x1e\x00\x00\x00\x00\x00\x00\x00\x0b\x00\x00\x00\x00\x00\x00\x00\t\x00\x00\x00\x00\x00\x00\x00\x19\x00\x00\x00\x00\x00\x00\x00\n\x00\x00\x00\x00\x00\x00\x00\x18\x00\x00\x00\x00\x00\x00\x00&\x00\x00\x00\x00\x00\x00\x00\x17\x00\x00\x00\x00\x00\x00\x00\x08\x00\x00\x00\x00\x00\x00\x00 \x00\x00\x00\x00\x00\x00\x00\x1a\x00\x00\x00\x00\x00\x00\x00\x01\x00\x00\x00\x00\x00\x00\x00\x0c\x00\x00\x00\x00\x00\x00\x00\x07\x00\x00\x00\x00\x00\x00\x00\x05\x00\x00\x00\x00\x00\x00\x00\x06\x00\x00\x00\x00\x00\x00\x00\x1b\x00\x00\x00\x00\x00\x00\x00\x14\x00\x00\x00\x00\x00\x00\x00\x0f\x00\x00\x00\x00\x00\x00\x00\x10\x00\x00\x00\x00\x00\x00\x00\x0e\x00\x00\x00\x00\x00\x00\x00\x03\x00\x00\x00\x00\x00\x00\x00!\x00\x00\x00\x00\x00\x00\x00\x12\x00\x00\x00\x00\x00\x00\x00%\x00\x00\x00\x00\x00\x00\x00$\x00\x00\x00\x00\x00\x00\x00\x13\x00\x00\x00\x00\x00\x00\x00\x1c\x00\x00\x00\x00\x00\x00\x00\x1d\x00\x00\x00\x00\x00\x00\x00#\x00\x00\x00\x00\x00\x00\x00\x02\x00\x00\x00\x00\x00\x00\x00\x16\x00\x00\x00\x00\x00\x00\x00\x1f\x00\x00\x00\x00\x00\x00\x00\x15\x00\x00\x00\x00\x00\x00\x00"\x00\x00\x00\x00\x00\x00\x00\x04\x00\x00\x00\x00\x00\x00\x00\x14\x00\x00\x00\x00\x00\x00\x00\x02\x00\x00\x00\x00\x00\x00\x00\x1e\x00\x00\x00\x00\x00\x00\x00\x1c\x00\x00\x00\x00\x00\x00\x00\x18\x00\x00\x00\x00\x00\x00\x00 \x00\x00\x00\x00\x00\x00\x00\n\x00\x00\x00\x00\x00\x00\x00\x13\x00\x00\x00\x00\x00\x00\x00!\x00\x00\x00\x00\x00\x00\x00\x1d\x00\x00\x00\x00\x00\x00\x00\x07\x00\x00\x00\x00\x00\x00\x00\x15\x00\x00\x00\x00\x00\x00\x00\x08\x00\x00\x00\x00\x00\x00\x00"\x00\x00\x00\x00\x00\x00\x00\x12\x00\x00\x00\x00\x00\x00\x00\x06\x00\x00\x00\x00\x00\x00\x00\x1f\x00\x00\x00\x00\x00\x00\x00\x04\x00\x00\x00\x00\x00\x00\x00\x0c\x00\x00\x00\x00\x00\x00\x00\x0f\x00\x00\x00\x00\x00\x00\x00\x03\x00\x00\x00\x00\x00\x00\x00\x19\x00\x00\x00\x00\x00\x00\x00\x16\x00\x00\x00\x00\x00\x00\x00\t\x00\x00\x00\x00\x00\x00\x00#\x00\x00\x00\x00\x00\x00\x00\x10\x00\x00\x00\x00\x00\x00\x00\x00\x00\x00\x00\x00\x00\x00\x00%\x00\x00\x00\x00\x00\x00\x00\x01\x00\x00\x00\x00\x00\x00\x00\x0e\x00\x00\x00\x00\x00\x00\x00\x1b\x00\x00\x00\x00\x00\x00\x00\x17\x00\x00\x00\x00\x00\x00\x00&\x00\x00\x00\x00\x00\x00\x00\r\x00\x00\x00\x00\x00\x00\x00\x1a\x00\x00\x00\x00\x00\x00\x00\x05\x00\x00\x00\x00\x00\x00\x00$\x00\x00\x00\x00\x00\x00\x00\x0b\x00\x00\x00\x00\x00\x00\x00\x11\x00\x00\x00\x00\x00\x00\x00$\x00\x00\x00\x00\x00\x00\x00\x01\x00\x00\x00\x00\x00\x00\x00\x12\x00\x00\x00\x00\x00\x00\x00\x17\x00\x00\x00\x00\x00\x00\x00!\x00\x00\x00\x00\x00\x00\x00\x1e\x00\x00\x00\x00\x00\x00\x00\x1b\x00\x00\x00\x00\x00\x00\x00\x18\x00\x00\x00\x00\x00\x00\x00\x05\x00\x00\x00\x00\x00\x00\x00\x0b\x00\x00\x00\x00\x00\x00\x00\x03\x00\x00\x00\x00\x00\x00\x00\n\x00\x00\x00\x00\x00\x00\x00\x1d\x00\x00\x00\x00\x00\x00\x00\r\x00\x00\x00\x00\x00\x00\x00\x00\x00\x00\x00\x00\x00\x00\x00#\x00\x00\x00\x00\x00\x00\x00\x08\x00\x00\x00\x00\x00\x00\x00\x1a\x00\x00\x00\x00\x00\x00\x00\x15\x00\x00\x00\x00\x00\x00\x00\x07\x00\x00\x00\x00\x00\x00\x00\x19\x00\x00\x00\x00\x00\x00\x00 \x00\x00\x00\x00\x00\x00\x00\t\x00\x00\x00\x00\x00\x00\x00%\x00\x00\x00\x00\x00\x00\x00\x0e\x00\x00\x00\x00\x00\x00\x00\x04\x00\x00\x00\x00\x00\x00\x00\x0c\x00\x00\x00\x00\x00\x00\x00\x1f\x00\x00\x00\x00\x00\x00\x00\x02\x00\x00\x00\x00\x00\x00\x00\x10\x00\x00\x00\x00\x00\x00\x00"\x00\x00\x00\x00\x00\x00\x00\x16\x00\x00\x00\x00\x00\x00\x00&\x00\x00\x00\x00\x00\x00\x00\x14\x00\x00\x00\x00\x00\x00\x00\x11\x00\x00\x00\x00\x00\x00\x00\x13\x00\x00\x00\x00\x00\x00\x00\x0f\x00\x00\x00\x00\x00\x00\x00\x06\x00\x00\x00\x00\x00\x00\x00\x1c\x00\x00\x00\x00\x00\x00\x00\x10\x00\x00\x00\x00\x00\x00\x00\x1b\x00\x00\x00\x00\x00\x00\x00\x0c\x00\x00\x00\x00\x00\x00\x00\x04\x00\x00\x00\x00\x00\x00\x00\x06\x00\x00\x00\x00\x00\x00\x00$\x00\x00\x00\x00\x00\x00\x00\x14\x00\x00\x00\x00\x00\x00\x00\t\x00\x00\x00\x00\x00\x00\x00\x16\x00\x00\x00\x00\x00\x00\x00\x08\x00\x00\x00\x00\x00\x00\x00&\x00\x00\x00\x00\x00\x00\x00\x0e\x00\x00\x00\x00\x00\x00\x00 \x00\x00\x00\x00\x00\x00\x00\x19\x00\x00\x00\x00\x00\x00\x00\x0b\x00\x00\x00\x00\x00\x00\x00\x1d\x00\x00\x00\x00\x00\x00\x00\x13\x00\x00\x00\x00\x00\x00\x00\x02\x00\x00\x00\x00\x00\x00\x00\x11\x00\x00\x00\x00\x00\x00\x00#\x00\x00\x00\x00\x00\x00\x00\r\x00\x00\x00\x00\x00\x00\x00\x07\x00\x00\x00\x00\x00\x00\x00\x15\x00\x00\x00\x00\x00\x00\x00\x18\x00\x00\x00\x00\x00\x00\x00\x03\x00\x00\x00\x00\x00\x00\x00\x1a\x00\x00\x00\x00\x00\x00\x00\x12\x00\x00\x00\x00\x00\x00\x00\n\x00\x00\x00\x00\x00\x00\x00\x0f\x00\x00\x00\x00\x00\x00\x00\x1e\x00\x00\x00\x00\x00\x00\x00\x01\x00\x00\x00\x00\x00\x00\x00\x17\x00\x00\x00\x00\x00\x00\x00"\x00\x00\x00\x00\x00\x00\x00\x05\x00\x00\x00\x00\x00\x00\x00\x1c\x00\x00\x00\x00\x00\x00\x00\x1f\x00\x00\x00\x00\x00\x00\x00\x00\x00\x00\x00\x00\x00\x00\x00!\x00\x00\x00\x00\x00\x00\x00%\x00\x00\x00\x00\x00\x00\x00\x1a\x00\x00\x00\x00\x00\x00\x00\x12\x00\x00\x00\x00\x00\x00\x00$\x00\x00\x00\x00\x00\x00\x00\x00\x00\x00\x00\x00\x00\x00\x00\x1d\x00\x00\x00\x00\x00\x00\x00\x0f\x00\x00\x00\x00\x00\x00\x00\x06\x00\x00\x00\x00\x00\x00\x00\x10\x00\x00\x00\x00\x00\x00\x00\x07\x00\x00\x00\x00\x00\x00\x00\x16\x00\x00\x00\x00\x00\x00\x00\x15\x00\x00\x00\x00\x00\x00\x00\t\x00\x00\x00\x00\x00\x00\x00\x1b\x00\x00\x00\x00\x00\x00\x00\x02\x00\x00\x00\x00\x00\x00\x00\x11\x00\x00\x00\x00\x00\x00\x00\x0e\x00\x00\x00\x00\x00\x00\x00\x01\x00\x00\x00\x00\x00\x00\x00\x0c\x00\x00\x00\x00\x00\x00\x00\x19\x00\x00\x00\x00\x00\x00\x00\x05\x00\x00\x00\x00\x00\x00\x00\x17\x00\x00\x00\x00\x00\x00\x00&\x00\x00\x00\x00\x00\x00\x00\x18\x00\x00\x00\x00\x00\x00\x00!\x00\x00\x00\x00\x00\x00\x00\n\x00\x00\x00\x00\x00\x00\x00\x13\x00\x00\x00\x00\x00\x00\x00\x08\x00\x00\x00\x00\x00\x00\x00\r\x00\x00\x00\x00\x00\x00\x00 \x00\x00\x00\x00\x00\x00\x00\x04\x00\x00\x00\x00\x00\x00\x00\x14\x00\x00\x00\x00\x00\x00\x00\x1f\x00\x00\x00\x00\x00\x00\x00\x1e\x00\x00\x00\x00\x00\x00\x00%\x00\x00\x00\x00\x00\x00\x00\x1c\x00\x00\x00\x00\x00\x00\x00"\x00\x00\x00\x00\x00\x00\x00\x03\x00\x00\x00\x00\x00\x00\x00#\x00\x00\x00\x00\x00\x00\x00\x0b\x00\x00\x00\x00\x00\x00\x00'
p3784
tp3785
bsg3600
I01
sg3601
I5
sg3602
I-1
sg3603
(lp3786
g0
(g3725
g3506
(dp3787
g567
g586
sg562
g99
sg551
g589
sg555
g602
sg578
g591
sg563
g564
sg565
g606
stp3788
Rp3789
ag0
(g3725
g3506
(dp3790
g567
g887
sg562
g99
sg551
g890
sg555
g903
sg578
g892
sg563
g564
sg565
g566
stp3791
Rp3792
ag0
(g3725
g3506
(dp3793
g567
g1324
sg562
g99
sg551
g1327
sg555
g1340
sg578
g1329
sg563
g564
sg565
g566
stp3794
Rp3795
ag0
(g3725
g3506
(dp3796
g567
g1117
sg562
g99
sg551
g1120
sg555
g1133
sg578
g1122
sg563
g564
sg565
g566
stp3797
Rp3798
ag0
(g3725
g3506
(dp3799
g567
g1439
sg562
g99
sg551
g1442
sg555
g1455
sg578
g1444
sg563
g564
sg565
g566
stp3800
Rp3801
ag0
(g3725
g3506
(dp3802
g567
g956
sg562
g99
sg551
g959
sg555
g972
sg578
g961
sg563
g564
sg565
g566
stp3803
Rp3804
ag0
(g3725
g3506
(dp3805
g567
g979
sg562
g99
sg551
g982
sg555
g995
sg578
g984
sg563
g564
sg565
g566
stp3806
Rp3807
ag0
(g3725
g3506
(dp3808
g567
g933
sg562
g99
sg551
g936
sg555
g949
sg578
g938
sg563
g564
sg565
g630
stp3809
Rp3810
ag0
(g3725
g3506
(dp3811
g567
g818
sg562
g99
sg551
g821
sg555
g834
sg578
g823
sg563
g564
sg565
g630
stp3812
Rp3813
ag0
(g3725
g3506
(dp3814
g567
g680
sg562
g99
sg551
g683
sg555
g696
sg578
g685
sg563
g564
sg565
g630
stp3815
Rp3816
ag0
(g3725
g3506
(dp3817
g567
g726
sg562
g99
sg551
g729
sg555
g742
sg578
g731
sg563
g564
sg565
g630
stp3818
Rp3819
ag0
(g3725
g3506
(dp3820
g567
g657
sg562
g99
sg551
g660
sg555
g673
sg578
g662
sg563
g564
sg565
g630
stp3821
Rp3822
ag0
(g3725
g3506
(dp3823
g567
g910
sg562
g99
sg551
g913
sg555
g926
sg578
g915
sg563
g564
sg565
g630
stp3824
Rp3825
ag0
(g3725
g3506
(dp3826
g567
g610
sg562
g99
sg551
g613
sg555
g626
sg578
g615
sg563
g564
sg565
g630
stp3827
Rp3828
ag0
(g3725
g3506
(dp3829
g567
g1094
sg562
g153
sg551
g1097
sg555
g1110
sg578
g1099
sg563
g564
sg565
g606
stp3830
Rp3831
ag0
(g3725
g3506
(dp3832
g567
g1048
sg562
g153
sg551
g1051
sg555
g1064
sg578
g1053
sg563
g564
sg565
g566
stp3833
Rp3834
ag0
(g3725
g3506
(dp3835
g567
g1071
sg562
g153
sg551
g1074
sg555
g1087
sg578
g1076
sg563
g564
sg565
g566
stp3836
Rp3837
ag0
(g3725
g3506
(dp3838
g567
g570
sg562
g153
sg551
g554
sg555
g558
sg578
g579
sg563
g564
sg565
g566
stp3839
Rp3840
ag0
(g3725
g3506
(dp3841
g567
g1163
sg562
g153
sg551
g1166
sg555
g1179
sg578
g1168
sg563
g564
sg565
g566
stp3842
Rp3843
ag0
(g3725
g3506
(dp3844
g567
g1232
sg562
g153
sg551
g1235
sg555
g1248
sg578
g1237
sg563
g564
sg565
g566
stp3845
Rp3846
ag0
(g3725
g3506
(dp3847
g567
g1025
sg562
g153
sg551
g1028
sg555
g1041
sg578
g1030
sg563
g564
sg565
g566
stp3848
Rp3849
ag0
(g3725
g3506
(dp3850
g567
g1393
sg562
g153
sg551
g1396
sg555
g1409
sg578
g1398
sg563
g564
sg565
g630
stp3851
Rp3852
ag0
(g3725
g3506
(dp3853
g567
g1347
sg562
g153
sg551
g1350
sg555
g1363
sg578
g1352
sg563
g564
sg565
g630
stp3854
Rp3855
ag0
(g3725
g3506
(dp3856
g567
g795
sg562
g153
sg551
g798
sg555
g811
sg578
g800
sg563
g564
sg565
g630
stp3857
Rp3858
ag0
(g3725
g3506
(dp3859
g567
g749
sg562
g153
sg551
g752
sg555
g765
sg578
g754
sg563
g564
sg565
g630
stp3860
Rp3861
ag0
(g3725
g3506
(dp3862
g567
g703
sg562
g153
sg551
g706
sg555
g719
sg578
g708
sg563
g564
sg565
g630
stp3863
Rp3864
ag0
(g3725
g3506
(dp3865
g567
g864
sg562
g153
sg551
g867
sg555
g880
sg578
g869
sg563
g564
sg565
g630
stp3866
Rp3867
ag0
(g3725
g3506
(dp3868
g567
g1002
sg562
g153
sg551
g1005
sg555
g1018
sg578
g1007
sg563
g564
sg565
g630
stp3869
Rp3870
ag0
(g3725
g3506
(dp3871
g567
g1255
sg562
g129
sg551
g1258
sg555
g1271
sg578
g1260
sg563
g564
sg565
g606
stp3872
Rp3873
ag0
(g3725
g3506
(dp3874
g567
g1278
sg562
g129
sg551
g1281
sg555
g1294
sg578
g1283
sg563
g564
sg565
g566
stp3875
Rp3876
ag0
(g3725
g3506
(dp3877
g567
g634
sg562
g129
sg551
g637
sg555
g650
sg578
g639
sg563
g564
sg565
g566
stp3878
Rp3879
ag0
(g3725
g3506
(dp3880
g567
g1370
sg562
g129
sg551
g1373
sg555
g1386
sg578
g1375
sg563
g564
sg565
g566
stp3881
Rp3882
ag0
(g3725
g3506
(dp3883
g567
g841
sg562
g129
sg551
g844
sg555
g857
sg578
g846
sg563
g564
sg565
g566
stp3884
Rp3885
ag0
(g3725
g3506
(dp3886
g567
g1140
sg562
g129
sg551
g1143
sg555
g1156
sg578
g1145
sg563
g564
sg565
g566
stp3887
Rp3888
ag0
(g3725
g3506
(dp3889
g567
g1416
sg562
g129
sg551
g1419
sg555
g1432
sg578
g1421
sg563
g564
sg565
g566
stp3890
Rp3891
ag0
(g3725
g3506
(dp3892
g567
g1301
sg562
g129
sg551
g1304
sg555
g1317
sg578
g1306
sg563
g564
sg565
g630
stp3893
Rp3894
ag0
(g3725
g3506
(dp3895
g567
g1209
sg562
g129
sg551
g1212
sg555
g1225
sg578
g1214
sg563
g564
sg565
g630
stp3896
Rp3897
ag0
(g3725
g3506
(dp3898
g567
g1186
sg562
g129
sg551
g1189
sg555
g1202
sg578
g1191
sg563
g564
sg565
g630
stp3899
Rp3900
ag0
(g3725
g3506
(dp3901
g567
g772
sg562
g129
sg551
g775
sg555
g788
sg578
g777
sg563
g564
sg565
g630
stp3902
Rp3903
asg3605
Nsg3606
g3481
sg3607
I195
sg3608
I0
sg3609
I195
sbasS'savePickle'
p3904
I00
sb.